# SymbolsHelper-Confirmed: 6.2.1 amd64
libQt6Bodymovin.so.6 libqt6bodymovin6 #MINVER#
* Build-Depends-Package: qt6-qtlottie-dev
 _ZN10BMRepeater16updatePropertiesEi@Base 6.2.1
 _ZN10BMRepeater9constructERK11QJsonObject@Base 6.2.1
 _ZN10BMRepeaterC1ERK11QJsonObjectP6BMBase@Base 6.2.1
 _ZN10BMRepeaterC2ERK11QJsonObjectP6BMBase@Base 6.2.1
 _ZN10BMTrimPath16updatePropertiesEi@Base 6.2.1
 _ZN10BMTrimPath9applyTrimERKS_@Base 6.2.1
 _ZN10BMTrimPath9constructERK11QJsonObject@Base 6.2.1
 _ZN10BMTrimPathC1ERK11QJsonObjectP6BMBase@Base 6.2.1
 _ZN10BMTrimPathC1ERKS_@Base 6.2.1
 _ZN10BMTrimPathC1Ev@Base 6.2.1
 _ZN10BMTrimPathC2ERK11QJsonObjectP6BMBase@Base 6.2.1
 _ZN10BMTrimPathC2ERKS_@Base 6.2.1
 _ZN10BMTrimPathC2Ev@Base 6.2.1
 _ZN12BMFillEffect16updatePropertiesEi@Base 6.2.1
 _ZN12BMFillEffect9constructERK11QJsonObject@Base 6.2.1
 _ZN12BMFillEffectC1ERKS_@Base 6.2.1
 _ZN12BMFillEffectC2ERKS_@Base 6.2.1
 _ZN12BMImageLayer16updatePropertiesEi@Base 6.2.1
 _ZN12BMImageLayerC1ERK11QJsonObject@Base 6.2.1
 _ZN12BMImageLayerC1ERKS_@Base 6.2.1
 _ZN12BMImageLayerC2ERK11QJsonObject@Base 6.2.1
 _ZN12BMImageLayerC2ERKS_@Base 6.2.1
 _ZN12BMImageLayerD0Ev@Base 6.2.1
 _ZN12BMImageLayerD1Ev@Base 6.2.1
 _ZN12BMImageLayerD2Ev@Base 6.2.1
 _ZN12BMShapeLayer16updatePropertiesEi@Base 6.2.1
 _ZN12BMShapeLayerC1ERK11QJsonObject@Base 6.2.1
 _ZN12BMShapeLayerC1ERKS_@Base 6.2.1
 _ZN12BMShapeLayerC2ERK11QJsonObject@Base 6.2.1
 _ZN12BMShapeLayerC2ERKS_@Base 6.2.1
 _ZN12BMShapeLayerD0Ev@Base 6.2.1
 _ZN12BMShapeLayerD1Ev@Base 6.2.1
 _ZN12BMShapeLayerD2Ev@Base 6.2.1
 _ZN13BMPathTrimmer16updatePropertiesEi@Base 6.2.1
 _ZN13BMPathTrimmer7addTrimEP10BMTrimPath@Base 6.2.1
 _ZN13BMPathTrimmer9applyTrimEP7BMShape@Base 6.2.1
 _ZN13BMPathTrimmerC1EP6BMBase@Base 6.2.1
 _ZN13BMPathTrimmerC2EP6BMBase@Base 6.2.1
 _ZN14LottieRenderer16setTrimmingStateENS_13TrimmingStateE@Base 6.2.1
 _ZN14LottieRenderer17saveTrimmingStateEv@Base 6.2.1
 _ZN14LottieRenderer20restoreTrimmingStateEv@Base 6.2.1
 _ZN15BMFreeFormShape10buildShapeERK11QJsonObject@Base 6.2.1
 _ZN15BMFreeFormShape10buildShapeEi@Base 6.2.1
 _ZN15BMFreeFormShape14createKeyframeE10QJsonArrayS0_i11QJsonObjectS1_@Base 6.2.1
 _ZN15BMFreeFormShape16finalizeVerticesEv@Base 6.2.1
 _ZN15BMFreeFormShape16updatePropertiesEi@Base 6.2.1
 _ZN15BMFreeFormShape18parseEasedVerticesERK11QJsonObjecti@Base 6.2.1
 _ZN15BMFreeFormShape19parseShapeKeyframesER11QJsonObject@Base 6.2.1
 _ZN15BMFreeFormShape9constructERK11QJsonObject@Base 6.2.1
 _ZN15BMFreeFormShapeC1ERK11QJsonObjectP6BMBase@Base 6.2.1
 _ZN15BMFreeFormShapeC1ERKS_@Base 6.2.1
 _ZN15BMFreeFormShapeC1Ev@Base 6.2.1
 _ZN15BMFreeFormShapeC2ERK11QJsonObjectP6BMBase@Base 6.2.1
 _ZN15BMFreeFormShapeC2ERKS_@Base 6.2.1
 _ZN15BMFreeFormShapeC2Ev@Base 6.2.1
 _ZN16BMBasicTransform16updatePropertiesEi@Base 6.2.1
 _ZN16BMBasicTransform9constructERK11QJsonObject@Base 6.2.1
 _ZN16BMBasicTransformC1ERK11QJsonObjectP6BMBase@Base 6.2.1
 _ZN16BMBasicTransformC1ERKS_@Base 6.2.1
 _ZN16BMBasicTransformC2ERK11QJsonObjectP6BMBase@Base 6.2.1
 _ZN16BMBasicTransformC2ERKS_@Base 6.2.1
 _ZN16BMShapeTransform16updatePropertiesEi@Base 6.2.1
 _ZN16BMShapeTransform9constructERK11QJsonObject@Base 6.2.1
 _ZN16BMShapeTransformC1ERK11QJsonObjectP6BMBase@Base 6.2.1
 _ZN16BMShapeTransformC1ERKS_@Base 6.2.1
 _ZN16BMShapeTransformC2ERK11QJsonObjectP6BMBase@Base 6.2.1
 _ZN16BMShapeTransformC2ERKS_@Base 6.2.1
 _ZN19BMRepeaterTransform16setInstanceCountEi@Base 6.2.1
 _ZN19BMRepeaterTransform16updatePropertiesEi@Base 6.2.1
 _ZN19BMRepeaterTransform9constructERK11QJsonObject@Base 6.2.1
 _ZN19BMRepeaterTransformC1ERK11QJsonObjectP6BMBase@Base 6.2.1
 _ZN19BMRepeaterTransformC1ERKS_@Base 6.2.1
 _ZN19BMRepeaterTransformC2ERK11QJsonObjectP6BMBase@Base 6.2.1
 _ZN19BMRepeaterTransformC2ERKS_@Base 6.2.1
 _ZN6BMBase11appendChildEPS_@Base 6.2.1
 _ZN6BMBase11setPropertyEN9BMLiteral12PropertyTypeE8QVariant@Base 6.2.1
 _ZN6BMBase12prependChildEPS_@Base 6.2.1
 _ZN6BMBase14resolveTopRootEv@Base 6.2.1
 _ZN6BMBase16updatePropertiesEi@Base 6.2.1
 _ZN6BMBase17resolveExpressionERK11QJsonObject@Base 6.2.1
 _ZN6BMBase5parseERK11QJsonObject@Base 6.2.1
 _ZN6BMBase7setNameERK7QString@Base 6.2.1
 _ZN6BMBase7setTypeEi@Base 6.2.1
 _ZN6BMBase9findChildERK7QString@Base 6.2.1
 _ZN6BMBase9setParentEPS_@Base 6.2.1
 _ZN6BMBaseC1ERKS_@Base 6.2.1
 _ZN6BMBaseC2ERKS_@Base 6.2.1
 _ZN6BMBaseD0Ev@Base 6.2.1
 _ZN6BMBaseD1Ev@Base 6.2.1
 _ZN6BMBaseD2Ev@Base 6.2.1
 _ZN6BMFill16updatePropertiesEi@Base 6.2.1
 _ZN6BMFillC1ERK11QJsonObjectP6BMBase@Base 6.2.1
 _ZN6BMFillC1ERKS_@Base 6.2.1
 _ZN6BMFillC2ERK11QJsonObjectP6BMBase@Base 6.2.1
 _ZN6BMFillC2ERKS_@Base 6.2.1
 _ZN6BMRect11setPropertyEN9BMLiteral12PropertyTypeE8QVariant@Base 6.2.1
 _ZN6BMRect16updatePropertiesEi@Base 6.2.1
 _ZN6BMRectC1ERK11QJsonObjectP6BMBase@Base 6.2.1
 _ZN6BMRectC1ERKS_@Base 6.2.1
 _ZN6BMRectC2ERK11QJsonObjectP6BMBase@Base 6.2.1
 _ZN6BMRectC2ERKS_@Base 6.2.1
 _ZN7BMGFill11setGradientEv@Base 6.2.1
 _ZN7BMGFill16updatePropertiesEi@Base 6.2.1
 _ZN7BMGFillC1ERK11QJsonObjectP6BMBase@Base 6.2.1
 _ZN7BMGFillC1ERKS_@Base 6.2.1
 _ZN7BMGFillC2ERK11QJsonObjectP6BMBase@Base 6.2.1
 _ZN7BMGFillC2ERKS_@Base 6.2.1
 _ZN7BMGFillD0Ev@Base 6.2.1
 _ZN7BMGFillD1Ev@Base 6.2.1
 _ZN7BMGFillD2Ev@Base 6.2.1
 _ZN7BMGroup16updatePropertiesEi@Base 6.2.1
 _ZN7BMGroup9applyTrimERK10BMTrimPath@Base 6.2.1
 _ZN7BMGroup9constructERK11QJsonObject@Base 6.2.1
 _ZN7BMGroupC1ERK11QJsonObjectP6BMBase@Base 6.2.1
 _ZN7BMGroupC2ERK11QJsonObjectP6BMBase@Base 6.2.1
 _ZN7BMImage16updatePropertiesEi@Base 6.2.1
 _ZN7BMImage9constructERK11QJsonObject@Base 6.2.1
 _ZN7BMImageC1ERK11QJsonObjectP6BMBase@Base 6.2.1
 _ZN7BMImageC1ERKS_@Base 6.2.1
 _ZN7BMImageC2ERK11QJsonObjectP6BMBase@Base 6.2.1
 _ZN7BMImageC2ERKS_@Base 6.2.1
 _ZN7BMLayer12parseEffectsERK10QJsonArrayP6BMBase@Base 6.2.1
 _ZN7BMLayer16updatePropertiesEi@Base 6.2.1
 _ZN7BMLayer18resolveLinkedLayerEv@Base 6.2.1
 _ZN7BMLayer5parseERK11QJsonObject@Base 6.2.1
 _ZN7BMLayer9constructE11QJsonObject@Base 6.2.1
 _ZN7BMLayer9findChildERK7QString@Base 6.2.1
 _ZN7BMLayerC1ERKS_@Base 6.2.1
 _ZN7BMLayerC2ERKS_@Base 6.2.1
 _ZN7BMLayerD0Ev@Base 6.2.1
 _ZN7BMLayerD1Ev@Base 6.2.1
 _ZN7BMLayerD2Ev@Base 6.2.1
 _ZN7BMRound16updatePropertiesEi@Base 6.2.1
 _ZN7BMRound9constructERK11QJsonObject@Base 6.2.1
 _ZN7BMRoundC1ERK11QJsonObjectP6BMBase@Base 6.2.1
 _ZN7BMRoundC1ERKS_@Base 6.2.1
 _ZN7BMRoundC2ERK11QJsonObjectP6BMBase@Base 6.2.1
 _ZN7BMRoundC2ERKS_@Base 6.2.1
 _ZN7BMShape9applyTrimERK10BMTrimPath@Base 6.2.1
 _ZN7BMShape9constructE11QJsonObjectP6BMBase@Base 6.2.1
 _ZN7BMShapeC1ERKS_@Base 6.2.1
 _ZN7BMShapeC2ERKS_@Base 6.2.1
 _ZN8BMStroke16updatePropertiesEi@Base 6.2.1
 _ZN8BMStrokeC1ERK11QJsonObjectP6BMBase@Base 6.2.1
 _ZN8BMStrokeC1ERKS_@Base 6.2.1
 _ZN8BMStrokeC2ERK11QJsonObjectP6BMBase@Base 6.2.1
 _ZN8BMStrokeC2ERKS_@Base 6.2.1
 _ZN9BMEllipse16updatePropertiesEi@Base 6.2.1
 _ZN9BMEllipse9constructERK11QJsonObject@Base 6.2.1
 _ZN9BMEllipseC1ERK11QJsonObjectP6BMBase@Base 6.2.1
 _ZN9BMEllipseC1ERKS_@Base 6.2.1
 _ZN9BMEllipseC2ERK11QJsonObjectP6BMBase@Base 6.2.1
 _ZN9BMEllipseC2ERKS_@Base 6.2.1
 _ZN9BMLiteral11qt_metacallEN11QMetaObject4CallEiPPv@Base 6.2.1
 _ZN9BMLiteral11qt_metacastEPKc@Base 6.2.1
 _ZN9BMLiteral16staticMetaObjectE@Base 6.2.1
 _ZNK10BMRepeater5cloneEv@Base 6.2.1
 _ZNK10BMRepeater6copiesEv@Base 6.2.1
 _ZNK10BMRepeater6offsetEv@Base 6.2.1
 _ZNK10BMRepeater6renderER14LottieRenderer@Base 6.2.1
 _ZNK10BMRepeater9transformEv@Base 6.2.1
 _ZNK10BMTrimPath11acceptsTrimEv@Base 6.2.1
 _ZNK10BMTrimPath12simultaneousEv@Base 6.2.1
 _ZNK10BMTrimPath3endEv@Base 6.2.1
 _ZNK10BMTrimPath4trimERK12QPainterPath@Base 6.2.1
 _ZNK10BMTrimPath5cloneEv@Base 6.2.1
 _ZNK10BMTrimPath5startEv@Base 6.2.1
 _ZNK10BMTrimPath6offsetEv@Base 6.2.1
 _ZNK10BMTrimPath6renderER14LottieRenderer@Base 6.2.1
 _ZNK12BMFillEffect5cloneEv@Base 6.2.1
 _ZNK12BMFillEffect5colorEv@Base 6.2.1
 _ZNK12BMFillEffect6renderER14LottieRenderer@Base 6.2.1
 _ZNK12BMFillEffect7opacityEv@Base 6.2.1
 _ZNK12BMImageLayer5cloneEv@Base 6.2.1
 _ZNK12BMImageLayer6renderER14LottieRenderer@Base 6.2.1
 _ZNK12BMShapeLayer5cloneEv@Base 6.2.1
 _ZNK12BMShapeLayer6renderER14LottieRenderer@Base 6.2.1
 _ZNK13BMPathTrimmer5inUseEv@Base 6.2.1
 _ZNK13BMPathTrimmer6renderER14LottieRenderer@Base 6.2.1
 _ZNK14LottieRenderer13trimmingStateEv@Base 6.2.1
 _ZNK15BMFreeFormShape11acceptsTrimEv@Base 6.2.1
 _ZNK15BMFreeFormShape5cloneEv@Base 6.2.1
 _ZNK15BMFreeFormShape6renderER14LottieRenderer@Base 6.2.1
 _ZNK16BMBasicTransform11anchorPointEv@Base 6.2.1
 _ZNK16BMBasicTransform5cloneEv@Base 6.2.1
 _ZNK16BMBasicTransform5scaleEv@Base 6.2.1
 _ZNK16BMBasicTransform6renderER14LottieRenderer@Base 6.2.1
 _ZNK16BMBasicTransform7opacityEv@Base 6.2.1
 _ZNK16BMBasicTransform8positionEv@Base 6.2.1
 _ZNK16BMBasicTransform8rotationEv@Base 6.2.1
 _ZNK16BMShapeTransform10shearAngleEv@Base 6.2.1
 _ZNK16BMShapeTransform4skewEv@Base 6.2.1
 _ZNK16BMShapeTransform5cloneEv@Base 6.2.1
 _ZNK16BMShapeTransform6renderER14LottieRenderer@Base 6.2.1
 _ZNK16BMShapeTransform6shearXEv@Base 6.2.1
 _ZNK16BMShapeTransform6shearYEv@Base 6.2.1
 _ZNK16BMShapeTransform8skewAxisEv@Base 6.2.1
 _ZNK19BMRepeaterTransform10endOpacityEv@Base 6.2.1
 _ZNK19BMRepeaterTransform12startOpacityEv@Base 6.2.1
 _ZNK19BMRepeaterTransform17opacityAtInstanceEi@Base 6.2.1
 _ZNK19BMRepeaterTransform5cloneEv@Base 6.2.1
 _ZNK19BMRepeaterTransform6renderER14LottieRenderer@Base 6.2.1
 _ZNK6BMBase10definitionEv@Base 6.2.1
 _ZNK6BMBase4nameEv@Base 6.2.1
 _ZNK6BMBase4typeEv@Base 6.2.1
 _ZNK6BMBase5cloneEv@Base 6.2.1
 _ZNK6BMBase6activeEi@Base 6.2.1
 _ZNK6BMBase6hiddenEv@Base 6.2.1
 _ZNK6BMBase6renderER14LottieRenderer@Base 6.2.1
 _ZNK6BMBase7topRootEv@Base 6.2.1
 _ZNK6BMFill5cloneEv@Base 6.2.1
 _ZNK6BMFill5colorEv@Base 6.2.1
 _ZNK6BMFill6renderER14LottieRenderer@Base 6.2.1
 _ZNK6BMFill7opacityEv@Base 6.2.1
 _ZNK6BMRect11acceptsTrimEv@Base 6.2.1
 _ZNK6BMRect4sizeEv@Base 6.2.1
 _ZNK6BMRect5cloneEv@Base 6.2.1
 _ZNK6BMRect6renderER14LottieRenderer@Base 6.2.1
 _ZNK6BMRect8positionEv@Base 6.2.1
 _ZNK6BMRect9roundnessEv@Base 6.2.1
 _ZNK7BMGFill10startPointEv@Base 6.2.1
 _ZNK7BMGFill12gradientTypeEv@Base 6.2.1
 _ZNK7BMGFill14highlightAngleEv@Base 6.2.1
 _ZNK7BMGFill15highlightLengthEv@Base 6.2.1
 _ZNK7BMGFill5cloneEv@Base 6.2.1
 _ZNK7BMGFill5valueEv@Base 6.2.1
 _ZNK7BMGFill6renderER14LottieRenderer@Base 6.2.1
 _ZNK7BMGFill7opacityEv@Base 6.2.1
 _ZNK7BMGFill8endPointEv@Base 6.2.1
 _ZNK7BMGroup11acceptsTrimEv@Base 6.2.1
 _ZNK7BMGroup5cloneEv@Base 6.2.1
 _ZNK7BMGroup6renderER14LottieRenderer@Base 6.2.1
 _ZNK7BMImage5cloneEv@Base 6.2.1
 _ZNK7BMImage6radiusEv@Base 6.2.1
 _ZNK7BMImage6renderER14LottieRenderer@Base 6.2.1
 _ZNK7BMImage8positionEv@Base 6.2.1
 _ZNK7BMLayer11isMaskLayerEv@Base 6.2.1
 _ZNK7BMLayer11linkedLayerEv@Base 6.2.1
 _ZNK7BMLayer13renderEffectsER14LottieRenderer@Base 6.2.1
 _ZNK7BMLayer14isClippedLayerEv@Base 6.2.1
 _ZNK7BMLayer5cloneEv@Base 6.2.1
 _ZNK7BMLayer6activeEi@Base 6.2.1
 _ZNK7BMLayer6renderER14LottieRenderer@Base 6.2.1
 _ZNK7BMLayer7layerIdEv@Base 6.2.1
 _ZNK7BMLayer8clipModeEv@Base 6.2.1
 _ZNK7BMLayer9transformEv@Base 6.2.1
 _ZNK7BMRound11acceptsTrimEv@Base 6.2.1
 _ZNK7BMRound5cloneEv@Base 6.2.1
 _ZNK7BMRound6radiusEv@Base 6.2.1
 _ZNK7BMRound6renderER14LottieRenderer@Base 6.2.1
 _ZNK7BMRound8positionEv@Base 6.2.1
 _ZNK7BMShape11acceptsTrimEv@Base 6.2.1
 _ZNK7BMShape4pathEv@Base 6.2.1
 _ZNK7BMShape5cloneEv@Base 6.2.1
 _ZNK7BMShape9directionEv@Base 6.2.1
 _ZNK8BMStroke3penEv@Base 6.2.1
 _ZNK8BMStroke5cloneEv@Base 6.2.1
 _ZNK8BMStroke6renderER14LottieRenderer@Base 6.2.1
 _ZNK8BMStroke7opacityEv@Base 6.2.1
 _ZNK8BMStroke8getColorEv@Base 6.2.1
 _ZNK9BMEllipse11acceptsTrimEv@Base 6.2.1
 _ZNK9BMEllipse4sizeEv@Base 6.2.1
 _ZNK9BMEllipse5cloneEv@Base 6.2.1
 _ZNK9BMEllipse6renderER14LottieRenderer@Base 6.2.1
 _ZNK9BMEllipse8positionEv@Base 6.2.1
 _ZNK9BMLiteral10metaObjectEv@Base 6.2.1
 (optional=templinst)_ZNSt8_Rb_treeIiSt4pairIKiPN15BMFreeFormShape15VertexBuildInfoEESt10_Select1stIS5_ESt4lessIiESaIS5_EE24_M_get_insert_unique_posERS1_@Base 6.2.1
 (optional=templinst)_ZNSt8_Rb_treeIiSt4pairIKiPN15BMFreeFormShape15VertexBuildInfoEESt10_Select1stIS5_ESt4lessIiESaIS5_EE29_M_get_insert_hint_unique_posESt23_Rb_tree_const_iteratorIS5_ERS1_@Base 6.2.1
 (optional=templinst)_ZNSt8_Rb_treeIiSt4pairIKibESt10_Select1stIS2_ESt4lessIiESaIS2_EE24_M_get_insert_unique_posERS1_@Base 6.2.1
 (optional=templinst)_ZNSt8_Rb_treeIiSt4pairIKibESt10_Select1stIS2_ESt4lessIiESaIS2_EE29_M_get_insert_hint_unique_posESt23_Rb_tree_const_iteratorIS2_ERS1_@Base 6.2.1
 _ZTI10BMPropertyI6QSizeFE@Base 6.2.1
 _ZTI10BMPropertyIdE@Base 6.2.1
 _ZTI10BMPropertyIiE@Base 6.2.1
 _ZTI10BMRepeater@Base 6.2.1
 _ZTI10BMTrimPath@Base 6.2.1
 _ZTI12BMFillEffect@Base 6.2.1
 _ZTI12BMImageLayer@Base 6.2.1
 _ZTI12BMProperty2DI6QSizeFE@Base 6.2.1
 _ZTI12BMShapeLayer@Base 6.2.1
 _ZTI14LottieRenderer@Base 6.2.1
 _ZTI15BMFreeFormShape@Base 6.2.1
 _ZTI16BMBasicTransform@Base 6.2.1
 _ZTI16BMShapeTransform@Base 6.2.1
 _ZTI19BMRepeaterTransform@Base 6.2.1
 _ZTI6BMBase@Base 6.2.1
 _ZTI6BMFill@Base 6.2.1
 _ZTI6BMRect@Base 6.2.1
 _ZTI7BMGFill@Base 6.2.1
 _ZTI7BMGroup@Base 6.2.1
 _ZTI7BMImage@Base 6.2.1
 _ZTI7BMLayer@Base 6.2.1
 _ZTI7BMRound@Base 6.2.1
 _ZTI7BMShape@Base 6.2.1
 _ZTI8BMStroke@Base 6.2.1
 _ZTI9BMEllipse@Base 6.2.1
 _ZTI9BMLiteral@Base 6.2.1
 _ZTS10BMPropertyI6QSizeFE@Base 6.2.1
 _ZTS10BMPropertyIdE@Base 6.2.1
 _ZTS10BMPropertyIiE@Base 6.2.1
 _ZTS10BMRepeater@Base 6.2.1
 _ZTS10BMTrimPath@Base 6.2.1
 _ZTS12BMFillEffect@Base 6.2.1
 _ZTS12BMImageLayer@Base 6.2.1
 _ZTS12BMProperty2DI6QSizeFE@Base 6.2.1
 _ZTS12BMShapeLayer@Base 6.2.1
 _ZTS14LottieRenderer@Base 6.2.1
 _ZTS15BMFreeFormShape@Base 6.2.1
 _ZTS16BMBasicTransform@Base 6.2.1
 _ZTS16BMShapeTransform@Base 6.2.1
 _ZTS19BMRepeaterTransform@Base 6.2.1
 _ZTS6BMBase@Base 6.2.1
 _ZTS6BMFill@Base 6.2.1
 _ZTS6BMRect@Base 6.2.1
 _ZTS7BMGFill@Base 6.2.1
 _ZTS7BMGroup@Base 6.2.1
 _ZTS7BMImage@Base 6.2.1
 _ZTS7BMLayer@Base 6.2.1
 _ZTS7BMRound@Base 6.2.1
 _ZTS7BMShape@Base 6.2.1
 _ZTS8BMStroke@Base 6.2.1
 _ZTS9BMEllipse@Base 6.2.1
 _ZTS9BMLiteral@Base 6.2.1
 _ZTV10BMPropertyI6QSizeFE@Base 6.2.1
 _ZTV10BMPropertyIdE@Base 6.2.1
 _ZTV10BMPropertyIiE@Base 6.2.1
 _ZTV10BMRepeater@Base 6.2.1
 _ZTV10BMTrimPath@Base 6.2.1
 _ZTV12BMFillEffect@Base 6.2.1
 _ZTV12BMImageLayer@Base 6.2.1
 _ZTV12BMProperty2DI6QSizeFE@Base 6.2.1
 _ZTV12BMShapeLayer@Base 6.2.1
 _ZTV14LottieRenderer@Base 6.2.1
 _ZTV15BMFreeFormShape@Base 6.2.1
 _ZTV16BMBasicTransform@Base 6.2.1
 _ZTV16BMShapeTransform@Base 6.2.1
 _ZTV19BMRepeaterTransform@Base 6.2.1
 _ZTV6BMBase@Base 6.2.1
 _ZTV6BMFill@Base 6.2.1
 _ZTV6BMRect@Base 6.2.1
 _ZTV7BMGFill@Base 6.2.1
 _ZTV7BMGroup@Base 6.2.1
 _ZTV7BMImage@Base 6.2.1
 _ZTV7BMLayer@Base 6.2.1
 _ZTV7BMRound@Base 6.2.1
 _ZTV7BMShape@Base 6.2.1
 _ZTV8BMStroke@Base 6.2.1
 _ZTV9BMEllipse@Base 6.2.1
 _ZTV9BMLiteral@Base 6.2.1
 (optional=templinst)_ZZN9QtPrivate16QMetaTypeForTypeI6QSizeFE10getCopyCtrEvENUlPKNS_18QMetaTypeInterfaceEPvPKvE_4_FUNES5_S6_S8_@Base 6.2.1
 (optional=templinst)_ZZN9QtPrivate16QMetaTypeForTypeI6QSizeFE10getMoveCtrEvENUlPKNS_18QMetaTypeInterfaceEPvS6_E_4_FUNES5_S6_S6_@Base 6.2.1
 (optional=templinst)_ZZN9QtPrivate16QMetaTypeForTypeI6QSizeFE13getDefaultCtrEvENUlPKNS_18QMetaTypeInterfaceEPvE_4_FUNES5_S6_@Base 6.2.1
 (optional=templinst)_ZZN9QtPrivate16QMetaTypeForTypeI7QPointFE10getCopyCtrEvENUlPKNS_18QMetaTypeInterfaceEPvPKvE_4_FUNES5_S6_S8_@Base 6.2.1
 (optional=templinst)_ZZN9QtPrivate16QMetaTypeForTypeI7QPointFE10getMoveCtrEvENUlPKNS_18QMetaTypeInterfaceEPvS6_E_4_FUNES5_S6_S6_@Base 6.2.1
 (optional=templinst)_ZZN9QtPrivate16QMetaTypeForTypeI7QPointFE13getDefaultCtrEvENUlPKNS_18QMetaTypeInterfaceEPvE_4_FUNES5_S6_@Base 6.2.1
 (optional=templinst)_ZZN9QtPrivate16QMetaTypeForTypeIdE10getCopyCtrEvENUlPKNS_18QMetaTypeInterfaceEPvPKvE_4_FUNES4_S5_S7_@Base 6.2.1
 (optional=templinst)_ZZN9QtPrivate16QMetaTypeForTypeIdE10getMoveCtrEvENUlPKNS_18QMetaTypeInterfaceEPvS5_E_4_FUNES4_S5_S5_@Base 6.2.1
 (optional=templinst)_ZZN9QtPrivate16QMetaTypeForTypeIdE13getDefaultCtrEvENUlPKNS_18QMetaTypeInterfaceEPvE_4_FUNES4_S5_@Base 6.2.1
 (optional=templinst)_ZZN9QtPrivate16QMetaTypeForTypeIiE10getCopyCtrEvENUlPKNS_18QMetaTypeInterfaceEPvPKvE_4_FUNES4_S5_S7_@Base 6.2.1
 (optional=templinst)_ZZN9QtPrivate16QMetaTypeForTypeIiE10getMoveCtrEvENUlPKNS_18QMetaTypeInterfaceEPvS5_E_4_FUNES4_S5_S5_@Base 6.2.1
 (optional=templinst)_ZZN9QtPrivate16QMetaTypeForTypeIiE13getDefaultCtrEvENUlPKNS_18QMetaTypeInterfaceEPvE_4_FUNES4_S5_@Base 6.2.1
