# SymbolsHelper-Confirmed: 6.2.2 amd64 armel armhf i386
libQt6Positioning.so.6 libqt6positioning6 #MINVER#
* Build-Depends-Package: qt6-location-dev
 (subst)_Z5qHashRK11QGeoAddress{size_t}@Base 6.2.1
 (subst)_Z5qHashRK12QGeoLocation{size_t}@Base 6.2.1
 (subst)_Z5qHashRK14QGeoCoordinate{size_t}@Base 6.2.1
 (subst)_Z5qHashRK16QGeoPositionInfo{size_t}@Base 6.2.1
 (subst)_Z5qHashRK17QGeoSatelliteInfo{size_t}@Base 6.2.1
 (subst)_Z5qHashRK19QGeoAreaMonitorInfo{size_t}@Base 6.2.1
 (subst)_Z5qHashRK9QGeoShape{size_t}@Base 6.2.1
 _ZGVZN9QMetaType21registerConverterImplI10QGeoCircle9QGeoShapeEEbSt8functionIFbPKvPvEES_S_E10unregister@Base 6.2.1
 _ZGVZN9QMetaType21registerConverterImplI11QGeoPolygon9QGeoShapeEEbSt8functionIFbPKvPvEES_S_E10unregister@Base 6.2.1
 _ZGVZN9QMetaType21registerConverterImplI13QGeoRectangle9QGeoShapeEEbSt8functionIFbPKvPvEES_S_E10unregister@Base 6.2.1
 _ZGVZN9QMetaType21registerConverterImplI5QListI14QGeoCoordinateE9QIterableI13QMetaSequenceEEEbSt8functionIFbPKvPvEES_S_E10unregister@Base 6.2.1
 _ZGVZN9QMetaType21registerConverterImplI5QListI17QGeoSatelliteInfoE9QIterableI13QMetaSequenceEEEbSt8functionIFbPKvPvEES_S_E10unregister@Base 6.2.1
 _ZGVZN9QMetaType21registerConverterImplI8QGeoPath9QGeoShapeEEbSt8functionIFbPKvPvEES_S_E10unregister@Base 6.2.1
 _ZGVZN9QMetaType21registerConverterImplI9QGeoShape10QGeoCircleEEbSt8functionIFbPKvPvEES_S_E10unregister@Base 6.2.1
 _ZGVZN9QMetaType21registerConverterImplI9QGeoShape11QGeoPolygonEEbSt8functionIFbPKvPvEES_S_E10unregister@Base 6.2.1
 _ZGVZN9QMetaType21registerConverterImplI9QGeoShape13QGeoRectangleEEbSt8functionIFbPKvPvEES_S_E10unregister@Base 6.2.1
 _ZGVZN9QMetaType21registerConverterImplI9QGeoShape8QGeoPathEEbSt8functionIFbPKvPvEES_S_E10unregister@Base 6.2.1
 _ZGVZN9QMetaType23registerMutableViewImplI5QListI14QGeoCoordinateE9QIterableI13QMetaSequenceEEEbSt8functionIFbPvS8_EES_S_E10unregister@Base 6.2.1
 _ZGVZN9QMetaType23registerMutableViewImplI5QListI17QGeoSatelliteInfoE9QIterableI13QMetaSequenceEEEbSt8functionIFbPvS8_EES_S_E10unregister@Base 6.2.1
 _ZN10QGeoCircle12extendCircleERK14QGeoCoordinate@Base 6.2.1
 _ZN10QGeoCircle16staticMetaObjectE@Base 6.2.1
 _ZN10QGeoCircle9setCenterERK14QGeoCoordinate@Base 6.2.1
 _ZN10QGeoCircle9setRadiusEd@Base 6.2.1
 _ZN10QGeoCircle9translateEdd@Base 6.2.1
 _ZN10QGeoCircleC1ERK14QGeoCoordinated@Base 6.2.1
 _ZN10QGeoCircleC1ERK9QGeoShape@Base 6.2.1
 _ZN10QGeoCircleC1ERKS_@Base 6.2.1
 _ZN10QGeoCircleC1Ev@Base 6.2.1
 _ZN10QGeoCircleC2ERK14QGeoCoordinated@Base 6.2.1
 _ZN10QGeoCircleC2ERK9QGeoShape@Base 6.2.1
 _ZN10QGeoCircleC2ERKS_@Base 6.2.1
 _ZN10QGeoCircleC2Ev@Base 6.2.1
 _ZN10QGeoCircleD1Ev@Base 6.2.1
 _ZN10QGeoCircleD2Ev@Base 6.2.1
 _ZN10QGeoCircleaSERKS_@Base 6.2.1
 _ZN11QGeoAddress10setCountryERK7QString@Base 6.2.1
 _ZN11QGeoAddress11setDistrictERK7QString@Base 6.2.1
 _ZN11QGeoAddress13setPostalCodeERK7QString@Base 6.2.1
 _ZN11QGeoAddress14setCountryCodeERK7QString@Base 6.2.1
 _ZN11QGeoAddress15setStreetNumberERK7QString@Base 6.2.1
 _ZN11QGeoAddress5clearEv@Base 6.2.1
 _ZN11QGeoAddress6equalsERKS_S1_@Base 6.2.1
 _ZN11QGeoAddress7setCityERK7QString@Base 6.2.1
 _ZN11QGeoAddress7setTextERK7QString@Base 6.2.1
 _ZN11QGeoAddress8setStateERK7QString@Base 6.2.1
 _ZN11QGeoAddress9setCountyERK7QString@Base 6.2.1
 _ZN11QGeoAddress9setStreetERK7QString@Base 6.2.1
 _ZN11QGeoAddressC1ERKS_@Base 6.2.1
 _ZN11QGeoAddressC1Ev@Base 6.2.1
 _ZN11QGeoAddressC2ERKS_@Base 6.2.1
 _ZN11QGeoAddressC2Ev@Base 6.2.1
 _ZN11QGeoAddressD1Ev@Base 6.2.1
 _ZN11QGeoAddressD2Ev@Base 6.2.1
 _ZN11QGeoAddressaSERKS_@Base 6.2.1
 (subst)_ZN11QGeoPolygon10removeHoleE{qptrdiff}@Base 6.2.1
 _ZN11QGeoPolygon12setPerimeterERK5QListI14QGeoCoordinateE@Base 6.2.1
 _ZN11QGeoPolygon13addCoordinateERK14QGeoCoordinate@Base 6.2.1
 (subst)_ZN11QGeoPolygon16insertCoordinateE{qptrdiff}RK14QGeoCoordinate@Base 6.2.1
 _ZN11QGeoPolygon16removeCoordinateERK14QGeoCoordinate@Base 6.2.1
 (subst)_ZN11QGeoPolygon16removeCoordinateE{qptrdiff}@Base 6.2.1
 _ZN11QGeoPolygon16staticMetaObjectE@Base 6.2.1
 (subst)_ZN11QGeoPolygon17replaceCoordinateE{qptrdiff}RK14QGeoCoordinate@Base 6.2.1
 _ZN11QGeoPolygon7addHoleERK5QListI14QGeoCoordinateE@Base 6.2.1
 _ZN11QGeoPolygon7addHoleERK8QVariant@Base 6.2.1
 _ZN11QGeoPolygon9translateEdd@Base 6.2.1
 _ZN11QGeoPolygonC1ERK5QListI14QGeoCoordinateE@Base 6.2.1
 _ZN11QGeoPolygonC1ERK9QGeoShape@Base 6.2.1
 _ZN11QGeoPolygonC1ERKS_@Base 6.2.1
 _ZN11QGeoPolygonC1Ev@Base 6.2.1
 _ZN11QGeoPolygonC2ERK5QListI14QGeoCoordinateE@Base 6.2.1
 _ZN11QGeoPolygonC2ERK9QGeoShape@Base 6.2.1
 _ZN11QGeoPolygonC2ERKS_@Base 6.2.1
 _ZN11QGeoPolygonC2Ev@Base 6.2.1
 _ZN11QGeoPolygonD1Ev@Base 6.2.1
 _ZN11QGeoPolygonD2Ev@Base 6.2.1
 _ZN11QGeoPolygonaSERKS_@Base 6.2.1
 _ZN12QGeoLocation10setAddressERK11QGeoAddress@Base 6.2.1
 _ZN12QGeoLocation13setCoordinateERK14QGeoCoordinate@Base 6.2.1
 _ZN12QGeoLocation16setBoundingShapeERK9QGeoShape@Base 6.2.1
 _ZN12QGeoLocation21setExtendedAttributesERK4QMapI7QString8QVariantE@Base 6.2.1
 _ZN12QGeoLocation6equalsERKS_S1_@Base 6.2.1
 _ZN12QGeoLocationC1ERKS_@Base 6.2.1
 _ZN12QGeoLocationC1Ev@Base 6.2.1
 _ZN12QGeoLocationC2ERKS_@Base 6.2.1
 _ZN12QGeoLocationC2Ev@Base 6.2.1
 _ZN12QGeoLocationD1Ev@Base 6.2.1
 _ZN12QGeoLocationD2Ev@Base 6.2.1
 _ZN12QGeoLocationaSERKS_@Base 6.2.1
 _ZN12QWebMercator15coordToMercatorERK14QGeoCoordinate@Base 6.2.1
 _ZN12QWebMercator15mercatorToCoordERK15QDoubleVector2D@Base 6.2.1
 _ZN12QWebMercator23coordinateInterpolationERK14QGeoCoordinateS2_d@Base 6.2.1
 _ZN12QWebMercator7realmodEdd@Base 6.2.1
 _ZN13QClipperUtils10setPolygonERK5QListI15QDoubleVector2DE@Base 6.2.2
 _ZN13QClipperUtils12clearClipperEv@Base 6.2.2
 _ZN13QClipperUtils14addClipPolygonERK5QListI15QDoubleVector2DE@Base 6.2.2
 _ZN13QClipperUtils14addSubjectPathERK5QListI15QDoubleVector2DEb@Base 6.2.2
 _ZN13QClipperUtils14pointInPolygonERK15QDoubleVector2DRK5QListIS0_E@Base 6.2.2
 _ZN13QClipperUtils18clipperScaleFactorEv@Base 6.2.1
 _ZN13QClipperUtils7executeENS_9OperationENS_12PolyFillTypeES1_@Base 6.2.2
 _ZN13QClipperUtilsC1ERKS_@Base 6.2.2
 _ZN13QClipperUtilsC1Ev@Base 6.2.2
 _ZN13QClipperUtilsC2ERKS_@Base 6.2.2
 _ZN13QClipperUtilsC2Ev@Base 6.2.2
 _ZN13QClipperUtilsD1Ev@Base 6.2.2
 _ZN13QClipperUtilsD2Ev@Base 6.2.2
 _ZN13QGeoPathEager16staticMetaObjectE@Base 6.2.1
 _ZN13QGeoPathEagerC1ERK5QListI14QGeoCoordinateERKd@Base 6.2.1
 _ZN13QGeoPathEagerC1ERK8QGeoPath@Base 6.2.1
 _ZN13QGeoPathEagerC1ERK9QGeoShape@Base 6.2.1
 _ZN13QGeoPathEagerC1Ev@Base 6.2.1
 _ZN13QGeoPathEagerC2ERK5QListI14QGeoCoordinateERKd@Base 6.2.1
 _ZN13QGeoPathEagerC2ERK8QGeoPath@Base 6.2.1
 _ZN13QGeoPathEagerC2ERK9QGeoShape@Base 6.2.1
 _ZN13QGeoPathEagerC2Ev@Base 6.2.1
 _ZN13QGeoPathEagerD1Ev@Base 6.2.1
 _ZN13QGeoPathEagerD2Ev@Base 6.2.1
 _ZN13QGeoRectangle10setTopLeftERK14QGeoCoordinate@Base 6.2.1
 _ZN13QGeoRectangle11setTopRightERK14QGeoCoordinate@Base 6.2.1
 _ZN13QGeoRectangle13setBottomLeftERK14QGeoCoordinate@Base 6.2.1
 _ZN13QGeoRectangle14setBottomRightERK14QGeoCoordinate@Base 6.2.1
 _ZN13QGeoRectangle15extendRectangleERK14QGeoCoordinate@Base 6.2.1
 _ZN13QGeoRectangle16staticMetaObjectE@Base 6.2.1
 _ZN13QGeoRectangle8setWidthEd@Base 6.2.1
 _ZN13QGeoRectangle9setCenterERK14QGeoCoordinate@Base 6.2.1
 _ZN13QGeoRectangle9setHeightEd@Base 6.2.1
 _ZN13QGeoRectangle9translateEdd@Base 6.2.1
 _ZN13QGeoRectangleC1ERK14QGeoCoordinateS2_@Base 6.2.1
 _ZN13QGeoRectangleC1ERK14QGeoCoordinatedd@Base 6.2.1
 _ZN13QGeoRectangleC1ERK5QListI14QGeoCoordinateE@Base 6.2.1
 _ZN13QGeoRectangleC1ERK9QGeoShape@Base 6.2.1
 _ZN13QGeoRectangleC1ERKS_@Base 6.2.1
 _ZN13QGeoRectangleC1Ev@Base 6.2.1
 _ZN13QGeoRectangleC2ERK14QGeoCoordinateS2_@Base 6.2.1
 _ZN13QGeoRectangleC2ERK14QGeoCoordinatedd@Base 6.2.1
 _ZN13QGeoRectangleC2ERK5QListI14QGeoCoordinateE@Base 6.2.1
 _ZN13QGeoRectangleC2ERK9QGeoShape@Base 6.2.1
 _ZN13QGeoRectangleC2ERKS_@Base 6.2.1
 _ZN13QGeoRectangleC2Ev@Base 6.2.1
 _ZN13QGeoRectangleD1Ev@Base 6.2.1
 _ZN13QGeoRectangleD2Ev@Base 6.2.1
 _ZN13QGeoRectangleaSERKS_@Base 6.2.1
 _ZN13QGeoRectangleoRERKS_@Base 6.2.1
 _ZN13QMetaSequence12MetaSequenceI5QListI14QGeoCoordinateEE5valueE@Base 6.2.1
 _ZN13QMetaSequence12MetaSequenceI5QListI17QGeoSatelliteInfoEE5valueE@Base 6.2.1
 _ZN14QGeoCoordinate11setAltitudeEd@Base 6.2.1
 _ZN14QGeoCoordinate11setLatitudeEd@Base 6.2.1
 _ZN14QGeoCoordinate12dataStreamInER11QDataStreamRS_@Base 6.2.1
 _ZN14QGeoCoordinate12setLongitudeEd@Base 6.2.1
 _ZN14QGeoCoordinate13dataStreamOutER11QDataStreamRKS_@Base 6.2.1
 _ZN14QGeoCoordinate14debugStreamingE6QDebugRKS_@Base 6.2.1
 _ZN14QGeoCoordinate16staticMetaObjectE@Base 6.2.1
 _ZN14QGeoCoordinate6equalsERKS_S1_@Base 6.2.1
 _ZN14QGeoCoordinateC1ER21QGeoCoordinatePrivate@Base 6.2.1
 _ZN14QGeoCoordinateC1ERKS_@Base 6.2.1
 _ZN14QGeoCoordinateC1Edd@Base 6.2.1
 _ZN14QGeoCoordinateC1Eddd@Base 6.2.1
 _ZN14QGeoCoordinateC1Ev@Base 6.2.1
 _ZN14QGeoCoordinateC2ER21QGeoCoordinatePrivate@Base 6.2.1
 _ZN14QGeoCoordinateC2ERKS_@Base 6.2.1
 _ZN14QGeoCoordinateC2Edd@Base 6.2.1
 _ZN14QGeoCoordinateC2Eddd@Base 6.2.1
 _ZN14QGeoCoordinateC2Ev@Base 6.2.1
 _ZN14QGeoCoordinateD1Ev@Base 6.2.1
 _ZN14QGeoCoordinateD2Ev@Base 6.2.1
 _ZN14QGeoCoordinateaSERKS_@Base 6.2.1
 _ZN14QLocationUtils11getNmeaTimeERK10QByteArrayP5QTime@Base 6.2.1
 _ZN14QLocationUtils14getNmeaLatLongERK10QByteArraycS2_cPdS3_@Base 6.2.1
 _ZN14QLocationUtils18getPosInfoFromNmeaEPKciP16QGeoPositionInfodPb@Base 6.2.1
 _ZN14QLocationUtils18getSatInfoFromNmeaEPKciR5QListI17QGeoSatelliteInfoERNS3_15SatelliteSystemE@Base 6.2.1
 _ZN14QLocationUtils18getSatelliteSystemEPKci@Base 6.2.1
 _ZN14QLocationUtils19getNmeaSentenceTypeEPKci@Base 6.2.1
 _ZN14QLocationUtils19getSatInUseFromNmeaEPKciR5QListIiE@Base 6.2.1
 _ZN14QLocationUtils20hasValidNmeaChecksumEPKci@Base 6.2.1
 _ZN14QLocationUtils31getSatelliteSystemBySatelliteIdEi@Base 6.2.1
 _ZN15QDoubleVector2D9normalizeEv@Base 6.2.1
 _ZN15QDoubleVector2DC1ERK15QDoubleVector3D@Base 6.2.1
 _ZN15QDoubleVector2DC2ERK15QDoubleVector3D@Base 6.2.1
 _ZN15QDoubleVector3D6normalERKS_S1_@Base 6.2.1
 _ZN15QDoubleVector3D6normalERKS_S1_S1_@Base 6.2.1
 _ZN15QDoubleVector3D9normalizeEv@Base 6.2.1
 _ZN15QGeoPathPrivate13addCoordinateERK14QGeoCoordinate@Base 6.2.1
 (subst)_ZN15QGeoPathPrivate16insertCoordinateE{qptrdiff}RK14QGeoCoordinate@Base 6.2.1
 _ZN15QGeoPathPrivate16removeCoordinateERK14QGeoCoordinate@Base 6.2.1
 (subst)_ZN15QGeoPathPrivate16removeCoordinateE{qptrdiff}@Base 6.2.1
 (subst)_ZN15QGeoPathPrivate17replaceCoordinateE{qptrdiff}RK14QGeoCoordinate@Base 6.2.1
 _ZN15QGeoPathPrivate18computeBoundingBoxEv@Base 6.2.1
 _ZN15QGeoPathPrivate7setPathERK5QListI14QGeoCoordinateE@Base 6.2.1
 _ZN15QGeoPathPrivate8setWidthERKd@Base 6.2.1
 _ZN15QGeoPathPrivate9clearPathEv@Base 6.2.1
 _ZN15QGeoPathPrivate9markDirtyEv@Base 6.2.1
 _ZN15QGeoPathPrivate9translateEdd@Base 6.2.1
 _ZN15QGeoPathPrivateC1ERK5QListI14QGeoCoordinateEd@Base 6.2.1
 _ZN15QGeoPathPrivateC1Ev@Base 6.2.1
 _ZN15QGeoPathPrivateC2ERK5QListI14QGeoCoordinateEd@Base 6.2.1
 _ZN15QGeoPathPrivateC2Ev@Base 6.2.1
 _ZN15QGeoPathPrivateD0Ev@Base 6.2.1
 _ZN15QGeoPathPrivateD1Ev@Base 6.2.1
 _ZN15QGeoPathPrivateD2Ev@Base 6.2.1
 _ZN16QDoubleMatrix4x411perspectiveEdddd@Base 6.2.1
 _ZN16QDoubleMatrix4x415flipCoordinatesEv@Base 6.2.1
 _ZN16QDoubleMatrix4x415projectedRotateEdddd@Base 6.2.1
 _ZN16QDoubleMatrix4x45orthoERK5QRect@Base 6.2.1
 _ZN16QDoubleMatrix4x45orthoERK6QRectF@Base 6.2.1
 _ZN16QDoubleMatrix4x45orthoEdddddd@Base 6.2.1
 _ZN16QDoubleMatrix4x45scaleERK15QDoubleVector3D@Base 6.2.1
 _ZN16QDoubleMatrix4x45scaleEd@Base 6.2.1
 _ZN16QDoubleMatrix4x45scaleEdd@Base 6.2.1
 _ZN16QDoubleMatrix4x45scaleEddd@Base 6.2.1
 _ZN16QDoubleMatrix4x46lookAtERK15QDoubleVector3DS2_S2_@Base 6.2.1
 _ZN16QDoubleMatrix4x46rotateEdRK15QDoubleVector3D@Base 6.2.1
 _ZN16QDoubleMatrix4x46rotateEdddd@Base 6.2.1
 _ZN16QDoubleMatrix4x47frustumEdddddd@Base 6.2.1
 _ZN16QDoubleMatrix4x48optimizeEv@Base 6.2.1
 _ZN16QDoubleMatrix4x48viewportEdddddd@Base 6.2.1
 _ZN16QDoubleMatrix4x49translateERK15QDoubleVector3D@Base 6.2.1
 _ZN16QDoubleMatrix4x49translateEdd@Base 6.2.1
 _ZN16QDoubleMatrix4x49translateEddd@Base 6.2.1
 _ZN16QDoubleMatrix4x4C1EPKd@Base 6.2.1
 _ZN16QDoubleMatrix4x4C1EPKdii@Base 6.2.1
 _ZN16QDoubleMatrix4x4C2EPKd@Base 6.2.1
 _ZN16QDoubleMatrix4x4C2EPKdii@Base 6.2.1
 _ZN16QDoubleMatrix4x4dVEd@Base 6.2.1
 _ZN16QGeoPolygonEager16staticMetaObjectE@Base 6.2.1
 _ZN16QGeoPolygonEagerC1ERK11QGeoPolygon@Base 6.2.1
 _ZN16QGeoPolygonEagerC1ERK5QListI14QGeoCoordinateE@Base 6.2.1
 _ZN16QGeoPolygonEagerC1ERK9QGeoShape@Base 6.2.1
 _ZN16QGeoPolygonEagerC1Ev@Base 6.2.1
 _ZN16QGeoPolygonEagerC2ERK11QGeoPolygon@Base 6.2.1
 _ZN16QGeoPolygonEagerC2ERK5QListI14QGeoCoordinateE@Base 6.2.1
 _ZN16QGeoPolygonEagerC2ERK9QGeoShape@Base 6.2.1
 _ZN16QGeoPolygonEagerC2Ev@Base 6.2.1
 _ZN16QGeoPolygonEagerD1Ev@Base 6.2.1
 _ZN16QGeoPolygonEagerD2Ev@Base 6.2.1
 _ZN16QGeoPositionInfo12dataStreamInER11QDataStreamRNS_9AttributeE@Base 6.2.1
 _ZN16QGeoPositionInfo12dataStreamInER11QDataStreamRS_@Base 6.2.1
 _ZN16QGeoPositionInfo12setAttributeENS_9AttributeEd@Base 6.2.1
 _ZN16QGeoPositionInfo12setTimestampERK9QDateTime@Base 6.2.1
 _ZN16QGeoPositionInfo13dataStreamOutER11QDataStreamNS_9AttributeE@Base 6.2.1
 _ZN16QGeoPositionInfo13dataStreamOutER11QDataStreamRKS_@Base 6.2.1
 _ZN16QGeoPositionInfo13setCoordinateERK14QGeoCoordinate@Base 6.2.1
 _ZN16QGeoPositionInfo14debugStreamingE6QDebugRKS_@Base 6.2.1
 _ZN16QGeoPositionInfo15removeAttributeENS_9AttributeE@Base 6.2.1
 _ZN16QGeoPositionInfo6detachEv@Base 6.2.1
 _ZN16QGeoPositionInfo6equalsERKS_S1_@Base 6.2.1
 _ZN16QGeoPositionInfoC1ER23QGeoPositionInfoPrivate@Base 6.2.1
 _ZN16QGeoPositionInfoC1ERK14QGeoCoordinateRK9QDateTime@Base 6.2.1
 _ZN16QGeoPositionInfoC1ERKS_@Base 6.2.1
 _ZN16QGeoPositionInfoC1Ev@Base 6.2.1
 _ZN16QGeoPositionInfoC2ER23QGeoPositionInfoPrivate@Base 6.2.1
 _ZN16QGeoPositionInfoC2ERK14QGeoCoordinateRK9QDateTime@Base 6.2.1
 _ZN16QGeoPositionInfoC2ERKS_@Base 6.2.1
 _ZN16QGeoPositionInfoC2Ev@Base 6.2.1
 _ZN16QGeoPositionInfoD1Ev@Base 6.2.1
 _ZN16QGeoPositionInfoD2Ev@Base 6.2.1
 _ZN16QGeoPositionInfoaSERKS_@Base 6.2.1
 _ZN17QGeoSatelliteInfo12dataStreamInER11QDataStreamRS_@Base 6.2.1
 _ZN17QGeoSatelliteInfo12setAttributeENS_9AttributeEd@Base 6.2.1
 _ZN17QGeoSatelliteInfo13dataStreamOutER11QDataStreamRKS_@Base 6.2.1
 _ZN17QGeoSatelliteInfo14debugStreamingE6QDebugRKS_@Base 6.2.1
 _ZN17QGeoSatelliteInfo15removeAttributeENS_9AttributeE@Base 6.2.1
 _ZN17QGeoSatelliteInfo17setSignalStrengthEi@Base 6.2.1
 _ZN17QGeoSatelliteInfo18setSatelliteSystemENS_15SatelliteSystemE@Base 6.2.1
 _ZN17QGeoSatelliteInfo22setSatelliteIdentifierEi@Base 6.2.1
 _ZN17QGeoSatelliteInfo6detachEv@Base 6.2.1
 _ZN17QGeoSatelliteInfo6equalsERKS_S1_@Base 6.2.1
 _ZN17QGeoSatelliteInfoC1ER24QGeoSatelliteInfoPrivate@Base 6.2.1
 _ZN17QGeoSatelliteInfoC1ERKS_@Base 6.2.1
 _ZN17QGeoSatelliteInfoC1Ev@Base 6.2.1
 _ZN17QGeoSatelliteInfoC2ER24QGeoSatelliteInfoPrivate@Base 6.2.1
 _ZN17QGeoSatelliteInfoC2ERKS_@Base 6.2.1
 _ZN17QGeoSatelliteInfoC2Ev@Base 6.2.1
 _ZN17QGeoSatelliteInfoD1Ev@Base 6.2.1
 _ZN17QGeoSatelliteInfoD2Ev@Base 6.2.1
 _ZN17QGeoSatelliteInfoaSERKS_@Base 6.2.1
 (subst)_ZN18QGeoPolygonPrivate10removeHoleE{qptrdiff}@Base 6.2.1
 _ZN18QGeoPolygonPrivate17updateClipperPathEv@Base 6.2.1
 _ZN18QGeoPolygonPrivate7addHoleERK5QListI14QGeoCoordinateE@Base 6.2.1
 _ZN18QGeoPolygonPrivate9markDirtyEv@Base 6.2.1
 _ZN18QGeoPolygonPrivate9translateEdd@Base 6.2.1
 _ZN18QGeoPolygonPrivateC1ERK5QListI14QGeoCoordinateE@Base 6.2.1
 _ZN18QGeoPolygonPrivateC1Ev@Base 6.2.1
 _ZN18QGeoPolygonPrivateC2ERK5QListI14QGeoCoordinateE@Base 6.2.1
 _ZN18QGeoPolygonPrivateC2Ev@Base 6.2.1
 _ZN18QGeoPolygonPrivateD0Ev@Base 6.2.1
 _ZN18QGeoPolygonPrivateD1Ev@Base 6.2.1
 _ZN18QGeoPolygonPrivateD2Ev@Base 6.2.1
 (optional=templinst)_ZN18QSharedDataPointerI18QGeoAddressPrivateED1Ev@Base 6.2.1
 (optional=templinst)_ZN18QSharedDataPointerI18QGeoAddressPrivateED2Ev@Base 6.2.1
 (optional=templinst)_ZN18QSharedDataPointerI19QGeoLocationPrivateED1Ev@Base 6.2.1
 (optional=templinst)_ZN18QSharedDataPointerI19QGeoLocationPrivateED2Ev@Base 6.2.1
 (optional=templinst)_ZN18QSharedDataPointerI21QGeoCoordinatePrivateED1Ev@Base 6.2.1
 (optional=templinst)_ZN18QSharedDataPointerI21QGeoCoordinatePrivateED2Ev@Base 6.2.1
 _ZN19QGeoAreaMonitorInfo12dataStreamInER11QDataStreamRS_@Base 6.2.1
 _ZN19QGeoAreaMonitorInfo13dataStreamOutER11QDataStreamRKS_@Base 6.2.1
 _ZN19QGeoAreaMonitorInfo13setExpirationERK9QDateTime@Base 6.2.1
 _ZN19QGeoAreaMonitorInfo13setPersistentEb@Base 6.2.1
 _ZN19QGeoAreaMonitorInfo14debugStreamingE6QDebugRKS_@Base 6.2.1
 _ZN19QGeoAreaMonitorInfo25setNotificationParametersERK4QMapI7QString8QVariantE@Base 6.2.1
 _ZN19QGeoAreaMonitorInfo6detachEv@Base 6.2.1
 _ZN19QGeoAreaMonitorInfo6equalsERKS_S1_@Base 6.2.1
 _ZN19QGeoAreaMonitorInfo7setAreaERK9QGeoShape@Base 6.2.1
 _ZN19QGeoAreaMonitorInfo7setNameERK7QString@Base 6.2.1
 _ZN19QGeoAreaMonitorInfoC1ERK7QString@Base 6.2.1
 _ZN19QGeoAreaMonitorInfoC1ERKS_@Base 6.2.1
 _ZN19QGeoAreaMonitorInfoC2ERK7QString@Base 6.2.1
 _ZN19QGeoAreaMonitorInfoC2ERKS_@Base 6.2.1
 _ZN19QGeoAreaMonitorInfoD1Ev@Base 6.2.1
 _ZN19QGeoAreaMonitorInfoD2Ev@Base 6.2.1
 _ZN19QGeoAreaMonitorInfoaSERKS_@Base 6.2.1
 _ZN20QGeoCoordinateObject11qt_metacallEN11QMetaObject4CallEiPPv@Base 6.2.1
 _ZN20QGeoCoordinateObject11qt_metacastEPKc@Base 6.2.1
 _ZN20QGeoCoordinateObject13setCoordinateERK14QGeoCoordinate@Base 6.2.1
 _ZN20QGeoCoordinateObject16staticMetaObjectE@Base 6.2.1
 _ZN20QGeoCoordinateObject17coordinateChangedEv@Base 6.2.1
 _ZN20QGeoCoordinateObject18bindableCoordinateEv@Base 6.2.1
 _ZN20QGeoCoordinateObjectC1EP7QObject@Base 6.2.1
 _ZN20QGeoCoordinateObjectC1ERK14QGeoCoordinateP7QObject@Base 6.2.1
 _ZN20QGeoCoordinateObjectC2EP7QObject@Base 6.2.1
 _ZN20QGeoCoordinateObjectC2ERK14QGeoCoordinateP7QObject@Base 6.2.1
 _ZN20QGeoCoordinateObjectD0Ev@Base 6.2.1
 _ZN20QGeoCoordinateObjectD1Ev@Base 6.2.1
 _ZN20QGeoCoordinateObjectD2Ev@Base 6.2.1
 _ZN20QGeoPathPrivateEager13addCoordinateERK14QGeoCoordinate@Base 6.2.1
 _ZN20QGeoPathPrivateEager17updateBoundingBoxEv@Base 6.2.1
 _ZN20QGeoPathPrivateEager18computeBoundingBoxEv@Base 6.2.1
 _ZN20QGeoPathPrivateEager9markDirtyEv@Base 6.2.1
 _ZN20QGeoPathPrivateEager9translateEdd@Base 6.2.1
 _ZN20QGeoPathPrivateEagerC1ERK5QListI14QGeoCoordinateEd@Base 6.2.1
 _ZN20QGeoPathPrivateEagerC1Ev@Base 6.2.1
 _ZN20QGeoPathPrivateEagerC2ERK5QListI14QGeoCoordinateEd@Base 6.2.1
 _ZN20QGeoPathPrivateEagerC2Ev@Base 6.2.1
 _ZN20QGeoPathPrivateEagerD0Ev@Base 6.2.1
 _ZN20QGeoPathPrivateEagerD1Ev@Base 6.2.1
 _ZN20QGeoPathPrivateEagerD2Ev@Base 6.2.1
 _ZN21QGeoAreaMonitorSource10areaExitedERK19QGeoAreaMonitorInfoRK16QGeoPositionInfo@Base 6.2.1
 _ZN21QGeoAreaMonitorSource11areaEnteredERK19QGeoAreaMonitorInfoRK16QGeoPositionInfo@Base 6.2.1
 _ZN21QGeoAreaMonitorSource11qt_metacallEN11QMetaObject4CallEiPPv@Base 6.2.1
 _ZN21QGeoAreaMonitorSource11qt_metacastEPKc@Base 6.2.1
 _ZN21QGeoAreaMonitorSource12createSourceERK7QStringP7QObject@Base 6.2.1
 _ZN21QGeoAreaMonitorSource13errorOccurredENS_5ErrorE@Base 6.2.1
 _ZN21QGeoAreaMonitorSource14monitorExpiredERK19QGeoAreaMonitorInfo@Base 6.2.1
 _ZN21QGeoAreaMonitorSource16availableSourcesEv@Base 6.2.1
 _ZN21QGeoAreaMonitorSource16staticMetaObjectE@Base 6.2.1
 _ZN21QGeoAreaMonitorSource18setBackendPropertyERK7QStringRK8QVariant@Base 6.2.1
 _ZN21QGeoAreaMonitorSource19createDefaultSourceEP7QObject@Base 6.2.1
 _ZN21QGeoAreaMonitorSource21setPositionInfoSourceEP22QGeoPositionInfoSource@Base 6.2.1
 _ZN21QGeoAreaMonitorSourceC1EP7QObject@Base 6.2.1
 _ZN21QGeoAreaMonitorSourceC2EP7QObject@Base 6.2.1
 _ZN21QGeoAreaMonitorSourceD0Ev@Base 6.2.1
 _ZN21QGeoAreaMonitorSourceD1Ev@Base 6.2.1
 _ZN21QGeoAreaMonitorSourceD2Ev@Base 6.2.1
 _ZN22QGeoPositionInfoSource11qt_metacallEN11QMetaObject4CallEiPPv@Base 6.2.1
 _ZN22QGeoPositionInfoSource11qt_metacastEPKc@Base 6.2.1
 _ZN22QGeoPositionInfoSource12createSourceERK7QStringP7QObject@Base 6.2.1
 _ZN22QGeoPositionInfoSource12createSourceERK7QStringRK4QMapIS0_8QVariantEP7QObject@Base 6.2.1
 _ZN22QGeoPositionInfoSource13errorOccurredENS_5ErrorE@Base 6.2.1
 _ZN22QGeoPositionInfoSource15positionUpdatedERK16QGeoPositionInfo@Base 6.2.1
 _ZN22QGeoPositionInfoSource16availableSourcesEv@Base 6.2.1
 _ZN22QGeoPositionInfoSource16staticMetaObjectE@Base 6.2.1
 _ZN22QGeoPositionInfoSource17setUpdateIntervalEi@Base 6.2.1
 _ZN22QGeoPositionInfoSource18setBackendPropertyERK7QStringRK8QVariant@Base 6.2.1
 _ZN22QGeoPositionInfoSource19createDefaultSourceEP7QObject@Base 6.2.1
 _ZN22QGeoPositionInfoSource19createDefaultSourceERK4QMapI7QString8QVariantEP7QObject@Base 6.2.1
 _ZN22QGeoPositionInfoSource22bindableUpdateIntervalEv@Base 6.2.1
 _ZN22QGeoPositionInfoSource30setPreferredPositioningMethodsE6QFlagsINS_17PositioningMethodEE@Base 6.2.1
 _ZN22QGeoPositionInfoSource34supportedPositioningMethodsChangedEv@Base 6.2.1
 _ZN22QGeoPositionInfoSource35bindablePreferredPositioningMethodsEv@Base 6.2.1
 _ZN22QGeoPositionInfoSourceC1EP7QObject@Base 6.2.1
 _ZN22QGeoPositionInfoSourceC1ER29QGeoPositionInfoSourcePrivateP7QObject@Base 6.2.1
 _ZN22QGeoPositionInfoSourceC2EP7QObject@Base 6.2.1
 _ZN22QGeoPositionInfoSourceC2ER29QGeoPositionInfoSourcePrivateP7QObject@Base 6.2.1
 _ZN22QGeoPositionInfoSourceD0Ev@Base 6.2.1
 _ZN22QGeoPositionInfoSourceD1Ev@Base 6.2.1
 _ZN22QGeoPositionInfoSourceD2Ev@Base 6.2.1
 _ZN23QGeoPolygonPrivateEager13addCoordinateERK14QGeoCoordinate@Base 6.2.1
 _ZN23QGeoPolygonPrivateEager17updateBoundingBoxEv@Base 6.2.1
 _ZN23QGeoPolygonPrivateEager18computeBoundingBoxEv@Base 6.2.1
 _ZN23QGeoPolygonPrivateEager9markDirtyEv@Base 6.2.1
 _ZN23QGeoPolygonPrivateEager9translateEdd@Base 6.2.1
 _ZN23QGeoPolygonPrivateEagerC1ERK5QListI14QGeoCoordinateE@Base 6.2.1
 _ZN23QGeoPolygonPrivateEagerC1Ev@Base 6.2.1
 _ZN23QGeoPolygonPrivateEagerC2ERK5QListI14QGeoCoordinateE@Base 6.2.1
 _ZN23QGeoPolygonPrivateEagerC2Ev@Base 6.2.1
 _ZN23QGeoPolygonPrivateEagerD0Ev@Base 6.2.1
 _ZN23QGeoPolygonPrivateEagerD1Ev@Base 6.2.1
 _ZN23QGeoPolygonPrivateEagerD2Ev@Base 6.2.1
 _ZN23QGeoSatelliteInfoSource11qt_metacallEN11QMetaObject4CallEiPPv@Base 6.2.1
 _ZN23QGeoSatelliteInfoSource11qt_metacastEPKc@Base 6.2.1
 _ZN23QGeoSatelliteInfoSource12createSourceERK7QStringP7QObject@Base 6.2.1
 _ZN23QGeoSatelliteInfoSource12createSourceERK7QStringRK4QMapIS0_8QVariantEP7QObject@Base 6.2.1
 _ZN23QGeoSatelliteInfoSource13errorOccurredENS_5ErrorE@Base 6.2.1
 _ZN23QGeoSatelliteInfoSource16availableSourcesEv@Base 6.2.1
 _ZN23QGeoSatelliteInfoSource16staticMetaObjectE@Base 6.2.1
 _ZN23QGeoSatelliteInfoSource17setUpdateIntervalEi@Base 6.2.1
 _ZN23QGeoSatelliteInfoSource18setBackendPropertyERK7QStringRK8QVariant@Base 6.2.1
 _ZN23QGeoSatelliteInfoSource19createDefaultSourceEP7QObject@Base 6.2.1
 _ZN23QGeoSatelliteInfoSource19createDefaultSourceERK4QMapI7QString8QVariantEP7QObject@Base 6.2.1
 _ZN23QGeoSatelliteInfoSource22bindableUpdateIntervalEv@Base 6.2.1
 _ZN23QGeoSatelliteInfoSource22satellitesInUseUpdatedERK5QListI17QGeoSatelliteInfoE@Base 6.2.1
 _ZN23QGeoSatelliteInfoSource23satellitesInViewUpdatedERK5QListI17QGeoSatelliteInfoE@Base 6.2.1
 _ZN23QGeoSatelliteInfoSourceC1EP7QObject@Base 6.2.1
 _ZN23QGeoSatelliteInfoSourceC1ER30QGeoSatelliteInfoSourcePrivateP7QObject@Base 6.2.1
 _ZN23QGeoSatelliteInfoSourceC2EP7QObject@Base 6.2.1
 _ZN23QGeoSatelliteInfoSourceC2ER30QGeoSatelliteInfoSourcePrivateP7QObject@Base 6.2.1
 _ZN23QGeoSatelliteInfoSourceD0Ev@Base 6.2.1
 _ZN23QGeoSatelliteInfoSourceD1Ev@Base 6.2.1
 _ZN23QGeoSatelliteInfoSourceD2Ev@Base 6.2.1
 _ZN23QNmeaPositionInfoSource11qt_metacallEN11QMetaObject4CallEiPPv@Base 6.2.1
 _ZN23QNmeaPositionInfoSource11qt_metacastEPKc@Base 6.2.1
 _ZN23QNmeaPositionInfoSource11stopUpdatesEv@Base 6.2.1
 _ZN23QNmeaPositionInfoSource12startUpdatesEv@Base 6.2.1
 _ZN23QNmeaPositionInfoSource13requestUpdateEi@Base 6.2.1
 _ZN23QNmeaPositionInfoSource16staticMetaObjectE@Base 6.2.1
 _ZN23QNmeaPositionInfoSource17setUpdateIntervalEi@Base 6.2.1
 _ZN23QNmeaPositionInfoSource24parsePosInfoFromNmeaDataEPKciP16QGeoPositionInfoPb@Base 6.2.1
 _ZN23QNmeaPositionInfoSource27setUserEquivalentRangeErrorEd@Base 6.2.1
 _ZN23QNmeaPositionInfoSource8setErrorEN22QGeoPositionInfoSource5ErrorE@Base 6.2.1
 _ZN23QNmeaPositionInfoSource9setDeviceEP9QIODevice@Base 6.2.1
 _ZN23QNmeaPositionInfoSourceC1ENS_10UpdateModeEP7QObject@Base 6.2.1
 _ZN23QNmeaPositionInfoSourceC2ENS_10UpdateModeEP7QObject@Base 6.2.1
 _ZN23QNmeaPositionInfoSourceD0Ev@Base 6.2.1
 _ZN23QNmeaPositionInfoSourceD1Ev@Base 6.2.1
 _ZN23QNmeaPositionInfoSourceD2Ev@Base 6.2.1
 _ZN24QNmeaSatelliteInfoSource11qt_metacallEN11QMetaObject4CallEiPPv@Base 6.2.1
 _ZN24QNmeaSatelliteInfoSource11qt_metacastEPKc@Base 6.2.1
 _ZN24QNmeaSatelliteInfoSource11stopUpdatesEv@Base 6.2.1
 _ZN24QNmeaSatelliteInfoSource12startUpdatesEv@Base 6.2.1
 _ZN24QNmeaSatelliteInfoSource13requestUpdateEi@Base 6.2.1
 _ZN24QNmeaSatelliteInfoSource16staticMetaObjectE@Base 6.2.1
 _ZN24QNmeaSatelliteInfoSource17setUpdateIntervalEi@Base 6.2.1
 _ZN24QNmeaSatelliteInfoSource18setBackendPropertyERK7QStringRK8QVariant@Base 6.2.1
 _ZN24QNmeaSatelliteInfoSource24SimulationUpdateIntervalE@Base 6.2.1
 _ZN24QNmeaSatelliteInfoSource26parseSatelliteInfoFromNmeaEPKciR5QListI17QGeoSatelliteInfoERNS3_15SatelliteSystemE@Base 6.2.1
 _ZN24QNmeaSatelliteInfoSource28parseSatellitesInUseFromNmeaEPKciR5QListIiE@Base 6.2.1
 _ZN24QNmeaSatelliteInfoSource8setErrorEN23QGeoSatelliteInfoSource5ErrorE@Base 6.2.1
 _ZN24QNmeaSatelliteInfoSource9setDeviceEP9QIODevice@Base 6.2.1
 _ZN24QNmeaSatelliteInfoSourceC1ENS_10UpdateModeEP7QObject@Base 6.2.1
 _ZN24QNmeaSatelliteInfoSourceC2ENS_10UpdateModeEP7QObject@Base 6.2.1
 _ZN24QNmeaSatelliteInfoSourceD0Ev@Base 6.2.1
 _ZN24QNmeaSatelliteInfoSourceD1Ev@Base 6.2.1
 _ZN24QNmeaSatelliteInfoSourceD2Ev@Base 6.2.1
 (optional=templinst)_ZN28QExplicitlySharedDataPointerI23QGeoPositionInfoPrivateED1Ev@Base 6.2.1
 (optional=templinst)_ZN28QExplicitlySharedDataPointerI23QGeoPositionInfoPrivateED2Ev@Base 6.2.1
 (optional=templinst)_ZN28QExplicitlySharedDataPointerI24QGeoSatelliteInfoPrivateED1Ev@Base 6.2.1
 (optional=templinst)_ZN28QExplicitlySharedDataPointerI24QGeoSatelliteInfoPrivateED2Ev@Base 6.2.1
 (optional=templinst)_ZN28QExplicitlySharedDataPointerI26QGeoAreaMonitorInfoPrivateED1Ev@Base 6.2.1
 (optional=templinst)_ZN28QExplicitlySharedDataPointerI26QGeoAreaMonitorInfoPrivateED2Ev@Base 6.2.1
 _ZN29QGeoMercatorCoordinatePrivateC1ERKS_@Base 6.2.1
 _ZN29QGeoMercatorCoordinatePrivateC1Ev@Base 6.2.1
 _ZN29QGeoMercatorCoordinatePrivateC2ERKS_@Base 6.2.1
 _ZN29QGeoMercatorCoordinatePrivateC2Ev@Base 6.2.1
 _ZN29QGeoMercatorCoordinatePrivateD1Ev@Base 6.2.1
 _ZN29QGeoMercatorCoordinatePrivateD2Ev@Base 6.2.1
 _ZN29QGeoPositionInfoSourceFactoryD0Ev@Base 6.2.1
 _ZN29QGeoPositionInfoSourceFactoryD1Ev@Base 6.2.1
 _ZN29QGeoPositionInfoSourceFactoryD2Ev@Base 6.2.1
 _ZN5QTest8toStringERK16QGeoPositionInfo@Base 6.2.1
 _ZN5QTest8toStringERK17QGeoSatelliteInfo@Base 6.2.1
 _ZN5QTest8toStringERK19QGeoAreaMonitorInfo@Base 6.2.1
 _ZN8QGeoPath13addCoordinateERK14QGeoCoordinate@Base 6.2.1
 _ZN8QGeoPath14setVariantPathERK5QListI8QVariantE@Base 6.2.1
 (subst)_ZN8QGeoPath16insertCoordinateE{qptrdiff}RK14QGeoCoordinate@Base 6.2.1
 _ZN8QGeoPath16removeCoordinateERK14QGeoCoordinate@Base 6.2.1
 (subst)_ZN8QGeoPath16removeCoordinateE{qptrdiff}@Base 6.2.1
 _ZN8QGeoPath16staticMetaObjectE@Base 6.2.1
 (subst)_ZN8QGeoPath17replaceCoordinateE{qptrdiff}RK14QGeoCoordinate@Base 6.2.1
 _ZN8QGeoPath7setPathERK5QListI14QGeoCoordinateE@Base 6.2.1
 _ZN8QGeoPath8setWidthERKd@Base 6.2.1
 _ZN8QGeoPath9clearPathEv@Base 6.2.1
 _ZN8QGeoPath9translateEdd@Base 6.2.1
 _ZN8QGeoPathC1ERK5QListI14QGeoCoordinateERKd@Base 6.2.1
 _ZN8QGeoPathC1ERK9QGeoShape@Base 6.2.1
 _ZN8QGeoPathC1ERKS_@Base 6.2.1
 _ZN8QGeoPathC1Ev@Base 6.2.1
 _ZN8QGeoPathC2ERK5QListI14QGeoCoordinateERKd@Base 6.2.1
 _ZN8QGeoPathC2ERK9QGeoShape@Base 6.2.1
 _ZN8QGeoPathC2ERKS_@Base 6.2.1
 _ZN8QGeoPathC2Ev@Base 6.2.1
 _ZN8QGeoPathD1Ev@Base 6.2.1
 _ZN8QGeoPathD2Ev@Base 6.2.1
 _ZN8QGeoPathaSERKS_@Base 6.2.1
 _ZN9QGeoShape12dataStreamInER11QDataStreamRS_@Base 6.2.1
 _ZN9QGeoShape13dataStreamOutER11QDataStreamRKS_@Base 6.2.1
 _ZN9QGeoShape14debugStreamingE6QDebugRKS_@Base 6.2.1
 _ZN9QGeoShape16staticMetaObjectE@Base 6.2.1
 _ZN9QGeoShape6equalsERKS_S1_@Base 6.2.1
 _ZN9QGeoShapeC1EP16QGeoShapePrivate@Base 6.2.1
 _ZN9QGeoShapeC1ERKS_@Base 6.2.1
 _ZN9QGeoShapeC1Ev@Base 6.2.1
 _ZN9QGeoShapeC2EP16QGeoShapePrivate@Base 6.2.1
 _ZN9QGeoShapeC2ERKS_@Base 6.2.1
 _ZN9QGeoShapeC2Ev@Base 6.2.1
 _ZN9QGeoShapeD1Ev@Base 6.2.1
 _ZN9QGeoShapeD2Ev@Base 6.2.1
 _ZN9QGeoShapeaSERKS_@Base 6.2.1
 _ZNK10QGeoCircle10translatedEdd@Base 6.2.1
 _ZNK10QGeoCircle6centerEv@Base 6.2.1
 _ZNK10QGeoCircle6radiusEv@Base 6.2.1
 _ZNK10QGeoCircle8toStringEv@Base 6.2.1
 _ZNK11QGeoAddress10postalCodeEv@Base 6.2.1
 _ZNK11QGeoAddress11countryCodeEv@Base 6.2.1
 _ZNK11QGeoAddress12streetNumberEv@Base 6.2.1
 _ZNK11QGeoAddress15isTextGeneratedEv@Base 6.2.1
 _ZNK11QGeoAddress4cityEv@Base 6.2.1
 _ZNK11QGeoAddress4textEv@Base 6.2.1
 _ZNK11QGeoAddress5stateEv@Base 6.2.1
 _ZNK11QGeoAddress6countyEv@Base 6.2.1
 _ZNK11QGeoAddress6streetEv@Base 6.2.1
 _ZNK11QGeoAddress7countryEv@Base 6.2.1
 _ZNK11QGeoAddress7isEmptyEv@Base 6.2.1
 _ZNK11QGeoAddress8districtEv@Base 6.2.1
 _ZNK11QGeoPolygon10holesCountEv@Base 6.2.1
 _ZNK11QGeoPolygon10translatedEdd@Base 6.2.1
 (subst)_ZNK11QGeoPolygon12coordinateAtE{qptrdiff}@Base 6.2.1
 _ZNK11QGeoPolygon18containsCoordinateERK14QGeoCoordinate@Base 6.2.1
 (subst)_ZNK11QGeoPolygon4holeE{qptrdiff}@Base 6.2.1
 _ZNK11QGeoPolygon4sizeEv@Base 6.2.1
 (subst)_ZNK11QGeoPolygon6lengthE{qptrdiff}{qptrdiff}@Base 6.2.1
 (subst)_ZNK11QGeoPolygon8holePathE{qptrdiff}@Base 6.2.1
 _ZNK11QGeoPolygon8toStringEv@Base 6.2.1
 _ZNK11QGeoPolygon9perimeterEv@Base 6.2.1
 _ZNK12QGeoLocation10coordinateEv@Base 6.2.1
 _ZNK12QGeoLocation13boundingShapeEv@Base 6.2.1
 _ZNK12QGeoLocation18extendedAttributesEv@Base 6.2.1
 _ZNK12QGeoLocation7addressEv@Base 6.2.1
 _ZNK12QGeoLocation7isEmptyEv@Base 6.2.1
 _ZNK13QClipperUtils14pointInPolygonERK15QDoubleVector2D@Base 6.2.2
 _ZNK13QGeoRectangle10bottomLeftEv@Base 6.2.1
 _ZNK13QGeoRectangle10intersectsERKS_@Base 6.2.1
 _ZNK13QGeoRectangle10translatedEdd@Base 6.2.1
 _ZNK13QGeoRectangle11bottomRightEv@Base 6.2.1
 _ZNK13QGeoRectangle5widthEv@Base 6.2.1
 _ZNK13QGeoRectangle6centerEv@Base 6.2.1
 _ZNK13QGeoRectangle6heightEv@Base 6.2.1
 _ZNK13QGeoRectangle6unitedERKS_@Base 6.2.1
 _ZNK13QGeoRectangle7topLeftEv@Base 6.2.1
 _ZNK13QGeoRectangle8containsERKS_@Base 6.2.1
 _ZNK13QGeoRectangle8toStringEv@Base 6.2.1
 _ZNK13QGeoRectangle8topRightEv@Base 6.2.1
 _ZNK14QGeoCoordinate10distanceToERKS_@Base 6.2.1
 _ZNK14QGeoCoordinate20atDistanceAndAzimuthEddd@Base 6.2.1
 _ZNK14QGeoCoordinate4typeEv@Base 6.2.1
 _ZNK14QGeoCoordinate7isValidEv@Base 6.2.1
 _ZNK14QGeoCoordinate8altitudeEv@Base 6.2.1
 _ZNK14QGeoCoordinate8latitudeEv@Base 6.2.1
 _ZNK14QGeoCoordinate8toStringENS_16CoordinateFormatE@Base 6.2.1
 _ZNK14QGeoCoordinate9azimuthToERKS_@Base 6.2.1
 _ZNK14QGeoCoordinate9longitudeEv@Base 6.2.1
 _ZNK15QDoubleVector2D10normalizedEv@Base 6.2.1
 _ZNK15QDoubleVector2D10toVector3DEv@Base 6.2.1
 _ZNK15QDoubleVector2D6lengthEv@Base 6.2.1
 _ZNK15QDoubleVector3D10normalizedEv@Base 6.2.1
 _ZNK15QDoubleVector3D14distanceToLineERKS_S1_@Base 6.2.1
 _ZNK15QDoubleVector3D15distanceToPlaneERKS_S1_S1_@Base 6.2.1
 _ZNK15QDoubleVector3D6lengthEv@Base 6.2.1
 (subst)_ZNK15QGeoPathPrivate12coordinateAtE{qptrdiff}@Base 6.2.1
 _ZNK15QGeoPathPrivate12lineContainsERK14QGeoCoordinate@Base 6.2.1
 _ZNK15QGeoPathPrivate18containsCoordinateERK14QGeoCoordinate@Base 6.2.1
 _ZNK15QGeoPathPrivate20boundingGeoRectangleEv@Base 6.2.1
 (subst)_ZNK15QGeoPathPrivate4hashE{size_t}@Base 6.2.1
 _ZNK15QGeoPathPrivate4pathEv@Base 6.2.1
 _ZNK15QGeoPathPrivate4sizeEv@Base 6.2.1
 _ZNK15QGeoPathPrivate5cloneEv@Base 6.2.1
 _ZNK15QGeoPathPrivate5widthEv@Base 6.2.1
 _ZNK15QGeoPathPrivate6centerEv@Base 6.2.1
 (subst)_ZNK15QGeoPathPrivate6lengthE{qptrdiff}{qptrdiff}@Base 6.2.1
 _ZNK15QGeoPathPrivate7isEmptyEv@Base 6.2.1
 _ZNK15QGeoPathPrivate7isValidEv@Base 6.2.1
 _ZNK15QGeoPathPrivate8containsERK14QGeoCoordinate@Base 6.2.1
 _ZNK15QGeoPathPrivateeqERK16QGeoShapePrivate@Base 6.2.1
 _ZNK16QDoubleMatrix4x410copyDataToEPd@Base 6.2.1
 _ZNK16QDoubleMatrix4x410transposedEv@Base 6.2.1
 _ZNK16QDoubleMatrix4x411determinantEv@Base 6.2.1
 _ZNK16QDoubleMatrix4x418orthonormalInverseEv@Base 6.2.1
 _ZNK16QDoubleMatrix4x47mapRectERK5QRect@Base 6.2.1
 _ZNK16QDoubleMatrix4x47mapRectERK6QRectF@Base 6.2.1
 _ZNK16QDoubleMatrix4x48invertedEPb@Base 6.2.1
 _ZNK16QGeoPositionInfo10coordinateEv@Base 6.2.1
 _ZNK16QGeoPositionInfo12hasAttributeENS_9AttributeE@Base 6.2.1
 _ZNK16QGeoPositionInfo7isValidEv@Base 6.2.1
 _ZNK16QGeoPositionInfo9attributeENS_9AttributeE@Base 6.2.1
 _ZNK16QGeoPositionInfo9timestampEv@Base 6.2.1
 _ZNK17QGeoSatelliteInfo12hasAttributeENS_9AttributeE@Base 6.2.1
 _ZNK17QGeoSatelliteInfo14signalStrengthEv@Base 6.2.1
 _ZNK17QGeoSatelliteInfo15satelliteSystemEv@Base 6.2.1
 _ZNK17QGeoSatelliteInfo19satelliteIdentifierEv@Base 6.2.1
 _ZNK17QGeoSatelliteInfo9attributeENS_9AttributeE@Base 6.2.1
 _ZNK18QGeoPolygonPrivate10holesCountEv@Base 6.2.1
 _ZNK18QGeoPolygonPrivate15polygonContainsERK14QGeoCoordinate@Base 6.2.1
 (subst)_ZNK18QGeoPolygonPrivate4hashE{size_t}@Base 6.2.1
 _ZNK18QGeoPolygonPrivate5cloneEv@Base 6.2.1
 _ZNK18QGeoPolygonPrivate7isValidEv@Base 6.2.1
 _ZNK18QGeoPolygonPrivate8containsERK14QGeoCoordinate@Base 6.2.1
 (subst)_ZNK18QGeoPolygonPrivate8holePathE{qptrdiff}@Base 6.2.1
 _ZNK18QGeoPolygonPrivateeqERK16QGeoShapePrivate@Base 6.2.1
 _ZNK19QGeoAreaMonitorInfo10expirationEv@Base 6.2.1
 _ZNK19QGeoAreaMonitorInfo10identifierEv@Base 6.2.1
 _ZNK19QGeoAreaMonitorInfo12isPersistentEv@Base 6.2.1
 _ZNK19QGeoAreaMonitorInfo22notificationParametersEv@Base 6.2.1
 _ZNK19QGeoAreaMonitorInfo4areaEv@Base 6.2.1
 _ZNK19QGeoAreaMonitorInfo4nameEv@Base 6.2.1
 _ZNK19QGeoAreaMonitorInfo7isValidEv@Base 6.2.1
 _ZNK20QGeoCoordinateObject10coordinateEv@Base 6.2.1
 _ZNK20QGeoCoordinateObject10metaObjectEv@Base 6.2.1
 _ZNK20QGeoCoordinateObjecteqERK14QGeoCoordinate@Base 6.2.1
 _ZNK20QGeoCoordinateObjecteqERKS_@Base 6.2.1
 _ZNK20QGeoPathPrivateEager5cloneEv@Base 6.2.1
 _ZNK21QGeoAreaMonitorSource10metaObjectEv@Base 6.2.1
 _ZNK21QGeoAreaMonitorSource10sourceNameEv@Base 6.2.1
 _ZNK21QGeoAreaMonitorSource15backendPropertyERK7QString@Base 6.2.1
 _ZNK21QGeoAreaMonitorSource18positionInfoSourceEv@Base 6.2.1
 _ZNK22QGeoPositionInfoSource10metaObjectEv@Base 6.2.1
 _ZNK22QGeoPositionInfoSource10sourceNameEv@Base 6.2.1
 _ZNK22QGeoPositionInfoSource14updateIntervalEv@Base 6.2.1
 _ZNK22QGeoPositionInfoSource15backendPropertyERK7QString@Base 6.2.1
 _ZNK22QGeoPositionInfoSource27preferredPositioningMethodsEv@Base 6.2.1
 _ZNK23QGeoPolygonPrivateEager5cloneEv@Base 6.2.1
 _ZNK23QGeoSatelliteInfoSource10metaObjectEv@Base 6.2.1
 _ZNK23QGeoSatelliteInfoSource10sourceNameEv@Base 6.2.1
 _ZNK23QGeoSatelliteInfoSource14updateIntervalEv@Base 6.2.1
 _ZNK23QGeoSatelliteInfoSource15backendPropertyERK7QString@Base 6.2.1
 _ZNK23QNmeaPositionInfoSource10metaObjectEv@Base 6.2.1
 _ZNK23QNmeaPositionInfoSource10updateModeEv@Base 6.2.1
 _ZNK23QNmeaPositionInfoSource17lastKnownPositionEb@Base 6.2.1
 _ZNK23QNmeaPositionInfoSource21minimumUpdateIntervalEv@Base 6.2.1
 _ZNK23QNmeaPositionInfoSource24userEquivalentRangeErrorEv@Base 6.2.1
 _ZNK23QNmeaPositionInfoSource27supportedPositioningMethodsEv@Base 6.2.1
 _ZNK23QNmeaPositionInfoSource5errorEv@Base 6.2.1
 _ZNK23QNmeaPositionInfoSource6deviceEv@Base 6.2.1
 _ZNK24QNmeaSatelliteInfoSource10metaObjectEv@Base 6.2.1
 _ZNK24QNmeaSatelliteInfoSource10updateModeEv@Base 6.2.1
 _ZNK24QNmeaSatelliteInfoSource15backendPropertyERK7QString@Base 6.2.1
 _ZNK24QNmeaSatelliteInfoSource21minimumUpdateIntervalEv@Base 6.2.1
 _ZNK24QNmeaSatelliteInfoSource5errorEv@Base 6.2.1
 _ZNK24QNmeaSatelliteInfoSource6deviceEv@Base 6.2.1
 _ZNK8QGeoPath10translatedEdd@Base 6.2.1
 _ZNK8QGeoPath11variantPathEv@Base 6.2.1
 (subst)_ZNK8QGeoPath12coordinateAtE{qptrdiff}@Base 6.2.1
 _ZNK8QGeoPath18containsCoordinateERK14QGeoCoordinate@Base 6.2.1
 _ZNK8QGeoPath4pathEv@Base 6.2.1
 _ZNK8QGeoPath4sizeEv@Base 6.2.1
 _ZNK8QGeoPath5widthEv@Base 6.2.1
 (subst)_ZNK8QGeoPath6lengthE{qptrdiff}{qptrdiff}@Base 6.2.1
 _ZNK8QGeoPath8toStringEv@Base 6.2.1
 _ZNK9QGeoShape20boundingGeoRectangleEv@Base 6.2.1
 _ZNK9QGeoShape4typeEv@Base 6.2.1
 _ZNK9QGeoShape6centerEv@Base 6.2.1
 _ZNK9QGeoShape7isEmptyEv@Base 6.2.1
 _ZNK9QGeoShape7isValidEv@Base 6.2.1
 _ZNK9QGeoShape8containsERK14QGeoCoordinate@Base 6.2.1
 _ZNK9QGeoShape8toStringEv@Base 6.2.1
 (optional=templinst)_ZNSt6vectorIxSaIxEE17_M_realloc_insertIJRKxEEEvN9__gnu_cxx17__normal_iteratorIPxS1_EEDpOT_@Base 6.2.1
 (optional=templinst)_ZNSt7__cxx114listIxSaIxEE4sortEv@Base 6.2.1
 (optional=templinst)_ZNSt7__cxx114listIxSaIxEE5mergeEOS2_@Base 6.2.1
 (optional=templinst|regex)"^_ZNSt8_Rb_treeI.*@Base$" 6.2.1
 _ZTI15QGeoPathPrivate@Base 6.2.1
 _ZTI18QGeoPolygonPrivate@Base 6.2.1
 _ZTI20QGeoCoordinateObject@Base 6.2.1
 _ZTI20QGeoPathPrivateEager@Base 6.2.1
 _ZTI21QGeoAreaMonitorSource@Base 6.2.1
 _ZTI22QGeoPositionInfoSource@Base 6.2.1
 _ZTI23QGeoPolygonPrivateEager@Base 6.2.1
 _ZTI23QGeoSatelliteInfoSource@Base 6.2.1
 _ZTI23QNmeaPositionInfoSource@Base 6.2.1
 _ZTI24QNmeaSatelliteInfoSource@Base 6.2.1
 _ZTI29QGeoPositionInfoSourceFactory@Base 6.2.1
 (optional=templinst|regex)"^_ZTIZN9QMetaType17registerConverterI.*@Base$" 6.2.1
 (optional=templinst|regex)"^_ZTIZN9QMetaType19registerMutableViewI.*@Base$" 6.2.1
 _ZTS15QGeoPathPrivate@Base 6.2.1
 _ZTS18QGeoPolygonPrivate@Base 6.2.1
 _ZTS20QGeoCoordinateObject@Base 6.2.1
 _ZTS20QGeoPathPrivateEager@Base 6.2.1
 _ZTS21QGeoAreaMonitorSource@Base 6.2.1
 _ZTS22QGeoPositionInfoSource@Base 6.2.1
 _ZTS23QGeoPolygonPrivateEager@Base 6.2.1
 _ZTS23QGeoSatelliteInfoSource@Base 6.2.1
 _ZTS23QNmeaPositionInfoSource@Base 6.2.1
 _ZTS24QNmeaSatelliteInfoSource@Base 6.2.1
 _ZTS29QGeoPositionInfoSourceFactory@Base 6.2.1
 (optional=templinst|regex)"^_ZTSZN9QMetaType17registerConverterI.*@Base$" 6.2.1
 (optional=templinst|regex)"^_ZTSZN9QMetaType19registerMutableViewI.*@Base$" 6.2.1
 _ZTV15QGeoPathPrivate@Base 6.2.1
 _ZTV18QGeoPolygonPrivate@Base 6.2.1
 _ZTV20QGeoCoordinateObject@Base 6.2.1
 _ZTV20QGeoPathPrivateEager@Base 6.2.1
 _ZTV21QGeoAreaMonitorSource@Base 6.2.1
 _ZTV22QGeoPositionInfoSource@Base 6.2.1
 _ZTV23QGeoPolygonPrivateEager@Base 6.2.1
 _ZTV23QGeoSatelliteInfoSource@Base 6.2.1
 _ZTV23QNmeaPositionInfoSource@Base 6.2.1
 _ZTV24QNmeaSatelliteInfoSource@Base 6.2.1
 _ZTV29QGeoPositionInfoSourceFactory@Base 6.2.1
 (optional=templinst)_ZZN9QMetaType21registerConverterImplI10QGeoCircle9QGeoShapeEEbSt8functionIFbPKvPvEES_S_E10unregister@Base 6.2.1
 (optional=templinst)_ZZN9QMetaType21registerConverterImplI11QGeoPolygon9QGeoShapeEEbSt8functionIFbPKvPvEES_S_E10unregister@Base 6.2.1
 (optional=templinst)_ZZN9QMetaType21registerConverterImplI13QGeoRectangle9QGeoShapeEEbSt8functionIFbPKvPvEES_S_E10unregister@Base 6.2.1
 (optional=templinst)_ZZN9QMetaType21registerConverterImplI5QListI14QGeoCoordinateE9QIterableI13QMetaSequenceEEEbSt8functionIFbPKvPvEES_S_E10unregister@Base 6.2.1
 (optional=templinst)_ZZN9QMetaType21registerConverterImplI5QListI17QGeoSatelliteInfoE9QIterableI13QMetaSequenceEEEbSt8functionIFbPKvPvEES_S_E10unregister@Base 6.2.1
 (optional=templinst)_ZZN9QMetaType21registerConverterImplI8QGeoPath9QGeoShapeEEbSt8functionIFbPKvPvEES_S_E10unregister@Base 6.2.1
 (optional=templinst)_ZZN9QMetaType21registerConverterImplI9QGeoShape10QGeoCircleEEbSt8functionIFbPKvPvEES_S_E10unregister@Base 6.2.1
 (optional=templinst)_ZZN9QMetaType21registerConverterImplI9QGeoShape11QGeoPolygonEEbSt8functionIFbPKvPvEES_S_E10unregister@Base 6.2.1
 (optional=templinst)_ZZN9QMetaType21registerConverterImplI9QGeoShape13QGeoRectangleEEbSt8functionIFbPKvPvEES_S_E10unregister@Base 6.2.1
 (optional=templinst)_ZZN9QMetaType21registerConverterImplI9QGeoShape8QGeoPathEEbSt8functionIFbPKvPvEES_S_E10unregister@Base 6.2.1
 (optional=templinst)_ZZN9QMetaType23registerMutableViewImplI5QListI14QGeoCoordinateE9QIterableI13QMetaSequenceEEEbSt8functionIFbPvS8_EES_S_E10unregister@Base 6.2.1
 (optional=templinst)_ZZN9QMetaType23registerMutableViewImplI5QListI17QGeoSatelliteInfoE9QIterableI13QMetaSequenceEEEbSt8functionIFbPvS8_EES_S_E10unregister@Base 6.2.1
 (optional=templinst|regex)"^_ZZN9QtPrivate16QMetaTypeForTypeI.*@Base$" 6.2.1
 _ZdvRK16QDoubleMatrix4x4d@Base 6.2.1
 _Zls6QDebugRK15QDoubleVector2D@Base 6.2.1
 _Zls6QDebugRK15QDoubleVector3D@Base 6.2.1
 _Zls6QDebugRK16QDoubleMatrix4x4@Base 6.2.1
 _ZlsR11QDataStreamRK15QDoubleVector2D@Base 6.2.1
 _ZlsR11QDataStreamRK15QDoubleVector3D@Base 6.2.1
 _ZlsR11QDataStreamRK16QDoubleMatrix4x4@Base 6.2.1
 _ZrsR11QDataStreamR15QDoubleVector2D@Base 6.2.1
 _ZrsR11QDataStreamR15QDoubleVector3D@Base 6.2.1
 _ZrsR11QDataStreamR16QDoubleMatrix4x4@Base 6.2.1
