# SymbolsHelper-Confirmed: 6.2.2 amd64 armel armhf i386
libQt6PositioningQuick.so.6 libqt6positioningquick6 #MINVER#
* Build-Depends-Package: qt6-location-dev
 _Z24q_coordinateInterpolatorRK14QGeoCoordinateS1_d@Base 6.2.1
 _Z32qml_register_types_QtPositioningv@Base 6.2.1
 _ZN17LocationSingleton11qt_metacallEN11QMetaObject4CallEiPPv@Base 6.2.1
 _ZN17LocationSingleton11qt_metacastEPKc@Base 6.2.1
 _ZN17LocationSingleton16staticMetaObjectE@Base 6.2.1
 _ZN17LocationSingletonC1EP7QObject@Base 6.2.1
 _ZN17LocationSingletonC2EP7QObject@Base 6.2.1
 _ZN20QDeclarativePosition11qt_metacallEN11QMetaObject4CallEiPPv@Base 6.2.1
 _ZN20QDeclarativePosition11qt_metacastEPKc@Base 6.2.1
 _ZN20QDeclarativePosition11setPositionERK16QGeoPositionInfo@Base 6.2.1
 _ZN20QDeclarativePosition16staticMetaObjectE@Base 6.2.1
 _ZN20QDeclarativePositionC1EP7QObject@Base 6.2.1
 _ZN20QDeclarativePositionC2EP7QObject@Base 6.2.1
 _ZN20QDeclarativePositionD0Ev@Base 6.2.1
 _ZN20QDeclarativePositionD1Ev@Base 6.2.1
 _ZN20QDeclarativePositionD2Ev@Base 6.2.1
 _ZN22QDeclarativeGeoAddress10setAddressERK11QGeoAddress@Base 6.2.1
 _ZN22QDeclarativeGeoAddress10setCountryERK7QString@Base 6.2.1
 _ZN22QDeclarativeGeoAddress11cityChangedEv@Base 6.2.1
 _ZN22QDeclarativeGeoAddress11qt_metacallEN11QMetaObject4CallEiPPv@Base 6.2.1
 _ZN22QDeclarativeGeoAddress11qt_metacastEPKc@Base 6.2.1
 _ZN22QDeclarativeGeoAddress11setDistrictERK7QString@Base 6.2.1
 _ZN22QDeclarativeGeoAddress11textChangedEv@Base 6.2.1
 _ZN22QDeclarativeGeoAddress12stateChangedEv@Base 6.2.1
 _ZN22QDeclarativeGeoAddress13countyChangedEv@Base 6.2.1
 _ZN22QDeclarativeGeoAddress13setPostalCodeERK7QString@Base 6.2.1
 _ZN22QDeclarativeGeoAddress13streetChangedEv@Base 6.2.1
 _ZN22QDeclarativeGeoAddress14countryChangedEv@Base 6.2.1
 _ZN22QDeclarativeGeoAddress14setCountryCodeERK7QString@Base 6.2.1
 _ZN22QDeclarativeGeoAddress15districtChangedEv@Base 6.2.1
 _ZN22QDeclarativeGeoAddress15setStreetNumberERK7QString@Base 6.2.1
 _ZN22QDeclarativeGeoAddress16staticMetaObjectE@Base 6.2.1
 _ZN22QDeclarativeGeoAddress17postalCodeChangedEv@Base 6.2.1
 _ZN22QDeclarativeGeoAddress18countryCodeChangedEv@Base 6.2.1
 _ZN22QDeclarativeGeoAddress19streetNumberChangedEv@Base 6.2.1
 _ZN22QDeclarativeGeoAddress22isTextGeneratedChangedEv@Base 6.2.1
 _ZN22QDeclarativeGeoAddress7setCityERK7QString@Base 6.2.1
 _ZN22QDeclarativeGeoAddress7setTextERK7QString@Base 6.2.1
 _ZN22QDeclarativeGeoAddress8setStateERK7QString@Base 6.2.1
 _ZN22QDeclarativeGeoAddress9setCountyERK7QString@Base 6.2.1
 _ZN22QDeclarativeGeoAddress9setStreetERK7QString@Base 6.2.1
 _ZN22QDeclarativeGeoAddressC1EP7QObject@Base 6.2.1
 _ZN22QDeclarativeGeoAddressC1ERK11QGeoAddressP7QObject@Base 6.2.1
 _ZN22QDeclarativeGeoAddressC2EP7QObject@Base 6.2.1
 _ZN22QDeclarativeGeoAddressC2ERK11QGeoAddressP7QObject@Base 6.2.1
 _ZN23QDeclarativeGeoLocation10setAddressEP22QDeclarativeGeoAddress@Base 6.2.1
 _ZN23QDeclarativeGeoLocation11qt_metacallEN11QMetaObject4CallEiPPv@Base 6.2.1
 _ZN23QDeclarativeGeoLocation11qt_metacastEPKc@Base 6.2.1
 _ZN23QDeclarativeGeoLocation11setLocationERK12QGeoLocation@Base 6.2.1
 _ZN23QDeclarativeGeoLocation13setCoordinateE14QGeoCoordinate@Base 6.2.1
 _ZN23QDeclarativeGeoLocation15bindableAddressEv@Base 6.2.1
 _ZN23QDeclarativeGeoLocation16setBoundingShapeERK9QGeoShape@Base 6.2.1
 _ZN23QDeclarativeGeoLocation16staticMetaObjectE@Base 6.2.1
 _ZN23QDeclarativeGeoLocation18bindableCoordinateEv@Base 6.2.1
 _ZN23QDeclarativeGeoLocation21bindableBoundingShapeEv@Base 6.2.1
 _ZN23QDeclarativeGeoLocation21setExtendedAttributesERK4QMapI7QString8QVariantE@Base 6.2.1
 _ZN23QDeclarativeGeoLocation26bindableExtendedAttributesEv@Base 6.2.1
 _ZN23QDeclarativeGeoLocationC1EP7QObject@Base 6.2.1
 _ZN23QDeclarativeGeoLocationC1ERK12QGeoLocationP7QObject@Base 6.2.1
 _ZN23QDeclarativeGeoLocationC2EP7QObject@Base 6.2.1
 _ZN23QDeclarativeGeoLocationC2ERK12QGeoLocationP7QObject@Base 6.2.1
 _ZN23QDeclarativeGeoLocationD0Ev@Base 6.2.1
 _ZN23QDeclarativeGeoLocationD1Ev@Base 6.2.1
 _ZN23QDeclarativeGeoLocationD2Ev@Base 6.2.1
 _ZN26QDeclarativePositionSource10parametersEv@Base 6.2.1
 _ZN26QDeclarativePositionSource11nameChangedEv@Base 6.2.1
 _ZN26QDeclarativePositionSource11qt_metacallEN11QMetaObject4CallEiPPv@Base 6.2.1
 _ZN26QDeclarativePositionSource11qt_metacastEPKc@Base 6.2.1
 _ZN26QDeclarativePositionSource11setPositionERK16QGeoPositionInfo@Base 6.2.1
 _ZN26QDeclarativePositionSource12bindableNameEv@Base 6.2.1
 _ZN26QDeclarativePositionSource12executeStartEv@Base 6.2.1
 (subst)_ZN26QDeclarativePositionSource12parameter_atEP16QQmlListPropertyI27QDeclarativePluginParameterE{qptrdiff}@Base 6.2.1
 _ZN26QDeclarativePositionSource13activeChangedEv@Base 6.2.1
 _ZN26QDeclarativePositionSource14bindableActiveEv@Base 6.2.1
 _ZN26QDeclarativePositionSource15parameter_clearEP16QQmlListPropertyI27QDeclarativePluginParameterE@Base 6.2.1
 _ZN26QDeclarativePositionSource15parameter_countEP16QQmlListPropertyI27QDeclarativePluginParameterE@Base 6.2.1
 _ZN26QDeclarativePositionSource15parametersReadyEv@Base 6.2.1
 _ZN26QDeclarativePositionSource15positionChangedEv@Base 6.2.1
 _ZN26QDeclarativePositionSource15validityChangedEv@Base 6.2.1
 _ZN26QDeclarativePositionSource16parameter_appendEP16QQmlListPropertyI27QDeclarativePluginParameterEPS1_@Base 6.2.1
 _ZN26QDeclarativePositionSource16staticMetaObjectE@Base 6.2.1
 _ZN26QDeclarativePositionSource17componentCompleteEv@Base 6.2.1
 _ZN26QDeclarativePositionSource17setUpdateIntervalEi@Base 6.2.1
 _ZN26QDeclarativePositionSource18setBackendPropertyERK7QStringRK8QVariant@Base 6.2.1
 _ZN26QDeclarativePositionSource18sourceErrorChangedEv@Base 6.2.1
 _ZN26QDeclarativePositionSource19handleUpdateTimeoutEv@Base 6.2.1
 _ZN26QDeclarativePositionSource19sourceErrorReceivedEN22QGeoPositionInfoSource5ErrorE@Base 6.2.1
 _ZN26QDeclarativePositionSource21updateIntervalChangedEv@Base 6.2.1
 _ZN26QDeclarativePositionSource22onParameterInitializedEv@Base 6.2.1
 _ZN26QDeclarativePositionSource22positionUpdateReceivedERK16QGeoPositionInfo@Base 6.2.1
 _ZN26QDeclarativePositionSource30setPreferredPositioningMethodsE6QFlagsINS_17PositioningMethodEE@Base 6.2.1
 _ZN26QDeclarativePositionSource34preferredPositioningMethodsChangedEv@Base 6.2.1
 _ZN26QDeclarativePositionSource34supportedPositioningMethodsChangedEv@Base 6.2.1
 _ZN26QDeclarativePositionSource40notifySupportedPositioningMethodsChangedEv@Base 6.2.1
 _ZN26QDeclarativePositionSource4stopEv@Base 6.2.1
 _ZN26QDeclarativePositionSource5startEv@Base 6.2.1
 _ZN26QDeclarativePositionSource6updateEi@Base 6.2.1
 _ZN26QDeclarativePositionSource7setNameERK7QString@Base 6.2.1
 _ZN26QDeclarativePositionSource8positionEv@Base 6.2.1
 _ZN26QDeclarativePositionSource9setActiveEb@Base 6.2.1
 _ZN26QDeclarativePositionSource9setSourceEP22QGeoPositionInfoSource@Base 6.2.1
 _ZN26QDeclarativePositionSource9tryAttachERK7QStringb@Base 6.2.1
 _ZN26QDeclarativePositionSourceC1Ev@Base 6.2.1
 _ZN26QDeclarativePositionSourceC2Ev@Base 6.2.1
 _ZN26QDeclarativePositionSourceD0Ev@Base 6.2.1
 _ZN26QDeclarativePositionSourceD1Ev@Base 6.2.1
 _ZN26QDeclarativePositionSourceD2Ev@Base 6.2.1
 _ZN27QDeclarativePluginParameter11initializedEv@Base 6.2.1
 _ZN27QDeclarativePluginParameter11nameChangedERK7QString@Base 6.2.1
 _ZN27QDeclarativePluginParameter11qt_metacallEN11QMetaObject4CallEiPPv@Base 6.2.1
 _ZN27QDeclarativePluginParameter11qt_metacastEPKc@Base 6.2.1
 _ZN27QDeclarativePluginParameter12valueChangedERK8QVariant@Base 6.2.1
 _ZN27QDeclarativePluginParameter16staticMetaObjectE@Base 6.2.1
 _ZN27QDeclarativePluginParameter7setNameERK7QString@Base 6.2.1
 _ZN27QDeclarativePluginParameter8setValueERK8QVariant@Base 6.2.1
 _ZN27QDeclarativePluginParameterC1EP7QObject@Base 6.2.1
 _ZN27QDeclarativePluginParameterC2EP7QObject@Base 6.2.1
 _ZN27QDeclarativePluginParameterD0Ev@Base 6.2.1
 _ZN27QDeclarativePluginParameterD1Ev@Base 6.2.1
 _ZN27QDeclarativePluginParameterD2Ev@Base 6.2.1
 _ZN28QQuickGeoCoordinateAnimation11qt_metacallEN11QMetaObject4CallEiPPv@Base 6.2.1
 _ZN28QQuickGeoCoordinateAnimation11qt_metacastEPKc@Base 6.2.1
 _ZN28QQuickGeoCoordinateAnimation12setDirectionENS_9DirectionE@Base 6.2.1
 _ZN28QQuickGeoCoordinateAnimation16directionChangedEv@Base 6.2.1
 _ZN28QQuickGeoCoordinateAnimation16staticMetaObjectE@Base 6.2.1
 _ZN28QQuickGeoCoordinateAnimation17bindableDirectionEv@Base 6.2.1
 _ZN28QQuickGeoCoordinateAnimation5setToERK14QGeoCoordinate@Base 6.2.1
 _ZN28QQuickGeoCoordinateAnimation7setFromERK14QGeoCoordinate@Base 6.2.1
 _ZN28QQuickGeoCoordinateAnimationC1EP7QObject@Base 6.2.1
 _ZN28QQuickGeoCoordinateAnimationC2EP7QObject@Base 6.2.1
 _ZN28QQuickGeoCoordinateAnimationD0Ev@Base 6.2.1
 _ZN28QQuickGeoCoordinateAnimationD1Ev@Base 6.2.1
 _ZN28QQuickGeoCoordinateAnimationD2Ev@Base 6.2.1
 _ZNK17LocationSingleton10coordinateEddd@Base 6.2.1
 _ZNK17LocationSingleton10coordinateEv@Base 6.2.1
 _ZNK17LocationSingleton10metaObjectEv@Base 6.2.1
 _ZNK17LocationSingleton11shapeToPathERK9QGeoShape@Base 6.2.1
 _ZNK17LocationSingleton13shapeToCircleERK9QGeoShape@Base 6.2.1
 _ZNK17LocationSingleton14shapeToPolygonERK9QGeoShape@Base 6.2.1
 _ZNK17LocationSingleton15coordToMercatorERK14QGeoCoordinate@Base 6.2.1
 _ZNK17LocationSingleton15mercatorToCoordERK7QPointF@Base 6.2.1
 _ZNK17LocationSingleton16shapeToRectangleERK9QGeoShape@Base 6.2.1
 _ZNK17LocationSingleton4pathERK8QJSValued@Base 6.2.1
 _ZNK17LocationSingleton4pathEv@Base 6.2.1
 _ZNK17LocationSingleton5shapeEv@Base 6.2.1
 _ZNK17LocationSingleton6circleERK14QGeoCoordinated@Base 6.2.1
 _ZNK17LocationSingleton6circleEv@Base 6.2.1
 _ZNK17LocationSingleton7polygonERK5QListI8QVariantE@Base 6.2.1
 _ZNK17LocationSingleton7polygonERK5QListI8QVariantES4_@Base 6.2.1
 _ZNK17LocationSingleton7polygonEv@Base 6.2.1
 _ZNK17LocationSingleton9rectangleERK14QGeoCoordinateS2_@Base 6.2.1
 _ZNK17LocationSingleton9rectangleERK14QGeoCoordinatedd@Base 6.2.1
 _ZNK17LocationSingleton9rectangleERK5QListI8QVariantE@Base 6.2.1
 _ZNK17LocationSingleton9rectangleEv@Base 6.2.1
 _ZNK20QDeclarativePosition10coordinateEv@Base 6.2.1
 _ZNK20QDeclarativePosition10metaObjectEv@Base 6.2.1
 _ZNK20QDeclarativePosition12isSpeedValidEv@Base 6.2.1
 _ZNK20QDeclarativePosition13bindableSpeedEv@Base 6.2.1
 _ZNK20QDeclarativePosition13verticalSpeedEv@Base 6.2.1
 _ZNK20QDeclarativePosition15isAltitudeValidEv@Base 6.2.1
 _ZNK20QDeclarativePosition15isLatitudeValidEv@Base 6.2.1
 _ZNK20QDeclarativePosition16isDirectionValidEv@Base 6.2.1
 _ZNK20QDeclarativePosition16isLongitudeValidEv@Base 6.2.1
 _ZNK20QDeclarativePosition16verticalAccuracyEv@Base 6.2.1
 _ZNK20QDeclarativePosition17bindableDirectionEv@Base 6.2.1
 _ZNK20QDeclarativePosition17bindableTimestampEv@Base 6.2.1
 _ZNK20QDeclarativePosition17magneticVariationEv@Base 6.2.1
 _ZNK20QDeclarativePosition18bindableCoordinateEv@Base 6.2.1
 _ZNK20QDeclarativePosition18bindableSpeedValidEv@Base 6.2.1
 _ZNK20QDeclarativePosition18horizontalAccuracyEv@Base 6.2.1
 _ZNK20QDeclarativePosition20isVerticalSpeedValidEv@Base 6.2.1
 _ZNK20QDeclarativePosition21bindableAltitudeValidEv@Base 6.2.1
 _ZNK20QDeclarativePosition21bindableLatitudeValidEv@Base 6.2.1
 _ZNK20QDeclarativePosition21bindableVerticalSpeedEv@Base 6.2.1
 _ZNK20QDeclarativePosition22bindableDirectionValidEv@Base 6.2.1
 _ZNK20QDeclarativePosition22bindableLongitudeValidEv@Base 6.2.1
 _ZNK20QDeclarativePosition22speedActualCalculationEv@Base 6.2.1
 _ZNK20QDeclarativePosition23binableVerticalAccuracyEv@Base 6.2.1
 _ZNK20QDeclarativePosition23isVerticalAccuracyValidEv@Base 6.2.1
 _ZNK20QDeclarativePosition24isMagneticVariationValidEv@Base 6.2.1
 _ZNK20QDeclarativePosition25bindableMagneticVariationEv@Base 6.2.1
 _ZNK20QDeclarativePosition25isHorizontalAccuracyValidEv@Base 6.2.1
 _ZNK20QDeclarativePosition26bindableHorizontalAccuracyEv@Base 6.2.1
 _ZNK20QDeclarativePosition26bindableVerticalSpeedValidEv@Base 6.2.1
 _ZNK20QDeclarativePosition26directionActualCalculationEv@Base 6.2.1
 _ZNK20QDeclarativePosition26timestampActualCalculationEv@Base 6.2.1
 _ZNK20QDeclarativePosition27coordinateActualCalculationEv@Base 6.2.1
 _ZNK20QDeclarativePosition29bindableVerticalAccuracyValidEv@Base 6.2.1
 _ZNK20QDeclarativePosition29isSpeedValidActualCalculationEv@Base 6.2.1
 _ZNK20QDeclarativePosition30bindableMagneticVariationValidEv@Base 6.2.1
 _ZNK20QDeclarativePosition30verticalSpeedActualCalculationEv@Base 6.2.1
 _ZNK20QDeclarativePosition31bindableHorizontalAccuracyValidEv@Base 6.2.1
 _ZNK20QDeclarativePosition32isAltitudeValidActualCalculationEv@Base 6.2.1
 _ZNK20QDeclarativePosition32isLatitudeValidActualCalculationEv@Base 6.2.1
 _ZNK20QDeclarativePosition33isDirectionValidActualCalculationEv@Base 6.2.1
 _ZNK20QDeclarativePosition33isLongitudeValidActualCalculationEv@Base 6.2.1
 _ZNK20QDeclarativePosition33verticalAccuracyActualCalculationEv@Base 6.2.1
 _ZNK20QDeclarativePosition34magneticVariationActualCalculationEv@Base 6.2.1
 _ZNK20QDeclarativePosition35horizontalAccuracyActualCalculationEv@Base 6.2.1
 _ZNK20QDeclarativePosition37isVerticalSpeedValidActualCalculationEv@Base 6.2.1
 _ZNK20QDeclarativePosition40isVerticalAccuracyValidActualCalculationEv@Base 6.2.1
 _ZNK20QDeclarativePosition41isMagneticVariationValidActualCalculationEv@Base 6.2.1
 _ZNK20QDeclarativePosition42isHorizontalAccuracyValidActualCalculationEv@Base 6.2.1
 _ZNK20QDeclarativePosition5speedEv@Base 6.2.1
 _ZNK20QDeclarativePosition8positionEv@Base 6.2.1
 _ZNK20QDeclarativePosition9directionEv@Base 6.2.1
 _ZNK20QDeclarativePosition9timestampEv@Base 6.2.1
 _ZNK22QDeclarativeGeoAddress10metaObjectEv@Base 6.2.1
 _ZNK22QDeclarativeGeoAddress10postalCodeEv@Base 6.2.1
 _ZNK22QDeclarativeGeoAddress11countryCodeEv@Base 6.2.1
 _ZNK22QDeclarativeGeoAddress12streetNumberEv@Base 6.2.1
 _ZNK22QDeclarativeGeoAddress15isTextGeneratedEv@Base 6.2.1
 _ZNK22QDeclarativeGeoAddress4cityEv@Base 6.2.1
 _ZNK22QDeclarativeGeoAddress4textEv@Base 6.2.1
 _ZNK22QDeclarativeGeoAddress5stateEv@Base 6.2.1
 _ZNK22QDeclarativeGeoAddress6countyEv@Base 6.2.1
 _ZNK22QDeclarativeGeoAddress6streetEv@Base 6.2.1
 _ZNK22QDeclarativeGeoAddress7addressEv@Base 6.2.1
 _ZNK22QDeclarativeGeoAddress7countryEv@Base 6.2.1
 _ZNK22QDeclarativeGeoAddress8districtEv@Base 6.2.1
 _ZNK23QDeclarativeGeoLocation10coordinateEv@Base 6.2.1
 _ZNK23QDeclarativeGeoLocation10metaObjectEv@Base 6.2.1
 _ZNK23QDeclarativeGeoLocation13boundingShapeEv@Base 6.2.1
 _ZNK23QDeclarativeGeoLocation18extendedAttributesEv@Base 6.2.1
 _ZNK23QDeclarativeGeoLocation7addressEv@Base 6.2.1
 _ZNK23QDeclarativeGeoLocation8locationEv@Base 6.2.1
 _ZNK26QDeclarativePositionSource10metaObjectEv@Base 6.2.1
 _ZNK26QDeclarativePositionSource11sourceErrorEv@Base 6.2.1
 _ZNK26QDeclarativePositionSource12parameterMapEv@Base 6.2.1
 _ZNK26QDeclarativePositionSource14positionSourceEv@Base 6.2.1
 _ZNK26QDeclarativePositionSource14updateIntervalEv@Base 6.2.1
 _ZNK26QDeclarativePositionSource15backendPropertyERK7QString@Base 6.2.1
 _ZNK26QDeclarativePositionSource15bindableIsValidEv@Base 6.2.1
 _ZNK26QDeclarativePositionSource16bindablePositionEv@Base 6.2.1
 _ZNK26QDeclarativePositionSource19bindableSourceErrorEv@Base 6.2.1
 _ZNK26QDeclarativePositionSource24isValidActualComputationEv@Base 6.2.1
 _ZNK26QDeclarativePositionSource27preferredPositioningMethodsEv@Base 6.2.1
 _ZNK26QDeclarativePositionSource27supportedPositioningMethodsEv@Base 6.2.1
 _ZNK26QDeclarativePositionSource33supportedMethodsActualComputationEv@Base 6.2.1
 _ZNK26QDeclarativePositionSource35bindableSupportedPositioningMethodsEv@Base 6.2.1
 _ZNK26QDeclarativePositionSource4nameEv@Base 6.2.1
 _ZNK26QDeclarativePositionSource7isValidEv@Base 6.2.1
 _ZNK26QDeclarativePositionSource8isActiveEv@Base 6.2.1
 _ZNK27QDeclarativePluginParameter10metaObjectEv@Base 6.2.1
 _ZNK27QDeclarativePluginParameter13isInitializedEv@Base 6.2.1
 _ZNK27QDeclarativePluginParameter4nameEv@Base 6.2.1
 _ZNK27QDeclarativePluginParameter5valueEv@Base 6.2.1
 _ZNK28QQuickGeoCoordinateAnimation10metaObjectEv@Base 6.2.1
 _ZNK28QQuickGeoCoordinateAnimation2toEv@Base 6.2.1
 _ZNK28QQuickGeoCoordinateAnimation4fromEv@Base 6.2.1
 _ZNK28QQuickGeoCoordinateAnimation9directionEv@Base 6.2.1
 (optional=templinst)_ZNSt8_Rb_treeI7QStringSt4pairIKS0_8QVariantESt10_Select1stIS4_ESt4lessIS0_ESaIS4_EE24_M_get_insert_unique_posERS2_@Base 6.2.1
 (optional=templinst|arch=amd64)_ZNSt8_Rb_treeI7QStringSt4pairIKS0_8QVariantESt10_Select1stIS4_ESt4lessIS0_ESaIS4_EE29_M_get_insert_hint_unique_posESt23_Rb_tree_const_iteratorIS4_ERS2_@Base 6.2.2
 _ZTI17LocationSingleton@Base 6.2.1
 _ZTI20QDeclarativePosition@Base 6.2.1
 _ZTI22QDeclarativeGeoAddress@Base 6.2.1
 _ZTI23QDeclarativeGeoLocation@Base 6.2.1
 _ZTI26QDeclarativePositionSource@Base 6.2.1
 _ZTI27QDeclarativePluginParameter@Base 6.2.1
 _ZTI28QQuickGeoCoordinateAnimation@Base 6.2.1
 _ZTIFP7QObjectP10QQmlEngineP9QJSEngineE@Base 6.2.1
 _ZTIPFP7QObjectP10QQmlEngineP9QJSEngineE@Base 6.2.1
 _ZTS17LocationSingleton@Base 6.2.1
 _ZTS20QDeclarativePosition@Base 6.2.1
 _ZTS22QDeclarativeGeoAddress@Base 6.2.1
 _ZTS23QDeclarativeGeoLocation@Base 6.2.1
 _ZTS26QDeclarativePositionSource@Base 6.2.1
 _ZTS27QDeclarativePluginParameter@Base 6.2.1
 _ZTS28QQuickGeoCoordinateAnimation@Base 6.2.1
 _ZTSFP7QObjectP10QQmlEngineP9QJSEngineE@Base 6.2.1
 _ZTSPFP7QObjectP10QQmlEngineP9QJSEngineE@Base 6.2.1
 _ZTV17LocationSingleton@Base 6.2.1
 _ZTV20QDeclarativePosition@Base 6.2.1
 _ZTV22QDeclarativeGeoAddress@Base 6.2.1
 _ZTV23QDeclarativeGeoLocation@Base 6.2.1
 _ZTV26QDeclarativePositionSource@Base 6.2.1
 _ZTV27QDeclarativePluginParameter@Base 6.2.1
 _ZTV28QQuickGeoCoordinateAnimation@Base 6.2.1
 (optional=templinst)_ZZN9QtPrivate16QMetaTypeForTypeI4QMapI7QString8QVariantEE10getCopyCtrEvENUlPKNS_18QMetaTypeInterfaceEPvPKvE_4_FUNES8_S9_SB_@Base 6.2.1
 (optional=templinst)_ZZN9QtPrivate16QMetaTypeForTypeI4QMapI7QString8QVariantEE10getMoveCtrEvENUlPKNS_18QMetaTypeInterfaceEPvS9_E_4_FUNES8_S9_S9_@Base 6.2.1
 (optional=templinst)_ZZN9QtPrivate16QMetaTypeForTypeI4QMapI7QString8QVariantEE13getDefaultCtrEvENUlPKNS_18QMetaTypeInterfaceEPvE_4_FUNES8_S9_@Base 6.2.1
 (optional=templinst)_ZZN9QtPrivate16QMetaTypeForTypeI4QMapI7QString8QVariantEE7getDtorEvENUlPKNS_18QMetaTypeInterfaceEPvE_4_FUNES8_S9_@Base 6.2.1
 (optional=templinst)_ZZN9QtPrivate16QMetaTypeForTypeI5QListI8QVariantEE10getCopyCtrEvENUlPKNS_18QMetaTypeInterfaceEPvPKvE_4_FUNES7_S8_SA_@Base 6.2.1
 (optional=templinst)_ZZN9QtPrivate16QMetaTypeForTypeI5QListI8QVariantEE10getMoveCtrEvENUlPKNS_18QMetaTypeInterfaceEPvS8_E_4_FUNES7_S8_S8_@Base 6.2.1
 (optional=templinst)_ZZN9QtPrivate16QMetaTypeForTypeI5QListI8QVariantEE13getDefaultCtrEvENUlPKNS_18QMetaTypeInterfaceEPvE_4_FUNES7_S8_@Base 6.2.1
 (optional=templinst)_ZZN9QtPrivate16QMetaTypeForTypeI5QListI8QVariantEE7getDtorEvENUlPKNS_18QMetaTypeInterfaceEPvE_4_FUNES7_S8_@Base 6.2.1
 (optional=templinst)_ZZN9QtPrivate16QMetaTypeForTypeI7QPointFE10getCopyCtrEvENUlPKNS_18QMetaTypeInterfaceEPvPKvE_4_FUNES5_S6_S8_@Base 6.2.1
 (optional=templinst)_ZZN9QtPrivate16QMetaTypeForTypeI7QPointFE10getMoveCtrEvENUlPKNS_18QMetaTypeInterfaceEPvS6_E_4_FUNES5_S6_S6_@Base 6.2.1
 (optional=templinst)_ZZN9QtPrivate16QMetaTypeForTypeI7QPointFE13getDefaultCtrEvENUlPKNS_18QMetaTypeInterfaceEPvE_4_FUNES5_S6_@Base 6.2.1
 (optional=templinst)_ZZN9QtPrivate16QMetaTypeForTypeI7QStringE10getCopyCtrEvENUlPKNS_18QMetaTypeInterfaceEPvPKvE_4_FUNES5_S6_S8_@Base 6.2.1
 (optional=templinst)_ZZN9QtPrivate16QMetaTypeForTypeI7QStringE10getMoveCtrEvENUlPKNS_18QMetaTypeInterfaceEPvS6_E_4_FUNES5_S6_S6_@Base 6.2.1
 (optional=templinst)_ZZN9QtPrivate16QMetaTypeForTypeI7QStringE13getDefaultCtrEvENUlPKNS_18QMetaTypeInterfaceEPvE_4_FUNES5_S6_@Base 6.2.1
 (optional=templinst)_ZZN9QtPrivate16QMetaTypeForTypeI7QStringE7getDtorEvENUlPKNS_18QMetaTypeInterfaceEPvE_4_FUNES5_S6_@Base 6.2.1
 (optional=templinst)_ZZN9QtPrivate16QMetaTypeForTypeI8QVariantE10getCopyCtrEvENUlPKNS_18QMetaTypeInterfaceEPvPKvE_4_FUNES5_S6_S8_@Base 6.2.1
 (optional=templinst)_ZZN9QtPrivate16QMetaTypeForTypeI8QVariantE10getMoveCtrEvENUlPKNS_18QMetaTypeInterfaceEPvS6_E_4_FUNES5_S6_S6_@Base 6.2.1
 (optional=templinst)_ZZN9QtPrivate16QMetaTypeForTypeI8QVariantE13getDefaultCtrEvENUlPKNS_18QMetaTypeInterfaceEPvE_4_FUNES5_S6_@Base 6.2.1
 (optional=templinst)_ZZN9QtPrivate16QMetaTypeForTypeI8QVariantE7getDtorEvENUlPKNS_18QMetaTypeInterfaceEPvE_4_FUNES5_S6_@Base 6.2.1
 (optional=templinst)_ZZN9QtPrivate16QMetaTypeForTypeI9QDateTimeE10getCopyCtrEvENUlPKNS_18QMetaTypeInterfaceEPvPKvE_4_FUNES5_S6_S8_@Base 6.2.1
 (optional=templinst)_ZZN9QtPrivate16QMetaTypeForTypeI9QDateTimeE10getMoveCtrEvENUlPKNS_18QMetaTypeInterfaceEPvS6_E_4_FUNES5_S6_S6_@Base 6.2.1
 (optional=templinst)_ZZN9QtPrivate16QMetaTypeForTypeI9QDateTimeE13getDefaultCtrEvENUlPKNS_18QMetaTypeInterfaceEPvE_4_FUNES5_S6_@Base 6.2.1
 (optional=templinst)_ZZN9QtPrivate16QMetaTypeForTypeI9QDateTimeE7getDtorEvENUlPKNS_18QMetaTypeInterfaceEPvE_4_FUNES5_S6_@Base 6.2.1
 (optional=templinst)_ZZN9QtPrivate16QMetaTypeForTypeIbE10getCopyCtrEvENUlPKNS_18QMetaTypeInterfaceEPvPKvE_4_FUNES4_S5_S7_@Base 6.2.1
 (optional=templinst)_ZZN9QtPrivate16QMetaTypeForTypeIbE10getMoveCtrEvENUlPKNS_18QMetaTypeInterfaceEPvS5_E_4_FUNES4_S5_S5_@Base 6.2.1
 (optional=templinst)_ZZN9QtPrivate16QMetaTypeForTypeIbE13getDefaultCtrEvENUlPKNS_18QMetaTypeInterfaceEPvE_4_FUNES4_S5_@Base 6.2.1
 (optional=templinst)_ZZN9QtPrivate16QMetaTypeForTypeIdE10getCopyCtrEvENUlPKNS_18QMetaTypeInterfaceEPvPKvE_4_FUNES4_S5_S7_@Base 6.2.1
 (optional=templinst)_ZZN9QtPrivate16QMetaTypeForTypeIdE10getMoveCtrEvENUlPKNS_18QMetaTypeInterfaceEPvS5_E_4_FUNES4_S5_S5_@Base 6.2.1
 (optional=templinst)_ZZN9QtPrivate16QMetaTypeForTypeIdE13getDefaultCtrEvENUlPKNS_18QMetaTypeInterfaceEPvE_4_FUNES4_S5_@Base 6.2.1
 (optional=templinst)_ZZN9QtPrivate16QMetaTypeForTypeIiE10getCopyCtrEvENUlPKNS_18QMetaTypeInterfaceEPvPKvE_4_FUNES4_S5_S7_@Base 6.2.1
 (optional=templinst)_ZZN9QtPrivate16QMetaTypeForTypeIiE10getMoveCtrEvENUlPKNS_18QMetaTypeInterfaceEPvS5_E_4_FUNES4_S5_S5_@Base 6.2.1
 (optional=templinst)_ZZN9QtPrivate16QMetaTypeForTypeIiE13getDefaultCtrEvENUlPKNS_18QMetaTypeInterfaceEPvE_4_FUNES4_S5_@Base 6.2.1
 (c++)"non-virtual thunk to QDeclarativePositionSource::componentComplete()@Base" 6.2.1
 (c++)"non-virtual thunk to QDeclarativePositionSource::~QDeclarativePositionSource()@Base" 6.2.1
 (c++)"non-virtual thunk to QQuickGeoCoordinateAnimation::~QQuickGeoCoordinateAnimation()@Base" 6.2.1
