# SymbolsHelper-Confirmed: 6.2.1 amd64
libQt6NetworkAuth.so.6 libqt6networkauth6 #MINVER#
* Build-Depends-Package: libqt6networkauth6-dev
 _ZN14QAbstractOAuth11qt_metacallEN11QMetaObject4CallEiPPv@Base 6.2.1
 _ZN14QAbstractOAuth11qt_metacastEPKc@Base 6.2.1
 _ZN14QAbstractOAuth12tokenChangedERK7QString@Base 6.2.1
 _ZN14QAbstractOAuth13requestFailedENS_5ErrorE@Base 6.2.1
 _ZN14QAbstractOAuth13statusChangedENS_6StatusE@Base 6.2.1
 _ZN14QAbstractOAuth14setContentTypeENS_11ContentTypeE@Base 6.2.1
 _ZN14QAbstractOAuth15setReplyHandlerEP26QAbstractOAuthReplyHandler@Base 6.2.1
 _ZN14QAbstractOAuth16staticMetaObjectE@Base 6.2.1
 _ZN14QAbstractOAuth17replyDataReceivedERK10QByteArray@Base 6.2.1
 _ZN14QAbstractOAuth18contentTypeChangedENS_11ContentTypeE@Base 6.2.1
 _ZN14QAbstractOAuth18extraTokensChangedERK4QMapI7QString8QVariantE@Base 6.2.1
 _ZN14QAbstractOAuth19setAuthorizationUrlERK4QUrl@Base 6.2.1
 _ZN14QAbstractOAuth19setClientIdentifierERK7QString@Base 6.2.1
 _ZN14QAbstractOAuth20authorizeWithBrowserERK4QUrl@Base 6.2.1
 _ZN14QAbstractOAuth20generateRandomStringEh@Base 6.2.1
 _ZN14QAbstractOAuth23authorizationUrlChangedERK4QUrl@Base 6.2.1
 _ZN14QAbstractOAuth23clientIdentifierChangedERK7QString@Base 6.2.1
 _ZN14QAbstractOAuth23setNetworkAccessManagerEP21QNetworkAccessManager@Base 6.2.1
 _ZN14QAbstractOAuth26resourceOwnerAuthorizationERK4QUrlRK9QMultiMapI7QString8QVariantE@Base 6.2.1
 _ZN14QAbstractOAuth27setModifyParametersFunctionERKSt8functionIFvNS_5StageEP9QMultiMapI7QString8QVariantEEE@Base 6.2.1
 _ZN14QAbstractOAuth7grantedEv@Base 6.2.1
 _ZN14QAbstractOAuth8finishedEP13QNetworkReply@Base 6.2.1
 _ZN14QAbstractOAuth8setTokenERK7QString@Base 6.2.1
 _ZN14QAbstractOAuth9setStatusENS_6StatusE@Base 6.2.1
 _ZN14QAbstractOAuthC1ER21QAbstractOAuthPrivateP7QObject@Base 6.2.1
 _ZN14QAbstractOAuthC2ER21QAbstractOAuthPrivateP7QObject@Base 6.2.1
 _ZN14QAbstractOAuthD0Ev@Base 6.2.1
 _ZN14QAbstractOAuthD1Ev@Base 6.2.1
 _ZN14QAbstractOAuthD2Ev@Base 6.2.1
 _ZN15QAbstractOAuth211qt_metacallEN11QMetaObject4CallEiPPv@Base 6.2.1
 _ZN15QAbstractOAuth211qt_metacastEPKc@Base 6.2.1
 _ZN15QAbstractOAuth212scopeChangedERK7QString@Base 6.2.1
 _ZN15QAbstractOAuth212setUserAgentERK7QString@Base 6.2.1
 _ZN15QAbstractOAuth212stateChangedERK7QString@Base 6.2.1
 _ZN15QAbstractOAuth214deleteResourceERK4QUrlRK4QMapI7QString8QVariantE@Base 6.2.1
 _ZN15QAbstractOAuth214prepareRequestEP15QNetworkRequestRK10QByteArrayS4_@Base 6.2.1
 _ZN15QAbstractOAuth215setRefreshTokenERK7QString@Base 6.2.1
 _ZN15QAbstractOAuth215setResponseTypeERK7QString@Base 6.2.1
 _ZN15QAbstractOAuth216staticMetaObjectE@Base 6.2.1
 _ZN15QAbstractOAuth216userAgentChangedERK7QString@Base 6.2.1
 _ZN15QAbstractOAuth219expirationAtChangedERK9QDateTime@Base 6.2.1
 _ZN15QAbstractOAuth219refreshTokenChangedERK7QString@Base 6.2.1
 _ZN15QAbstractOAuth219responseTypeChangedERK7QString@Base 6.2.1
 _ZN15QAbstractOAuth222createAuthenticatedUrlERK4QUrlRK4QMapI7QString8QVariantE@Base 6.2.1
 _ZN15QAbstractOAuth228setClientIdentifierSharedKeyERK7QString@Base 6.2.1
 _ZN15QAbstractOAuth229authorizationCallbackReceivedERK4QMapI7QString8QVariantE@Base 6.2.1
 _ZN15QAbstractOAuth232clientIdentifierSharedKeyChangedERK7QString@Base 6.2.1
 _ZN15QAbstractOAuth23getERK4QUrlRK4QMapI7QString8QVariantE@Base 6.2.1
 _ZN15QAbstractOAuth23putERK4QUrlP14QHttpMultiPart@Base 6.2.1
 _ZN15QAbstractOAuth23putERK4QUrlRK10QByteArray@Base 6.2.1
 _ZN15QAbstractOAuth23putERK4QUrlRK4QMapI7QString8QVariantE@Base 6.2.1
 _ZN15QAbstractOAuth24headERK4QUrlRK4QMapI7QString8QVariantE@Base 6.2.1
 _ZN15QAbstractOAuth24postERK4QUrlP14QHttpMultiPart@Base 6.2.1
 _ZN15QAbstractOAuth24postERK4QUrlRK10QByteArray@Base 6.2.1
 _ZN15QAbstractOAuth24postERK4QUrlRK4QMapI7QString8QVariantE@Base 6.2.1
 _ZN15QAbstractOAuth25errorERK7QStringS2_RK4QUrl@Base 6.2.1
 _ZN15QAbstractOAuth28setScopeERK7QString@Base 6.2.1
 _ZN15QAbstractOAuth28setStateERK7QString@Base 6.2.1
 _ZN15QAbstractOAuth2C1EP21QNetworkAccessManagerP7QObject@Base 6.2.1
 _ZN15QAbstractOAuth2C1EP7QObject@Base 6.2.1
 _ZN15QAbstractOAuth2C1ER22QAbstractOAuth2PrivateP7QObject@Base 6.2.1
 _ZN15QAbstractOAuth2C2EP21QNetworkAccessManagerP7QObject@Base 6.2.1
 _ZN15QAbstractOAuth2C2EP7QObject@Base 6.2.1
 _ZN15QAbstractOAuth2C2ER22QAbstractOAuth2PrivateP7QObject@Base 6.2.1
 _ZN15QAbstractOAuth2D0Ev@Base 6.2.1
 _ZN15QAbstractOAuth2D1Ev@Base 6.2.1
 _ZN15QAbstractOAuth2D2Ev@Base 6.2.1
 _ZN16QOAuth1Signature13setParametersERK9QMultiMapI7QString8QVariantE@Base 6.2.1
 _ZN16QOAuth1Signature14addRequestBodyERK9QUrlQuery@Base 6.2.1
 _ZN16QOAuth1Signature14setTokenSecretERK7QString@Base 6.2.1
 _ZN16QOAuth1Signature18setClientSharedKeyERK7QString@Base 6.2.1
 _ZN16QOAuth1Signature20setHttpRequestMethodENS_17HttpRequestMethodE@Base 6.2.1
 _ZN16QOAuth1Signature21setCustomMethodStringERK10QByteArray@Base 6.2.1
 _ZN16QOAuth1Signature4swapERS_@Base 6.2.1
 _ZN16QOAuth1Signature4takeERK7QString@Base 6.2.1
 _ZN16QOAuth1Signature6insertERK7QStringRK8QVariant@Base 6.2.1
 _ZN16QOAuth1Signature6setUrlERK4QUrl@Base 6.2.1
 _ZN16QOAuth1Signature9plainTextERK7QStringS2_@Base 6.2.1
 _ZN16QOAuth1SignatureC1EOS_@Base 6.2.1
 _ZN16QOAuth1SignatureC1ERK4QUrlNS_17HttpRequestMethodERK9QMultiMapI7QString8QVariantE@Base 6.2.1
 _ZN16QOAuth1SignatureC1ERK4QUrlRK7QStringS5_NS_17HttpRequestMethodERK9QMultiMapIS3_8QVariantE@Base 6.2.1
 _ZN16QOAuth1SignatureC1ERKS_@Base 6.2.1
 _ZN16QOAuth1SignatureC2EOS_@Base 6.2.1
 _ZN16QOAuth1SignatureC2ERK4QUrlNS_17HttpRequestMethodERK9QMultiMapI7QString8QVariantE@Base 6.2.1
 _ZN16QOAuth1SignatureC2ERK4QUrlRK7QStringS5_NS_17HttpRequestMethodERK9QMultiMapIS3_8QVariantE@Base 6.2.1
 _ZN16QOAuth1SignatureC2ERKS_@Base 6.2.1
 _ZN16QOAuth1SignatureD1Ev@Base 6.2.1
 _ZN16QOAuth1SignatureD2Ev@Base 6.2.1
 _ZN16QOAuth1SignatureaSEOS_@Base 6.2.1
 _ZN16QOAuth1SignatureaSERKS_@Base 6.2.1
 _ZN21QOAuthOobReplyHandler11qt_metacallEN11QMetaObject4CallEiPPv@Base 6.2.1
 _ZN21QOAuthOobReplyHandler11qt_metacastEPKc@Base 6.2.1
 _ZN21QOAuthOobReplyHandler13parseResponseERK10QByteArray@Base 6.2.1
 _ZN21QOAuthOobReplyHandler16staticMetaObjectE@Base 6.2.1
 _ZN21QOAuthOobReplyHandler20networkReplyFinishedEP13QNetworkReply@Base 6.2.1
 _ZN21QOAuthOobReplyHandlerC1EP7QObject@Base 6.2.1
 _ZN21QOAuthOobReplyHandlerC2EP7QObject@Base 6.2.1
 _ZN26QAbstractOAuthReplyHandler11qt_metacallEN11QMetaObject4CallEiPPv@Base 6.2.1
 _ZN26QAbstractOAuthReplyHandler11qt_metacastEPKc@Base 6.2.1
 _ZN26QAbstractOAuthReplyHandler14tokensReceivedERK4QMapI7QString8QVariantE@Base 6.2.1
 _ZN26QAbstractOAuthReplyHandler16callbackReceivedERK4QMapI7QString8QVariantE@Base 6.2.1
 _ZN26QAbstractOAuthReplyHandler16staticMetaObjectE@Base 6.2.1
 _ZN26QAbstractOAuthReplyHandler17replyDataReceivedERK10QByteArray@Base 6.2.1
 _ZN26QAbstractOAuthReplyHandler20callbackDataReceivedERK10QByteArray@Base 6.2.1
 _ZN26QAbstractOAuthReplyHandlerC1EP7QObject@Base 6.2.1
 _ZN26QAbstractOAuthReplyHandlerC1ER14QObjectPrivateP7QObject@Base 6.2.1
 _ZN26QAbstractOAuthReplyHandlerC2EP7QObject@Base 6.2.1
 _ZN26QAbstractOAuthReplyHandlerC2ER14QObjectPrivateP7QObject@Base 6.2.1
 _ZN26QAbstractOAuthReplyHandlerD0Ev@Base 6.2.1
 _ZN26QAbstractOAuthReplyHandlerD1Ev@Base 6.2.1
 _ZN26QAbstractOAuthReplyHandlerD2Ev@Base 6.2.1
 _ZN28QOAuth2AuthorizationCodeFlow11qt_metacallEN11QMetaObject4CallEiPPv@Base 6.2.1
 _ZN28QOAuth2AuthorizationCodeFlow11qt_metacastEPKc@Base 6.2.1
 _ZN28QOAuth2AuthorizationCodeFlow16staticMetaObjectE@Base 6.2.1
 _ZN28QOAuth2AuthorizationCodeFlow17setAccessTokenUrlERK4QUrl@Base 6.2.1
 _ZN28QOAuth2AuthorizationCodeFlow18refreshAccessTokenEv@Base 6.2.1
 _ZN28QOAuth2AuthorizationCodeFlow18requestAccessTokenERK7QString@Base 6.2.1
 _ZN28QOAuth2AuthorizationCodeFlow20buildAuthenticateUrlERK9QMultiMapI7QString8QVariantE@Base 6.2.1
 _ZN28QOAuth2AuthorizationCodeFlow21accessTokenUrlChangedERK4QUrl@Base 6.2.1
 _ZN28QOAuth2AuthorizationCodeFlow26resourceOwnerAuthorizationERK4QUrlRK9QMultiMapI7QString8QVariantE@Base 6.2.1
 _ZN28QOAuth2AuthorizationCodeFlow5grantEv@Base 6.2.1
 _ZN28QOAuth2AuthorizationCodeFlowC1EP21QNetworkAccessManagerP7QObject@Base 6.2.1
 _ZN28QOAuth2AuthorizationCodeFlowC1EP7QObject@Base 6.2.1
 _ZN28QOAuth2AuthorizationCodeFlowC1ERK4QUrlS2_P21QNetworkAccessManagerP7QObject@Base 6.2.1
 _ZN28QOAuth2AuthorizationCodeFlowC1ERK7QStringP21QNetworkAccessManagerP7QObject@Base 6.2.1
 _ZN28QOAuth2AuthorizationCodeFlowC1ERK7QStringRK4QUrlS5_P21QNetworkAccessManagerP7QObject@Base 6.2.1
 _ZN28QOAuth2AuthorizationCodeFlowC2EP21QNetworkAccessManagerP7QObject@Base 6.2.1
 _ZN28QOAuth2AuthorizationCodeFlowC2EP7QObject@Base 6.2.1
 _ZN28QOAuth2AuthorizationCodeFlowC2ERK4QUrlS2_P21QNetworkAccessManagerP7QObject@Base 6.2.1
 _ZN28QOAuth2AuthorizationCodeFlowC2ERK7QStringP21QNetworkAccessManagerP7QObject@Base 6.2.1
 _ZN28QOAuth2AuthorizationCodeFlowC2ERK7QStringRK4QUrlS5_P21QNetworkAccessManagerP7QObject@Base 6.2.1
 _ZN28QOAuth2AuthorizationCodeFlowD0Ev@Base 6.2.1
 _ZN28QOAuth2AuthorizationCodeFlowD1Ev@Base 6.2.1
 _ZN28QOAuth2AuthorizationCodeFlowD2Ev@Base 6.2.1
 _ZN28QOAuthHttpServerReplyHandler11qt_metacallEN11QMetaObject4CallEiPPv@Base 6.2.1
 _ZN28QOAuthHttpServerReplyHandler11qt_metacastEPKc@Base 6.2.1
 _ZN28QOAuthHttpServerReplyHandler15setCallbackPathERK7QString@Base 6.2.1
 _ZN28QOAuthHttpServerReplyHandler15setCallbackTextERK7QString@Base 6.2.1
 _ZN28QOAuthHttpServerReplyHandler16staticMetaObjectE@Base 6.2.1
 _ZN28QOAuthHttpServerReplyHandler5closeEv@Base 6.2.1
 _ZN28QOAuthHttpServerReplyHandler6listenERK12QHostAddresst@Base 6.2.1
 _ZN28QOAuthHttpServerReplyHandlerC1EP7QObject@Base 6.2.1
 _ZN28QOAuthHttpServerReplyHandlerC1ERK12QHostAddresstP7QObject@Base 6.2.1
 _ZN28QOAuthHttpServerReplyHandlerC1EtP7QObject@Base 6.2.1
 _ZN28QOAuthHttpServerReplyHandlerC2EP7QObject@Base 6.2.1
 _ZN28QOAuthHttpServerReplyHandlerC2ERK12QHostAddresstP7QObject@Base 6.2.1
 _ZN28QOAuthHttpServerReplyHandlerC2EtP7QObject@Base 6.2.1
 _ZN28QOAuthHttpServerReplyHandlerD0Ev@Base 6.2.1
 _ZN28QOAuthHttpServerReplyHandlerD1Ev@Base 6.2.1
 _ZN28QOAuthHttpServerReplyHandlerD2Ev@Base 6.2.1
 _ZN7QOAuth111qt_metacallEN11QMetaObject4CallEiPPv@Base 6.2.1
 _ZN7QOAuth111qt_metacastEPKc@Base 6.2.1
 _ZN7QOAuth114deleteResourceERK4QUrlRK4QMapI7QString8QVariantE@Base 6.2.1
 _ZN7QOAuth114prepareRequestEP15QNetworkRequestRK10QByteArrayS4_@Base 6.2.1
 _ZN7QOAuth114setTokenSecretERK7QString@Base 6.2.1
 _ZN7QOAuth116staticMetaObjectE@Base 6.2.1
 _ZN7QOAuth118setSignatureMethodENS_15SignatureMethodE@Base 6.2.1
 _ZN7QOAuth118tokenSecretChangedERK7QString@Base 6.2.1
 _ZN7QOAuth119setTokenCredentialsERK7QStringS2_@Base 6.2.1
 _ZN7QOAuth119setTokenCredentialsERKSt4pairI7QStringS1_E@Base 6.2.1
 _ZN7QOAuth120setClientCredentialsERK7QStringS2_@Base 6.2.1
 _ZN7QOAuth120setClientCredentialsERKSt4pairI7QStringS1_E@Base 6.2.1
 _ZN7QOAuth121setClientSharedSecretERK7QString@Base 6.2.1
 _ZN7QOAuth122setTokenCredentialsUrlERK4QUrl@Base 6.2.1
 _ZN7QOAuth122signatureMethodChangedENS_15SignatureMethodE@Base 6.2.1
 _ZN7QOAuth123requestTokenCredentialsEN21QNetworkAccessManager9OperationERK4QUrlRKSt4pairI7QStringS6_ERK4QMapIS6_8QVariantE@Base 6.2.1
 _ZN7QOAuth125clientSharedSecretChangedERK7QString@Base 6.2.1
 _ZN7QOAuth125continueGrantWithVerifierERK7QString@Base 6.2.1
 _ZN7QOAuth126setTemporaryCredentialsUrlERK4QUrl@Base 6.2.1
 _ZN7QOAuth126tokenCredentialsUrlChangedERK4QUrl@Base 6.2.1
 _ZN7QOAuth127generateAuthorizationHeaderERK4QMapI7QString8QVariantE@Base 6.2.1
 _ZN7QOAuth127requestTemporaryCredentialsEN21QNetworkAccessManager9OperationERK4QUrlRK4QMapI7QString8QVariantE@Base 6.2.1
 _ZN7QOAuth130temporaryCredentialsUrlChangedERK4QUrl@Base 6.2.1
 _ZN7QOAuth13getERK4QUrlRK4QMapI7QString8QVariantE@Base 6.2.1
 _ZN7QOAuth13putERK4QUrlRK4QMapI7QString8QVariantE@Base 6.2.1
 _ZN7QOAuth14headERK4QUrlRK4QMapI7QString8QVariantE@Base 6.2.1
 _ZN7QOAuth14postERK4QUrlRK4QMapI7QString8QVariantE@Base 6.2.1
 _ZN7QOAuth15grantEv@Base 6.2.1
 _ZN7QOAuth15nonceEv@Base 6.2.1
 _ZN7QOAuth15setupEP15QNetworkRequestRK4QMapI7QString8QVariantEN21QNetworkAccessManager9OperationE@Base 6.2.1
 _ZN7QOAuth15setupEP15QNetworkRequestRK4QMapI7QString8QVariantERK10QByteArray@Base 6.2.1
 _ZN7QOAuth1C1EP21QNetworkAccessManagerP7QObject@Base 6.2.1
 _ZN7QOAuth1C1EP7QObject@Base 6.2.1
 _ZN7QOAuth1C1ERK7QStringS2_P21QNetworkAccessManagerP7QObject@Base 6.2.1
 _ZN7QOAuth1C2EP21QNetworkAccessManagerP7QObject@Base 6.2.1
 _ZN7QOAuth1C2EP7QObject@Base 6.2.1
 _ZN7QOAuth1C2ERK7QStringS2_P21QNetworkAccessManagerP7QObject@Base 6.2.1
 _ZNK14QAbstractOAuth10metaObjectEv@Base 6.2.1
 _ZNK14QAbstractOAuth11contentTypeEv@Base 6.2.1
 _ZNK14QAbstractOAuth11extraTokensEv@Base 6.2.1
 _ZNK14QAbstractOAuth12replyHandlerEv@Base 6.2.1
 _ZNK14QAbstractOAuth16authorizationUrlEv@Base 6.2.1
 _ZNK14QAbstractOAuth16clientIdentifierEv@Base 6.2.1
 _ZNK14QAbstractOAuth20networkAccessManagerEv@Base 6.2.1
 _ZNK14QAbstractOAuth24modifyParametersFunctionEv@Base 6.2.1
 _ZNK14QAbstractOAuth5tokenEv@Base 6.2.1
 _ZNK14QAbstractOAuth6statusEv@Base 6.2.1
 _ZNK14QAbstractOAuth8callbackEv@Base 6.2.1
 _ZNK15QAbstractOAuth210metaObjectEv@Base 6.2.1
 _ZNK15QAbstractOAuth212expirationAtEv@Base 6.2.1
 _ZNK15QAbstractOAuth212refreshTokenEv@Base 6.2.1
 _ZNK15QAbstractOAuth212responseTypeEv@Base 6.2.1
 _ZNK15QAbstractOAuth225clientIdentifierSharedKeyEv@Base 6.2.1
 _ZNK15QAbstractOAuth25scopeEv@Base 6.2.1
 _ZNK15QAbstractOAuth25stateEv@Base 6.2.1
 _ZNK15QAbstractOAuth29userAgentEv@Base 6.2.1
 _ZNK16QOAuth1Signature10parametersEv@Base 6.2.1
 _ZNK16QOAuth1Signature11tokenSecretEv@Base 6.2.1
 _ZNK16QOAuth1Signature15clientSharedKeyEv@Base 6.2.1
 _ZNK16QOAuth1Signature17httpRequestMethodEv@Base 6.2.1
 _ZNK16QOAuth1Signature18customMethodStringEv@Base 6.2.1
 _ZNK16QOAuth1Signature3urlEv@Base 6.2.1
 _ZNK16QOAuth1Signature4keysEv@Base 6.2.1
 _ZNK16QOAuth1Signature5valueERK7QStringRK8QVariant@Base 6.2.1
 _ZNK16QOAuth1Signature7rsaSha1Ev@Base 6.2.1
 _ZNK16QOAuth1Signature8hmacSha1Ev@Base 6.2.1
 _ZNK16QOAuth1Signature9plainTextEv@Base 6.2.1
 _ZNK21QOAuthOobReplyHandler10metaObjectEv@Base 6.2.1
 _ZNK21QOAuthOobReplyHandler8callbackEv@Base 6.2.1
 _ZNK26QAbstractOAuthReplyHandler10metaObjectEv@Base 6.2.1
 _ZNK28QOAuth2AuthorizationCodeFlow10metaObjectEv@Base 6.2.1
 _ZNK28QOAuth2AuthorizationCodeFlow14accessTokenUrlEv@Base 6.2.1
 _ZNK28QOAuthHttpServerReplyHandler10metaObjectEv@Base 6.2.1
 _ZNK28QOAuthHttpServerReplyHandler11isListeningEv@Base 6.2.1
 _ZNK28QOAuthHttpServerReplyHandler12callbackPathEv@Base 6.2.1
 _ZNK28QOAuthHttpServerReplyHandler12callbackTextEv@Base 6.2.1
 _ZNK28QOAuthHttpServerReplyHandler4portEv@Base 6.2.1
 _ZNK28QOAuthHttpServerReplyHandler8callbackEv@Base 6.2.1
 _ZNK7QOAuth110metaObjectEv@Base 6.2.1
 _ZNK7QOAuth111tokenSecretEv@Base 6.2.1
 _ZNK7QOAuth115signatureMethodEv@Base 6.2.1
 _ZNK7QOAuth116tokenCredentialsEv@Base 6.2.1
 _ZNK7QOAuth117clientCredentialsEv@Base 6.2.1
 _ZNK7QOAuth118clientSharedSecretEv@Base 6.2.1
 _ZNK7QOAuth119tokenCredentialsUrlEv@Base 6.2.1
 _ZNK7QOAuth123temporaryCredentialsUrlEv@Base 6.2.1
 (optional=templinst)_ZNKSt8_Rb_treeI7QStringSt4pairIKS0_8QVariantESt10_Select1stIS4_ESt4lessIS0_ESaIS4_EE4findERS2_@Base 6.2.1
 (optional=templinst|subst)_ZNSt23mersenne_twister_engineI{size_t}L{size_t}32EL{size_t}624EL{size_t}397EL{size_t}31EL{size_t}2567483615EL{size_t}11EL{size_t}4294967295EL{size_t}7EL{size_t}2636928640EL{size_t}15EL{size_t}4022730752EL{size_t}18EL{size_t}1812433253EE11_M_gen_randEv@Base 6.2.1
 (optional=templinst|arch=!ppc64el|subst)_ZNSt23mersenne_twister_engineI{size_t}L{size_t}32EL{size_t}624EL{size_t}397EL{size_t}31EL{size_t}2567483615EL{size_t}11EL{size_t}4294967295EL{size_t}7EL{size_t}2636928640EL{size_t}15EL{size_t}4022730752EL{size_t}18EL{size_t}1812433253EEclEv@Base 6.2.1
 (optional=templinst)_ZNSt8_Rb_treeI10QByteArraySt4pairIKS0_S0_ESt10_Select1stIS3_ESt4lessIS0_ESaIS3_EE24_M_get_insert_unique_posERS2_@Base 6.2.1
 (optional=templinst)_ZNSt8_Rb_treeI10QByteArraySt4pairIKS0_S0_ESt10_Select1stIS3_ESt4lessIS0_ESaIS3_EE29_M_get_insert_hint_unique_posESt23_Rb_tree_const_iteratorIS3_ERS2_@Base 6.2.1
 (optional=templinst)_ZNSt8_Rb_treeI7QStringSt4pairIKS0_8QVariantESt10_Select1stIS4_ESt4lessIS0_ESaIS4_EE11equal_rangeERS2_@Base 6.2.1
 (optional=templinst|arch=armhf ppc64el s390x)_ZNSt8_Rb_treeI7QStringSt4pairIKS0_8QVariantESt10_Select1stIS4_ESt4lessIS0_ESaIS4_EE15_M_insert_equalIS4_EESt17_Rb_tree_iteratorIS4_EOT_@Base 6.2.2
 (optional=templinst)_ZNSt8_Rb_treeI7QStringSt4pairIKS0_8QVariantESt10_Select1stIS4_ESt4lessIS0_ESaIS4_EE21_M_insert_equal_lowerIS4_EESt17_Rb_tree_iteratorIS4_EOT_@Base 6.2.1
 (optional=templinst|arch=!ppc64el)_ZNSt8_Rb_treeI7QStringSt4pairIKS0_8QVariantESt10_Select1stIS4_ESt4lessIS0_ESaIS4_EE23_M_get_insert_equal_posERS2_@Base 6.2.1
 (optional=templinst)_ZNSt8_Rb_treeI7QStringSt4pairIKS0_8QVariantESt10_Select1stIS4_ESt4lessIS0_ESaIS4_EE24_M_get_insert_unique_posERS2_@Base 6.2.1
 (optional=templinst)_ZNSt8_Rb_treeI7QStringSt4pairIKS0_8QVariantESt10_Select1stIS4_ESt4lessIS0_ESaIS4_EE28_M_get_insert_hint_equal_posESt23_Rb_tree_const_iteratorIS4_ERS2_@Base 6.2.1
 (optional=templinst|arch=!armhf !s390x)_ZNSt8_Rb_treeI7QStringSt4pairIKS0_8QVariantESt10_Select1stIS4_ESt4lessIS0_ESaIS4_EE29_M_get_insert_hint_unique_posESt23_Rb_tree_const_iteratorIS4_ERS2_@Base 6.2.1
 (optional=templinst)_ZNSt8_Rb_treeI7QStringSt4pairIKS0_8QVariantESt10_Select1stIS4_ESt4lessIS0_ESaIS4_EE4findERS2_@Base 6.2.1
 _ZTI14QAbstractOAuth@Base 6.2.1
 _ZTI15QAbstractOAuth2@Base 6.2.1
 _ZTI21QOAuthOobReplyHandler@Base 6.2.1
 _ZTI26QAbstractOAuthReplyHandler@Base 6.2.1
 _ZTI28QOAuth2AuthorizationCodeFlow@Base 6.2.1
 _ZTI28QOAuthHttpServerReplyHandler@Base 6.2.1
 _ZTI7QOAuth1@Base 6.2.1
 _ZTS14QAbstractOAuth@Base 6.2.1
 _ZTS15QAbstractOAuth2@Base 6.2.1
 _ZTS21QOAuthOobReplyHandler@Base 6.2.1
 _ZTS26QAbstractOAuthReplyHandler@Base 6.2.1
 _ZTS28QOAuth2AuthorizationCodeFlow@Base 6.2.1
 _ZTS28QOAuthHttpServerReplyHandler@Base 6.2.1
 _ZTS7QOAuth1@Base 6.2.1
 _ZTV14QAbstractOAuth@Base 6.2.1
 _ZTV15QAbstractOAuth2@Base 6.2.1
 _ZTV21QOAuthOobReplyHandler@Base 6.2.1
 _ZTV26QAbstractOAuthReplyHandler@Base 6.2.1
 _ZTV28QOAuth2AuthorizationCodeFlow@Base 6.2.1
 _ZTV28QOAuthHttpServerReplyHandler@Base 6.2.1
 _ZTV7QOAuth1@Base 6.2.1
 (optional=templinst)_ZZN9QtPrivate16QMetaTypeForTypeI10QByteArrayE10getCopyCtrEvENUlPKNS_18QMetaTypeInterfaceEPvPKvE_4_FUNES5_S6_S8_@Base 6.2.1
 (optional=templinst)_ZZN9QtPrivate16QMetaTypeForTypeI10QByteArrayE10getMoveCtrEvENUlPKNS_18QMetaTypeInterfaceEPvS6_E_4_FUNES5_S6_S6_@Base 6.2.1
 (optional=templinst)_ZZN9QtPrivate16QMetaTypeForTypeI10QByteArrayE13getDefaultCtrEvENUlPKNS_18QMetaTypeInterfaceEPvE_4_FUNES5_S6_@Base 6.2.1
 (optional=templinst)_ZZN9QtPrivate16QMetaTypeForTypeI10QByteArrayE7getDtorEvENUlPKNS_18QMetaTypeInterfaceEPvE_4_FUNES5_S6_@Base 6.2.1
 (optional=templinst)_ZZN9QtPrivate16QMetaTypeForTypeI4QMapI7QString8QVariantEE10getCopyCtrEvENUlPKNS_18QMetaTypeInterfaceEPvPKvE_4_FUNES8_S9_SB_@Base 6.2.1
 (optional=templinst)_ZZN9QtPrivate16QMetaTypeForTypeI4QMapI7QString8QVariantEE10getMoveCtrEvENUlPKNS_18QMetaTypeInterfaceEPvS9_E_4_FUNES8_S9_S9_@Base 6.2.1
 (optional=templinst)_ZZN9QtPrivate16QMetaTypeForTypeI4QMapI7QString8QVariantEE13getDefaultCtrEvENUlPKNS_18QMetaTypeInterfaceEPvE_4_FUNES8_S9_@Base 6.2.1
 (optional=templinst)_ZZN9QtPrivate16QMetaTypeForTypeI4QMapI7QString8QVariantEE7getDtorEvENUlPKNS_18QMetaTypeInterfaceEPvE_4_FUNES8_S9_@Base 6.2.1
 (optional=templinst)_ZZN9QtPrivate16QMetaTypeForTypeI4QUrlE10getCopyCtrEvENUlPKNS_18QMetaTypeInterfaceEPvPKvE_4_FUNES5_S6_S8_@Base 6.2.1
 (optional=templinst)_ZZN9QtPrivate16QMetaTypeForTypeI4QUrlE10getMoveCtrEvENUlPKNS_18QMetaTypeInterfaceEPvS6_E_4_FUNES5_S6_S6_@Base 6.2.1
 (optional=templinst)_ZZN9QtPrivate16QMetaTypeForTypeI4QUrlE13getDefaultCtrEvENUlPKNS_18QMetaTypeInterfaceEPvE_4_FUNES5_S6_@Base 6.2.1
 (optional=templinst)_ZZN9QtPrivate16QMetaTypeForTypeI4QUrlE7getDtorEvENUlPKNS_18QMetaTypeInterfaceEPvE_4_FUNES5_S6_@Base 6.2.1
 (optional=templinst)_ZZN9QtPrivate16QMetaTypeForTypeI7QStringE10getCopyCtrEvENUlPKNS_18QMetaTypeInterfaceEPvPKvE_4_FUNES5_S6_S8_@Base 6.2.1
 (optional=templinst)_ZZN9QtPrivate16QMetaTypeForTypeI7QStringE10getMoveCtrEvENUlPKNS_18QMetaTypeInterfaceEPvS6_E_4_FUNES5_S6_S6_@Base 6.2.1
 (optional=templinst)_ZZN9QtPrivate16QMetaTypeForTypeI7QStringE13getDefaultCtrEvENUlPKNS_18QMetaTypeInterfaceEPvE_4_FUNES5_S6_@Base 6.2.1
 (optional=templinst)_ZZN9QtPrivate16QMetaTypeForTypeI7QStringE7getDtorEvENUlPKNS_18QMetaTypeInterfaceEPvE_4_FUNES5_S6_@Base 6.2.1
 (optional=templinst)_ZZN9QtPrivate16QMetaTypeForTypeI9QDateTimeE10getCopyCtrEvENUlPKNS_18QMetaTypeInterfaceEPvPKvE_4_FUNES5_S6_S8_@Base 6.2.1
 (optional=templinst)_ZZN9QtPrivate16QMetaTypeForTypeI9QDateTimeE10getMoveCtrEvENUlPKNS_18QMetaTypeInterfaceEPvS6_E_4_FUNES5_S6_S6_@Base 6.2.1
 (optional=templinst)_ZZN9QtPrivate16QMetaTypeForTypeI9QDateTimeE13getDefaultCtrEvENUlPKNS_18QMetaTypeInterfaceEPvE_4_FUNES5_S6_@Base 6.2.1
 (optional=templinst)_ZZN9QtPrivate16QMetaTypeForTypeI9QDateTimeE7getDtorEvENUlPKNS_18QMetaTypeInterfaceEPvE_4_FUNES5_S6_@Base 6.2.1
