# SymbolsHelper-Confirmed: 6.2.1 amd64 armel armhf i386
libQt6Nfc.so.6 libqt6nfc6 #MINVER#
* Build-Depends-Package: qt6-connectivity-dev
 _Z5qHashRK11QNdefRecord@Base 6.2.1
 _ZN11QNdefFilter12appendRecordEN11QNdefRecord14TypeNameFormatERK10QByteArrayjj@Base 6.2.1
 _ZN11QNdefFilter12appendRecordERKNS_6RecordE@Base 6.2.1
 _ZN11QNdefFilter13setOrderMatchEb@Base 6.2.1
 _ZN11QNdefFilter5clearEv@Base 6.2.1
 _ZN11QNdefFilterC1ERKS_@Base 6.2.1
 _ZN11QNdefFilterC1Ev@Base 6.2.1
 _ZN11QNdefFilterC2ERKS_@Base 6.2.1
 _ZN11QNdefFilterC2Ev@Base 6.2.1
 _ZN11QNdefFilterD1Ev@Base 6.2.1
 _ZN11QNdefFilterD2Ev@Base 6.2.1
 _ZN11QNdefFilteraSERKS_@Base 6.2.1
 _ZN11QNdefRecord10setPayloadERK10QByteArray@Base 6.2.1
 _ZN11QNdefRecord17setTypeNameFormatENS_14TypeNameFormatE@Base 6.2.1
 _ZN11QNdefRecord5clearEv@Base 6.2.1
 _ZN11QNdefRecord5setIdERK10QByteArray@Base 6.2.1
 _ZN11QNdefRecord7setTypeERK10QByteArray@Base 6.2.1
 _ZN11QNdefRecordC1ENS_14TypeNameFormatERK10QByteArray@Base 6.2.1
 _ZN11QNdefRecordC1ERKS_@Base 6.2.1
 _ZN11QNdefRecordC1ERKS_NS_14TypeNameFormatE@Base 6.2.1
 _ZN11QNdefRecordC1ERKS_NS_14TypeNameFormatERK10QByteArray@Base 6.2.1
 _ZN11QNdefRecordC1Ev@Base 6.2.1
 _ZN11QNdefRecordC2ENS_14TypeNameFormatERK10QByteArray@Base 6.2.1
 _ZN11QNdefRecordC2ERKS_@Base 6.2.1
 _ZN11QNdefRecordC2ERKS_NS_14TypeNameFormatE@Base 6.2.1
 _ZN11QNdefRecordC2ERKS_NS_14TypeNameFormatERK10QByteArray@Base 6.2.1
 _ZN11QNdefRecordC2Ev@Base 6.2.1
 _ZN11QNdefRecordD1Ev@Base 6.2.1
 _ZN11QNdefRecordD2Ev@Base 6.2.1
 _ZN11QNdefRecordaSERKS_@Base 6.2.1
 _ZN12QNdefMessage13fromByteArrayERK10QByteArray@Base 6.2.1
 _ZN16QNearFieldTarget10disconnectEv@Base 6.2.1
 _ZN16QNearFieldTarget11qt_metacallEN11QMetaObject4CallEiPPv@Base 6.2.1
 _ZN16QNearFieldTarget11qt_metacastEPKc@Base 6.2.1
 _ZN16QNearFieldTarget11sendCommandERK10QByteArray@Base 6.2.1
 _ZN16QNearFieldTarget12disconnectedEv@Base 6.2.1
 _ZN16QNearFieldTarget14hasNdefMessageEv@Base 6.2.1
 _ZN16QNearFieldTarget15ndefMessageReadERK12QNdefMessage@Base 6.2.1
 _ZN16QNearFieldTarget16readNdefMessagesEv@Base 6.2.1
 _ZN16QNearFieldTarget16requestCompletedERKNS_9RequestIdE@Base 6.2.1
 _ZN16QNearFieldTarget16staticMetaObjectE@Base 6.2.1
 _ZN16QNearFieldTarget17writeNdefMessagesERK5QListI12QNdefMessageE@Base 6.2.1
 _ZN16QNearFieldTarget23waitForRequestCompletedERKNS_9RequestIdEi@Base 6.2.1
 _ZN16QNearFieldTarget5errorENS_5ErrorERKNS_9RequestIdE@Base 6.2.1
 _ZN16QNearFieldTarget9RequestIdC1EPNS_16RequestIdPrivateE@Base 6.2.1
 _ZN16QNearFieldTarget9RequestIdC1ERKS0_@Base 6.2.1
 _ZN16QNearFieldTarget9RequestIdC1Ev@Base 6.2.1
 _ZN16QNearFieldTarget9RequestIdC2EPNS_16RequestIdPrivateE@Base 6.2.1
 _ZN16QNearFieldTarget9RequestIdC2ERKS0_@Base 6.2.1
 _ZN16QNearFieldTarget9RequestIdC2Ev@Base 6.2.1
 _ZN16QNearFieldTarget9RequestIdD1Ev@Base 6.2.1
 _ZN16QNearFieldTarget9RequestIdD2Ev@Base 6.2.1
 _ZN16QNearFieldTarget9RequestIdaSERKS0_@Base 6.2.1
 _ZN16QNearFieldTargetC1EP23QNearFieldTargetPrivateP7QObject@Base 6.2.1
 _ZN16QNearFieldTargetC1EP7QObject@Base 6.2.1
 _ZN16QNearFieldTargetC2EP23QNearFieldTargetPrivateP7QObject@Base 6.2.1
 _ZN16QNearFieldTargetC2EP7QObject@Base 6.2.1
 _ZN16QNearFieldTargetD0Ev@Base 6.2.1
 _ZN16QNearFieldTargetD1Ev@Base 6.2.1
 _ZN16QNearFieldTargetD2Ev@Base 6.2.1
 _ZN17QNdefNfcUriRecord6setUriERK4QUrl@Base 6.2.1
 _ZN17QNearFieldManager10targetLostEP16QNearFieldTarget@Base 6.2.1
 _ZN17QNearFieldManager11qt_metacallEN11QMetaObject4CallEiPPv@Base 6.2.1
 _ZN17QNearFieldManager11qt_metacastEPKc@Base 6.2.1
 _ZN17QNearFieldManager14targetDetectedEP16QNearFieldTarget@Base 6.2.1
 _ZN17QNearFieldManager16staticMetaObjectE@Base 6.2.1
 _ZN17QNearFieldManager18setUserInformationERK7QString@Base 6.2.1
 _ZN17QNearFieldManager19adapterStateChangedENS_12AdapterStateE@Base 6.2.1
 _ZN17QNearFieldManager19stopTargetDetectionERK7QString@Base 6.2.1
 _ZN17QNearFieldManager20startTargetDetectionEN16QNearFieldTarget12AccessMethodE@Base 6.2.1
 _ZN17QNearFieldManager22targetDetectionStoppedEv@Base 6.2.1
 _ZN17QNearFieldManagerC1EP24QNearFieldManagerPrivateP7QObject@Base 6.2.1
 _ZN17QNearFieldManagerC1EP7QObject@Base 6.2.1
 _ZN17QNearFieldManagerC2EP24QNearFieldManagerPrivateP7QObject@Base 6.2.1
 _ZN17QNearFieldManagerC2EP7QObject@Base 6.2.1
 _ZN17QNearFieldManagerD0Ev@Base 6.2.1
 _ZN17QNearFieldManagerD1Ev@Base 6.2.1
 _ZN17QNearFieldManagerD2Ev@Base 6.2.1
 _ZN18QNdefNfcIconRecord7setDataERK10QByteArray@Base 6.2.1
 _ZN18QNdefNfcTextRecord11setEncodingENS_8EncodingE@Base 6.2.1
 _ZN18QNdefNfcTextRecord7setTextE7QString@Base 6.2.1
 _ZN18QNdefNfcTextRecord9setLocaleERK7QString@Base 6.2.1
 _ZN25QNdefNfcSmartPosterRecord10removeIconERK10QByteArray@Base 6.2.1
 _ZN25QNdefNfcSmartPosterRecord10removeIconERK18QNdefNfcIconRecord@Base 6.2.1
 _ZN25QNdefNfcSmartPosterRecord10setPayloadERK10QByteArray@Base 6.2.1
 _ZN25QNdefNfcSmartPosterRecord11removeTitleERK18QNdefNfcTextRecord@Base 6.2.1
 _ZN25QNdefNfcSmartPosterRecord11removeTitleERK7QString@Base 6.2.1
 _ZN25QNdefNfcSmartPosterRecord11setTypeInfoERK7QString@Base 6.2.1
 _ZN25QNdefNfcSmartPosterRecord15addIconInternalERK18QNdefNfcIconRecord@Base 6.2.1
 _ZN25QNdefNfcSmartPosterRecord16addTitleInternalERK18QNdefNfcTextRecord@Base 6.2.1
 _ZN25QNdefNfcSmartPosterRecord16convertToPayloadEv@Base 6.2.1
 _ZN25QNdefNfcSmartPosterRecord6setUriERK17QNdefNfcUriRecord@Base 6.2.1
 _ZN25QNdefNfcSmartPosterRecord6setUriERK4QUrl@Base 6.2.1
 _ZN25QNdefNfcSmartPosterRecord7addIconERK10QByteArrayS2_@Base 6.2.1
 _ZN25QNdefNfcSmartPosterRecord7addIconERK18QNdefNfcIconRecord@Base 6.2.1
 _ZN25QNdefNfcSmartPosterRecord7cleanupEv@Base 6.2.1
 _ZN25QNdefNfcSmartPosterRecord7setSizeEj@Base 6.2.1
 _ZN25QNdefNfcSmartPosterRecord8addTitleERK18QNdefNfcTextRecord@Base 6.2.1
 _ZN25QNdefNfcSmartPosterRecord8addTitleERK7QStringS2_N18QNdefNfcTextRecord8EncodingE@Base 6.2.1
 _ZN25QNdefNfcSmartPosterRecord8setIconsERK5QListI18QNdefNfcIconRecordE@Base 6.2.1
 _ZN25QNdefNfcSmartPosterRecord9setActionENS_6ActionE@Base 6.2.1
 _ZN25QNdefNfcSmartPosterRecord9setTitlesERK5QListI18QNdefNfcTextRecordE@Base 6.2.1
 _ZN25QNdefNfcSmartPosterRecordC1ERK11QNdefRecord@Base 6.2.1
 _ZN25QNdefNfcSmartPosterRecordC1ERKS_@Base 6.2.1
 _ZN25QNdefNfcSmartPosterRecordC1Ev@Base 6.2.1
 _ZN25QNdefNfcSmartPosterRecordC2ERK11QNdefRecord@Base 6.2.1
 _ZN25QNdefNfcSmartPosterRecordC2ERKS_@Base 6.2.1
 _ZN25QNdefNfcSmartPosterRecordC2Ev@Base 6.2.1
 _ZN25QNdefNfcSmartPosterRecordD1Ev@Base 6.2.1
 _ZN25QNdefNfcSmartPosterRecordD2Ev@Base 6.2.1
 _ZN25QNdefNfcSmartPosterRecordaSERKS_@Base 6.2.1
 _ZNK11QNdefFilter10orderMatchEv@Base 6.2.1
 _ZNK11QNdefFilter11recordCountEv@Base 6.2.1
 _ZNK11QNdefFilter5matchERK12QNdefMessage@Base 6.2.1
 (subst)_ZNK11QNdefFilter8recordAtE{qptrdiff}@Base 6.2.1
 _ZNK11QNdefRecord14typeNameFormatEv@Base 6.2.1
 _ZNK11QNdefRecord2idEv@Base 6.2.1
 _ZNK11QNdefRecord4typeEv@Base 6.2.1
 _ZNK11QNdefRecord7isEmptyEv@Base 6.2.1
 _ZNK11QNdefRecord7payloadEv@Base 6.2.1
 _ZNK11QNdefRecordeqERKS_@Base 6.2.1
 _ZNK12QNdefMessage11toByteArrayEv@Base 6.2.1
 _ZNK12QNdefMessageeqERKS_@Base 6.2.1
 _ZNK16QNearFieldTarget10metaObjectEv@Base 6.2.1
 _ZNK16QNearFieldTarget13accessMethodsEv@Base 6.2.1
 _ZNK16QNearFieldTarget15requestResponseERKNS_9RequestIdE@Base 6.2.1
 _ZNK16QNearFieldTarget16maxCommandLengthEv@Base 6.2.1
 _ZNK16QNearFieldTarget3uidEv@Base 6.2.1
 _ZNK16QNearFieldTarget4typeEv@Base 6.2.1
 _ZNK16QNearFieldTarget9RequestId7isValidEv@Base 6.2.1
 _ZNK16QNearFieldTarget9RequestId8refCountEv@Base 6.2.1
 _ZNK16QNearFieldTarget9RequestIdeqERKS0_@Base 6.2.1
 _ZNK16QNearFieldTarget9RequestIdltERKS0_@Base 6.2.1
 _ZNK16QNearFieldTarget9RequestIdneERKS0_@Base 6.2.1
 _ZNK17QNdefNfcUriRecord3uriEv@Base 6.2.1
 _ZNK17QNearFieldManager10metaObjectEv@Base 6.2.1
 _ZNK17QNearFieldManager11isSupportedEN16QNearFieldTarget12AccessMethodE@Base 6.2.1
 _ZNK17QNearFieldManager9isEnabledEv@Base 6.2.1
 _ZNK18QNdefNfcIconRecord4dataEv@Base 6.2.1
 _ZNK18QNdefNfcTextRecord4textEv@Base 6.2.1
 _ZNK18QNdefNfcTextRecord6localeEv@Base 6.2.1
 _ZNK18QNdefNfcTextRecord8encodingEv@Base 6.2.1
 (subst)_ZNK25QNdefNfcSmartPosterRecord10iconRecordE{qptrdiff}@Base 6.2.1
 _ZNK25QNdefNfcSmartPosterRecord10titleCountEv@Base 6.2.1
 _ZNK25QNdefNfcSmartPosterRecord11hasTypeInfoEv@Base 6.2.1
 _ZNK25QNdefNfcSmartPosterRecord11iconRecordsEv@Base 6.2.1
 (subst)_ZNK25QNdefNfcSmartPosterRecord11titleRecordE{qptrdiff}@Base 6.2.1
 _ZNK25QNdefNfcSmartPosterRecord12titleRecordsEv@Base 6.2.1
 _ZNK25QNdefNfcSmartPosterRecord3uriEv@Base 6.2.1
 _ZNK25QNdefNfcSmartPosterRecord4iconERK10QByteArray@Base 6.2.1
 _ZNK25QNdefNfcSmartPosterRecord4sizeEv@Base 6.2.1
 _ZNK25QNdefNfcSmartPosterRecord5titleERK7QString@Base 6.2.1
 _ZNK25QNdefNfcSmartPosterRecord6actionEv@Base 6.2.1
 _ZNK25QNdefNfcSmartPosterRecord7hasIconERK10QByteArray@Base 6.2.1
 _ZNK25QNdefNfcSmartPosterRecord7hasSizeEv@Base 6.2.1
 _ZNK25QNdefNfcSmartPosterRecord8hasTitleERK7QString@Base 6.2.1
 _ZNK25QNdefNfcSmartPosterRecord8typeInfoEv@Base 6.2.1
 _ZNK25QNdefNfcSmartPosterRecord9hasActionEv@Base 6.2.1
 _ZNK25QNdefNfcSmartPosterRecord9iconCountEv@Base 6.2.1
 _ZNK25QNdefNfcSmartPosterRecord9uriRecordEv@Base 6.2.1
 (optional=templinst)_ZNKSt8_Rb_treeIN16QNearFieldTarget9RequestIdESt4pairIKS1_8QVariantESt10_Select1stIS5_ESt4lessIS1_ESaIS5_EE4findERS3_@Base 6.2.1
 (optional=templinst)_ZNKSt8_Rb_treeISt4pairIN11QNdefRecord14TypeNameFormatE10QByteArrayES0_IKS4_N11QNdefFilter6RecordEESt10_Select1stIS8_ESt4lessIS4_ESaIS8_EE4findERS5_@Base 6.2.1
 (optional=templinst)_ZNSt8_Rb_treeIN16QNearFieldTarget9RequestIdESt4pairIKS1_8QVariantESt10_Select1stIS5_ESt4lessIS1_ESaIS5_EE24_M_get_insert_unique_posERS3_@Base 6.2.1
 (optional=templinst)_ZNSt8_Rb_treeIN16QNearFieldTarget9RequestIdESt4pairIKS1_8QVariantESt10_Select1stIS5_ESt4lessIS1_ESaIS5_EE29_M_get_insert_hint_unique_posESt23_Rb_tree_const_iteratorIS5_ERS3_@Base 6.2.1
 (optional=templinst)_ZNSt8_Rb_treeISt4pairIN11QNdefRecord14TypeNameFormatE10QByteArrayES0_IKS4_N11QNdefFilter6RecordEESt10_Select1stIS8_ESt4lessIS4_ESaIS8_EE16_M_insert_uniqueIS8_EES0_ISt17_Rb_tree_iteratorIS8_EbEOT_@Base 6.2.1
 (optional=templinst)_ZNSt8_Rb_treeISt4pairIN11QNdefRecord14TypeNameFormatE10QByteArrayES0_IKS4_N11QNdefFilter6RecordEESt10_Select1stIS8_ESt4lessIS4_ESaIS8_EE24_M_get_insert_unique_posERS5_@Base 6.2.1
 (optional=templinst)_ZNSt8_Rb_treeISt4pairIN11QNdefRecord14TypeNameFormatE10QByteArrayES0_IKS4_N11QNdefFilter6RecordEESt10_Select1stIS8_ESt4lessIS4_ESaIS8_EE29_M_get_insert_hint_unique_posESt23_Rb_tree_const_iteratorIS8_ERS5_@Base 6.2.1
 (optional=templinst)_ZNSt8_Rb_treeISt4pairIN11QNdefRecord14TypeNameFormatE10QByteArrayES0_IKS4_jESt10_Select1stIS6_ESt4lessIS4_ESaIS6_EE16_M_insert_uniqueIS6_EES0_ISt17_Rb_tree_iteratorIS6_EbEOT_@Base 6.2.1
 _ZTI16QNearFieldTarget@Base 6.2.1
 _ZTI17QNearFieldManager@Base 6.2.1
 _ZTS16QNearFieldTarget@Base 6.2.1
 _ZTS17QNearFieldManager@Base 6.2.1
 _ZTV16QNearFieldTarget@Base 6.2.1
 _ZTV17QNearFieldManager@Base 6.2.1
