# SymbolsHelper-Confirmed: 6.2.1 amd64 armel armhf i386 ppc64el
libQt6Bluetooth.so.6 libqt6bluetooth6 #MINVER#
* Build-Depends-Package: qt6-connectivity-dev
 _Z17bluetoothdVersionv@Base 6.2.1
 _ZGVZN9QMetaType21registerConverterImplI14QSharedPointerI24QLowEnergyServicePrivateEP7QObjectEEbSt8functionIFbPKvPvEES_S_E10unregister@Base 6.2.1
 _ZGVZN9QMetaType21registerConverterImplI4QMapI15QDBusObjectPathS1_I7QStringS1_IS3_8QVariantEEE9QIterableI16QMetaAssociationEEEbSt8functionIFbPKvPvEES_S_E10unregister@Base 6.2.1
 _ZGVZN9QMetaType21registerConverterImplI4QMapI7QStringS1_IS2_8QVariantEE9QIterableI16QMetaAssociationEEEbSt8functionIFbPKvPvEES_S_E10unregister@Base 6.2.1
 _ZGVZN9QMetaType21registerConverterImplI4QMapIt12QDBusVariantE9QIterableI16QMetaAssociationEEEbSt8functionIFbPKvPvEES_S_E10unregister@Base 6.2.1
 _ZGVZN9QMetaType21registerConverterImplI5QListI15QDBusObjectPathE9QIterableI13QMetaSequenceEEEbSt8functionIFbPKvPvEES_S_E10unregister@Base 6.2.1
 _ZGVZN9QMetaType21registerConverterImplI5QListItE9QIterableI13QMetaSequenceEEEbSt8functionIFbPKvPvEES_S_E10unregister@Base 6.2.1
 _ZGVZN9QMetaType23registerMutableViewImplI4QMapI15QDBusObjectPathS1_I7QStringS1_IS3_8QVariantEEE9QIterableI16QMetaAssociationEEEbSt8functionIFbPvSC_EES_S_E10unregister@Base 6.2.1
 _ZGVZN9QMetaType23registerMutableViewImplI4QMapI7QStringS1_IS2_8QVariantEE9QIterableI16QMetaAssociationEEEbSt8functionIFbPvSA_EES_S_E10unregister@Base 6.2.1
 _ZGVZN9QMetaType23registerMutableViewImplI4QMapIt12QDBusVariantE9QIterableI16QMetaAssociationEEEbSt8functionIFbPvS8_EES_S_E10unregister@Base 6.2.1
 _ZGVZN9QMetaType23registerMutableViewImplI5QListI15QDBusObjectPathE9QIterableI13QMetaSequenceEEEbSt8functionIFbPvS8_EES_S_E10unregister@Base 6.2.1
 _ZGVZN9QMetaType23registerMutableViewImplI5QListItE9QIterableI13QMetaSequenceEEEbSt8functionIFbPvS7_EES_S_E10unregister@Base 6.2.1
 _ZN10QBluetooth16staticMetaObjectE@Base 6.2.1
 _ZN13QMetaSequence12MetaSequenceI5QListI15QDBusObjectPathEE5valueE@Base 6.2.1
 _ZN13QMetaSequence12MetaSequenceI5QListItEE5valueE@Base 6.2.1
 _ZN14QBluetoothUuid16protocolToStringENS_12ProtocolUuidE@Base 6.2.1
 _ZN14QBluetoothUuid17streamingOperatorE6QDebugRKS_@Base 6.2.1
 _ZN14QBluetoothUuid18descriptorToStringENS_14DescriptorTypeE@Base 6.2.1
 _ZN14QBluetoothUuid20serviceClassToStringENS_16ServiceClassUuidE@Base 6.2.1
 _ZN14QBluetoothUuid22characteristicToStringENS_18CharacteristicTypeE@Base 6.2.1
 _ZN14QBluetoothUuidC1E8quint128@Base 6.2.1
 _ZN14QBluetoothUuidC1ERK5QUuid@Base 6.2.1
 _ZN14QBluetoothUuidC1ERK7QString@Base 6.2.1
 _ZN14QBluetoothUuidC2E8quint128@Base 6.2.1
 _ZN14QBluetoothUuidC2ERK5QUuid@Base 6.2.1
 _ZN14QBluetoothUuidC2ERK7QString@Base 6.2.1
 _ZN16QBluetoothServer11qt_metacallEN11QMetaObject4CallEiPPv@Base 6.2.1
 _ZN16QBluetoothServer11qt_metacastEPKc@Base 6.2.1
 _ZN16QBluetoothServer13errorOccurredENS_5ErrorE@Base 6.2.1
 _ZN16QBluetoothServer13newConnectionEv@Base 6.2.1
 _ZN16QBluetoothServer16setSecurityFlagsE6QFlagsIN10QBluetooth8SecurityEE@Base 6.2.1
 _ZN16QBluetoothServer16staticMetaObjectE@Base 6.2.1
 _ZN16QBluetoothServer21nextPendingConnectionEv@Base 6.2.1
 _ZN16QBluetoothServer24setMaxPendingConnectionsEi@Base 6.2.1
 _ZN16QBluetoothServer5closeEv@Base 6.2.1
 _ZN16QBluetoothServer6listenERK14QBluetoothUuidRK7QString@Base 6.2.1
 _ZN16QBluetoothServer6listenERK17QBluetoothAddresst@Base 6.2.1
 _ZN16QBluetoothServerC1EN21QBluetoothServiceInfo8ProtocolEP7QObject@Base 6.2.1
 _ZN16QBluetoothServerC2EN21QBluetoothServiceInfo8ProtocolEP7QObject@Base 6.2.1
 _ZN16QBluetoothServerD0Ev@Base 6.2.1
 _ZN16QBluetoothServerD1Ev@Base 6.2.1
 _ZN16QBluetoothServerD2Ev@Base 6.2.1
 _ZN16QBluetoothSocket11qt_metacallEN11QMetaObject4CallEiPPv@Base 6.2.1
 _ZN16QBluetoothSocket11qt_metacastEPKc@Base 6.2.1
 _ZN16QBluetoothSocket12disconnectedEv@Base 6.2.1
 _ZN16QBluetoothSocket12stateChangedENS_11SocketStateE@Base 6.2.1
 _ZN16QBluetoothSocket13errorOccurredENS_11SocketErrorE@Base 6.2.1
 _ZN16QBluetoothSocket14setSocketErrorENS_11SocketErrorE@Base 6.2.1
 _ZN16QBluetoothSocket14setSocketStateENS_11SocketStateE@Base 6.2.1
 _ZN16QBluetoothSocket16connectToServiceERK17QBluetoothAddressRK14QBluetoothUuid6QFlagsIN13QIODeviceBase12OpenModeFlagEE@Base 6.2.1
 _ZN16QBluetoothSocket16connectToServiceERK17QBluetoothAddresst6QFlagsIN13QIODeviceBase12OpenModeFlagEE@Base 6.2.1
 _ZN16QBluetoothSocket16connectToServiceERK21QBluetoothServiceInfo6QFlagsIN13QIODeviceBase12OpenModeFlagEE@Base 6.2.1
 _ZN16QBluetoothSocket16staticMetaObjectE@Base 6.2.1
 _ZN16QBluetoothSocket17discoveryFinishedEv@Base 6.2.1
 _ZN16QBluetoothSocket17doDeviceDiscoveryERK21QBluetoothServiceInfo6QFlagsIN13QIODeviceBase12OpenModeFlagEE@Base 6.2.1
 _ZN16QBluetoothSocket17serviceDiscoveredERK21QBluetoothServiceInfo@Base 6.2.1
 _ZN16QBluetoothSocket19setSocketDescriptorEiN21QBluetoothServiceInfo8ProtocolENS_11SocketStateE6QFlagsIN13QIODeviceBase12OpenModeFlagEE@Base 6.2.1
 _ZN16QBluetoothSocket21disconnectFromServiceEv@Base 6.2.1
 _ZN16QBluetoothSocket25setPreferredSecurityFlagsE6QFlagsIN10QBluetooth8SecurityEE@Base 6.2.1
 _ZN16QBluetoothSocket5abortEv@Base 6.2.1
 _ZN16QBluetoothSocket5closeEv@Base 6.2.1
 _ZN16QBluetoothSocket8readDataEPcx@Base 6.2.1
 _ZN16QBluetoothSocket9connectedEv@Base 6.2.1
 _ZN16QBluetoothSocket9writeDataEPKcx@Base 6.2.1
 _ZN16QBluetoothSocketC1EN21QBluetoothServiceInfo8ProtocolEP7QObject@Base 6.2.1
 _ZN16QBluetoothSocketC1EP27QBluetoothSocketBasePrivateN21QBluetoothServiceInfo8ProtocolEP7QObject@Base 6.2.1
 _ZN16QBluetoothSocketC1EP7QObject@Base 6.2.1
 _ZN16QBluetoothSocketC2EN21QBluetoothServiceInfo8ProtocolEP7QObject@Base 6.2.1
 _ZN16QBluetoothSocketC2EP27QBluetoothSocketBasePrivateN21QBluetoothServiceInfo8ProtocolEP7QObject@Base 6.2.1
 _ZN16QBluetoothSocketC2EP7QObject@Base 6.2.1
 _ZN16QBluetoothSocketD0Ev@Base 6.2.1
 _ZN16QBluetoothSocketD1Ev@Base 6.2.1
 _ZN16QBluetoothSocketD2Ev@Base 6.2.1
 _ZN16QMetaAssociation15MetaAssociationI4QMapI15QDBusObjectPathS1_I7QStringS1_IS3_8QVariantEEEE5valueE@Base 6.2.1
 _ZN16QMetaAssociation15MetaAssociationI4QMapI7QStringS1_IS2_8QVariantEEE5valueE@Base 6.2.1
 _ZN16QMetaAssociation15MetaAssociationI4QMapIt12QDBusVariantEE5valueE@Base 6.2.1
 _ZN17QBluetoothAddress17streamingOperatorE6QDebugRKS_@Base 6.2.1
 _ZN17QBluetoothAddress5clearEv@Base 6.2.1
 _ZN17QBluetoothAddressC1ERK7QString@Base 6.2.1
 _ZN17QBluetoothAddressC1ERKS_@Base 6.2.1
 _ZN17QBluetoothAddressC2ERK7QString@Base 6.2.1
 _ZN17QBluetoothAddressC2ERKS_@Base 6.2.1
 _ZN17QBluetoothAddressD1Ev@Base 6.2.1
 _ZN17QBluetoothAddressD2Ev@Base 6.2.1
 _ZN17QBluetoothAddressaSERKS_@Base 6.2.1
 _ZN17QLowEnergyService11qt_metacallEN11QMetaObject4CallEiPPv@Base 6.2.1
 _ZN17QLowEnergyService11qt_metacastEPKc@Base 6.2.1
 _ZN17QLowEnergyService12stateChangedENS_12ServiceStateE@Base 6.2.1
 _ZN17QLowEnergyService13errorOccurredENS_12ServiceErrorE@Base 6.2.1
 _ZN17QLowEnergyService14descriptorReadERK20QLowEnergyDescriptorRK10QByteArray@Base 6.2.1
 _ZN17QLowEnergyService14readDescriptorERK20QLowEnergyDescriptor@Base 6.2.1
 _ZN17QLowEnergyService15discoverDetailsENS_13DiscoveryModeE@Base 6.2.1
 _ZN17QLowEnergyService15writeDescriptorERK20QLowEnergyDescriptorRK10QByteArray@Base 6.2.1
 _ZN17QLowEnergyService16staticMetaObjectE@Base 6.2.1
 _ZN17QLowEnergyService17descriptorWrittenERK20QLowEnergyDescriptorRK10QByteArray@Base 6.2.1
 _ZN17QLowEnergyService18characteristicReadERK24QLowEnergyCharacteristicRK10QByteArray@Base 6.2.1
 _ZN17QLowEnergyService18readCharacteristicERK24QLowEnergyCharacteristic@Base 6.2.1
 _ZN17QLowEnergyService19writeCharacteristicERK24QLowEnergyCharacteristicRK10QByteArrayNS_9WriteModeE@Base 6.2.1
 _ZN17QLowEnergyService21characteristicChangedERK24QLowEnergyCharacteristicRK10QByteArray@Base 6.2.1
 _ZN17QLowEnergyService21characteristicWrittenERK24QLowEnergyCharacteristicRK10QByteArray@Base 6.2.1
 _ZN17QLowEnergyServiceC1E14QSharedPointerI24QLowEnergyServicePrivateEP7QObject@Base 6.2.1
 _ZN17QLowEnergyServiceC2E14QSharedPointerI24QLowEnergyServicePrivateEP7QObject@Base 6.2.1
 _ZN17QLowEnergyServiceD0Ev@Base 6.2.1
 _ZN17QLowEnergyServiceD1Ev@Base 6.2.1
 _ZN17QLowEnergyServiceD2Ev@Base 6.2.1
 _ZN18QBluetoothHostInfo10setAddressERK17QBluetoothAddress@Base 6.2.1
 _ZN18QBluetoothHostInfo6equalsERKS_S1_@Base 6.2.1
 _ZN18QBluetoothHostInfo7setNameERK7QString@Base 6.2.1
 _ZN18QBluetoothHostInfoC1ERKS_@Base 6.2.1
 _ZN18QBluetoothHostInfoC1Ev@Base 6.2.1
 _ZN18QBluetoothHostInfoC2ERKS_@Base 6.2.1
 _ZN18QBluetoothHostInfoC2Ev@Base 6.2.1
 _ZN18QBluetoothHostInfoD1Ev@Base 6.2.1
 _ZN18QBluetoothHostInfoD2Ev@Base 6.2.1
 _ZN18QBluetoothHostInfoaSERKS_@Base 6.2.1
 _ZN20QBluetoothDeviceInfo13setDeviceUuidERK14QBluetoothUuid@Base 6.2.1
 _ZN20QBluetoothDeviceInfo15setServiceUuidsERK5QListI14QBluetoothUuidE@Base 6.2.1
 _ZN20QBluetoothDeviceInfo19setManufacturerDataEtRK10QByteArray@Base 6.2.1
 _ZN20QBluetoothDeviceInfo21setCoreConfigurationsE6QFlagsINS_17CoreConfigurationEE@Base 6.2.1
 _ZN20QBluetoothDeviceInfo6equalsERKS_S1_@Base 6.2.1
 _ZN20QBluetoothDeviceInfo7setNameERK7QString@Base 6.2.1
 _ZN20QBluetoothDeviceInfo7setRssiEs@Base 6.2.1
 _ZN20QBluetoothDeviceInfo9setCachedEb@Base 6.2.1
 _ZN20QBluetoothDeviceInfoC1ERK14QBluetoothUuidRK7QStringj@Base 6.2.1
 _ZN20QBluetoothDeviceInfoC1ERK17QBluetoothAddressRK7QStringj@Base 6.2.1
 _ZN20QBluetoothDeviceInfoC1ERKS_@Base 6.2.1
 _ZN20QBluetoothDeviceInfoC1Ev@Base 6.2.1
 _ZN20QBluetoothDeviceInfoC2ERK14QBluetoothUuidRK7QStringj@Base 6.2.1
 _ZN20QBluetoothDeviceInfoC2ERK17QBluetoothAddressRK7QStringj@Base 6.2.1
 _ZN20QBluetoothDeviceInfoC2ERKS_@Base 6.2.1
 _ZN20QBluetoothDeviceInfoC2Ev@Base 6.2.1
 _ZN20QBluetoothDeviceInfoD1Ev@Base 6.2.1
 _ZN20QBluetoothDeviceInfoD2Ev@Base 6.2.1
 _ZN20QBluetoothDeviceInfoaSERKS_@Base 6.2.1
 _ZN20QLowEnergyController10addServiceERK21QLowEnergyServiceDataP7QObject@Base 6.2.1
 _ZN20QLowEnergyController10mtuChangedEi@Base 6.2.1
 _ZN20QLowEnergyController11qt_metacallEN11QMetaObject4CallEiPPv@Base 6.2.1
 _ZN20QLowEnergyController11qt_metacastEPKc@Base 6.2.1
 _ZN20QLowEnergyController12disconnectedEv@Base 6.2.1
 _ZN20QLowEnergyController12stateChangedENS_15ControllerStateE@Base 6.2.1
 _ZN20QLowEnergyController13createCentralERK20QBluetoothDeviceInfoP7QObject@Base 6.2.1
 _ZN20QLowEnergyController13createCentralERK20QBluetoothDeviceInfoRK17QBluetoothAddressP7QObject@Base 6.2.1
 _ZN20QLowEnergyController13errorOccurredENS_5ErrorE@Base 6.2.1
 _ZN20QLowEnergyController15connectToDeviceEv@Base 6.2.1
 _ZN20QLowEnergyController15stopAdvertisingEv@Base 6.2.1
 _ZN20QLowEnergyController16createPeripheralEP7QObject@Base 6.2.1
 _ZN20QLowEnergyController16createPeripheralERK17QBluetoothAddressP7QObject@Base 6.2.1
 _ZN20QLowEnergyController16discoverServicesEv@Base 6.2.1
 _ZN20QLowEnergyController16startAdvertisingERK31QLowEnergyAdvertisingParametersRK25QLowEnergyAdvertisingDataS5_@Base 6.2.1
 _ZN20QLowEnergyController16staticMetaObjectE@Base 6.2.1
 _ZN20QLowEnergyController17connectionUpdatedERK30QLowEnergyConnectionParameters@Base 6.2.1
 _ZN20QLowEnergyController17discoveryFinishedEv@Base 6.2.1
 _ZN20QLowEnergyController17serviceDiscoveredERK14QBluetoothUuid@Base 6.2.1
 _ZN20QLowEnergyController19createServiceObjectERK14QBluetoothUuidP7QObject@Base 6.2.1
 _ZN20QLowEnergyController20disconnectFromDeviceEv@Base 6.2.1
 _ZN20QLowEnergyController20setRemoteAddressTypeENS_17RemoteAddressTypeE@Base 6.2.1
 _ZN20QLowEnergyController23requestConnectionUpdateERK30QLowEnergyConnectionParameters@Base 6.2.1
 _ZN20QLowEnergyController9connectedEv@Base 6.2.1
 _ZN20QLowEnergyControllerC1ERK17QBluetoothAddressP7QObject@Base 6.2.1
 _ZN20QLowEnergyControllerC1ERK20QBluetoothDeviceInfoRK17QBluetoothAddressP7QObject@Base 6.2.1
 _ZN20QLowEnergyControllerC2ERK17QBluetoothAddressP7QObject@Base 6.2.1
 _ZN20QLowEnergyControllerC2ERK20QBluetoothDeviceInfoRK17QBluetoothAddressP7QObject@Base 6.2.1
 _ZN20QLowEnergyControllerD0Ev@Base 6.2.1
 _ZN20QLowEnergyControllerD1Ev@Base 6.2.1
 _ZN20QLowEnergyControllerD2Ev@Base 6.2.1
 _ZN20QLowEnergyDescriptor6equalsERKS_S1_@Base 6.2.1
 _ZN20QLowEnergyDescriptorC1E14QSharedPointerI24QLowEnergyServicePrivateEtt@Base 6.2.1
 _ZN20QLowEnergyDescriptorC1ERKS_@Base 6.2.1
 _ZN20QLowEnergyDescriptorC1Ev@Base 6.2.1
 _ZN20QLowEnergyDescriptorC2E14QSharedPointerI24QLowEnergyServicePrivateEtt@Base 6.2.1
 _ZN20QLowEnergyDescriptorC2ERKS_@Base 6.2.1
 _ZN20QLowEnergyDescriptorC2Ev@Base 6.2.1
 _ZN20QLowEnergyDescriptorD1Ev@Base 6.2.1
 _ZN20QLowEnergyDescriptorD2Ev@Base 6.2.1
 _ZN20QLowEnergyDescriptoraSERKS_@Base 6.2.1
 _ZN21QBluetoothLocalDevice10allDevicesEv@Base 6.2.1
 _ZN21QBluetoothLocalDevice11qt_metacallEN11QMetaObject4CallEiPPv@Base 6.2.1
 _ZN21QBluetoothLocalDevice11qt_metacastEPKc@Base 6.2.1
 _ZN21QBluetoothLocalDevice11setHostModeENS_8HostModeE@Base 6.2.1
 _ZN21QBluetoothLocalDevice13errorOccurredENS_5ErrorE@Base 6.2.1
 _ZN21QBluetoothLocalDevice14requestPairingERK17QBluetoothAddressNS_7PairingE@Base 6.2.1
 _ZN21QBluetoothLocalDevice15deviceConnectedERK17QBluetoothAddress@Base 6.2.1
 _ZN21QBluetoothLocalDevice15pairingFinishedERK17QBluetoothAddressNS_7PairingE@Base 6.2.1
 _ZN21QBluetoothLocalDevice16staticMetaObjectE@Base 6.2.1
 _ZN21QBluetoothLocalDevice18deviceDisconnectedERK17QBluetoothAddress@Base 6.2.1
 _ZN21QBluetoothLocalDevice20hostModeStateChangedENS_8HostModeE@Base 6.2.1
 _ZN21QBluetoothLocalDevice7powerOnEv@Base 6.2.1
 _ZN21QBluetoothLocalDeviceC1EP7QObject@Base 6.2.1
 _ZN21QBluetoothLocalDeviceC1ERK17QBluetoothAddressP7QObject@Base 6.2.1
 _ZN21QBluetoothLocalDeviceC2EP7QObject@Base 6.2.1
 _ZN21QBluetoothLocalDeviceC2ERK17QBluetoothAddressP7QObject@Base 6.2.1
 _ZN21QBluetoothLocalDeviceD0Ev@Base 6.2.1
 _ZN21QBluetoothLocalDeviceD1Ev@Base 6.2.1
 _ZN21QBluetoothLocalDeviceD2Ev@Base 6.2.1
 _ZN21QBluetoothServiceInfo12setAttributeEtRK8QVariant@Base 6.2.1
 _ZN21QBluetoothServiceInfo15registerServiceERK17QBluetoothAddress@Base 6.2.1
 _ZN21QBluetoothServiceInfo15removeAttributeEt@Base 6.2.1
 _ZN21QBluetoothServiceInfo17streamingOperatorE6QDebugRKS_@Base 6.2.1
 _ZN21QBluetoothServiceInfo17unregisterServiceEv@Base 6.2.1
 _ZN21QBluetoothServiceInfo9setDeviceERK20QBluetoothDeviceInfo@Base 6.2.1
 _ZN21QBluetoothServiceInfoC1ERKS_@Base 6.2.1
 _ZN21QBluetoothServiceInfoC1Ev@Base 6.2.1
 _ZN21QBluetoothServiceInfoC2ERKS_@Base 6.2.1
 _ZN21QBluetoothServiceInfoC2Ev@Base 6.2.1
 _ZN21QBluetoothServiceInfoD1Ev@Base 6.2.1
 _ZN21QBluetoothServiceInfoD2Ev@Base 6.2.1
 _ZN21QBluetoothServiceInfoaSERKS_@Base 6.2.1
 _ZN21QLowEnergyServiceData17addCharacteristicERK28QLowEnergyCharacteristicData@Base 6.2.1
 _ZN21QLowEnergyServiceData18addIncludedServiceEP17QLowEnergyService@Base 6.2.1
 _ZN21QLowEnergyServiceData18setCharacteristicsERK5QListI28QLowEnergyCharacteristicDataE@Base 6.2.1
 _ZN21QLowEnergyServiceData19setIncludedServicesERK5QListIP17QLowEnergyServiceE@Base 6.2.1
 _ZN21QLowEnergyServiceData6equalsERKS_S1_@Base 6.2.1
 _ZN21QLowEnergyServiceData7setTypeENS_11ServiceTypeE@Base 6.2.1
 _ZN21QLowEnergyServiceData7setUuidERK14QBluetoothUuid@Base 6.2.1
 _ZN21QLowEnergyServiceDataC1ERKS_@Base 6.2.1
 _ZN21QLowEnergyServiceDataC1Ev@Base 6.2.1
 _ZN21QLowEnergyServiceDataC2ERKS_@Base 6.2.1
 _ZN21QLowEnergyServiceDataC2Ev@Base 6.2.1
 _ZN21QLowEnergyServiceDataD1Ev@Base 6.2.1
 _ZN21QLowEnergyServiceDataD2Ev@Base 6.2.1
 _ZN21QLowEnergyServiceDataaSERKS_@Base 6.2.1
 _ZN24QLowEnergyCharacteristic11CCCDDisableE@Base 6.2.1
 _ZN24QLowEnergyCharacteristic20CCCDEnableIndicationE@Base 6.2.1
 _ZN24QLowEnergyCharacteristic22CCCDEnableNotificationE@Base 6.2.1
 _ZN24QLowEnergyCharacteristic6equalsERKS_S1_@Base 6.2.1
 _ZN24QLowEnergyCharacteristicC1E14QSharedPointerI24QLowEnergyServicePrivateEt@Base 6.2.1
 _ZN24QLowEnergyCharacteristicC1ERKS_@Base 6.2.1
 _ZN24QLowEnergyCharacteristicC1Ev@Base 6.2.1
 _ZN24QLowEnergyCharacteristicC2E14QSharedPointerI24QLowEnergyServicePrivateEt@Base 6.2.1
 _ZN24QLowEnergyCharacteristicC2ERKS_@Base 6.2.1
 _ZN24QLowEnergyCharacteristicC2Ev@Base 6.2.1
 _ZN24QLowEnergyCharacteristicD1Ev@Base 6.2.1
 _ZN24QLowEnergyCharacteristicD2Ev@Base 6.2.1
 _ZN24QLowEnergyCharacteristicaSERKS_@Base 6.2.1
 _ZN24QLowEnergyDescriptorData18setReadPermissionsEb6QFlagsIN10QBluetooth19AttAccessConstraintEE@Base 6.2.1
 _ZN24QLowEnergyDescriptorData19setWritePermissionsEb6QFlagsIN10QBluetooth19AttAccessConstraintEE@Base 6.2.1
 _ZN24QLowEnergyDescriptorData6equalsERKS_S1_@Base 6.2.1
 _ZN24QLowEnergyDescriptorData7setUuidERK14QBluetoothUuid@Base 6.2.1
 _ZN24QLowEnergyDescriptorData8setValueERK10QByteArray@Base 6.2.1
 _ZN24QLowEnergyDescriptorDataC1ERK14QBluetoothUuidRK10QByteArray@Base 6.2.1
 _ZN24QLowEnergyDescriptorDataC1ERKS_@Base 6.2.1
 _ZN24QLowEnergyDescriptorDataC1Ev@Base 6.2.1
 _ZN24QLowEnergyDescriptorDataC2ERK14QBluetoothUuidRK10QByteArray@Base 6.2.1
 _ZN24QLowEnergyDescriptorDataC2ERKS_@Base 6.2.1
 _ZN24QLowEnergyDescriptorDataC2Ev@Base 6.2.1
 _ZN24QLowEnergyDescriptorDataD1Ev@Base 6.2.1
 _ZN24QLowEnergyDescriptorDataD2Ev@Base 6.2.1
 _ZN24QLowEnergyDescriptorDataaSERKS_@Base 6.2.1
 _ZN25QLowEnergyAdvertisingData10setRawDataERK10QByteArray@Base 6.2.1
 _ZN25QLowEnergyAdvertisingData11setServicesERK5QListI14QBluetoothUuidE@Base 6.2.1
 _ZN25QLowEnergyAdvertisingData12setLocalNameERK7QString@Base 6.2.1
 _ZN25QLowEnergyAdvertisingData18setDiscoverabilityENS_15DiscoverabilityE@Base 6.2.1
 _ZN25QLowEnergyAdvertisingData19setManufacturerDataEtRK10QByteArray@Base 6.2.1
 _ZN25QLowEnergyAdvertisingData20setIncludePowerLevelEb@Base 6.2.1
 _ZN25QLowEnergyAdvertisingData6equalsERKS_S1_@Base 6.2.1
 _ZN25QLowEnergyAdvertisingDataC1ERKS_@Base 6.2.1
 _ZN25QLowEnergyAdvertisingDataC1Ev@Base 6.2.1
 _ZN25QLowEnergyAdvertisingDataC2ERKS_@Base 6.2.1
 _ZN25QLowEnergyAdvertisingDataC2Ev@Base 6.2.1
 _ZN25QLowEnergyAdvertisingDataD1Ev@Base 6.2.1
 _ZN25QLowEnergyAdvertisingDataD2Ev@Base 6.2.1
 _ZN25QLowEnergyAdvertisingDataaSERKS_@Base 6.2.1
 _ZN28QLowEnergyCharacteristicData13addDescriptorERK24QLowEnergyDescriptorData@Base 6.2.1
 _ZN28QLowEnergyCharacteristicData13setPropertiesE6QFlagsIN24QLowEnergyCharacteristic12PropertyTypeEE@Base 6.2.1
 _ZN28QLowEnergyCharacteristicData14setDescriptorsERK5QListI24QLowEnergyDescriptorDataE@Base 6.2.1
 _ZN28QLowEnergyCharacteristicData14setValueLengthEii@Base 6.2.1
 _ZN28QLowEnergyCharacteristicData18setReadConstraintsE6QFlagsIN10QBluetooth19AttAccessConstraintEE@Base 6.2.1
 _ZN28QLowEnergyCharacteristicData19setWriteConstraintsE6QFlagsIN10QBluetooth19AttAccessConstraintEE@Base 6.2.1
 _ZN28QLowEnergyCharacteristicData6equalsERKS_S1_@Base 6.2.1
 _ZN28QLowEnergyCharacteristicData7setUuidERK14QBluetoothUuid@Base 6.2.1
 _ZN28QLowEnergyCharacteristicData8setValueERK10QByteArray@Base 6.2.1
 _ZN28QLowEnergyCharacteristicDataC1ERKS_@Base 6.2.1
 _ZN28QLowEnergyCharacteristicDataC1Ev@Base 6.2.1
 _ZN28QLowEnergyCharacteristicDataC2ERKS_@Base 6.2.1
 _ZN28QLowEnergyCharacteristicDataC2Ev@Base 6.2.1
 _ZN28QLowEnergyCharacteristicDataD1Ev@Base 6.2.1
 _ZN28QLowEnergyCharacteristicDataD2Ev@Base 6.2.1
 _ZN28QLowEnergyCharacteristicDataaSERKS_@Base 6.2.1
 _ZN30QBluetoothDeviceDiscoveryAgent11qt_metacallEN11QMetaObject4CallEiPPv@Base 6.2.1
 _ZN30QBluetoothDeviceDiscoveryAgent11qt_metacastEPKc@Base 6.2.1
 _ZN30QBluetoothDeviceDiscoveryAgent13deviceUpdatedERK20QBluetoothDeviceInfo6QFlagsINS0_5FieldEE@Base 6.2.1
 _ZN30QBluetoothDeviceDiscoveryAgent13errorOccurredENS_5ErrorE@Base 6.2.1
 _ZN30QBluetoothDeviceDiscoveryAgent16deviceDiscoveredERK20QBluetoothDeviceInfo@Base 6.2.1
 _ZN30QBluetoothDeviceDiscoveryAgent16staticMetaObjectE@Base 6.2.1
 _ZN30QBluetoothDeviceDiscoveryAgent25supportedDiscoveryMethodsEv@Base 6.2.1
 _ZN30QBluetoothDeviceDiscoveryAgent28setLowEnergyDiscoveryTimeoutEi@Base 6.2.1
 _ZN30QBluetoothDeviceDiscoveryAgent4stopEv@Base 6.2.1
 _ZN30QBluetoothDeviceDiscoveryAgent5startE6QFlagsINS_15DiscoveryMethodEE@Base 6.2.1
 _ZN30QBluetoothDeviceDiscoveryAgent5startEv@Base 6.2.1
 _ZN30QBluetoothDeviceDiscoveryAgent8canceledEv@Base 6.2.1
 _ZN30QBluetoothDeviceDiscoveryAgent8finishedEv@Base 6.2.1
 _ZN30QBluetoothDeviceDiscoveryAgentC1EP7QObject@Base 6.2.1
 _ZN30QBluetoothDeviceDiscoveryAgentC1ERK17QBluetoothAddressP7QObject@Base 6.2.1
 _ZN30QBluetoothDeviceDiscoveryAgentC2EP7QObject@Base 6.2.1
 _ZN30QBluetoothDeviceDiscoveryAgentC2ERK17QBluetoothAddressP7QObject@Base 6.2.1
 _ZN30QBluetoothDeviceDiscoveryAgentD0Ev@Base 6.2.1
 _ZN30QBluetoothDeviceDiscoveryAgentD1Ev@Base 6.2.1
 _ZN30QBluetoothDeviceDiscoveryAgentD2Ev@Base 6.2.1
 _ZN30QLowEnergyConnectionParameters10setLatencyEi@Base 6.2.1
 _ZN30QLowEnergyConnectionParameters16setIntervalRangeEdd@Base 6.2.1
 _ZN30QLowEnergyConnectionParameters21setSupervisionTimeoutEi@Base 6.2.1
 _ZN30QLowEnergyConnectionParameters6equalsERKS_S1_@Base 6.2.1
 _ZN30QLowEnergyConnectionParametersC1ERKS_@Base 6.2.1
 _ZN30QLowEnergyConnectionParametersC1Ev@Base 6.2.1
 _ZN30QLowEnergyConnectionParametersC2ERKS_@Base 6.2.1
 _ZN30QLowEnergyConnectionParametersC2Ev@Base 6.2.1
 _ZN30QLowEnergyConnectionParametersD1Ev@Base 6.2.1
 _ZN30QLowEnergyConnectionParametersD2Ev@Base 6.2.1
 _ZN30QLowEnergyConnectionParametersaSERKS_@Base 6.2.1
 _ZN31QBluetoothServiceDiscoveryAgent11qt_metacallEN11QMetaObject4CallEiPPv@Base 6.2.1
 _ZN31QBluetoothServiceDiscoveryAgent11qt_metacastEPKc@Base 6.2.1
 _ZN31QBluetoothServiceDiscoveryAgent13errorOccurredENS_5ErrorE@Base 6.2.1
 _ZN31QBluetoothServiceDiscoveryAgent13setUuidFilterERK14QBluetoothUuid@Base 6.2.1
 _ZN31QBluetoothServiceDiscoveryAgent13setUuidFilterERK5QListI14QBluetoothUuidE@Base 6.2.1
 _ZN31QBluetoothServiceDiscoveryAgent16setRemoteAddressERK17QBluetoothAddress@Base 6.2.1
 _ZN31QBluetoothServiceDiscoveryAgent16staticMetaObjectE@Base 6.2.1
 _ZN31QBluetoothServiceDiscoveryAgent17serviceDiscoveredERK21QBluetoothServiceInfo@Base 6.2.1
 _ZN31QBluetoothServiceDiscoveryAgent4stopEv@Base 6.2.1
 _ZN31QBluetoothServiceDiscoveryAgent5clearEv@Base 6.2.1
 _ZN31QBluetoothServiceDiscoveryAgent5startENS_13DiscoveryModeE@Base 6.2.1
 _ZN31QBluetoothServiceDiscoveryAgent8canceledEv@Base 6.2.1
 _ZN31QBluetoothServiceDiscoveryAgent8finishedEv@Base 6.2.1
 _ZN31QBluetoothServiceDiscoveryAgentC1EP7QObject@Base 6.2.1
 _ZN31QBluetoothServiceDiscoveryAgentC1ERK17QBluetoothAddressP7QObject@Base 6.2.1
 _ZN31QBluetoothServiceDiscoveryAgentC2EP7QObject@Base 6.2.1
 _ZN31QBluetoothServiceDiscoveryAgentC2ERK17QBluetoothAddressP7QObject@Base 6.2.1
 _ZN31QBluetoothServiceDiscoveryAgentD0Ev@Base 6.2.1
 _ZN31QBluetoothServiceDiscoveryAgentD1Ev@Base 6.2.1
 _ZN31QBluetoothServiceDiscoveryAgentD2Ev@Base 6.2.1
 _ZN31QLowEnergyAdvertisingParameters11AddressInfo6equalsERKS0_S2_@Base 6.2.1
 _ZN31QLowEnergyAdvertisingParameters11setIntervalEtt@Base 6.2.1
 _ZN31QLowEnergyAdvertisingParameters12setWhiteListERK5QListINS_11AddressInfoEENS_12FilterPolicyE@Base 6.2.1
 _ZN31QLowEnergyAdvertisingParameters6equalsERKS_S1_@Base 6.2.1
 _ZN31QLowEnergyAdvertisingParameters7setModeENS_4ModeE@Base 6.2.1
 _ZN31QLowEnergyAdvertisingParametersC1ERKS_@Base 6.2.1
 _ZN31QLowEnergyAdvertisingParametersC1Ev@Base 6.2.1
 _ZN31QLowEnergyAdvertisingParametersC2ERKS_@Base 6.2.1
 _ZN31QLowEnergyAdvertisingParametersC2Ev@Base 6.2.1
 _ZN31QLowEnergyAdvertisingParametersD1Ev@Base 6.2.1
 _ZN31QLowEnergyAdvertisingParametersD2Ev@Base 6.2.1
 _ZN31QLowEnergyAdvertisingParametersaSERKS_@Base 6.2.1
 _ZNK14QBluetoothUuid11minimumSizeEv@Base 6.2.1
 _ZNK14QBluetoothUuid8toUInt16EPb@Base 6.2.1
 _ZNK14QBluetoothUuid8toUInt32EPb@Base 6.2.1
 _ZNK14QBluetoothUuid9toUInt128Ev@Base 6.2.1
 _ZNK16QBluetoothServer10metaObjectEv@Base 6.2.1
 _ZNK16QBluetoothServer10serverPortEv@Base 6.2.1
 _ZNK16QBluetoothServer10serverTypeEv@Base 6.2.1
 _ZNK16QBluetoothServer11isListeningEv@Base 6.2.1
 _ZNK16QBluetoothServer13securityFlagsEv@Base 6.2.1
 _ZNK16QBluetoothServer13serverAddressEv@Base 6.2.1
 _ZNK16QBluetoothServer21hasPendingConnectionsEv@Base 6.2.1
 _ZNK16QBluetoothServer21maxPendingConnectionsEv@Base 6.2.1
 _ZNK16QBluetoothServer5errorEv@Base 6.2.1
 _ZNK16QBluetoothSocket10metaObjectEv@Base 6.2.1
 _ZNK16QBluetoothSocket10socketTypeEv@Base 6.2.1
 _ZNK16QBluetoothSocket11canReadLineEv@Base 6.2.1
 _ZNK16QBluetoothSocket11errorStringEv@Base 6.2.1
 _ZNK16QBluetoothSocket11peerAddressEv@Base 6.2.1
 _ZNK16QBluetoothSocket12bytesToWriteEv@Base 6.2.1
 _ZNK16QBluetoothSocket12isSequentialEv@Base 6.2.1
 _ZNK16QBluetoothSocket12localAddressEv@Base 6.2.1
 _ZNK16QBluetoothSocket14bytesAvailableEv@Base 6.2.1
 _ZNK16QBluetoothSocket16socketDescriptorEv@Base 6.2.1
 _ZNK16QBluetoothSocket22preferredSecurityFlagsEv@Base 6.2.1
 _ZNK16QBluetoothSocket5errorEv@Base 6.2.1
 _ZNK16QBluetoothSocket5stateEv@Base 6.2.1
 _ZNK16QBluetoothSocket8peerNameEv@Base 6.2.1
 _ZNK16QBluetoothSocket8peerPortEv@Base 6.2.1
 _ZNK16QBluetoothSocket9localNameEv@Base 6.2.1
 _ZNK16QBluetoothSocket9localPortEv@Base 6.2.1
 _ZNK17QBluetoothAddress6isNullEv@Base 6.2.1
 _ZNK17QBluetoothAddress8toStringEv@Base 6.2.1
 _ZNK17QBluetoothAddress8toUInt64Ev@Base 6.2.1
 _ZNK17QLowEnergyService10metaObjectEv@Base 6.2.1
 _ZNK17QLowEnergyService11serviceNameEv@Base 6.2.1
 _ZNK17QLowEnergyService11serviceUuidEv@Base 6.2.1
 _ZNK17QLowEnergyService14characteristicERK14QBluetoothUuid@Base 6.2.1
 _ZNK17QLowEnergyService15characteristicsEv@Base 6.2.1
 _ZNK17QLowEnergyService16includedServicesEv@Base 6.2.1
 _ZNK17QLowEnergyService4typeEv@Base 6.2.1
 _ZNK17QLowEnergyService5errorEv@Base 6.2.1
 _ZNK17QLowEnergyService5stateEv@Base 6.2.1
 _ZNK17QLowEnergyService8containsERK20QLowEnergyDescriptor@Base 6.2.1
 _ZNK17QLowEnergyService8containsERK24QLowEnergyCharacteristic@Base 6.2.1
 _ZNK18QBluetoothHostInfo4nameEv@Base 6.2.1
 _ZNK18QBluetoothHostInfo7addressEv@Base 6.2.1
 _ZNK20QBluetoothDeviceInfo10deviceUuidEv@Base 6.2.1
 _ZNK20QBluetoothDeviceInfo12serviceUuidsEv@Base 6.2.1
 _ZNK20QBluetoothDeviceInfo14serviceClassesEv@Base 6.2.1
 _ZNK20QBluetoothDeviceInfo15manufacturerIdsEv@Base 6.2.1
 _ZNK20QBluetoothDeviceInfo16majorDeviceClassEv@Base 6.2.1
 _ZNK20QBluetoothDeviceInfo16manufacturerDataEt@Base 6.2.1
 _ZNK20QBluetoothDeviceInfo16manufacturerDataEv@Base 6.2.1
 _ZNK20QBluetoothDeviceInfo16minorDeviceClassEv@Base 6.2.1
 _ZNK20QBluetoothDeviceInfo18coreConfigurationsEv@Base 6.2.1
 _ZNK20QBluetoothDeviceInfo4nameEv@Base 6.2.1
 _ZNK20QBluetoothDeviceInfo4rssiEv@Base 6.2.1
 _ZNK20QBluetoothDeviceInfo7addressEv@Base 6.2.1
 _ZNK20QBluetoothDeviceInfo7isValidEv@Base 6.2.1
 _ZNK20QBluetoothDeviceInfo8isCachedEv@Base 6.2.1
 _ZNK20QLowEnergyController10metaObjectEv@Base 6.2.1
 _ZNK20QLowEnergyController10remoteNameEv@Base 6.2.1
 _ZNK20QLowEnergyController11errorStringEv@Base 6.2.1
 _ZNK20QLowEnergyController12localAddressEv@Base 6.2.1
 _ZNK20QLowEnergyController13remoteAddressEv@Base 6.2.1
 _ZNK20QLowEnergyController16remoteDeviceUuidEv@Base 6.2.1
 _ZNK20QLowEnergyController17remoteAddressTypeEv@Base 6.2.1
 _ZNK20QLowEnergyController3mtuEv@Base 6.2.1
 _ZNK20QLowEnergyController4roleEv@Base 6.2.1
 _ZNK20QLowEnergyController5errorEv@Base 6.2.1
 _ZNK20QLowEnergyController5stateEv@Base 6.2.1
 _ZNK20QLowEnergyController8servicesEv@Base 6.2.1
 _ZNK20QLowEnergyDescriptor20characteristicHandleEv@Base 6.2.1
 _ZNK20QLowEnergyDescriptor4nameEv@Base 6.2.1
 _ZNK20QLowEnergyDescriptor4typeEv@Base 6.2.1
 _ZNK20QLowEnergyDescriptor4uuidEv@Base 6.2.1
 _ZNK20QLowEnergyDescriptor5valueEv@Base 6.2.1
 _ZNK20QLowEnergyDescriptor6handleEv@Base 6.2.1
 _ZNK20QLowEnergyDescriptor7isValidEv@Base 6.2.1
 _ZNK21QBluetoothLocalDevice10metaObjectEv@Base 6.2.1
 _ZNK21QBluetoothLocalDevice13pairingStatusERK17QBluetoothAddress@Base 6.2.1
 _ZNK21QBluetoothLocalDevice16connectedDevicesEv@Base 6.2.1
 _ZNK21QBluetoothLocalDevice4nameEv@Base 6.2.1
 _ZNK21QBluetoothLocalDevice7addressEv@Base 6.2.1
 _ZNK21QBluetoothLocalDevice7isValidEv@Base 6.2.1
 _ZNK21QBluetoothLocalDevice8hostModeEv@Base 6.2.1
 _ZNK21QBluetoothServiceInfo10attributesEv@Base 6.2.1
 _ZNK21QBluetoothServiceInfo10isCompleteEv@Base 6.2.1
 _ZNK21QBluetoothServiceInfo12isRegisteredEv@Base 6.2.1
 _ZNK21QBluetoothServiceInfo13serverChannelEv@Base 6.2.1
 _ZNK21QBluetoothServiceInfo14socketProtocolEv@Base 6.2.1
 _ZNK21QBluetoothServiceInfo17serviceClassUuidsEv@Base 6.2.1
 _ZNK21QBluetoothServiceInfo18protocolDescriptorEN14QBluetoothUuid12ProtocolUuidE@Base 6.2.1
 _ZNK21QBluetoothServiceInfo26protocolServiceMultiplexerEv@Base 6.2.1
 _ZNK21QBluetoothServiceInfo6deviceEv@Base 6.2.1
 _ZNK21QBluetoothServiceInfo7isValidEv@Base 6.2.1
 _ZNK21QBluetoothServiceInfo8containsEt@Base 6.2.1
 _ZNK21QBluetoothServiceInfo9attributeEt@Base 6.2.1
 _ZNK21QLowEnergyServiceData15characteristicsEv@Base 6.2.1
 _ZNK21QLowEnergyServiceData16includedServicesEv@Base 6.2.1
 _ZNK21QLowEnergyServiceData4typeEv@Base 6.2.1
 _ZNK21QLowEnergyServiceData4uuidEv@Base 6.2.1
 _ZNK21QLowEnergyServiceData7isValidEv@Base 6.2.1
 _ZNK24QLowEnergyCharacteristic10descriptorERK14QBluetoothUuid@Base 6.2.1
 _ZNK24QLowEnergyCharacteristic10propertiesEv@Base 6.2.1
 _ZNK24QLowEnergyCharacteristic11descriptorsEv@Base 6.2.1
 _ZNK24QLowEnergyCharacteristic15attributeHandleEv@Base 6.2.1
 _ZNK24QLowEnergyCharacteristic33clientCharacteristicConfigurationEv@Base 6.2.1
 _ZNK24QLowEnergyCharacteristic4nameEv@Base 6.2.1
 _ZNK24QLowEnergyCharacteristic4uuidEv@Base 6.2.1
 _ZNK24QLowEnergyCharacteristic5valueEv@Base 6.2.1
 _ZNK24QLowEnergyCharacteristic6handleEv@Base 6.2.1
 _ZNK24QLowEnergyCharacteristic7isValidEv@Base 6.2.1
 _ZNK24QLowEnergyDescriptorData10isReadableEv@Base 6.2.1
 _ZNK24QLowEnergyDescriptorData10isWritableEv@Base 6.2.1
 _ZNK24QLowEnergyDescriptorData15readConstraintsEv@Base 6.2.1
 _ZNK24QLowEnergyDescriptorData16writeConstraintsEv@Base 6.2.1
 _ZNK24QLowEnergyDescriptorData4uuidEv@Base 6.2.1
 _ZNK24QLowEnergyDescriptorData5valueEv@Base 6.2.1
 _ZNK24QLowEnergyDescriptorData7isValidEv@Base 6.2.1
 _ZNK25QLowEnergyAdvertisingData14manufacturerIdEv@Base 6.2.1
 _ZNK25QLowEnergyAdvertisingData15discoverabilityEv@Base 6.2.1
 _ZNK25QLowEnergyAdvertisingData16manufacturerDataEv@Base 6.2.1
 _ZNK25QLowEnergyAdvertisingData17includePowerLevelEv@Base 6.2.1
 _ZNK25QLowEnergyAdvertisingData7rawDataEv@Base 6.2.1
 _ZNK25QLowEnergyAdvertisingData8servicesEv@Base 6.2.1
 _ZNK25QLowEnergyAdvertisingData9localNameEv@Base 6.2.1
 _ZNK28QLowEnergyCharacteristicData10propertiesEv@Base 6.2.1
 _ZNK28QLowEnergyCharacteristicData11descriptorsEv@Base 6.2.1
 _ZNK28QLowEnergyCharacteristicData15readConstraintsEv@Base 6.2.1
 _ZNK28QLowEnergyCharacteristicData16writeConstraintsEv@Base 6.2.1
 _ZNK28QLowEnergyCharacteristicData18maximumValueLengthEv@Base 6.2.1
 _ZNK28QLowEnergyCharacteristicData18minimumValueLengthEv@Base 6.2.1
 _ZNK28QLowEnergyCharacteristicData4uuidEv@Base 6.2.1
 _ZNK28QLowEnergyCharacteristicData5valueEv@Base 6.2.1
 _ZNK28QLowEnergyCharacteristicData7isValidEv@Base 6.2.1
 _ZNK30QBluetoothDeviceDiscoveryAgent10metaObjectEv@Base 6.2.1
 _ZNK30QBluetoothDeviceDiscoveryAgent11errorStringEv@Base 6.2.1
 _ZNK30QBluetoothDeviceDiscoveryAgent17discoveredDevicesEv@Base 6.2.1
 _ZNK30QBluetoothDeviceDiscoveryAgent25lowEnergyDiscoveryTimeoutEv@Base 6.2.1
 _ZNK30QBluetoothDeviceDiscoveryAgent5errorEv@Base 6.2.1
 _ZNK30QBluetoothDeviceDiscoveryAgent8isActiveEv@Base 6.2.1
 _ZNK30QLowEnergyConnectionParameters15maximumIntervalEv@Base 6.2.1
 _ZNK30QLowEnergyConnectionParameters15minimumIntervalEv@Base 6.2.1
 _ZNK30QLowEnergyConnectionParameters18supervisionTimeoutEv@Base 6.2.1
 _ZNK30QLowEnergyConnectionParameters7latencyEv@Base 6.2.1
 _ZNK31QBluetoothServiceDiscoveryAgent10metaObjectEv@Base 6.2.1
 _ZNK31QBluetoothServiceDiscoveryAgent10uuidFilterEv@Base 6.2.1
 _ZNK31QBluetoothServiceDiscoveryAgent11errorStringEv@Base 6.2.1
 _ZNK31QBluetoothServiceDiscoveryAgent13remoteAddressEv@Base 6.2.1
 _ZNK31QBluetoothServiceDiscoveryAgent18discoveredServicesEv@Base 6.2.1
 _ZNK31QBluetoothServiceDiscoveryAgent5errorEv@Base 6.2.1
 _ZNK31QBluetoothServiceDiscoveryAgent8isActiveEv@Base 6.2.1
 _ZNK31QLowEnergyAdvertisingParameters12filterPolicyEv@Base 6.2.1
 _ZNK31QLowEnergyAdvertisingParameters15maximumIntervalEv@Base 6.2.1
 _ZNK31QLowEnergyAdvertisingParameters15minimumIntervalEv@Base 6.2.1
 _ZNK31QLowEnergyAdvertisingParameters4modeEv@Base 6.2.1
 _ZNK31QLowEnergyAdvertisingParameters9whiteListEv@Base 6.2.1
 (optional=templinst)_ZNKSt8_Rb_treeI7QStringSt4pairIKS0_8QVariantESt10_Select1stIS4_ESt4lessIS0_ESaIS4_EE4findERS2_@Base 6.2.1
 (optional=templinst|arch=amd64 ppc64el)_ZNSt8_Rb_treeI7QStringSt4pairIKS0_8QVariantESt10_Select1stIS4_ESt4lessIS0_ESaIS4_EE11equal_rangeERS2_@Base 6.2.1
 (optional=templinst|arch=amd64 ppc64el)_ZNSt8_Rb_treeI7QStringSt4pairIKS0_8QVariantESt10_Select1stIS4_ESt4lessIS0_ESaIS4_EE16_M_insert_uniqueIS4_EES1_ISt17_Rb_tree_iteratorIS4_EbEOT_@Base 6.2.1
 (optional=templinst)_ZNSt8_Rb_treeI7QStringSt4pairIKS0_8QVariantESt10_Select1stIS4_ESt4lessIS0_ESaIS4_EE24_M_get_insert_unique_posERS2_@Base 6.2.1
 (optional=templinst)_ZNSt8_Rb_treeI7QStringSt4pairIKS0_8QVariantESt10_Select1stIS4_ESt4lessIS0_ESaIS4_EE29_M_get_insert_hint_unique_posESt23_Rb_tree_const_iteratorIS4_ERS2_@Base 6.2.1
 (optional=templinst)_ZNSt8_Rb_treeIjSt4pairIKj7QStringESt10_Select1stIS3_ESt4lessIjESaIS3_EE24_M_get_insert_unique_posERS1_@Base 6.2.1
 (optional=templinst|arch=amd64 ppc64el)_ZNSt8_Rb_treeIjSt4pairIKj7QStringESt10_Select1stIS3_ESt4lessIjESaIS3_EE29_M_get_insert_hint_unique_posESt23_Rb_tree_const_iteratorIS3_ERS1_@Base 6.2.1
 (optional=templinst|arch=amd64)_ZNSt8_Rb_treeItSt4pairIKt8QVariantESt10_Select1stIS3_ESt4lessItESaIS3_EE16_M_insert_uniqueIS3_EES0_ISt17_Rb_tree_iteratorIS3_EbEOT_@Base 6.2.1
 (optional=templinst)_ZNSt8_Rb_treeItSt4pairIKt8QVariantESt10_Select1stIS3_ESt4lessItESaIS3_EE24_M_get_insert_unique_posERS1_@Base 6.2.1
 (optional=templinst|arch=amd64 ppc64el)_ZNSt8_Rb_treeItSt4pairIKt8QVariantESt10_Select1stIS3_ESt4lessItESaIS3_EE29_M_get_insert_hint_unique_posESt23_Rb_tree_const_iteratorIS3_ERS1_@Base 6.2.1
 _ZTI12QDBusContext@Base 6.2.1
 _ZTI16QBluetoothServer@Base 6.2.1
 _ZTI16QBluetoothSocket@Base 6.2.1
 _ZTI17QLowEnergyService@Base 6.2.1
 _ZTI20QLowEnergyController@Base 6.2.1
 _ZTI21QBluetoothLocalDevice@Base 6.2.1
 _ZTI30QBluetoothDeviceDiscoveryAgent@Base 6.2.1
 _ZTI31QBluetoothServiceDiscoveryAgent@Base 6.2.1
 _ZTIZN9QMetaType17registerConverterI14QSharedPointerI24QLowEnergyServicePrivateEP7QObjectN9QtPrivate27QSmartPointerConvertFunctorIS3_EEEEbT1_EUlPKvPvE_@Base 6.2.1
 _ZTIZN9QMetaType17registerConverterI4QMapI15QDBusObjectPathS1_I7QStringS1_IS3_8QVariantEEE9QIterableI16QMetaAssociationEN9QtPrivate34QAssociativeIterableConvertFunctorIS7_EEEEbT1_EUlPKvPvE_@Base 6.2.1
 _ZTIZN9QMetaType17registerConverterI4QMapI7QStringS1_IS2_8QVariantEE9QIterableI16QMetaAssociationEN9QtPrivate34QAssociativeIterableConvertFunctorIS5_EEEEbT1_EUlPKvPvE_@Base 6.2.1
 _ZTIZN9QMetaType17registerConverterI4QMapIt12QDBusVariantE9QIterableI16QMetaAssociationEN9QtPrivate34QAssociativeIterableConvertFunctorIS3_EEEEbT1_EUlPKvPvE_@Base 6.2.1
 _ZTIZN9QMetaType17registerConverterI5QListI15QDBusObjectPathE9QIterableI13QMetaSequenceEN9QtPrivate33QSequentialIterableConvertFunctorIS3_EEEEbT1_EUlPKvPvE_@Base 6.2.1
 _ZTIZN9QMetaType17registerConverterI5QListItE9QIterableI13QMetaSequenceEN9QtPrivate33QSequentialIterableConvertFunctorIS2_EEEEbT1_EUlPKvPvE_@Base 6.2.1
 _ZTIZN9QMetaType19registerMutableViewI4QMapI15QDBusObjectPathS1_I7QStringS1_IS3_8QVariantEEE9QIterableI16QMetaAssociationEN9QtPrivate38QAssociativeIterableMutableViewFunctorIS7_EEEEbT1_EUlPvSF_E_@Base 6.2.1
 _ZTIZN9QMetaType19registerMutableViewI4QMapI7QStringS1_IS2_8QVariantEE9QIterableI16QMetaAssociationEN9QtPrivate38QAssociativeIterableMutableViewFunctorIS5_EEEEbT1_EUlPvSD_E_@Base 6.2.1
 _ZTIZN9QMetaType19registerMutableViewI4QMapIt12QDBusVariantE9QIterableI16QMetaAssociationEN9QtPrivate38QAssociativeIterableMutableViewFunctorIS3_EEEEbT1_EUlPvSB_E_@Base 6.2.1
 _ZTIZN9QMetaType19registerMutableViewI5QListI15QDBusObjectPathE9QIterableI13QMetaSequenceEN9QtPrivate37QSequentialIterableMutableViewFunctorIS3_EEEEbT1_EUlPvSB_E_@Base 6.2.1
 _ZTIZN9QMetaType19registerMutableViewI5QListItE9QIterableI13QMetaSequenceEN9QtPrivate37QSequentialIterableMutableViewFunctorIS2_EEEEbT1_EUlPvSA_E_@Base 6.2.1
 _ZTS12QDBusContext@Base 6.2.1
 _ZTS16QBluetoothServer@Base 6.2.1
 _ZTS16QBluetoothSocket@Base 6.2.1
 _ZTS17QLowEnergyService@Base 6.2.1
 _ZTS20QLowEnergyController@Base 6.2.1
 _ZTS21QBluetoothLocalDevice@Base 6.2.1
 _ZTS30QBluetoothDeviceDiscoveryAgent@Base 6.2.1
 _ZTS31QBluetoothServiceDiscoveryAgent@Base 6.2.1
 _ZTSZN9QMetaType17registerConverterI14QSharedPointerI24QLowEnergyServicePrivateEP7QObjectN9QtPrivate27QSmartPointerConvertFunctorIS3_EEEEbT1_EUlPKvPvE_@Base 6.2.1
 _ZTSZN9QMetaType17registerConverterI4QMapI15QDBusObjectPathS1_I7QStringS1_IS3_8QVariantEEE9QIterableI16QMetaAssociationEN9QtPrivate34QAssociativeIterableConvertFunctorIS7_EEEEbT1_EUlPKvPvE_@Base 6.2.1
 _ZTSZN9QMetaType17registerConverterI4QMapI7QStringS1_IS2_8QVariantEE9QIterableI16QMetaAssociationEN9QtPrivate34QAssociativeIterableConvertFunctorIS5_EEEEbT1_EUlPKvPvE_@Base 6.2.1
 _ZTSZN9QMetaType17registerConverterI4QMapIt12QDBusVariantE9QIterableI16QMetaAssociationEN9QtPrivate34QAssociativeIterableConvertFunctorIS3_EEEEbT1_EUlPKvPvE_@Base 6.2.1
 _ZTSZN9QMetaType17registerConverterI5QListI15QDBusObjectPathE9QIterableI13QMetaSequenceEN9QtPrivate33QSequentialIterableConvertFunctorIS3_EEEEbT1_EUlPKvPvE_@Base 6.2.1
 _ZTSZN9QMetaType17registerConverterI5QListItE9QIterableI13QMetaSequenceEN9QtPrivate33QSequentialIterableConvertFunctorIS2_EEEEbT1_EUlPKvPvE_@Base 6.2.1
 _ZTSZN9QMetaType19registerMutableViewI4QMapI15QDBusObjectPathS1_I7QStringS1_IS3_8QVariantEEE9QIterableI16QMetaAssociationEN9QtPrivate38QAssociativeIterableMutableViewFunctorIS7_EEEEbT1_EUlPvSF_E_@Base 6.2.1
 _ZTSZN9QMetaType19registerMutableViewI4QMapI7QStringS1_IS2_8QVariantEE9QIterableI16QMetaAssociationEN9QtPrivate38QAssociativeIterableMutableViewFunctorIS5_EEEEbT1_EUlPvSD_E_@Base 6.2.1
 _ZTSZN9QMetaType19registerMutableViewI4QMapIt12QDBusVariantE9QIterableI16QMetaAssociationEN9QtPrivate38QAssociativeIterableMutableViewFunctorIS3_EEEEbT1_EUlPvSB_E_@Base 6.2.1
 _ZTSZN9QMetaType19registerMutableViewI5QListI15QDBusObjectPathE9QIterableI13QMetaSequenceEN9QtPrivate37QSequentialIterableMutableViewFunctorIS3_EEEEbT1_EUlPvSB_E_@Base 6.2.1
 _ZTSZN9QMetaType19registerMutableViewI5QListItE9QIterableI13QMetaSequenceEN9QtPrivate37QSequentialIterableMutableViewFunctorIS2_EEEEbT1_EUlPvSA_E_@Base 6.2.1
 _ZTV16QBluetoothServer@Base 6.2.1
 _ZTV16QBluetoothSocket@Base 6.2.1
 _ZTV17QLowEnergyService@Base 6.2.1
 _ZTV20QLowEnergyController@Base 6.2.1
 _ZTV21QBluetoothLocalDevice@Base 6.2.1
 _ZTV30QBluetoothDeviceDiscoveryAgent@Base 6.2.1
 _ZTV31QBluetoothServiceDiscoveryAgent@Base 6.2.1
 (optional=templinst)_ZZN9QMetaType21registerConverterImplI14QSharedPointerI24QLowEnergyServicePrivateEP7QObjectEEbSt8functionIFbPKvPvEES_S_E10unregister@Base 6.2.1
 (optional=templinst)_ZZN9QMetaType21registerConverterImplI4QMapI15QDBusObjectPathS1_I7QStringS1_IS3_8QVariantEEE9QIterableI16QMetaAssociationEEEbSt8functionIFbPKvPvEES_S_E10unregister@Base 6.2.1
 (optional=templinst)_ZZN9QMetaType21registerConverterImplI4QMapI7QStringS1_IS2_8QVariantEE9QIterableI16QMetaAssociationEEEbSt8functionIFbPKvPvEES_S_E10unregister@Base 6.2.1
 (optional=templinst)_ZZN9QMetaType21registerConverterImplI4QMapIt12QDBusVariantE9QIterableI16QMetaAssociationEEEbSt8functionIFbPKvPvEES_S_E10unregister@Base 6.2.1
 (optional=templinst)_ZZN9QMetaType21registerConverterImplI5QListI15QDBusObjectPathE9QIterableI13QMetaSequenceEEEbSt8functionIFbPKvPvEES_S_E10unregister@Base 6.2.1
 (optional=templinst)_ZZN9QMetaType21registerConverterImplI5QListItE9QIterableI13QMetaSequenceEEEbSt8functionIFbPKvPvEES_S_E10unregister@Base 6.2.1
 (optional=templinst)_ZZN9QMetaType23registerMutableViewImplI4QMapI15QDBusObjectPathS1_I7QStringS1_IS3_8QVariantEEE9QIterableI16QMetaAssociationEEEbSt8functionIFbPvSC_EES_S_E10unregister@Base 6.2.1
 (optional=templinst)_ZZN9QMetaType23registerMutableViewImplI4QMapI7QStringS1_IS2_8QVariantEE9QIterableI16QMetaAssociationEEEbSt8functionIFbPvSA_EES_S_E10unregister@Base 6.2.1
 (optional=templinst)_ZZN9QMetaType23registerMutableViewImplI4QMapIt12QDBusVariantE9QIterableI16QMetaAssociationEEEbSt8functionIFbPvS8_EES_S_E10unregister@Base 6.2.1
 (optional=templinst)_ZZN9QMetaType23registerMutableViewImplI5QListI15QDBusObjectPathE9QIterableI13QMetaSequenceEEEbSt8functionIFbPvS8_EES_S_E10unregister@Base 6.2.1
 (optional=templinst)_ZZN9QMetaType23registerMutableViewImplI5QListItE9QIterableI13QMetaSequenceEEEbSt8functionIFbPvS7_EES_S_E10unregister@Base 6.2.1
 (optional=templinst)_ZZN9QtPrivate16QMetaTypeForTypeI10QByteArrayE10getCopyCtrEvENUlPKNS_18QMetaTypeInterfaceEPvPKvE_4_FUNES5_S6_S8_@Base 6.2.1
 (optional=templinst)_ZZN9QtPrivate16QMetaTypeForTypeI10QByteArrayE10getMoveCtrEvENUlPKNS_18QMetaTypeInterfaceEPvS6_E_4_FUNES5_S6_S6_@Base 6.2.1
 (optional=templinst)_ZZN9QtPrivate16QMetaTypeForTypeI10QByteArrayE13getDefaultCtrEvENUlPKNS_18QMetaTypeInterfaceEPvE_4_FUNES5_S6_@Base 6.2.1
 (optional=templinst)_ZZN9QtPrivate16QMetaTypeForTypeI10QByteArrayE7getDtorEvENUlPKNS_18QMetaTypeInterfaceEPvE_4_FUNES5_S6_@Base 6.2.1
 (optional=templinst)_ZZN9QtPrivate16QMetaTypeForTypeI4QMapI7QString8QVariantEE10getCopyCtrEvENUlPKNS_18QMetaTypeInterfaceEPvPKvE_4_FUNES8_S9_SB_@Base 6.2.1
 (optional=templinst)_ZZN9QtPrivate16QMetaTypeForTypeI4QMapI7QString8QVariantEE10getMoveCtrEvENUlPKNS_18QMetaTypeInterfaceEPvS9_E_4_FUNES8_S9_S9_@Base 6.2.1
 (optional=templinst)_ZZN9QtPrivate16QMetaTypeForTypeI4QMapI7QString8QVariantEE13getDefaultCtrEvENUlPKNS_18QMetaTypeInterfaceEPvE_4_FUNES8_S9_@Base 6.2.1
 (optional=templinst)_ZZN9QtPrivate16QMetaTypeForTypeI4QMapI7QString8QVariantEE7getDtorEvENUlPKNS_18QMetaTypeInterfaceEPvE_4_FUNES8_S9_@Base 6.2.1
 (optional=templinst)_ZZN9QtPrivate16QMetaTypeForTypeI4QUrlE10getCopyCtrEvENUlPKNS_18QMetaTypeInterfaceEPvPKvE_4_FUNES5_S6_S8_@Base 6.2.1
 (optional=templinst)_ZZN9QtPrivate16QMetaTypeForTypeI4QUrlE10getMoveCtrEvENUlPKNS_18QMetaTypeInterfaceEPvS6_E_4_FUNES5_S6_S6_@Base 6.2.1
 (optional=templinst)_ZZN9QtPrivate16QMetaTypeForTypeI4QUrlE13getDefaultCtrEvENUlPKNS_18QMetaTypeInterfaceEPvE_4_FUNES5_S6_@Base 6.2.1
 (optional=templinst)_ZZN9QtPrivate16QMetaTypeForTypeI4QUrlE7getDtorEvENUlPKNS_18QMetaTypeInterfaceEPvE_4_FUNES5_S6_@Base 6.2.1
 (optional=templinst)_ZZN9QtPrivate16QMetaTypeForTypeI5QListI7QStringEE10getCopyCtrEvENUlPKNS_18QMetaTypeInterfaceEPvPKvE_4_FUNES7_S8_SA_@Base 6.2.1
 (optional=templinst)_ZZN9QtPrivate16QMetaTypeForTypeI5QListI7QStringEE10getMoveCtrEvENUlPKNS_18QMetaTypeInterfaceEPvS8_E_4_FUNES7_S8_S8_@Base 6.2.1
 (optional=templinst)_ZZN9QtPrivate16QMetaTypeForTypeI5QListI7QStringEE13getDefaultCtrEvENUlPKNS_18QMetaTypeInterfaceEPvE_4_FUNES7_S8_@Base 6.2.1
 (optional=templinst)_ZZN9QtPrivate16QMetaTypeForTypeI5QListI7QStringEE7getDtorEvENUlPKNS_18QMetaTypeInterfaceEPvE_4_FUNES7_S8_@Base 6.2.1
 (optional=templinst)_ZZN9QtPrivate16QMetaTypeForTypeI7QStringE10getCopyCtrEvENUlPKNS_18QMetaTypeInterfaceEPvPKvE_4_FUNES5_S6_S8_@Base 6.2.1
 (optional=templinst)_ZZN9QtPrivate16QMetaTypeForTypeI7QStringE10getMoveCtrEvENUlPKNS_18QMetaTypeInterfaceEPvS6_E_4_FUNES5_S6_S6_@Base 6.2.1
 (optional=templinst)_ZZN9QtPrivate16QMetaTypeForTypeI7QStringE13getDefaultCtrEvENUlPKNS_18QMetaTypeInterfaceEPvE_4_FUNES5_S6_@Base 6.2.1
 (optional=templinst)_ZZN9QtPrivate16QMetaTypeForTypeI7QStringE7getDtorEvENUlPKNS_18QMetaTypeInterfaceEPvE_4_FUNES5_S6_@Base 6.2.1
 (optional=templinst)_ZZN9QtPrivate16QMetaTypeForTypeIP7QObjectE10getCopyCtrEvENUlPKNS_18QMetaTypeInterfaceEPvPKvE_4_FUNES6_S7_S9_@Base 6.2.1
 (optional=templinst)_ZZN9QtPrivate16QMetaTypeForTypeIP7QObjectE10getMoveCtrEvENUlPKNS_18QMetaTypeInterfaceEPvS7_E_4_FUNES6_S7_S7_@Base 6.2.1
 (optional=templinst)_ZZN9QtPrivate16QMetaTypeForTypeIP7QObjectE13getDefaultCtrEvENUlPKNS_18QMetaTypeInterfaceEPvE_4_FUNES6_S7_@Base 6.2.1
 (optional=templinst)_ZZN9QtPrivate16QMetaTypeForTypeIaE10getCopyCtrEvENUlPKNS_18QMetaTypeInterfaceEPvPKvE_4_FUNES4_S5_S7_@Base 6.2.1
 (optional=templinst)_ZZN9QtPrivate16QMetaTypeForTypeIaE10getMoveCtrEvENUlPKNS_18QMetaTypeInterfaceEPvS5_E_4_FUNES4_S5_S5_@Base 6.2.1
 (optional=templinst)_ZZN9QtPrivate16QMetaTypeForTypeIaE13getDefaultCtrEvENUlPKNS_18QMetaTypeInterfaceEPvE_4_FUNES4_S5_@Base 6.2.1
 (optional=templinst)_ZZN9QtPrivate16QMetaTypeForTypeIbE10getCopyCtrEvENUlPKNS_18QMetaTypeInterfaceEPvPKvE_4_FUNES4_S5_S7_@Base 6.2.1
 (optional=templinst)_ZZN9QtPrivate16QMetaTypeForTypeIbE10getMoveCtrEvENUlPKNS_18QMetaTypeInterfaceEPvS5_E_4_FUNES4_S5_S5_@Base 6.2.1
 (optional=templinst)_ZZN9QtPrivate16QMetaTypeForTypeIbE13getDefaultCtrEvENUlPKNS_18QMetaTypeInterfaceEPvE_4_FUNES4_S5_@Base 6.2.1
 (optional=templinst)_ZZN9QtPrivate16QMetaTypeForTypeIhE10getCopyCtrEvENUlPKNS_18QMetaTypeInterfaceEPvPKvE_4_FUNES4_S5_S7_@Base 6.2.1
 (optional=templinst)_ZZN9QtPrivate16QMetaTypeForTypeIhE10getMoveCtrEvENUlPKNS_18QMetaTypeInterfaceEPvS5_E_4_FUNES4_S5_S5_@Base 6.2.1
 (optional=templinst)_ZZN9QtPrivate16QMetaTypeForTypeIhE13getDefaultCtrEvENUlPKNS_18QMetaTypeInterfaceEPvE_4_FUNES4_S5_@Base 6.2.1
 (optional=templinst)_ZZN9QtPrivate16QMetaTypeForTypeIiE10getCopyCtrEvENUlPKNS_18QMetaTypeInterfaceEPvPKvE_4_FUNES4_S5_S7_@Base 6.2.1
 (optional=templinst)_ZZN9QtPrivate16QMetaTypeForTypeIiE10getMoveCtrEvENUlPKNS_18QMetaTypeInterfaceEPvS5_E_4_FUNES4_S5_S5_@Base 6.2.1
 (optional=templinst)_ZZN9QtPrivate16QMetaTypeForTypeIiE13getDefaultCtrEvENUlPKNS_18QMetaTypeInterfaceEPvE_4_FUNES4_S5_@Base 6.2.1
 (optional=templinst)_ZZN9QtPrivate16QMetaTypeForTypeIjE10getCopyCtrEvENUlPKNS_18QMetaTypeInterfaceEPvPKvE_4_FUNES4_S5_S7_@Base 6.2.1
 (optional=templinst)_ZZN9QtPrivate16QMetaTypeForTypeIjE10getMoveCtrEvENUlPKNS_18QMetaTypeInterfaceEPvS5_E_4_FUNES4_S5_S5_@Base 6.2.1
 (optional=templinst)_ZZN9QtPrivate16QMetaTypeForTypeIjE13getDefaultCtrEvENUlPKNS_18QMetaTypeInterfaceEPvE_4_FUNES4_S5_@Base 6.2.1
 (optional=templinst)_ZZN9QtPrivate16QMetaTypeForTypeIsE10getCopyCtrEvENUlPKNS_18QMetaTypeInterfaceEPvPKvE_4_FUNES4_S5_S7_@Base 6.2.1
 (optional=templinst)_ZZN9QtPrivate16QMetaTypeForTypeIsE10getMoveCtrEvENUlPKNS_18QMetaTypeInterfaceEPvS5_E_4_FUNES4_S5_S5_@Base 6.2.1
 (optional=templinst)_ZZN9QtPrivate16QMetaTypeForTypeIsE13getDefaultCtrEvENUlPKNS_18QMetaTypeInterfaceEPvE_4_FUNES4_S5_@Base 6.2.1
 (optional=templinst)_ZZN9QtPrivate16QMetaTypeForTypeItE10getCopyCtrEvENUlPKNS_18QMetaTypeInterfaceEPvPKvE_4_FUNES4_S5_S7_@Base 6.2.1
 (optional=templinst)_ZZN9QtPrivate16QMetaTypeForTypeItE10getMoveCtrEvENUlPKNS_18QMetaTypeInterfaceEPvS5_E_4_FUNES4_S5_S5_@Base 6.2.1
 (optional=templinst)_ZZN9QtPrivate16QMetaTypeForTypeItE13getDefaultCtrEvENUlPKNS_18QMetaTypeInterfaceEPvE_4_FUNES4_S5_@Base 6.2.1
