# SymbolsHelper-Confirmed: 6.2.0 amd64
libQt6Svg.so.6 libqt6svg6 #MINVER#
* Build-Depends-Package: libqt6svg6-dev
 _ZN10QSvgSwitch4drawEP8QPainterR15QSvgExtraStates@Base 6.2.0
 _ZN10QSvgSwitch4initEv@Base 6.2.0
 _ZN10QSvgSwitchC1EP8QSvgNode@Base 6.2.0
 _ZN10QSvgSwitchC2EP8QSvgNode@Base 6.2.0
 _ZN11QSvgEllipse4drawEP8QPainterR15QSvgExtraStates@Base 6.2.0
 _ZN11QSvgEllipseC1EP8QSvgNodeRK6QRectF@Base 6.2.0
 _ZN11QSvgEllipseC2EP8QSvgNodeRK6QRectF@Base 6.2.0
 _ZN11QSvgHandler10charactersE11QStringView@Base 6.2.0
 _ZN11QSvgHandler10endElementE11QStringView@Base 6.2.0
 _ZN11QSvgHandler10setInStyleEb@Base 6.2.0
 _ZN11QSvgHandler12resolveNodesEv@Base 6.2.0
 _ZN11QSvgHandler12startElementERK7QStringRK20QXmlStreamAttributes@Base 6.2.0
 _ZN11QSvgHandler13pushColorCopyEv@Base 6.2.0
 _ZN11QSvgHandler13setAnimPeriodEii@Base 6.2.0
 _ZN11QSvgHandler16resolveGradientsEP8QSvgNodei@Base 6.2.0
 _ZN11QSvgHandler18parseCSStoXMLAttrsERK7QStringP5QListI16QSvgCssAttributeE@Base 6.2.0
 _ZN11QSvgHandler21processingInstructionERK7QStringS2_@Base 6.2.0
 _ZN11QSvgHandler26setDefaultCoordinateSystemENS_10LengthTypeE@Base 6.2.0
 _ZN11QSvgHandler4initEv@Base 6.2.0
 _ZN11QSvgHandler5parseEv@Base 6.2.0
 _ZN11QSvgHandler8popColorEv@Base 6.2.0
 _ZN11QSvgHandler9pushColorERK6QColor@Base 6.2.0
 _ZN11QSvgHandlerC1EP16QXmlStreamReader@Base 6.2.0
 _ZN11QSvgHandlerC1EP9QIODevice@Base 6.2.0
 _ZN11QSvgHandlerC1ERK10QByteArray@Base 6.2.0
 _ZN11QSvgHandlerC2EP16QXmlStreamReader@Base 6.2.0
 _ZN11QSvgHandlerC2EP9QIODevice@Base 6.2.0
 _ZN11QSvgHandlerC2ERK10QByteArray@Base 6.2.0
 _ZN11QSvgHandlerD1Ev@Base 6.2.0
 _ZN11QSvgHandlerD2Ev@Base 6.2.0
 _ZN11QSvgPolygon4drawEP8QPainterR15QSvgExtraStates@Base 6.2.0
 _ZN11QSvgPolygonC1EP8QSvgNodeRK9QPolygonF@Base 6.2.0
 _ZN11QSvgPolygonC2EP8QSvgNodeRK9QPolygonF@Base 6.2.0
 _ZN12QSvgPolyline4drawEP8QPainterR15QSvgExtraStates@Base 6.2.0
 _ZN12QSvgPolylineC1EP8QSvgNodeRK9QPolygonF@Base 6.2.0
 _ZN12QSvgPolylineC2EP8QSvgNodeRK9QPolygonF@Base 6.2.0
 _ZN12QSvgRenderer10setViewBoxERK5QRect@Base 6.2.0
 _ZN12QSvgRenderer10setViewBoxERK6QRectF@Base 6.2.0
 _ZN12QSvgRenderer11qt_metacallEN11QMetaObject4CallEiPPv@Base 6.2.0
 _ZN12QSvgRenderer11qt_metacastEPKc@Base 6.2.0
 _ZN12QSvgRenderer13repaintNeededEv@Base 6.2.0
 _ZN12QSvgRenderer15setCurrentFrameEi@Base 6.2.0
 _ZN12QSvgRenderer16staticMetaObjectE@Base 6.2.0
 _ZN12QSvgRenderer18setAspectRatioModeEN2Qt15AspectRatioModeE@Base 6.2.0
 _ZN12QSvgRenderer18setFramesPerSecondEi@Base 6.2.0
 _ZN12QSvgRenderer4loadEP16QXmlStreamReader@Base 6.2.0
 _ZN12QSvgRenderer4loadERK10QByteArray@Base 6.2.0
 _ZN12QSvgRenderer4loadERK7QString@Base 6.2.0
 _ZN12QSvgRenderer6renderEP8QPainter@Base 6.2.0
 _ZN12QSvgRenderer6renderEP8QPainterRK6QRectF@Base 6.2.0
 _ZN12QSvgRenderer6renderEP8QPainterRK7QStringRK6QRectF@Base 6.2.0
 _ZN12QSvgRendererC1EP16QXmlStreamReaderP7QObject@Base 6.2.0
 _ZN12QSvgRendererC1EP7QObject@Base 6.2.0
 _ZN12QSvgRendererC1ERK10QByteArrayP7QObject@Base 6.2.0
 _ZN12QSvgRendererC1ERK7QStringP7QObject@Base 6.2.0
 _ZN12QSvgRendererC2EP16QXmlStreamReaderP7QObject@Base 6.2.0
 _ZN12QSvgRendererC2EP7QObject@Base 6.2.0
 _ZN12QSvgRendererC2ERK10QByteArrayP7QObject@Base 6.2.0
 _ZN12QSvgRendererC2ERK7QStringP7QObject@Base 6.2.0
 _ZN12QSvgRendererD0Ev@Base 6.2.0
 _ZN12QSvgRendererD1Ev@Base 6.2.0
 _ZN12QSvgRendererD2Ev@Base 6.2.0
 _ZN13QSvgAnimation4drawEP8QPainterR15QSvgExtraStates@Base 6.2.0
 _ZN13QSvgFillStyle11setFillRuleEN2Qt8FillRuleE@Base 6.2.0
 _ZN13QSvgFillStyle12setFillStyleEP21QSvgFillStyleProperty@Base 6.2.0
 _ZN13QSvgFillStyle14setFillOpacityEd@Base 6.2.0
 _ZN13QSvgFillStyle5applyEP8QPainterPK8QSvgNodeR15QSvgExtraStates@Base 6.2.0
 _ZN13QSvgFillStyle6revertEP8QPainterR15QSvgExtraStates@Base 6.2.0
 _ZN13QSvgFillStyle8setBrushE6QBrush@Base 6.2.0
 _ZN13QSvgFillStyleC1Ev@Base 6.2.0
 _ZN13QSvgFillStyleC2Ev@Base 6.2.0
 _ZN13QSvgFontStyle5applyEP8QPainterPK8QSvgNodeR15QSvgExtraStates@Base 6.2.0
 _ZN13QSvgFontStyle6revertEP8QPainterR15QSvgExtraStates@Base 6.2.0
 _ZN13QSvgFontStyleC1EP8QSvgFontP16QSvgTinyDocument@Base 6.2.0
 _ZN13QSvgFontStyleC1Ev@Base 6.2.0
 _ZN13QSvgFontStyleC2EP8QSvgFontP16QSvgTinyDocument@Base 6.2.0
 _ZN13QSvgFontStyleC2Ev@Base 6.2.0
 _ZN13QSvgGenerator10setViewBoxERK5QRect@Base 6.2.0
 _ZN13QSvgGenerator10setViewBoxERK6QRectF@Base 6.2.0
 _ZN13QSvgGenerator11setFileNameERK7QString@Base 6.2.0
 _ZN13QSvgGenerator13setResolutionEi@Base 6.2.0
 _ZN13QSvgGenerator14setDescriptionERK7QString@Base 6.2.0
 _ZN13QSvgGenerator15setOutputDeviceEP9QIODevice@Base 6.2.0
 _ZN13QSvgGenerator7setSizeERK5QSize@Base 6.2.0
 _ZN13QSvgGenerator8setTitleERK7QString@Base 6.2.0
 _ZN13QSvgGeneratorC1Ev@Base 6.2.0
 _ZN13QSvgGeneratorC2Ev@Base 6.2.0
 _ZN13QSvgGeneratorD0Ev@Base 6.2.0
 _ZN13QSvgGeneratorD1Ev@Base 6.2.0
 _ZN13QSvgGeneratorD2Ev@Base 6.2.0
 _ZN15QSvgCompOpStyle5applyEP8QPainterPK8QSvgNodeR15QSvgExtraStates@Base 6.2.0
 _ZN15QSvgCompOpStyle6revertEP8QPainterR15QSvgExtraStates@Base 6.2.0
 _ZN15QSvgCompOpStyleC1EN8QPainter15CompositionModeE@Base 6.2.0
 _ZN15QSvgCompOpStyleC2EN8QPainter15CompositionModeE@Base 6.2.0
 _ZN15QSvgExtraStatesC1Ev@Base 6.2.0
 _ZN15QSvgExtraStatesC2Ev@Base 6.2.0
 _ZN15QSvgStrokeStyle12setDashArrayERK5QListIdE@Base 6.2.0
 _ZN15QSvgStrokeStyle5applyEP8QPainterPK8QSvgNodeR15QSvgExtraStates@Base 6.2.0
 _ZN15QSvgStrokeStyle6revertEP8QPainterR15QSvgExtraStates@Base 6.2.0
 _ZN15QSvgStrokeStyleC1Ev@Base 6.2.0
 _ZN15QSvgStrokeStyleC2Ev@Base 6.2.0
 _ZN16QSvgAnimateColor14setRepeatCountEd@Base 6.2.0
 _ZN16QSvgAnimateColor5applyEP8QPainterPK8QSvgNodeR15QSvgExtraStates@Base 6.2.0
 _ZN16QSvgAnimateColor6revertEP8QPainterR15QSvgExtraStates@Base 6.2.0
 _ZN16QSvgAnimateColor7setArgsEbRK5QListI6QColorE@Base 6.2.0
 _ZN16QSvgAnimateColor9setFreezeEb@Base 6.2.0
 _ZN16QSvgAnimateColorC1Eiii@Base 6.2.0
 _ZN16QSvgAnimateColorC2Eiii@Base 6.2.0
 _ZN16QSvgOpacityStyle5applyEP8QPainterPK8QSvgNodeR15QSvgExtraStates@Base 6.2.0
 _ZN16QSvgOpacityStyle6revertEP8QPainterR15QSvgExtraStates@Base 6.2.0
 _ZN16QSvgOpacityStyleC1Ed@Base 6.2.0
 _ZN16QSvgOpacityStyleC2Ed@Base 6.2.0
 _ZN16QSvgQualityStyle17setImageRenderingENS_14ImageRenderingE@Base 6.2.0
 _ZN16QSvgQualityStyle5applyEP8QPainterPK8QSvgNodeR15QSvgExtraStates@Base 6.2.0
 _ZN16QSvgQualityStyle6revertEP8QPainterR15QSvgExtraStates@Base 6.2.0
 _ZN16QSvgQualityStyleC1Ei@Base 6.2.0
 _ZN16QSvgQualityStyleC2Ei@Base 6.2.0
 _ZN16QSvgTinyDocument10addSvgFontEP8QSvgFont@Base 6.2.0
 _ZN16QSvgTinyDocument10setViewBoxERK6QRectF@Base 6.2.0
 _ZN16QSvgTinyDocument11setAnimatedEb@Base 6.2.0
 _ZN16QSvgTinyDocument12addNamedNodeERK7QStringP8QSvgNode@Base 6.2.0
 _ZN16QSvgTinyDocument13addNamedStyleERK7QStringP21QSvgFillStyleProperty@Base 6.2.0
 _ZN16QSvgTinyDocument15setCurrentFrameEi@Base 6.2.0
 _ZN16QSvgTinyDocument16restartAnimationEv@Base 6.2.0
 _ZN16QSvgTinyDocument17mapSourceToTargetEP8QPainterRK6QRectFS4_@Base 6.2.0
 _ZN16QSvgTinyDocument18setFramesPerSecondEi@Base 6.2.0
 _ZN16QSvgTinyDocument22setPreserveAspectRatioEb@Base 6.2.0
 _ZN16QSvgTinyDocument4drawEP8QPainter@Base 6.2.0
 _ZN16QSvgTinyDocument4drawEP8QPainterR15QSvgExtraStates@Base 6.2.0
 _ZN16QSvgTinyDocument4drawEP8QPainterRK6QRectF@Base 6.2.0
 _ZN16QSvgTinyDocument4drawEP8QPainterRK7QStringRK6QRectF@Base 6.2.0
 _ZN16QSvgTinyDocument4loadEP16QXmlStreamReader@Base 6.2.0
 _ZN16QSvgTinyDocument4loadERK10QByteArray@Base 6.2.0
 _ZN16QSvgTinyDocument4loadERK7QString@Base 6.2.0
 _ZN16QSvgTinyDocument8setWidthEib@Base 6.2.0
 _ZN16QSvgTinyDocument9setHeightEib@Base 6.2.0
 _ZN16QSvgTinyDocumentC1Ev@Base 6.2.0
 _ZN16QSvgTinyDocumentC2Ev@Base 6.2.0
 _ZN16QSvgTinyDocumentD0Ev@Base 6.2.0
 _ZN16QSvgTinyDocumentD1Ev@Base 6.2.0
 _ZN16QSvgTinyDocumentD2Ev@Base 6.2.0
 _ZN17QSvgGradientStyle11setStopLinkERK7QStringP16QSvgTinyDocument@Base 6.2.0
 _ZN17QSvgGradientStyle12resolveStopsEv@Base 6.2.0
 _ZN17QSvgGradientStyle12setTransformERK10QTransform@Base 6.2.0
 _ZN17QSvgGradientStyle19resolveStops_helperEP5QListI7QStringE@Base 6.2.0
 _ZN17QSvgGradientStyle5brushEP8QPainterR15QSvgExtraStates@Base 6.2.0
 _ZN17QSvgGradientStyleC1EP9QGradient@Base 6.2.0
 _ZN17QSvgGradientStyleC2EP9QGradient@Base 6.2.0
 _ZN17QSvgStructureNode8addChildEP8QSvgNodeRK7QString@Base 6.2.0
 _ZN17QSvgStructureNodeC1EP8QSvgNode@Base 6.2.0
 _ZN17QSvgStructureNodeC2EP8QSvgNode@Base 6.2.0
 _ZN17QSvgStructureNodeD0Ev@Base 6.2.0
 _ZN17QSvgStructureNodeD1Ev@Base 6.2.0
 _ZN17QSvgStructureNodeD2Ev@Base 6.2.0
 _ZN17QSvgStylePropertyD0Ev@Base 6.2.0
 _ZN17QSvgStylePropertyD1Ev@Base 6.2.0
 _ZN17QSvgStylePropertyD2Ev@Base 6.2.0
 _ZN18QSvgTransformStyle5applyEP8QPainterPK8QSvgNodeR15QSvgExtraStates@Base 6.2.0
 _ZN18QSvgTransformStyle6revertEP8QPainterR15QSvgExtraStates@Base 6.2.0
 _ZN18QSvgTransformStyleC1ERK10QTransform@Base 6.2.0
 _ZN18QSvgTransformStyleC2ERK10QTransform@Base 6.2.0
 _ZN19QSvgSolidColorStyleC1ERK6QColor@Base 6.2.0
 _ZN19QSvgSolidColorStyleC2ERK6QColor@Base 6.2.0
 _ZN20QSvgAnimateTransform13resolveMatrixEPK8QSvgNode@Base 6.2.0
 _ZN20QSvgAnimateTransform14setRepeatCountEd@Base 6.2.0
 _ZN20QSvgAnimateTransform5applyEP8QPainterPK8QSvgNodeR15QSvgExtraStates@Base 6.2.0
 _ZN20QSvgAnimateTransform6revertEP8QPainterR15QSvgExtraStates@Base 6.2.0
 _ZN20QSvgAnimateTransform7setArgsENS_13TransformTypeENS_8AdditiveERK5QListIdE@Base 6.2.0
 _ZN20QSvgAnimateTransform9setFreezeEb@Base 6.2.0
 _ZN20QSvgAnimateTransformC1Eiii@Base 6.2.0
 _ZN20QSvgAnimateTransformC2Eiii@Base 6.2.0
 _ZN21QSvgFillStyleProperty5applyEP8QPainterPK8QSvgNodeR15QSvgExtraStates@Base 6.2.0
 _ZN21QSvgFillStyleProperty6revertEP8QPainterR15QSvgExtraStates@Base 6.2.0
 _ZN21QSvgViewportFillStyle5applyEP8QPainterPK8QSvgNodeR15QSvgExtraStates@Base 6.2.0
 _ZN21QSvgViewportFillStyle6revertEP8QPainterR15QSvgExtraStates@Base 6.2.0
 _ZN21QSvgViewportFillStyleC1ERK6QBrush@Base 6.2.0
 _ZN21QSvgViewportFillStyleC2ERK6QBrush@Base 6.2.0
 _ZN5QSvgG4drawEP8QPainterR15QSvgExtraStates@Base 6.2.0
 _ZN5QSvgGC1EP8QSvgNode@Base 6.2.0
 _ZN5QSvgGC2EP8QSvgNode@Base 6.2.0
 _ZN7QSvgArc4drawEP8QPainterR15QSvgExtraStates@Base 6.2.0
 _ZN7QSvgArcC1EP8QSvgNodeRK12QPainterPath@Base 6.2.0
 _ZN7QSvgArcC2EP8QSvgNodeRK12QPainterPath@Base 6.2.0
 _ZN8QSvgDefs4drawEP8QPainterR15QSvgExtraStates@Base 6.2.0
 _ZN8QSvgDefsC1EP8QSvgNode@Base 6.2.0
 _ZN8QSvgDefsC2EP8QSvgNode@Base 6.2.0
 _ZN8QSvgFont13setFamilyNameERK7QString@Base 6.2.0
 _ZN8QSvgFont13setUnitsPerEmEd@Base 6.2.0
 _ZN8QSvgFont8addGlyphE5QCharRK12QPainterPathd@Base 6.2.0
 _ZN8QSvgFontC1Ed@Base 6.2.0
 _ZN8QSvgFontC2Ed@Base 6.2.0
 _ZN8QSvgLine4drawEP8QPainterR15QSvgExtraStates@Base 6.2.0
 _ZN8QSvgLineC1EP8QSvgNodeRK6QLineF@Base 6.2.0
 _ZN8QSvgLineC2EP8QSvgNodeRK6QLineF@Base 6.2.0
 _ZN8QSvgNode10setVisibleEb@Base 6.2.0
 _ZN8QSvgNode11setXmlClassERK7QString@Base 6.2.0
 _ZN8QSvgNode11strokeWidthEP8QPainter@Base 6.2.0
 _ZN8QSvgNode14setDisplayModeENS_11DisplayModeE@Base 6.2.0
 _ZN8QSvgNode16setRequiredFontsERK5QListI7QStringE@Base 6.2.0
 _ZN8QSvgNode18setRequiredFormatsERK5QListI7QStringE@Base 6.2.0
 _ZN8QSvgNode19appendStylePropertyEP17QSvgStylePropertyRK7QString@Base 6.2.0
 _ZN8QSvgNode19setRequiredFeaturesERK5QListI7QStringE@Base 6.2.0
 _ZN8QSvgNode20setRequiredLanguagesERK5QListI7QStringE@Base 6.2.0
 _ZN8QSvgNode21setRequiredExtensionsERK5QListI7QStringE@Base 6.2.0
 _ZN8QSvgNode9setNodeIdERK7QString@Base 6.2.0
 _ZN8QSvgNodeC1EPS_@Base 6.2.0
 _ZN8QSvgNodeC2EPS_@Base 6.2.0
 _ZN8QSvgNodeD0Ev@Base 6.2.0
 _ZN8QSvgNodeD1Ev@Base 6.2.0
 _ZN8QSvgNodeD2Ev@Base 6.2.0
 _ZN8QSvgPath4drawEP8QPainterR15QSvgExtraStates@Base 6.2.0
 _ZN8QSvgPathC1EP8QSvgNodeRK12QPainterPath@Base 6.2.0
 _ZN8QSvgPathC2EP8QSvgNodeRK12QPainterPath@Base 6.2.0
 _ZN8QSvgRect4drawEP8QPainterR15QSvgExtraStates@Base 6.2.0
 _ZN8QSvgRectC1EP8QSvgNodeRK6QRectFii@Base 6.2.0
 _ZN8QSvgRectC2EP8QSvgNodeRK6QRectFii@Base 6.2.0
 _ZN8QSvgText11setTextAreaERK6QSizeF@Base 6.2.0
 _ZN8QSvgText4drawEP8QPainterR15QSvgExtraStates@Base 6.2.0
 _ZN8QSvgText7addTextERK7QString@Base 6.2.0
 _ZN8QSvgText9LINEBREAKE@Base 6.2.0
 _ZN8QSvgTextC1EP8QSvgNodeRK7QPointF@Base 6.2.0
 _ZN8QSvgTextC2EP8QSvgNodeRK7QPointF@Base 6.2.0
 _ZN8QSvgTextD0Ev@Base 6.2.0
 _ZN8QSvgTextD1Ev@Base 6.2.0
 _ZN8QSvgTextD2Ev@Base 6.2.0
 _ZN9QSvgGlyphC1E5QCharRK12QPainterPathd@Base 6.2.0
 _ZN9QSvgGlyphC2E5QCharRK12QPainterPathd@Base 6.2.0
 _ZN9QSvgImage4drawEP8QPainterR15QSvgExtraStates@Base 6.2.0
 _ZN9QSvgImageC1EP8QSvgNodeRK6QImageRK6QRectF@Base 6.2.0
 _ZN9QSvgImageC2EP8QSvgNodeRK6QImageRK6QRectF@Base 6.2.0
 _ZN9QSvgStyle5applyEP8QPainterPK8QSvgNodeR15QSvgExtraStates@Base 6.2.0
 _ZN9QSvgStyle6revertEP8QPainterR15QSvgExtraStates@Base 6.2.0
 _ZN9QSvgStyleD1Ev@Base 6.2.0
 _ZN9QSvgStyleD2Ev@Base 6.2.0
 _ZNK10QSvgCircle4typeEv@Base 6.2.0
 _ZNK10QSvgSwitch4typeEv@Base 6.2.0
 _ZNK11QSvgEllipse4typeEv@Base 6.2.0
 _ZNK11QSvgEllipse6boundsEP8QPainterR15QSvgExtraStates@Base 6.2.0
 _ZNK11QSvgHandler12currentColorEv@Base 6.2.0
 _ZNK11QSvgHandler17animationDurationEv@Base 6.2.0
 _ZNK11QSvgHandler23defaultCoordinateSystemEv@Base 6.2.0
 _ZNK11QSvgHandler6deviceEv@Base 6.2.0
 _ZNK11QSvgHandler7inStyleEv@Base 6.2.0
 _ZNK11QSvgHandler8documentEv@Base 6.2.0
 _ZNK11QSvgHandler8selectorEv@Base 6.2.0
 _ZNK11QSvgPolygon4typeEv@Base 6.2.0
 _ZNK11QSvgPolygon6boundsEP8QPainterR15QSvgExtraStates@Base 6.2.0
 _ZNK12QPaintDevice7devTypeEv@Base 6.2.0
 _ZNK12QSvgPolyline4typeEv@Base 6.2.0
 _ZNK12QSvgPolyline6boundsEP8QPainterR15QSvgExtraStates@Base 6.2.0
 _ZNK12QSvgRenderer10metaObjectEv@Base 6.2.0
 _ZNK12QSvgRenderer11defaultSizeEv@Base 6.2.0
 _ZNK12QSvgRenderer12currentFrameEv@Base 6.2.0
 _ZNK12QSvgRenderer13elementExistsERK7QString@Base 6.2.0
 _ZNK12QSvgRenderer15aspectRatioModeEv@Base 6.2.0
 _ZNK12QSvgRenderer15boundsOnElementERK7QString@Base 6.2.0
 _ZNK12QSvgRenderer15framesPerSecondEv@Base 6.2.0
 _ZNK12QSvgRenderer17animationDurationEv@Base 6.2.0
 _ZNK12QSvgRenderer19transformForElementERK7QString@Base 6.2.0
 _ZNK12QSvgRenderer7isValidEv@Base 6.2.0
 _ZNK12QSvgRenderer7viewBoxEv@Base 6.2.0
 _ZNK12QSvgRenderer8animatedEv@Base 6.2.0
 _ZNK12QSvgRenderer8viewBoxFEv@Base 6.2.0
 _ZNK13QSvgAnimation4typeEv@Base 6.2.0
 _ZNK13QSvgFillStyle4typeEv@Base 6.2.0
 _ZNK13QSvgFontStyle4typeEv@Base 6.2.0
 _ZNK13QSvgGenerator10resolutionEv@Base 6.2.0
 _ZNK13QSvgGenerator11descriptionEv@Base 6.2.0
 _ZNK13QSvgGenerator11paintEngineEv@Base 6.2.0
 _ZNK13QSvgGenerator12outputDeviceEv@Base 6.2.0
 _ZNK13QSvgGenerator4sizeEv@Base 6.2.0
 _ZNK13QSvgGenerator5titleEv@Base 6.2.0
 _ZNK13QSvgGenerator6metricEN12QPaintDevice17PaintDeviceMetricE@Base 6.2.0
 _ZNK13QSvgGenerator7viewBoxEv@Base 6.2.0
 _ZNK13QSvgGenerator8fileNameEv@Base 6.2.0
 _ZNK13QSvgGenerator8viewBoxFEv@Base 6.2.0
 _ZNK15QSvgCompOpStyle4typeEv@Base 6.2.0
 _ZNK15QSvgStrokeStyle4typeEv@Base 6.2.0
 _ZNK16QSvgAnimateColor4typeEv@Base 6.2.0
 _ZNK16QSvgOpacityStyle4typeEv@Base 6.2.0
 _ZNK16QSvgQualityStyle4typeEv@Base 6.2.0
 _ZNK16QSvgTinyDocument10namedStyleERK7QString@Base 6.2.0
 _ZNK16QSvgTinyDocument12currentFrameEv@Base 6.2.0
 _ZNK16QSvgTinyDocument13elementExistsERK7QString@Base 6.2.0
 _ZNK16QSvgTinyDocument15boundsOnElementERK7QString@Base 6.2.0
 _ZNK16QSvgTinyDocument19transformForElementERK7QString@Base 6.2.0
 _ZNK16QSvgTinyDocument4sizeEv@Base 6.2.0
 _ZNK16QSvgTinyDocument4typeEv@Base 6.2.0
 _ZNK16QSvgTinyDocument7svgFontERK7QString@Base 6.2.0
 _ZNK16QSvgTinyDocument8animatedEv@Base 6.2.0
 _ZNK16QSvgTinyDocument9namedNodeERK7QString@Base 6.2.0
 _ZNK17QSvgGradientStyle4typeEv@Base 6.2.0
 _ZNK17QSvgStructureNode19previousSiblingNodeEP8QSvgNode@Base 6.2.0
 _ZNK17QSvgStructureNode6boundsEP8QPainterR15QSvgExtraStates@Base 6.2.0
 _ZNK17QSvgStructureNode9scopeNodeERK7QString@Base 6.2.0
 _ZNK18QSvgTransformStyle4typeEv@Base 6.2.0
 _ZNK19QSvgSolidColorStyle4typeEv@Base 6.2.0
 _ZNK20QSvgAnimateTransform4typeEv@Base 6.2.0
 _ZNK21QSvgViewportFillStyle4typeEv@Base 6.2.0
 _ZNK5QSvgG4typeEv@Base 6.2.0
 _ZNK7QSvgArc4typeEv@Base 6.2.0
 _ZNK7QSvgArc6boundsEP8QPainterR15QSvgExtraStates@Base 6.2.0
 _ZNK8QSvgDefs4typeEv@Base 6.2.0
 _ZNK8QSvgFont10familyNameEv@Base 6.2.0
 _ZNK8QSvgFont4drawEP8QPainterRK7QPointFRK7QStringd6QFlagsIN2Qt13AlignmentFlagEE@Base 6.2.0
 _ZNK8QSvgLine4typeEv@Base 6.2.0
 _ZNK8QSvgLine6boundsEP8QPainterR15QSvgExtraStates@Base 6.2.0
 _ZNK8QSvgNode10applyStyleEP8QPainterR15QSvgExtraStates@Base 6.2.0
 _ZNK8QSvgNode11displayModeEv@Base 6.2.0
 _ZNK8QSvgNode11revertStyleEP8QPainterR15QSvgExtraStates@Base 6.2.0
 _ZNK8QSvgNode13requiredFontsEv@Base 6.2.0
 _ZNK8QSvgNode13stylePropertyEN17QSvgStyleProperty4TypeE@Base 6.2.0
 _ZNK8QSvgNode13stylePropertyERK7QString@Base 6.2.0
 _ZNK8QSvgNode14isDescendantOfEPKS_@Base 6.2.0
 _ZNK8QSvgNode15requiredFormatsEv@Base 6.2.0
 _ZNK8QSvgNode16requiredFeaturesEv@Base 6.2.0
 _ZNK8QSvgNode17requiredLanguagesEv@Base 6.2.0
 _ZNK8QSvgNode17transformedBoundsEP8QPainterR15QSvgExtraStates@Base 6.2.0
 _ZNK8QSvgNode17transformedBoundsEv@Base 6.2.0
 _ZNK8QSvgNode18requiredExtensionsEv@Base 6.2.0
 _ZNK8QSvgNode6boundsEP8QPainterR15QSvgExtraStates@Base 6.2.0
 _ZNK8QSvgNode8documentEv@Base 6.2.0
 _ZNK8QSvgPath4typeEv@Base 6.2.0
 _ZNK8QSvgPath6boundsEP8QPainterR15QSvgExtraStates@Base 6.2.0
 _ZNK8QSvgRect4typeEv@Base 6.2.0
 _ZNK8QSvgRect6boundsEP8QPainterR15QSvgExtraStates@Base 6.2.0
 _ZNK8QSvgText11draw_helperEP8QPainterR15QSvgExtraStatesP6QRectF@Base 6.2.0
 _ZNK8QSvgText4typeEv@Base 6.2.0
 _ZNK8QSvgText6boundsEP8QPainterR15QSvgExtraStates@Base 6.2.0
 _ZNK9QSvgImage4typeEv@Base 6.2.0
 _ZNK9QSvgImage6boundsEP8QPainterR15QSvgExtraStates@Base 6.2.0
 _ZTI10QSvgCircle@Base 6.2.0
 _ZTI10QSvgSwitch@Base 6.2.0
 _ZTI11QSvgEllipse@Base 6.2.0
 _ZTI11QSvgPolygon@Base 6.2.0
 _ZTI12QSvgPolyline@Base 6.2.0
 _ZTI12QSvgRenderer@Base 6.2.0
 _ZTI13QSvgAnimation@Base 6.2.0
 _ZTI13QSvgFillStyle@Base 6.2.0
 _ZTI13QSvgFontStyle@Base 6.2.0
 _ZTI13QSvgGenerator@Base 6.2.0
 _ZTI14QSvgRefCounted@Base 6.2.0
 _ZTI15QSvgCompOpStyle@Base 6.2.0
 _ZTI15QSvgStrokeStyle@Base 6.2.0
 _ZTI16QSvgAnimateColor@Base 6.2.0
 _ZTI16QSvgOpacityStyle@Base 6.2.0
 _ZTI16QSvgQualityStyle@Base 6.2.0
 _ZTI16QSvgTinyDocument@Base 6.2.0
 _ZTI17QSvgGradientStyle@Base 6.2.0
 _ZTI17QSvgStructureNode@Base 6.2.0
 _ZTI17QSvgStyleProperty@Base 6.2.0
 _ZTI18QSvgTransformStyle@Base 6.2.0
 _ZTI19QSvgSolidColorStyle@Base 6.2.0
 _ZTI20QSvgAnimateTransform@Base 6.2.0
 _ZTI21QSvgFillStyleProperty@Base 6.2.0
 _ZTI21QSvgViewportFillStyle@Base 6.2.0
 _ZTI5QSvgG@Base 6.2.0
 _ZTI7QBitmap@Base 6.2.0
 _ZTI7QSvgArc@Base 6.2.0
 _ZTI8QSvgDefs@Base 6.2.0
 _ZTI8QSvgFont@Base 6.2.0
 _ZTI8QSvgLine@Base 6.2.0
 _ZTI8QSvgNode@Base 6.2.0
 _ZTI8QSvgPath@Base 6.2.0
 _ZTI8QSvgRect@Base 6.2.0
 _ZTI8QSvgText@Base 6.2.0
 _ZTI9QSvgImage@Base 6.2.0
 _ZTI9QSvgTspan@Base 6.2.0
 _ZTS10QSvgCircle@Base 6.2.0
 _ZTS10QSvgSwitch@Base 6.2.0
 _ZTS11QSvgEllipse@Base 6.2.0
 _ZTS11QSvgPolygon@Base 6.2.0
 _ZTS12QSvgPolyline@Base 6.2.0
 _ZTS12QSvgRenderer@Base 6.2.0
 _ZTS13QSvgAnimation@Base 6.2.0
 _ZTS13QSvgFillStyle@Base 6.2.0
 _ZTS13QSvgFontStyle@Base 6.2.0
 _ZTS13QSvgGenerator@Base 6.2.0
 _ZTS14QSvgRefCounted@Base 6.2.0
 _ZTS15QSvgCompOpStyle@Base 6.2.0
 _ZTS15QSvgStrokeStyle@Base 6.2.0
 _ZTS16QSvgAnimateColor@Base 6.2.0
 _ZTS16QSvgOpacityStyle@Base 6.2.0
 _ZTS16QSvgQualityStyle@Base 6.2.0
 _ZTS16QSvgTinyDocument@Base 6.2.0
 _ZTS17QSvgGradientStyle@Base 6.2.0
 _ZTS17QSvgStructureNode@Base 6.2.0
 _ZTS17QSvgStyleProperty@Base 6.2.0
 _ZTS18QSvgTransformStyle@Base 6.2.0
 _ZTS19QSvgSolidColorStyle@Base 6.2.0
 _ZTS20QSvgAnimateTransform@Base 6.2.0
 _ZTS21QSvgFillStyleProperty@Base 6.2.0
 _ZTS21QSvgViewportFillStyle@Base 6.2.0
 _ZTS5QSvgG@Base 6.2.0
 _ZTS7QBitmap@Base 6.2.0
 _ZTS7QSvgArc@Base 6.2.0
 _ZTS8QSvgDefs@Base 6.2.0
 _ZTS8QSvgFont@Base 6.2.0
 _ZTS8QSvgLine@Base 6.2.0
 _ZTS8QSvgNode@Base 6.2.0
 _ZTS8QSvgPath@Base 6.2.0
 _ZTS8QSvgRect@Base 6.2.0
 _ZTS8QSvgText@Base 6.2.0
 _ZTS9QSvgImage@Base 6.2.0
 _ZTS9QSvgTspan@Base 6.2.0
 _ZTV10QSvgCircle@Base 6.2.0
 _ZTV10QSvgSwitch@Base 6.2.0
 _ZTV11QSvgEllipse@Base 6.2.0
 _ZTV11QSvgPolygon@Base 6.2.0
 _ZTV12QSvgPolyline@Base 6.2.0
 _ZTV12QSvgRenderer@Base 6.2.0
 _ZTV13QSvgAnimation@Base 6.2.0
 _ZTV13QSvgFillStyle@Base 6.2.0
 _ZTV13QSvgFontStyle@Base 6.2.0
 _ZTV13QSvgGenerator@Base 6.2.0
 _ZTV15QSvgCompOpStyle@Base 6.2.0
 _ZTV15QSvgStrokeStyle@Base 6.2.0
 _ZTV16QSvgAnimateColor@Base 6.2.0
 _ZTV16QSvgOpacityStyle@Base 6.2.0
 _ZTV16QSvgQualityStyle@Base 6.2.0
 _ZTV16QSvgTinyDocument@Base 6.2.0
 _ZTV17QSvgGradientStyle@Base 6.2.0
 _ZTV17QSvgStructureNode@Base 6.2.0
 _ZTV17QSvgStyleProperty@Base 6.2.0
 _ZTV18QSvgTransformStyle@Base 6.2.0
 _ZTV19QSvgSolidColorStyle@Base 6.2.0
 _ZTV20QSvgAnimateTransform@Base 6.2.0
 _ZTV21QSvgFillStyleProperty@Base 6.2.0
 _ZTV21QSvgViewportFillStyle@Base 6.2.0
 _ZTV5QSvgG@Base 6.2.0
 _ZTV7QBitmap@Base 6.2.0
 _ZTV7QSvgArc@Base 6.2.0
 _ZTV8QSvgDefs@Base 6.2.0
 _ZTV8QSvgFont@Base 6.2.0
 _ZTV8QSvgLine@Base 6.2.0
 _ZTV8QSvgNode@Base 6.2.0
 _ZTV8QSvgPath@Base 6.2.0
 _ZTV8QSvgRect@Base 6.2.0
 _ZTV8QSvgText@Base 6.2.0
 _ZTV9QSvgImage@Base 6.2.0
 _ZTV9QSvgTspan@Base 6.2.0
 (optional=templinst)_ZZN9QtPrivate16QMetaTypeForTypeI10QByteArrayE10getCopyCtrEvENUlPKNS_18QMetaTypeInterfaceEPvPKvE_4_FUNES5_S6_S8_@Base 6.2.0
 (optional=templinst)_ZZN9QtPrivate16QMetaTypeForTypeI10QByteArrayE10getMoveCtrEvENUlPKNS_18QMetaTypeInterfaceEPvS6_E_4_FUNES5_S6_S6_@Base 6.2.0
 (optional=templinst)_ZZN9QtPrivate16QMetaTypeForTypeI10QByteArrayE13getDefaultCtrEvENUlPKNS_18QMetaTypeInterfaceEPvE_4_FUNES5_S6_@Base 6.2.0
 (optional=templinst)_ZZN9QtPrivate16QMetaTypeForTypeI10QByteArrayE7getDtorEvENUlPKNS_18QMetaTypeInterfaceEPvE_4_FUNES5_S6_@Base 6.2.0
 (optional=templinst)_ZZN9QtPrivate16QMetaTypeForTypeI6QRectFE10getCopyCtrEvENUlPKNS_18QMetaTypeInterfaceEPvPKvE_4_FUNES5_S6_S8_@Base 6.2.0
 (optional=templinst)_ZZN9QtPrivate16QMetaTypeForTypeI6QRectFE10getMoveCtrEvENUlPKNS_18QMetaTypeInterfaceEPvS6_E_4_FUNES5_S6_S6_@Base 6.2.0
 (optional=templinst)_ZZN9QtPrivate16QMetaTypeForTypeI6QRectFE13getDefaultCtrEvENUlPKNS_18QMetaTypeInterfaceEPvE_4_FUNES5_S6_@Base 6.2.0
 (optional=templinst)_ZZN9QtPrivate16QMetaTypeForTypeI7QStringE10getCopyCtrEvENUlPKNS_18QMetaTypeInterfaceEPvPKvE_4_FUNES5_S6_S8_@Base 6.2.0
 (optional=templinst)_ZZN9QtPrivate16QMetaTypeForTypeI7QStringE10getMoveCtrEvENUlPKNS_18QMetaTypeInterfaceEPvS6_E_4_FUNES5_S6_S6_@Base 6.2.0
 (optional=templinst)_ZZN9QtPrivate16QMetaTypeForTypeI7QStringE13getDefaultCtrEvENUlPKNS_18QMetaTypeInterfaceEPvE_4_FUNES5_S6_@Base 6.2.0
 (optional=templinst)_ZZN9QtPrivate16QMetaTypeForTypeI7QStringE7getDtorEvENUlPKNS_18QMetaTypeInterfaceEPvE_4_FUNES5_S6_@Base 6.2.0
 (optional=templinst)_ZZN9QtPrivate16QMetaTypeForTypeIbE10getCopyCtrEvENUlPKNS_18QMetaTypeInterfaceEPvPKvE_4_FUNES4_S5_S7_@Base 6.2.0
 (optional=templinst)_ZZN9QtPrivate16QMetaTypeForTypeIbE10getMoveCtrEvENUlPKNS_18QMetaTypeInterfaceEPvS5_E_4_FUNES4_S5_S5_@Base 6.2.0
 (optional=templinst)_ZZN9QtPrivate16QMetaTypeForTypeIbE13getDefaultCtrEvENUlPKNS_18QMetaTypeInterfaceEPvE_4_FUNES4_S5_@Base 6.2.0
 (optional=templinst)_ZZN9QtPrivate16QMetaTypeForTypeIiE10getCopyCtrEvENUlPKNS_18QMetaTypeInterfaceEPvPKvE_4_FUNES4_S5_S7_@Base 6.2.0
 (optional=templinst)_ZZN9QtPrivate16QMetaTypeForTypeIiE10getMoveCtrEvENUlPKNS_18QMetaTypeInterfaceEPvS5_E_4_FUNES4_S5_S5_@Base 6.2.0
 (optional=templinst)_ZZN9QtPrivate16QMetaTypeForTypeIiE13getDefaultCtrEvENUlPKNS_18QMetaTypeInterfaceEPvE_4_FUNES4_S5_@Base 6.2.0
