# SymbolsHelper-Confirmed: 6.2.1 amd64 armel armhf i386
libQt6ChartsQml.so.6 libqt6chartsqml6 #MINVER#
* Build-Depends-Package: libqt6charts6-dev
 _Z27qml_register_types_QtChartsv@Base 6.2.1
 _ZGVZN9QMetaType21registerConverterImplI5QListI6QRectFE9QIterableI13QMetaSequenceEEEbSt8functionIFbPKvPvEES_S_E10unregister@Base 6.2.1
 _ZGVZN9QMetaType21registerConverterImplI5QListIP9QPieSliceE9QIterableI13QMetaSequenceEEEbSt8functionIFbPKvPvEES_S_E10unregister@Base 6.2.1
 _ZGVZN9QMetaType23registerMutableViewImplI5QListI6QRectFE9QIterableI13QMetaSequenceEEEbSt8functionIFbPvS8_EES_S_E10unregister@Base 6.2.1
 _ZGVZN9QMetaType23registerMutableViewImplI5QListIP9QPieSliceE9QIterableI13QMetaSequenceEEEbSt8functionIFbPvS9_EES_S_E10unregister@Base 6.2.1
 _ZN13QMetaSequence12MetaSequenceI5QListI6QRectFEE5valueE@Base 6.2.1
 _ZN13QMetaSequence12MetaSequenceI5QListIP9QPieSliceEE5valueE@Base 6.2.1
 _ZN15DeclarativeAxes11qt_metacallEN11QMetaObject4CallEiPPv@Base 6.2.1
 _ZN15DeclarativeAxes11qt_metacastEPKc@Base 6.2.1
 _ZN15DeclarativeAxes11setAxisXTopEP13QAbstractAxis@Base 6.2.1
 _ZN15DeclarativeAxes12axisXChangedEP13QAbstractAxis@Base 6.2.1
 _ZN15DeclarativeAxes12axisYChangedEP13QAbstractAxis@Base 6.2.1
 _ZN15DeclarativeAxes13setAxisYRightEP13QAbstractAxis@Base 6.2.1
 _ZN15DeclarativeAxes15axisXTopChangedEP13QAbstractAxis@Base 6.2.1
 _ZN15DeclarativeAxes16staticMetaObjectE@Base 6.2.1
 _ZN15DeclarativeAxes17axisYRightChangedEP13QAbstractAxis@Base 6.2.1
 _ZN15DeclarativeAxes8setAxisXEP13QAbstractAxis@Base 6.2.1
 _ZN15DeclarativeAxes8setAxisYEP13QAbstractAxis@Base 6.2.1
 _ZN15DeclarativeAxesC1EP7QObject@Base 6.2.1
 _ZN15DeclarativeAxesC2EP7QObject@Base 6.2.1
 (subst)_ZN16DeclarativeChart10axesAtFuncEP16QQmlListPropertyI13QAbstractAxisE{qptrdiff}@Base 6.2.1
 _ZN16DeclarativeChart10childEventEP11QChildEvent@Base 6.2.1
 _ZN16DeclarativeChart10mapToValueERK7QPointFP15QAbstractSeries@Base 6.2.1
 _ZN16DeclarativeChart10needRenderEv@Base 6.2.1
 _ZN16DeclarativeChart10scrollDownEd@Base 6.2.1
 _ZN16DeclarativeChart10scrollLeftEd@Base 6.2.1
 _ZN16DeclarativeChart10titleColorEv@Base 6.2.1
 _ZN16DeclarativeChart11defaultAxisEN2Qt11OrientationEP15QAbstractSeries@Base 6.2.1
 _ZN16DeclarativeChart11qt_metacallEN11QMetaObject4CallEiPPv@Base 6.2.1
 _ZN16DeclarativeChart11qt_metacastEPKc@Base 6.2.1
 _ZN16DeclarativeChart11renderSceneEv@Base 6.2.1
 _ZN16DeclarativeChart11scrollRightEd@Base 6.2.1
 _ZN16DeclarativeChart11seriesAddedEP15QAbstractSeries@Base 6.2.1
 _ZN16DeclarativeChart11setPlotAreaERK6QRectF@Base 6.2.1
 _ZN16DeclarativeChart12createSeriesEi7QStringP13QAbstractAxisS2_@Base 6.2.1
 _ZN16DeclarativeChart12removeSeriesEP15QAbstractSeries@Base 6.2.1
 _ZN16DeclarativeChart12sceneChangedERK5QListI6QRectFE@Base 6.2.1
 _ZN16DeclarativeChart12setTitleFontERK5QFont@Base 6.2.1
 _ZN16DeclarativeChart13axesClearFuncEP16QQmlListPropertyI13QAbstractAxisE@Base 6.2.1
 _ZN16DeclarativeChart13axesCountFuncEP16QQmlListPropertyI13QAbstractAxisE@Base 6.2.1
 _ZN16DeclarativeChart13changeMarginsEiiii@Base 6.2.1
 _ZN16DeclarativeChart13localeChangedEv@Base 6.2.1
 _ZN16DeclarativeChart13mapToPositionERK7QPointFP15QAbstractSeries@Base 6.2.1
 _ZN16DeclarativeChart13plotAreaColorEv@Base 6.2.1
 _ZN16DeclarativeChart13seriesRemovedEP15QAbstractSeries@Base 6.2.1
 _ZN16DeclarativeChart13setTitleColorE6QColor@Base 6.2.1
 _ZN16DeclarativeChart14axesAppendFuncEP16QQmlListPropertyI13QAbstractAxisEPS1_@Base 6.2.1
 _ZN16DeclarativeChart14geometryChangeERK6QRectFS2_@Base 6.2.1
 _ZN16DeclarativeChart14handleAxisXSetEP13QAbstractAxis@Base 6.2.1
 _ZN16DeclarativeChart14handleAxisYSetEP13QAbstractAxis@Base 6.2.1
 _ZN16DeclarativeChart14hoverMoveEventEP11QHoverEvent@Base 6.2.1
 _ZN16DeclarativeChart14initializeAxesEP15QAbstractSeries@Base 6.2.1
 _ZN16DeclarativeChart14marginsChangedEv@Base 6.2.1
 _ZN16DeclarativeChart15backgroundColorEv@Base 6.2.1
 _ZN16DeclarativeChart15mousePressEventEP11QMouseEvent@Base 6.2.1
 _ZN16DeclarativeChart15plotAreaChangedE6QRectF@Base 6.2.1
 _ZN16DeclarativeChart15updatePaintNodeEP7QSGNodePN10QQuickItem19UpdatePaintNodeDataE@Base 6.2.1
 _ZN16DeclarativeChart16animationOptionsEv@Base 6.2.1
 _ZN16DeclarativeChart16doInitializeAxesEP15QAbstractSeriesP15DeclarativeAxes@Base 6.2.1
 _ZN16DeclarativeChart16setPlotAreaColorE6QColor@Base 6.2.1
 _ZN16DeclarativeChart16staticMetaObjectE@Base 6.2.1
 _ZN16DeclarativeChart17axisLabelsChangedEv@Base 6.2.1
 _ZN16DeclarativeChart17componentCompleteEv@Base 6.2.1
 _ZN16DeclarativeChart17dropShadowEnabledEv@Base 6.2.1
 _ZN16DeclarativeChart17handleAxisXTopSetEP13QAbstractAxis@Base 6.2.1
 _ZN16DeclarativeChart17handleSeriesAddedEP15QAbstractSeries@Base 6.2.1
 _ZN16DeclarativeChart17mouseReleaseEventEP11QMouseEvent@Base 6.2.1
 _ZN16DeclarativeChart17titleColorChangedE6QColor@Base 6.2.1
 _ZN16DeclarativeChart18setBackgroundColorE6QColor@Base 6.2.1
 _ZN16DeclarativeChart18setLocalizeNumbersEb@Base 6.2.1
 _ZN16DeclarativeChart19findMinMaxForSeriesEP15QAbstractSeries6QFlagsIN2Qt11OrientationEERdS6_@Base 6.2.1
 _ZN16DeclarativeChart19handleAxisYRightSetEP13QAbstractAxis@Base 6.2.1
 _ZN16DeclarativeChart19setAnimationOptionsENS_9AnimationE@Base 6.2.1
 _ZN16DeclarativeChart20plotAreaColorChangedEv@Base 6.2.1
 _ZN16DeclarativeChart20setAnimationDurationEi@Base 6.2.1
 _ZN16DeclarativeChart20setDropShadowEnabledEb@Base 6.2.1
 _ZN16DeclarativeChart21mouseDoubleClickEventEP11QMouseEvent@Base 6.2.1
 _ZN16DeclarativeChart22backgroundColorChangedEv@Base 6.2.1
 _ZN16DeclarativeChart22localizeNumbersChangedEv@Base 6.2.1
 _ZN16DeclarativeChart22seriesAxisAttachHelperEP15QAbstractSeriesP13QAbstractAxis6QFlagsIN2Qt11OrientationEES4_INS5_13AlignmentFlagEE@Base 6.2.1
 _ZN16DeclarativeChart22setBackgroundRoundnessEd@Base 6.2.1
 _ZN16DeclarativeChart23queueRendererMouseEventEP11QMouseEvent@Base 6.2.1
 _ZN16DeclarativeChart23setAnimationEasingCurveERK12QEasingCurve@Base 6.2.1
 _ZN16DeclarativeChart24animationDurationChangedEi@Base 6.2.1
 _ZN16DeclarativeChart24dropShadowEnabledChangedEb@Base 6.2.1
 _ZN16DeclarativeChart25handleAntialiasingChangedEb@Base 6.2.1
 _ZN16DeclarativeChart26backgroundRoundnessChangedEd@Base 6.2.1
 _ZN16DeclarativeChart27animationEasingCurveChangedE12QEasingCurve@Base 6.2.1
 _ZN16DeclarativeChart36pendingRenderNodeMouseEventResponsesEv@Base 6.2.1
 _ZN16DeclarativeChart42handlePendingRenderNodeMouseEventResponsesEv@Base 6.2.1
 _ZN16DeclarativeChart4axesEv@Base 6.2.1
 _ZN16DeclarativeChart4zoomEd@Base 6.2.1
 _ZN16DeclarativeChart5axisXEP15QAbstractSeries@Base 6.2.1
 _ZN16DeclarativeChart5axisYEP15QAbstractSeries@Base 6.2.1
 _ZN16DeclarativeChart5countEv@Base 6.2.1
 _ZN16DeclarativeChart5themeEv@Base 6.2.1
 _ZN16DeclarativeChart5titleEv@Base 6.2.1
 _ZN16DeclarativeChart6legendEv@Base 6.2.1
 _ZN16DeclarativeChart6seriesE7QString@Base 6.2.1
 _ZN16DeclarativeChart6seriesEi@Base 6.2.1
 _ZN16DeclarativeChart6zoomInERK6QRectF@Base 6.2.1
 _ZN16DeclarativeChart6zoomInEv@Base 6.2.1
 _ZN16DeclarativeChart7zoomOutEv@Base 6.2.1
 _ZN16DeclarativeChart8isZoomedEv@Base 6.2.1
 _ZN16DeclarativeChart8scrollUpEd@Base 6.2.1
 _ZN16DeclarativeChart8setAxisXEP13QAbstractAxisP15QAbstractSeries@Base 6.2.1
 _ZN16DeclarativeChart8setAxisYEP13QAbstractAxisP15QAbstractSeries@Base 6.2.1
 _ZN16DeclarativeChart8setThemeENS_5ThemeE@Base 6.2.1
 _ZN16DeclarativeChart8setTitleE7QString@Base 6.2.1
 _ZN16DeclarativeChart9initChartEN6QChart9ChartTypeE@Base 6.2.1
 _ZN16DeclarativeChart9setLocaleERK7QLocale@Base 6.2.1
 _ZN16DeclarativeChart9zoomResetEv@Base 6.2.1
 _ZN16DeclarativeChartC1EN6QChart9ChartTypeEP10QQuickItem@Base 6.2.1
 _ZN16DeclarativeChartC1EP10QQuickItem@Base 6.2.1
 _ZN16DeclarativeChartC2EN6QChart9ChartTypeEP10QQuickItem@Base 6.2.1
 _ZN16DeclarativeChartC2EP10QQuickItem@Base 6.2.1
 _ZN16DeclarativeChartD0Ev@Base 6.2.1
 _ZN16DeclarativeChartD1Ev@Base 6.2.1
 _ZN16DeclarativeChartD2Ev@Base 6.2.1
 _ZN17DeclarativeBarSet11qt_metacallEN11QMetaObject4CallEiPPv@Base 6.2.1
 _ZN17DeclarativeBarSet11qt_metacastEPKc@Base 6.2.1
 _ZN17DeclarativeBarSet12countChangedEi@Base 6.2.1
 _ZN17DeclarativeBarSet14setBorderWidthEd@Base 6.2.1
 _ZN17DeclarativeBarSet16setBrushFilenameERK7QString@Base 6.2.1
 _ZN17DeclarativeBarSet16staticMetaObjectE@Base 6.2.1
 _ZN17DeclarativeBarSet18borderWidthChangedEd@Base 6.2.1
 _ZN17DeclarativeBarSet18handleBrushChangedEv@Base 6.2.1
 _ZN17DeclarativeBarSet18handleCountChangedEii@Base 6.2.1
 _ZN17DeclarativeBarSet20brushFilenameChangedERK7QString@Base 6.2.1
 _ZN17DeclarativeBarSet6valuesEv@Base 6.2.1
 _ZN17DeclarativeBarSet9setValuesE5QListI8QVariantE@Base 6.2.1
 _ZN17DeclarativeBarSetC1EP7QObject@Base 6.2.1
 _ZN17DeclarativeBarSetC2EP7QObject@Base 6.2.1
 _ZN17DeclarativeBoxSet11qt_metacallEN11QMetaObject4CallEiPPv@Base 6.2.1
 _ZN17DeclarativeBoxSet11qt_metacastEPKc@Base 6.2.1
 _ZN17DeclarativeBoxSet12changedValueEi@Base 6.2.1
 _ZN17DeclarativeBoxSet13changedValuesEv@Base 6.2.1
 _ZN17DeclarativeBoxSet16setBrushFilenameERK7QString@Base 6.2.1
 _ZN17DeclarativeBoxSet16staticMetaObjectE@Base 6.2.1
 _ZN17DeclarativeBoxSet18handleBrushChangedEv@Base 6.2.1
 _ZN17DeclarativeBoxSet20brushFilenameChangedERK7QString@Base 6.2.1
 _ZN17DeclarativeBoxSet6valuesEv@Base 6.2.1
 _ZN17DeclarativeBoxSet9setValuesE5QListI8QVariantE@Base 6.2.1
 _ZN17DeclarativeBoxSetC1E7QStringP7QObject@Base 6.2.1
 _ZN17DeclarativeBoxSetC2E7QStringP7QObject@Base 6.2.1
 _ZN18DeclarativeMargins10topChangedEiiii@Base 6.2.1
 _ZN18DeclarativeMargins11leftChangedEiiii@Base 6.2.1
 _ZN18DeclarativeMargins11qt_metacallEN11QMetaObject4CallEiPPv@Base 6.2.1
 _ZN18DeclarativeMargins11qt_metacastEPKc@Base 6.2.1
 _ZN18DeclarativeMargins12rightChangedEiiii@Base 6.2.1
 _ZN18DeclarativeMargins13bottomChangedEiiii@Base 6.2.1
 _ZN18DeclarativeMargins16staticMetaObjectE@Base 6.2.1
 _ZN18DeclarativeMargins6setTopEi@Base 6.2.1
 _ZN18DeclarativeMargins7setLeftEi@Base 6.2.1
 _ZN18DeclarativeMargins8setRightEi@Base 6.2.1
 _ZN18DeclarativeMargins9setBottomEi@Base 6.2.1
 _ZN18DeclarativeMarginsC1EP7QObject@Base 6.2.1
 _ZN18DeclarativeMarginsC2EP7QObject@Base 6.2.1
 _ZN18DeclarativeXYPoint11qt_metacallEN11QMetaObject4CallEiPPv@Base 6.2.1
 _ZN18DeclarativeXYPoint11qt_metacastEPKc@Base 6.2.1
 _ZN18DeclarativeXYPoint16staticMetaObjectE@Base 6.2.1
 _ZN18DeclarativeXYPointC1EP7QObject@Base 6.2.1
 _ZN18DeclarativeXYPointC2EP7QObject@Base 6.2.1
 _ZN19DeclarativePieSlice11qt_metacallEN11QMetaObject4CallEiPPv@Base 6.2.1
 _ZN19DeclarativePieSlice11qt_metacastEPKc@Base 6.2.1
 _ZN19DeclarativePieSlice16setBrushFilenameERK7QString@Base 6.2.1
 _ZN19DeclarativePieSlice16staticMetaObjectE@Base 6.2.1
 _ZN19DeclarativePieSlice18handleBrushChangedEv@Base 6.2.1
 _ZN19DeclarativePieSlice20brushFilenameChangedERK7QString@Base 6.2.1
 _ZN19DeclarativePieSliceC1EP7QObject@Base 6.2.1
 _ZN19DeclarativePieSliceC2EP7QObject@Base 6.2.1
 _ZN19DeclarativeXySeries10classBeginEv@Base 6.2.1
 _ZN19DeclarativeXySeries12removePointsEii@Base 6.2.1
 _ZN19DeclarativeXySeries17componentCompleteEv@Base 6.2.1
 _ZN19DeclarativeXySeries2atEi@Base 6.2.1
 _ZN19DeclarativeXySeries5clearEv@Base 6.2.1
 _ZN19DeclarativeXySeries6appendEdd@Base 6.2.1
 _ZN19DeclarativeXySeries6insertEidd@Base 6.2.1
 _ZN19DeclarativeXySeries6removeEdd@Base 6.2.1
 _ZN19DeclarativeXySeries6removeEi@Base 6.2.1
 _ZN19DeclarativeXySeries7replaceEdddd@Base 6.2.1
 _ZN19DeclarativeXySeries7replaceEidd@Base 6.2.1
 _ZN19DeclarativeXySeriesC1Ev@Base 6.2.1
 _ZN19DeclarativeXySeriesC2Ev@Base 6.2.1
 _ZN19DeclarativeXySeriesD1Ev@Base 6.2.1
 _ZN19DeclarativeXySeriesD2Ev@Base 6.2.1
 _ZN20DeclarativeBarSeries10classBeginEv@Base 6.2.1
 _ZN20DeclarativeBarSeries11qt_metacallEN11QMetaObject4CallEiPPv@Base 6.2.1
 _ZN20DeclarativeBarSeries11qt_metacastEPKc@Base 6.2.1
 _ZN20DeclarativeBarSeries12axisXChangedEP13QAbstractAxis@Base 6.2.1
 _ZN20DeclarativeBarSeries12axisYChangedEP13QAbstractAxis@Base 6.2.1
 _ZN20DeclarativeBarSeries14seriesChildrenEv@Base 6.2.1
 _ZN20DeclarativeBarSeries15axisXTopChangedEP13QAbstractAxis@Base 6.2.1
 _ZN20DeclarativeBarSeries16staticMetaObjectE@Base 6.2.1
 _ZN20DeclarativeBarSeries17axisYRightChangedEP13QAbstractAxis@Base 6.2.1
 _ZN20DeclarativeBarSeries17componentCompleteEv@Base 6.2.1
 _ZN20DeclarativeBarSeries20appendSeriesChildrenEP16QQmlListPropertyI7QObjectEPS1_@Base 6.2.1
 _ZN20DeclarativeBarSeries2atEi@Base 6.2.1
 _ZN20DeclarativeBarSeries6insertEi7QString5QListI8QVariantE@Base 6.2.1
 _ZN20DeclarativeBarSeriesC1EP10QQuickItem@Base 6.2.1
 _ZN20DeclarativeBarSeriesC2EP10QQuickItem@Base 6.2.1
 _ZN21DeclarativeAreaSeries11qt_metacallEN11QMetaObject4CallEiPPv@Base 6.2.1
 _ZN21DeclarativeAreaSeries11qt_metacastEPKc@Base 6.2.1
 _ZN21DeclarativeAreaSeries12axisXChangedEP13QAbstractAxis@Base 6.2.1
 _ZN21DeclarativeAreaSeries12axisYChangedEP13QAbstractAxis@Base 6.2.1
 _ZN21DeclarativeAreaSeries12brushChangedEv@Base 6.2.1
 _ZN21DeclarativeAreaSeries14setBorderWidthEd@Base 6.2.1
 _ZN21DeclarativeAreaSeries14setLowerSeriesEP21DeclarativeLineSeries@Base 6.2.1
 _ZN21DeclarativeAreaSeries14setUpperSeriesEP21DeclarativeLineSeries@Base 6.2.1
 _ZN21DeclarativeAreaSeries15axisXTopChangedEP13QAbstractAxis@Base 6.2.1
 _ZN21DeclarativeAreaSeries16setBrushFilenameERK7QString@Base 6.2.1
 _ZN21DeclarativeAreaSeries16staticMetaObjectE@Base 6.2.1
 _ZN21DeclarativeAreaSeries17axisRadialChangedEP13QAbstractAxis@Base 6.2.1
 _ZN21DeclarativeAreaSeries17axisYRightChangedEP13QAbstractAxis@Base 6.2.1
 _ZN21DeclarativeAreaSeries18axisAngularChangedEP13QAbstractAxis@Base 6.2.1
 _ZN21DeclarativeAreaSeries18borderWidthChangedEd@Base 6.2.1
 _ZN21DeclarativeAreaSeries18handleBrushChangedEv@Base 6.2.1
 _ZN21DeclarativeAreaSeries20brushFilenameChangedERK7QString@Base 6.2.1
 _ZN21DeclarativeAreaSeries8setBrushERK6QBrush@Base 6.2.1
 _ZN21DeclarativeAreaSeriesC1EP7QObject@Base 6.2.1
 _ZN21DeclarativeAreaSeriesC2EP7QObject@Base 6.2.1
 _ZN21DeclarativeLineSeries11qt_metacallEN11QMetaObject4CallEiPPv@Base 6.2.1
 _ZN21DeclarativeLineSeries11qt_metacastEPKc@Base 6.2.1
 _ZN21DeclarativeLineSeries11setCapStyleEN2Qt11PenCapStyleE@Base 6.2.1
 _ZN21DeclarativeLineSeries12axisXChangedEP13QAbstractAxis@Base 6.2.1
 _ZN21DeclarativeLineSeries12axisYChangedEP13QAbstractAxis@Base 6.2.1
 _ZN21DeclarativeLineSeries12countChangedEi@Base 6.2.1
 _ZN21DeclarativeLineSeries12styleChangedEN2Qt8PenStyleE@Base 6.2.1
 _ZN21DeclarativeLineSeries12widthChangedEd@Base 6.2.1
 _ZN21DeclarativeLineSeries15axisXTopChangedEP13QAbstractAxis@Base 6.2.1
 _ZN21DeclarativeLineSeries15capStyleChangedEN2Qt11PenCapStyleE@Base 6.2.1
 _ZN21DeclarativeLineSeries16staticMetaObjectE@Base 6.2.1
 _ZN21DeclarativeLineSeries17axisRadialChangedEP13QAbstractAxis@Base 6.2.1
 _ZN21DeclarativeLineSeries17axisYRightChangedEP13QAbstractAxis@Base 6.2.1
 _ZN21DeclarativeLineSeries18axisAngularChangedEP13QAbstractAxis@Base 6.2.1
 _ZN21DeclarativeLineSeries18handleCountChangedEi@Base 6.2.1
 _ZN21DeclarativeLineSeries19declarativeChildrenEv@Base 6.2.1
 _ZN21DeclarativeLineSeries25appendDeclarativeChildrenEP16QQmlListPropertyI7QObjectEPS1_@Base 6.2.1
 _ZN21DeclarativeLineSeries8setStyleEN2Qt8PenStyleE@Base 6.2.1
 _ZN21DeclarativeLineSeries8setWidthEd@Base 6.2.1
 _ZN21DeclarativeLineSeriesC1EP7QObject@Base 6.2.1
 _ZN21DeclarativeLineSeriesC2EP7QObject@Base 6.2.1
 _ZN21DeclarativePolarChart11qt_metacallEN11QMetaObject4CallEiPPv@Base 6.2.1
 _ZN21DeclarativePolarChart11qt_metacastEPKc@Base 6.2.1
 _ZN21DeclarativePolarChart16staticMetaObjectE@Base 6.2.1
 _ZN21DeclarativePolarChartC1EP10QQuickItem@Base 6.2.1
 _ZN21DeclarativePolarChartC2EP10QQuickItem@Base 6.2.1
 _ZN21DeclarativePolarChartD0Ev@Base 6.2.1
 _ZN21DeclarativePolarChartD1Ev@Base 6.2.1
 _ZN21DeclarativePolarChartD2Ev@Base 6.2.1
 _ZN23DeclarativeSplineSeries11qt_metacallEN11QMetaObject4CallEiPPv@Base 6.2.1
 _ZN23DeclarativeSplineSeries11qt_metacastEPKc@Base 6.2.1
 _ZN23DeclarativeSplineSeries11setCapStyleEN2Qt11PenCapStyleE@Base 6.2.1
 _ZN23DeclarativeSplineSeries12axisXChangedEP13QAbstractAxis@Base 6.2.1
 _ZN23DeclarativeSplineSeries12axisYChangedEP13QAbstractAxis@Base 6.2.1
 _ZN23DeclarativeSplineSeries12countChangedEi@Base 6.2.1
 _ZN23DeclarativeSplineSeries12styleChangedEN2Qt8PenStyleE@Base 6.2.1
 _ZN23DeclarativeSplineSeries12widthChangedEd@Base 6.2.1
 _ZN23DeclarativeSplineSeries15axisXTopChangedEP13QAbstractAxis@Base 6.2.1
 _ZN23DeclarativeSplineSeries15capStyleChangedEN2Qt11PenCapStyleE@Base 6.2.1
 _ZN23DeclarativeSplineSeries16staticMetaObjectE@Base 6.2.1
 _ZN23DeclarativeSplineSeries17axisRadialChangedEP13QAbstractAxis@Base 6.2.1
 _ZN23DeclarativeSplineSeries17axisYRightChangedEP13QAbstractAxis@Base 6.2.1
 _ZN23DeclarativeSplineSeries18axisAngularChangedEP13QAbstractAxis@Base 6.2.1
 _ZN23DeclarativeSplineSeries18handleCountChangedEi@Base 6.2.1
 _ZN23DeclarativeSplineSeries19declarativeChildrenEv@Base 6.2.1
 _ZN23DeclarativeSplineSeries25appendDeclarativeChildrenEP16QQmlListPropertyI7QObjectEPS1_@Base 6.2.1
 _ZN23DeclarativeSplineSeries8setStyleEN2Qt8PenStyleE@Base 6.2.1
 _ZN23DeclarativeSplineSeries8setWidthEd@Base 6.2.1
 _ZN23DeclarativeSplineSeriesC1EP7QObject@Base 6.2.1
 _ZN23DeclarativeSplineSeriesC2EP7QObject@Base 6.2.1
 _ZN24DeclarativeBoxPlotSeries10classBeginEv@Base 6.2.1
 _ZN24DeclarativeBoxPlotSeries10onReleasedEP7QBoxSet@Base 6.2.1
 _ZN24DeclarativeBoxPlotSeries11qt_metacallEN11QMetaObject4CallEiPPv@Base 6.2.1
 _ZN24DeclarativeBoxPlotSeries11qt_metacastEPKc@Base 6.2.1
 _ZN24DeclarativeBoxPlotSeries12axisXChangedEP13QAbstractAxis@Base 6.2.1
 _ZN24DeclarativeBoxPlotSeries12axisYChangedEP13QAbstractAxis@Base 6.2.1
 _ZN24DeclarativeBoxPlotSeries13doubleClickedEP17DeclarativeBoxSet@Base 6.2.1
 _ZN24DeclarativeBoxPlotSeries14seriesChildrenEv@Base 6.2.1
 _ZN24DeclarativeBoxPlotSeries15axisXTopChangedEP13QAbstractAxis@Base 6.2.1
 _ZN24DeclarativeBoxPlotSeries15onDoubleClickedEP7QBoxSet@Base 6.2.1
 _ZN24DeclarativeBoxPlotSeries16setBrushFilenameERK7QString@Base 6.2.1
 _ZN24DeclarativeBoxPlotSeries16staticMetaObjectE@Base 6.2.1
 _ZN24DeclarativeBoxPlotSeries17axisYRightChangedEP13QAbstractAxis@Base 6.2.1
 _ZN24DeclarativeBoxPlotSeries17componentCompleteEv@Base 6.2.1
 _ZN24DeclarativeBoxPlotSeries18handleBrushChangedEv@Base 6.2.1
 _ZN24DeclarativeBoxPlotSeries20appendSeriesChildrenEP16QQmlListPropertyI7QObjectEPS1_@Base 6.2.1
 _ZN24DeclarativeBoxPlotSeries20brushFilenameChangedERK7QString@Base 6.2.1
 _ZN24DeclarativeBoxPlotSeries2atEi@Base 6.2.1
 _ZN24DeclarativeBoxPlotSeries6insertEi7QString5QListI8QVariantE@Base 6.2.1
 _ZN24DeclarativeBoxPlotSeries7clickedEP17DeclarativeBoxSet@Base 6.2.1
 _ZN24DeclarativeBoxPlotSeries7hoveredEbP17DeclarativeBoxSet@Base 6.2.1
 _ZN24DeclarativeBoxPlotSeries7pressedEP17DeclarativeBoxSet@Base 6.2.1
 _ZN24DeclarativeBoxPlotSeries8releasedEP17DeclarativeBoxSet@Base 6.2.1
 _ZN24DeclarativeBoxPlotSeries9onClickedEP7QBoxSet@Base 6.2.1
 _ZN24DeclarativeBoxPlotSeries9onHoveredEbP7QBoxSet@Base 6.2.1
 _ZN24DeclarativeBoxPlotSeries9onPressedEP7QBoxSet@Base 6.2.1
 _ZN24DeclarativeBoxPlotSeriesC1EP10QQuickItem@Base 6.2.1
 _ZN24DeclarativeBoxPlotSeriesC2EP10QQuickItem@Base 6.2.1
 _ZN24DeclarativeCategoryRange11qt_metacallEN11QMetaObject4CallEiPPv@Base 6.2.1
 _ZN24DeclarativeCategoryRange11qt_metacastEPKc@Base 6.2.1
 _ZN24DeclarativeCategoryRange16staticMetaObjectE@Base 6.2.1
 _ZN24DeclarativeCategoryRange8setLabelERK7QString@Base 6.2.1
 _ZN24DeclarativeCategoryRangeC1EP7QObject@Base 6.2.1
 _ZN24DeclarativeCategoryRangeC2EP7QObject@Base 6.2.1
 _ZN24DeclarativeScatterSeries11qt_metacallEN11QMetaObject4CallEiPPv@Base 6.2.1
 _ZN24DeclarativeScatterSeries11qt_metacastEPKc@Base 6.2.1
 _ZN24DeclarativeScatterSeries12axisXChangedEP13QAbstractAxis@Base 6.2.1
 _ZN24DeclarativeScatterSeries12axisYChangedEP13QAbstractAxis@Base 6.2.1
 _ZN24DeclarativeScatterSeries12brushChangedEv@Base 6.2.1
 _ZN24DeclarativeScatterSeries12countChangedEi@Base 6.2.1
 _ZN24DeclarativeScatterSeries14setBorderWidthEd@Base 6.2.1
 _ZN24DeclarativeScatterSeries15axisXTopChangedEP13QAbstractAxis@Base 6.2.1
 _ZN24DeclarativeScatterSeries16setBrushFilenameERK7QString@Base 6.2.1
 _ZN24DeclarativeScatterSeries16staticMetaObjectE@Base 6.2.1
 _ZN24DeclarativeScatterSeries17axisRadialChangedEP13QAbstractAxis@Base 6.2.1
 _ZN24DeclarativeScatterSeries17axisYRightChangedEP13QAbstractAxis@Base 6.2.1
 _ZN24DeclarativeScatterSeries18axisAngularChangedEP13QAbstractAxis@Base 6.2.1
 _ZN24DeclarativeScatterSeries18borderWidthChangedEd@Base 6.2.1
 _ZN24DeclarativeScatterSeries18handleBrushChangedEv@Base 6.2.1
 _ZN24DeclarativeScatterSeries18handleCountChangedEi@Base 6.2.1
 _ZN24DeclarativeScatterSeries19declarativeChildrenEv@Base 6.2.1
 _ZN24DeclarativeScatterSeries20brushFilenameChangedERK7QString@Base 6.2.1
 _ZN24DeclarativeScatterSeries25appendDeclarativeChildrenEP16QQmlListPropertyI7QObjectEPS1_@Base 6.2.1
 _ZN24DeclarativeScatterSeries8setBrushERK6QBrush@Base 6.2.1
 _ZN24DeclarativeScatterSeriesC1EP7QObject@Base 6.2.1
 _ZN24DeclarativeScatterSeriesC2EP7QObject@Base 6.2.1
 _ZN25DeclarativeCandlestickSet11qt_metacallEN11QMetaObject4CallEiPPv@Base 6.2.1
 _ZN25DeclarativeCandlestickSet11qt_metacastEPKc@Base 6.2.1
 _ZN25DeclarativeCandlestickSet16setBrushFilenameERK7QString@Base 6.2.1
 _ZN25DeclarativeCandlestickSet16staticMetaObjectE@Base 6.2.1
 _ZN25DeclarativeCandlestickSet18handleBrushChangedEv@Base 6.2.1
 _ZN25DeclarativeCandlestickSet20brushFilenameChangedERK7QString@Base 6.2.1
 _ZN25DeclarativeCandlestickSetC1EdP7QObject@Base 6.2.1
 _ZN25DeclarativeCandlestickSetC2EdP7QObject@Base 6.2.1
 _ZN27DeclarativePercentBarSeries10classBeginEv@Base 6.2.1
 _ZN27DeclarativePercentBarSeries11qt_metacallEN11QMetaObject4CallEiPPv@Base 6.2.1
 _ZN27DeclarativePercentBarSeries11qt_metacastEPKc@Base 6.2.1
 _ZN27DeclarativePercentBarSeries12axisXChangedEP13QAbstractAxis@Base 6.2.1
 _ZN27DeclarativePercentBarSeries12axisYChangedEP13QAbstractAxis@Base 6.2.1
 _ZN27DeclarativePercentBarSeries14seriesChildrenEv@Base 6.2.1
 _ZN27DeclarativePercentBarSeries15axisXTopChangedEP13QAbstractAxis@Base 6.2.1
 _ZN27DeclarativePercentBarSeries16staticMetaObjectE@Base 6.2.1
 _ZN27DeclarativePercentBarSeries17axisYRightChangedEP13QAbstractAxis@Base 6.2.1
 _ZN27DeclarativePercentBarSeries17componentCompleteEv@Base 6.2.1
 _ZN27DeclarativePercentBarSeries20appendSeriesChildrenEP16QQmlListPropertyI7QObjectEPS1_@Base 6.2.1
 _ZN27DeclarativePercentBarSeries2atEi@Base 6.2.1
 _ZN27DeclarativePercentBarSeries6insertEi7QString5QListI8QVariantE@Base 6.2.1
 _ZN27DeclarativePercentBarSeriesC1EP10QQuickItem@Base 6.2.1
 _ZN27DeclarativePercentBarSeriesC2EP10QQuickItem@Base 6.2.1
 _ZN27DeclarativeStackedBarSeries10classBeginEv@Base 6.2.1
 _ZN27DeclarativeStackedBarSeries11qt_metacallEN11QMetaObject4CallEiPPv@Base 6.2.1
 _ZN27DeclarativeStackedBarSeries11qt_metacastEPKc@Base 6.2.1
 _ZN27DeclarativeStackedBarSeries12axisXChangedEP13QAbstractAxis@Base 6.2.1
 _ZN27DeclarativeStackedBarSeries12axisYChangedEP13QAbstractAxis@Base 6.2.1
 _ZN27DeclarativeStackedBarSeries14seriesChildrenEv@Base 6.2.1
 _ZN27DeclarativeStackedBarSeries15axisXTopChangedEP13QAbstractAxis@Base 6.2.1
 _ZN27DeclarativeStackedBarSeries16staticMetaObjectE@Base 6.2.1
 _ZN27DeclarativeStackedBarSeries17axisYRightChangedEP13QAbstractAxis@Base 6.2.1
 _ZN27DeclarativeStackedBarSeries17componentCompleteEv@Base 6.2.1
 _ZN27DeclarativeStackedBarSeries20appendSeriesChildrenEP16QQmlListPropertyI7QObjectEPS1_@Base 6.2.1
 _ZN27DeclarativeStackedBarSeries2atEi@Base 6.2.1
 _ZN27DeclarativeStackedBarSeries6insertEi7QString5QListI8QVariantE@Base 6.2.1
 _ZN27DeclarativeStackedBarSeriesC1EP10QQuickItem@Base 6.2.1
 _ZN27DeclarativeStackedBarSeriesC2EP10QQuickItem@Base 6.2.1
 _ZN30DeclarativeHorizontalBarSeries10classBeginEv@Base 6.2.1
 _ZN30DeclarativeHorizontalBarSeries11qt_metacallEN11QMetaObject4CallEiPPv@Base 6.2.1
 _ZN30DeclarativeHorizontalBarSeries11qt_metacastEPKc@Base 6.2.1
 _ZN30DeclarativeHorizontalBarSeries12axisXChangedEP13QAbstractAxis@Base 6.2.1
 _ZN30DeclarativeHorizontalBarSeries12axisYChangedEP13QAbstractAxis@Base 6.2.1
 _ZN30DeclarativeHorizontalBarSeries14seriesChildrenEv@Base 6.2.1
 _ZN30DeclarativeHorizontalBarSeries15axisXTopChangedEP13QAbstractAxis@Base 6.2.1
 _ZN30DeclarativeHorizontalBarSeries16staticMetaObjectE@Base 6.2.1
 _ZN30DeclarativeHorizontalBarSeries17axisYRightChangedEP13QAbstractAxis@Base 6.2.1
 _ZN30DeclarativeHorizontalBarSeries17componentCompleteEv@Base 6.2.1
 _ZN30DeclarativeHorizontalBarSeries20appendSeriesChildrenEP16QQmlListPropertyI7QObjectEPS1_@Base 6.2.1
 _ZN30DeclarativeHorizontalBarSeries2atEi@Base 6.2.1
 _ZN30DeclarativeHorizontalBarSeries6insertEi7QString5QListI8QVariantE@Base 6.2.1
 _ZN30DeclarativeHorizontalBarSeriesC1EP10QQuickItem@Base 6.2.1
 _ZN30DeclarativeHorizontalBarSeriesC2EP10QQuickItem@Base 6.2.1
 _ZN37DeclarativeHorizontalPercentBarSeries10classBeginEv@Base 6.2.1
 _ZN37DeclarativeHorizontalPercentBarSeries11qt_metacallEN11QMetaObject4CallEiPPv@Base 6.2.1
 _ZN37DeclarativeHorizontalPercentBarSeries11qt_metacastEPKc@Base 6.2.1
 _ZN37DeclarativeHorizontalPercentBarSeries12axisXChangedEP13QAbstractAxis@Base 6.2.1
 _ZN37DeclarativeHorizontalPercentBarSeries12axisYChangedEP13QAbstractAxis@Base 6.2.1
 _ZN37DeclarativeHorizontalPercentBarSeries14seriesChildrenEv@Base 6.2.1
 _ZN37DeclarativeHorizontalPercentBarSeries15axisXTopChangedEP13QAbstractAxis@Base 6.2.1
 _ZN37DeclarativeHorizontalPercentBarSeries16staticMetaObjectE@Base 6.2.1
 _ZN37DeclarativeHorizontalPercentBarSeries17axisYRightChangedEP13QAbstractAxis@Base 6.2.1
 _ZN37DeclarativeHorizontalPercentBarSeries17componentCompleteEv@Base 6.2.1
 _ZN37DeclarativeHorizontalPercentBarSeries20appendSeriesChildrenEP16QQmlListPropertyI7QObjectEPS1_@Base 6.2.1
 _ZN37DeclarativeHorizontalPercentBarSeries2atEi@Base 6.2.1
 _ZN37DeclarativeHorizontalPercentBarSeries6insertEi7QString5QListI8QVariantE@Base 6.2.1
 _ZN37DeclarativeHorizontalPercentBarSeriesC1EP10QQuickItem@Base 6.2.1
 _ZN37DeclarativeHorizontalPercentBarSeriesC2EP10QQuickItem@Base 6.2.1
 _ZN37DeclarativeHorizontalStackedBarSeries10classBeginEv@Base 6.2.1
 _ZN37DeclarativeHorizontalStackedBarSeries11qt_metacallEN11QMetaObject4CallEiPPv@Base 6.2.1
 _ZN37DeclarativeHorizontalStackedBarSeries11qt_metacastEPKc@Base 6.2.1
 _ZN37DeclarativeHorizontalStackedBarSeries12axisXChangedEP13QAbstractAxis@Base 6.2.1
 _ZN37DeclarativeHorizontalStackedBarSeries12axisYChangedEP13QAbstractAxis@Base 6.2.1
 _ZN37DeclarativeHorizontalStackedBarSeries14seriesChildrenEv@Base 6.2.1
 _ZN37DeclarativeHorizontalStackedBarSeries15axisXTopChangedEP13QAbstractAxis@Base 6.2.1
 _ZN37DeclarativeHorizontalStackedBarSeries16staticMetaObjectE@Base 6.2.1
 _ZN37DeclarativeHorizontalStackedBarSeries17axisYRightChangedEP13QAbstractAxis@Base 6.2.1
 _ZN37DeclarativeHorizontalStackedBarSeries17componentCompleteEv@Base 6.2.1
 _ZN37DeclarativeHorizontalStackedBarSeries20appendSeriesChildrenEP16QQmlListPropertyI7QObjectEPS1_@Base 6.2.1
 _ZN37DeclarativeHorizontalStackedBarSeries2atEi@Base 6.2.1
 _ZN37DeclarativeHorizontalStackedBarSeries6insertEi7QString5QListI8QVariantE@Base 6.2.1
 _ZN37DeclarativeHorizontalStackedBarSeriesC1EP10QQuickItem@Base 6.2.1
 _ZN37DeclarativeHorizontalStackedBarSeriesC2EP10QQuickItem@Base 6.2.1
 _ZNK15DeclarativeAxes10metaObjectEv@Base 6.2.1
 _ZNK16DeclarativeChart10metaObjectEv@Base 6.2.1
 _ZNK16DeclarativeChart15localizeNumbersEv@Base 6.2.1
 _ZNK16DeclarativeChart17animationDurationEv@Base 6.2.1
 _ZNK16DeclarativeChart19backgroundRoundnessEv@Base 6.2.1
 _ZNK16DeclarativeChart20animationEasingCurveEv@Base 6.2.1
 _ZNK16DeclarativeChart6localeEv@Base 6.2.1
 _ZNK16DeclarativeChart9titleFontEv@Base 6.2.1
 _ZNK17DeclarativeBarSet10metaObjectEv@Base 6.2.1
 _ZNK17DeclarativeBarSet11borderWidthEv@Base 6.2.1
 _ZNK17DeclarativeBarSet13brushFilenameEv@Base 6.2.1
 _ZNK17DeclarativeBoxSet10metaObjectEv@Base 6.2.1
 _ZNK17DeclarativeBoxSet13brushFilenameEv@Base 6.2.1
 _ZNK18DeclarativeMargins10metaObjectEv@Base 6.2.1
 _ZNK18DeclarativeXYPoint10metaObjectEv@Base 6.2.1
 _ZNK19DeclarativePieSlice10metaObjectEv@Base 6.2.1
 _ZNK19DeclarativePieSlice13brushFilenameEv@Base 6.2.1
 _ZNK20DeclarativeBarSeries10metaObjectEv@Base 6.2.1
 _ZNK21DeclarativeAreaSeries10metaObjectEv@Base 6.2.1
 _ZNK21DeclarativeAreaSeries11borderWidthEv@Base 6.2.1
 _ZNK21DeclarativeAreaSeries11lowerSeriesEv@Base 6.2.1
 _ZNK21DeclarativeAreaSeries11upperSeriesEv@Base 6.2.1
 _ZNK21DeclarativeAreaSeries13brushFilenameEv@Base 6.2.1
 _ZNK21DeclarativeAreaSeries5brushEv@Base 6.2.1
 _ZNK21DeclarativeLineSeries10metaObjectEv@Base 6.2.1
 _ZNK21DeclarativeLineSeries5styleEv@Base 6.2.1
 _ZNK21DeclarativeLineSeries5widthEv@Base 6.2.1
 _ZNK21DeclarativeLineSeries8capStyleEv@Base 6.2.1
 _ZNK21DeclarativePolarChart10metaObjectEv@Base 6.2.1
 _ZNK23DeclarativeSplineSeries10metaObjectEv@Base 6.2.1
 _ZNK23DeclarativeSplineSeries5styleEv@Base 6.2.1
 _ZNK23DeclarativeSplineSeries5widthEv@Base 6.2.1
 _ZNK23DeclarativeSplineSeries8capStyleEv@Base 6.2.1
 _ZNK24DeclarativeBoxPlotSeries10metaObjectEv@Base 6.2.1
 _ZNK24DeclarativeBoxPlotSeries13brushFilenameEv@Base 6.2.1
 _ZNK24DeclarativeCategoryRange10metaObjectEv@Base 6.2.1
 _ZNK24DeclarativeScatterSeries10metaObjectEv@Base 6.2.1
 _ZNK24DeclarativeScatterSeries11borderWidthEv@Base 6.2.1
 _ZNK24DeclarativeScatterSeries13brushFilenameEv@Base 6.2.1
 _ZNK24DeclarativeScatterSeries5brushEv@Base 6.2.1
 _ZNK25DeclarativeCandlestickSet10metaObjectEv@Base 6.2.1
 _ZNK25DeclarativeCandlestickSet13brushFilenameEv@Base 6.2.1
 _ZNK27DeclarativePercentBarSeries10metaObjectEv@Base 6.2.1
 _ZNK27DeclarativeStackedBarSeries10metaObjectEv@Base 6.2.1
 _ZNK30DeclarativeHorizontalBarSeries10metaObjectEv@Base 6.2.1
 _ZNK37DeclarativeHorizontalPercentBarSeries10metaObjectEv@Base 6.2.1
 _ZNK37DeclarativeHorizontalStackedBarSeries10metaObjectEv@Base 6.2.1
 _ZTI15DeclarativeAxes@Base 6.2.1
 _ZTI16DeclarativeChart@Base 6.2.1
 _ZTI16QOpenGLFunctions@Base 6.2.1
 _ZTI17DeclarativeBarSet@Base 6.2.1
 _ZTI17DeclarativeBoxSet@Base 6.2.1
 _ZTI18DeclarativeMargins@Base 6.2.1
 _ZTI18DeclarativeXYPoint@Base 6.2.1
 _ZTI19DeclarativePieSlice@Base 6.2.1
 _ZTI19DeclarativeXySeries@Base 6.2.1
 _ZTI20DeclarativeBarSeries@Base 6.2.1
 _ZTI21DeclarativeAreaSeries@Base 6.2.1
 _ZTI21DeclarativeLineSeries@Base 6.2.1
 _ZTI21DeclarativePolarChart@Base 6.2.1
 _ZTI23DeclarativeSplineSeries@Base 6.2.1
 _ZTI24DeclarativeBoxPlotSeries@Base 6.2.1
 _ZTI24DeclarativeCategoryRange@Base 6.2.1
 _ZTI24DeclarativeScatterSeries@Base 6.2.1
 _ZTI25DeclarativeCandlestickSet@Base 6.2.1
 _ZTI27DeclarativePercentBarSeries@Base 6.2.1
 _ZTI27DeclarativeStackedBarSeries@Base 6.2.1
 _ZTI29DeclarativeAbstractRenderNode@Base 6.2.1
 _ZTI30DeclarativeHorizontalBarSeries@Base 6.2.1
 _ZTI37DeclarativeHorizontalPercentBarSeries@Base 6.2.1
 _ZTI37DeclarativeHorizontalStackedBarSeries@Base 6.2.1
 _ZTIZN9QMetaType17registerConverterI5QListI6QRectFE9QIterableI13QMetaSequenceEN9QtPrivate33QSequentialIterableConvertFunctorIS3_EEEEbT1_EUlPKvPvE_@Base 6.2.1
 _ZTIZN9QMetaType17registerConverterI5QListIP9QPieSliceE9QIterableI13QMetaSequenceEN9QtPrivate33QSequentialIterableConvertFunctorIS4_EEEEbT1_EUlPKvPvE_@Base 6.2.1
 _ZTIZN9QMetaType19registerMutableViewI5QListI6QRectFE9QIterableI13QMetaSequenceEN9QtPrivate37QSequentialIterableMutableViewFunctorIS3_EEEEbT1_EUlPvSB_E_@Base 6.2.1
 _ZTIZN9QMetaType19registerMutableViewI5QListIP9QPieSliceE9QIterableI13QMetaSequenceEN9QtPrivate37QSequentialIterableMutableViewFunctorIS4_EEEEbT1_EUlPvSC_E_@Base 6.2.1
 _ZTS15DeclarativeAxes@Base 6.2.1
 _ZTS16DeclarativeChart@Base 6.2.1
 _ZTS16QOpenGLFunctions@Base 6.2.1
 _ZTS17DeclarativeBarSet@Base 6.2.1
 _ZTS17DeclarativeBoxSet@Base 6.2.1
 _ZTS18DeclarativeMargins@Base 6.2.1
 _ZTS18DeclarativeXYPoint@Base 6.2.1
 _ZTS19DeclarativePieSlice@Base 6.2.1
 _ZTS19DeclarativeXySeries@Base 6.2.1
 _ZTS20DeclarativeBarSeries@Base 6.2.1
 _ZTS21DeclarativeAreaSeries@Base 6.2.1
 _ZTS21DeclarativeLineSeries@Base 6.2.1
 _ZTS21DeclarativePolarChart@Base 6.2.1
 _ZTS23DeclarativeSplineSeries@Base 6.2.1
 _ZTS24DeclarativeBoxPlotSeries@Base 6.2.1
 _ZTS24DeclarativeCategoryRange@Base 6.2.1
 _ZTS24DeclarativeScatterSeries@Base 6.2.1
 _ZTS25DeclarativeCandlestickSet@Base 6.2.1
 _ZTS27DeclarativePercentBarSeries@Base 6.2.1
 _ZTS27DeclarativeStackedBarSeries@Base 6.2.1
 _ZTS29DeclarativeAbstractRenderNode@Base 6.2.1
 _ZTS30DeclarativeHorizontalBarSeries@Base 6.2.1
 _ZTS37DeclarativeHorizontalPercentBarSeries@Base 6.2.1
 _ZTS37DeclarativeHorizontalStackedBarSeries@Base 6.2.1
 _ZTSZN9QMetaType17registerConverterI5QListI6QRectFE9QIterableI13QMetaSequenceEN9QtPrivate33QSequentialIterableConvertFunctorIS3_EEEEbT1_EUlPKvPvE_@Base 6.2.1
 _ZTSZN9QMetaType17registerConverterI5QListIP9QPieSliceE9QIterableI13QMetaSequenceEN9QtPrivate33QSequentialIterableConvertFunctorIS4_EEEEbT1_EUlPKvPvE_@Base 6.2.1
 _ZTSZN9QMetaType19registerMutableViewI5QListI6QRectFE9QIterableI13QMetaSequenceEN9QtPrivate37QSequentialIterableMutableViewFunctorIS3_EEEEbT1_EUlPvSB_E_@Base 6.2.1
 _ZTSZN9QMetaType19registerMutableViewI5QListIP9QPieSliceE9QIterableI13QMetaSequenceEN9QtPrivate37QSequentialIterableMutableViewFunctorIS4_EEEEbT1_EUlPvSC_E_@Base 6.2.1
 _ZTV15DeclarativeAxes@Base 6.2.1
 _ZTV16DeclarativeChart@Base 6.2.1
 _ZTV17DeclarativeBarSet@Base 6.2.1
 _ZTV17DeclarativeBoxSet@Base 6.2.1
 _ZTV18DeclarativeMargins@Base 6.2.1
 _ZTV18DeclarativeXYPoint@Base 6.2.1
 _ZTV19DeclarativePieSlice@Base 6.2.1
 _ZTV19DeclarativeXySeries@Base 6.2.1
 _ZTV20DeclarativeBarSeries@Base 6.2.1
 _ZTV21DeclarativeAreaSeries@Base 6.2.1
 _ZTV21DeclarativeLineSeries@Base 6.2.1
 _ZTV21DeclarativePolarChart@Base 6.2.1
 _ZTV23DeclarativeSplineSeries@Base 6.2.1
 _ZTV24DeclarativeBoxPlotSeries@Base 6.2.1
 _ZTV24DeclarativeCategoryRange@Base 6.2.1
 _ZTV24DeclarativeScatterSeries@Base 6.2.1
 _ZTV25DeclarativeCandlestickSet@Base 6.2.1
 _ZTV27DeclarativePercentBarSeries@Base 6.2.1
 _ZTV27DeclarativeStackedBarSeries@Base 6.2.1
 _ZTV29DeclarativeAbstractRenderNode@Base 6.2.1
 _ZTV30DeclarativeHorizontalBarSeries@Base 6.2.1
 _ZTV37DeclarativeHorizontalPercentBarSeries@Base 6.2.1
 _ZTV37DeclarativeHorizontalStackedBarSeries@Base 6.2.1
 (optional=templinst)_ZZN9QMetaType21registerConverterImplI5QListI6QRectFE9QIterableI13QMetaSequenceEEEbSt8functionIFbPKvPvEES_S_E10unregister@Base 6.2.1
 (optional=templinst)_ZZN9QMetaType21registerConverterImplI5QListIP9QPieSliceE9QIterableI13QMetaSequenceEEEbSt8functionIFbPKvPvEES_S_E10unregister@Base 6.2.1
 (optional=templinst)_ZZN9QMetaType23registerMutableViewImplI5QListI6QRectFE9QIterableI13QMetaSequenceEEEbSt8functionIFbPvS8_EES_S_E10unregister@Base 6.2.1
 (optional=templinst)_ZZN9QMetaType23registerMutableViewImplI5QListIP9QPieSliceE9QIterableI13QMetaSequenceEEEbSt8functionIFbPvS9_EES_S_E10unregister@Base 6.2.1
 (optional=templinst)_ZZN9QtPrivate16QMetaTypeForTypeI12QEasingCurveE10getCopyCtrEvENUlPKNS_18QMetaTypeInterfaceEPvPKvE_4_FUNES5_S6_S8_@Base 6.2.1
 (optional=templinst)_ZZN9QtPrivate16QMetaTypeForTypeI12QEasingCurveE10getMoveCtrEvENUlPKNS_18QMetaTypeInterfaceEPvS6_E_4_FUNES5_S6_S6_@Base 6.2.1
 (optional=templinst)_ZZN9QtPrivate16QMetaTypeForTypeI12QEasingCurveE13getDefaultCtrEvENUlPKNS_18QMetaTypeInterfaceEPvE_4_FUNES5_S6_@Base 6.2.1
 (optional=templinst)_ZZN9QtPrivate16QMetaTypeForTypeI12QEasingCurveE7getDtorEvENUlPKNS_18QMetaTypeInterfaceEPvE_4_FUNES5_S6_@Base 6.2.1
 (optional=templinst)_ZZN9QtPrivate16QMetaTypeForTypeI5QListI8QVariantEE10getCopyCtrEvENUlPKNS_18QMetaTypeInterfaceEPvPKvE_4_FUNES7_S8_SA_@Base 6.2.1
 (optional=templinst)_ZZN9QtPrivate16QMetaTypeForTypeI5QListI8QVariantEE10getMoveCtrEvENUlPKNS_18QMetaTypeInterfaceEPvS8_E_4_FUNES7_S8_S8_@Base 6.2.1
 (optional=templinst)_ZZN9QtPrivate16QMetaTypeForTypeI5QListI8QVariantEE13getDefaultCtrEvENUlPKNS_18QMetaTypeInterfaceEPvE_4_FUNES7_S8_@Base 6.2.1
 (optional=templinst)_ZZN9QtPrivate16QMetaTypeForTypeI5QListI8QVariantEE7getDtorEvENUlPKNS_18QMetaTypeInterfaceEPvE_4_FUNES7_S8_@Base 6.2.1
 (optional=templinst)_ZZN9QtPrivate16QMetaTypeForTypeI6QPointE10getCopyCtrEvENUlPKNS_18QMetaTypeInterfaceEPvPKvE_4_FUNES5_S6_S8_@Base 6.2.1
 (optional=templinst)_ZZN9QtPrivate16QMetaTypeForTypeI6QPointE10getMoveCtrEvENUlPKNS_18QMetaTypeInterfaceEPvS6_E_4_FUNES5_S6_S6_@Base 6.2.1
 (optional=templinst)_ZZN9QtPrivate16QMetaTypeForTypeI6QPointE13getDefaultCtrEvENUlPKNS_18QMetaTypeInterfaceEPvE_4_FUNES5_S6_@Base 6.2.1
 (optional=templinst)_ZZN9QtPrivate16QMetaTypeForTypeI6QRectFE10getCopyCtrEvENUlPKNS_18QMetaTypeInterfaceEPvPKvE_4_FUNES5_S6_S8_@Base 6.2.1
 (optional=templinst)_ZZN9QtPrivate16QMetaTypeForTypeI6QRectFE10getMoveCtrEvENUlPKNS_18QMetaTypeInterfaceEPvS6_E_4_FUNES5_S6_S6_@Base 6.2.1
 (optional=templinst)_ZZN9QtPrivate16QMetaTypeForTypeI6QRectFE13getDefaultCtrEvENUlPKNS_18QMetaTypeInterfaceEPvE_4_FUNES5_S6_@Base 6.2.1
 (optional=templinst)_ZZN9QtPrivate16QMetaTypeForTypeI7QLocaleE10getCopyCtrEvENUlPKNS_18QMetaTypeInterfaceEPvPKvE_4_FUNES5_S6_S8_@Base 6.2.1
 (optional=templinst)_ZZN9QtPrivate16QMetaTypeForTypeI7QLocaleE10getMoveCtrEvENUlPKNS_18QMetaTypeInterfaceEPvS6_E_4_FUNES5_S6_S6_@Base 6.2.1
 (optional=templinst)_ZZN9QtPrivate16QMetaTypeForTypeI7QLocaleE13getDefaultCtrEvENUlPKNS_18QMetaTypeInterfaceEPvE_4_FUNES5_S6_@Base 6.2.1
 (optional=templinst)_ZZN9QtPrivate16QMetaTypeForTypeI7QLocaleE7getDtorEvENUlPKNS_18QMetaTypeInterfaceEPvE_4_FUNES5_S6_@Base 6.2.1
 (optional=templinst)_ZZN9QtPrivate16QMetaTypeForTypeI7QPointFE10getCopyCtrEvENUlPKNS_18QMetaTypeInterfaceEPvPKvE_4_FUNES5_S6_S8_@Base 6.2.1
 (optional=templinst)_ZZN9QtPrivate16QMetaTypeForTypeI7QPointFE10getMoveCtrEvENUlPKNS_18QMetaTypeInterfaceEPvS6_E_4_FUNES5_S6_S6_@Base 6.2.1
 (optional=templinst)_ZZN9QtPrivate16QMetaTypeForTypeI7QPointFE13getDefaultCtrEvENUlPKNS_18QMetaTypeInterfaceEPvE_4_FUNES5_S6_@Base 6.2.1
 (optional=templinst)_ZZN9QtPrivate16QMetaTypeForTypeI7QStringE10getCopyCtrEvENUlPKNS_18QMetaTypeInterfaceEPvPKvE_4_FUNES5_S6_S8_@Base 6.2.1
 (optional=templinst)_ZZN9QtPrivate16QMetaTypeForTypeI7QStringE10getMoveCtrEvENUlPKNS_18QMetaTypeInterfaceEPvS6_E_4_FUNES5_S6_S6_@Base 6.2.1
 (optional=templinst)_ZZN9QtPrivate16QMetaTypeForTypeI7QStringE13getDefaultCtrEvENUlPKNS_18QMetaTypeInterfaceEPvE_4_FUNES5_S6_@Base 6.2.1
 (optional=templinst)_ZZN9QtPrivate16QMetaTypeForTypeI7QStringE7getDtorEvENUlPKNS_18QMetaTypeInterfaceEPvE_4_FUNES5_S6_@Base 6.2.1
 (optional=templinst)_ZZN9QtPrivate16QMetaTypeForTypeIP7QObjectE10getCopyCtrEvENUlPKNS_18QMetaTypeInterfaceEPvPKvE_4_FUNES6_S7_S9_@Base 6.2.1
 (optional=templinst)_ZZN9QtPrivate16QMetaTypeForTypeIP7QObjectE10getMoveCtrEvENUlPKNS_18QMetaTypeInterfaceEPvS7_E_4_FUNES6_S7_S7_@Base 6.2.1
 (optional=templinst)_ZZN9QtPrivate16QMetaTypeForTypeIP7QObjectE13getDefaultCtrEvENUlPKNS_18QMetaTypeInterfaceEPvE_4_FUNES6_S7_@Base 6.2.1
 (optional=templinst)_ZZN9QtPrivate16QMetaTypeForTypeIbE10getCopyCtrEvENUlPKNS_18QMetaTypeInterfaceEPvPKvE_4_FUNES4_S5_S7_@Base 6.2.1
 (optional=templinst)_ZZN9QtPrivate16QMetaTypeForTypeIbE10getMoveCtrEvENUlPKNS_18QMetaTypeInterfaceEPvS5_E_4_FUNES4_S5_S5_@Base 6.2.1
 (optional=templinst)_ZZN9QtPrivate16QMetaTypeForTypeIbE13getDefaultCtrEvENUlPKNS_18QMetaTypeInterfaceEPvE_4_FUNES4_S5_@Base 6.2.1
 (optional=templinst)_ZZN9QtPrivate16QMetaTypeForTypeIdE10getCopyCtrEvENUlPKNS_18QMetaTypeInterfaceEPvPKvE_4_FUNES4_S5_S7_@Base 6.2.1
 (optional=templinst)_ZZN9QtPrivate16QMetaTypeForTypeIdE10getMoveCtrEvENUlPKNS_18QMetaTypeInterfaceEPvS5_E_4_FUNES4_S5_S5_@Base 6.2.1
 (optional=templinst)_ZZN9QtPrivate16QMetaTypeForTypeIdE13getDefaultCtrEvENUlPKNS_18QMetaTypeInterfaceEPvE_4_FUNES4_S5_@Base 6.2.1
 (optional=templinst)_ZZN9QtPrivate16QMetaTypeForTypeIiE10getCopyCtrEvENUlPKNS_18QMetaTypeInterfaceEPvPKvE_4_FUNES4_S5_S7_@Base 6.2.1
 (optional=templinst)_ZZN9QtPrivate16QMetaTypeForTypeIiE10getMoveCtrEvENUlPKNS_18QMetaTypeInterfaceEPvS5_E_4_FUNES4_S5_S5_@Base 6.2.1
 (optional=templinst)_ZZN9QtPrivate16QMetaTypeForTypeIiE13getDefaultCtrEvENUlPKNS_18QMetaTypeInterfaceEPvE_4_FUNES4_S5_@Base 6.2.1
 (c++)"non-virtual thunk to DeclarativeBarSeries::classBegin()@Base" 6.2.1
 (c++)"non-virtual thunk to DeclarativeBarSeries::componentComplete()@Base" 6.2.1
 (c++)"non-virtual thunk to DeclarativeBoxPlotSeries::classBegin()@Base" 6.2.1
 (c++)"non-virtual thunk to DeclarativeBoxPlotSeries::componentComplete()@Base" 6.2.1
 (c++)"non-virtual thunk to DeclarativeChart::componentComplete()@Base" 6.2.1
 (c++)"non-virtual thunk to DeclarativeChart::~DeclarativeChart()@Base" 6.2.1
 (c++)"non-virtual thunk to DeclarativeHorizontalBarSeries::classBegin()@Base" 6.2.1
 (c++)"non-virtual thunk to DeclarativeHorizontalBarSeries::componentComplete()@Base" 6.2.1
 (c++)"non-virtual thunk to DeclarativeHorizontalPercentBarSeries::classBegin()@Base" 6.2.1
 (c++)"non-virtual thunk to DeclarativeHorizontalPercentBarSeries::componentComplete()@Base" 6.2.1
 (c++)"non-virtual thunk to DeclarativeHorizontalStackedBarSeries::classBegin()@Base" 6.2.1
 (c++)"non-virtual thunk to DeclarativeHorizontalStackedBarSeries::componentComplete()@Base" 6.2.1
 (c++)"non-virtual thunk to DeclarativePercentBarSeries::classBegin()@Base" 6.2.1
 (c++)"non-virtual thunk to DeclarativePercentBarSeries::componentComplete()@Base" 6.2.1
 (c++)"non-virtual thunk to DeclarativePolarChart::~DeclarativePolarChart()@Base" 6.2.1
 (c++)"non-virtual thunk to DeclarativeStackedBarSeries::classBegin()@Base" 6.2.1
 (c++)"non-virtual thunk to DeclarativeStackedBarSeries::componentComplete()@Base" 6.2.1
