# SymbolsHelper-Confirmed: 6.2.1 amd64 armel armhf i386 ppc64el
libQt6Charts.so.6 libqt6charts6 #MINVER#
* Build-Depends-Package: libqt6charts6-dev
 _ZGVZN9QMetaType21registerConverterImplI5QHashIN9QXYSeries18PointConfigurationE8QVariantE9QIterableI16QMetaAssociationEEEbSt8functionIFbPKvPvEES_S_E10unregister@Base 6.2.1
 _ZGVZN9QMetaType21registerConverterImplI5QHashIiS1_IN9QXYSeries18PointConfigurationE8QVariantEE9QIterableI16QMetaAssociationEEEbSt8functionIFbPKvPvEES_S_E10unregister@Base 6.2.1
 _ZGVZN9QMetaType21registerConverterImplI5QListI6QRectFE9QIterableI13QMetaSequenceEEEbSt8functionIFbPKvPvEES_S_E10unregister@Base 6.2.1
 _ZGVZN9QMetaType21registerConverterImplI5QListI7QPointFE9QIterableI13QMetaSequenceEEEbSt8functionIFbPKvPvEES_S_E10unregister@Base 6.2.1
 _ZGVZN9QMetaType21registerConverterImplI5QListIP15QCandlestickSetE9QIterableI13QMetaSequenceEEEbSt8functionIFbPKvPvEES_S_E10unregister@Base 6.2.1
 _ZGVZN9QMetaType21registerConverterImplI5QListIP7QBarSetE9QIterableI13QMetaSequenceEEEbSt8functionIFbPKvPvEES_S_E10unregister@Base 6.2.1
 _ZGVZN9QMetaType21registerConverterImplI5QListIP7QBoxSetE9QIterableI13QMetaSequenceEEEbSt8functionIFbPKvPvEES_S_E10unregister@Base 6.2.1
 _ZGVZN9QMetaType21registerConverterImplI5QListIP9QPieSliceE9QIterableI13QMetaSequenceEEEbSt8functionIFbPKvPvEES_S_E10unregister@Base 6.2.1
 _ZGVZN9QMetaType21registerConverterImplI5QListIdE9QIterableI13QMetaSequenceEEEbSt8functionIFbPKvPvEES_S_E10unregister@Base 6.2.1
 _ZGVZN9QMetaType21registerConverterImplI5QListIiE9QIterableI13QMetaSequenceEEEbSt8functionIFbPKvPvEES_S_E10unregister@Base 6.2.1
 _ZGVZN9QMetaType21registerConverterImplISt4pairI5QListI7QPointFES4_EN17QtMetaTypePrivate25QPairVariantInterfaceImplEEEbSt8functionIFbPKvPvEES_S_E10unregister@Base 6.2.1
 _ZGVZN9QMetaType23registerMutableViewImplI5QHashIN9QXYSeries18PointConfigurationE8QVariantE9QIterableI16QMetaAssociationEEEbSt8functionIFbPvSA_EES_S_E10unregister@Base 6.2.1
 _ZGVZN9QMetaType23registerMutableViewImplI5QHashIiS1_IN9QXYSeries18PointConfigurationE8QVariantEE9QIterableI16QMetaAssociationEEEbSt8functionIFbPvSB_EES_S_E10unregister@Base 6.2.1
 _ZGVZN9QMetaType23registerMutableViewImplI5QListI6QRectFE9QIterableI13QMetaSequenceEEEbSt8functionIFbPvS8_EES_S_E10unregister@Base 6.2.1
 _ZGVZN9QMetaType23registerMutableViewImplI5QListI7QPointFE9QIterableI13QMetaSequenceEEEbSt8functionIFbPvS8_EES_S_E10unregister@Base 6.2.1
 _ZGVZN9QMetaType23registerMutableViewImplI5QListIP15QCandlestickSetE9QIterableI13QMetaSequenceEEEbSt8functionIFbPvS9_EES_S_E10unregister@Base 6.2.1
 _ZGVZN9QMetaType23registerMutableViewImplI5QListIP7QBarSetE9QIterableI13QMetaSequenceEEEbSt8functionIFbPvS9_EES_S_E10unregister@Base 6.2.1
 _ZGVZN9QMetaType23registerMutableViewImplI5QListIP7QBoxSetE9QIterableI13QMetaSequenceEEEbSt8functionIFbPvS9_EES_S_E10unregister@Base 6.2.1
 _ZGVZN9QMetaType23registerMutableViewImplI5QListIP9QPieSliceE9QIterableI13QMetaSequenceEEEbSt8functionIFbPvS9_EES_S_E10unregister@Base 6.2.1
 _ZGVZN9QMetaType23registerMutableViewImplI5QListIdE9QIterableI13QMetaSequenceEEEbSt8functionIFbPvS7_EES_S_E10unregister@Base 6.2.1
 _ZGVZN9QMetaType23registerMutableViewImplI5QListIiE9QIterableI13QMetaSequenceEEEbSt8functionIFbPvS7_EES_S_E10unregister@Base 6.2.1
 _ZN10ChartTitle11setGeometryERK6QRectF@Base 6.2.1
 _ZN10ChartTitle7setTextERK7QString@Base 6.2.1
 _ZN10ChartTitleC1EP13QGraphicsItem@Base 6.2.1
 _ZN10ChartTitleC2EP13QGraphicsItem@Base 6.2.1
 _ZN10ChartTitleD0Ev@Base 6.2.1
 _ZN10ChartTitleD1Ev@Base 6.2.1
 _ZN10ChartTitleD2Ev@Base 6.2.1
 _ZN10QBarSeries11qt_metacallEN11QMetaObject4CallEiPPv@Base 6.2.1
 _ZN10QBarSeries11qt_metacastEPKc@Base 6.2.1
 _ZN10QBarSeries16staticMetaObjectE@Base 6.2.1
 _ZN10QBarSeriesC1EP7QObject@Base 6.2.1
 _ZN10QBarSeriesC2EP7QObject@Base 6.2.1
 _ZN10QBarSeriesD0Ev@Base 6.2.1
 _ZN10QBarSeriesD1Ev@Base 6.2.1
 _ZN10QBarSeriesD2Ev@Base 6.2.1
 _ZN10QChartView11qt_metacallEN11QMetaObject4CallEiPPv@Base 6.2.1
 _ZN10QChartView11qt_metacastEPKc@Base 6.2.1
 _ZN10QChartView11resizeEventEP12QResizeEvent@Base 6.2.1
 _ZN10QChartView13setRubberBandERK6QFlagsINS_10RubberBandEE@Base 6.2.1
 _ZN10QChartView14mouseMoveEventEP11QMouseEvent@Base 6.2.1
 _ZN10QChartView15mousePressEventEP11QMouseEvent@Base 6.2.1
 _ZN10QChartView16staticMetaObjectE@Base 6.2.1
 _ZN10QChartView17mouseReleaseEventEP11QMouseEvent@Base 6.2.1
 _ZN10QChartView8setChartEP6QChart@Base 6.2.1
 _ZN10QChartViewC1EP6QChartP7QWidget@Base 6.2.1
 _ZN10QChartViewC1EP7QWidget@Base 6.2.1
 _ZN10QChartViewC2EP6QChartP7QWidget@Base 6.2.1
 _ZN10QChartViewC2EP7QWidget@Base 6.2.1
 _ZN10QChartViewD0Ev@Base 6.2.1
 _ZN10QChartViewD1Ev@Base 6.2.1
 _ZN10QChartViewD2Ev@Base 6.2.1
 _ZN10QColorAxis10maxChangedEd@Base 6.2.1
 _ZN10QColorAxis10minChangedEd@Base 6.2.1
 _ZN10QColorAxis11qt_metacallEN11QMetaObject4CallEiPPv@Base 6.2.1
 _ZN10QColorAxis11qt_metacastEPKc@Base 6.2.1
 _ZN10QColorAxis11setGradientERK15QLinearGradient@Base 6.2.1
 _ZN10QColorAxis11sizeChangedEd@Base 6.2.1
 _ZN10QColorAxis12rangeChangedEdd@Base 6.2.1
 _ZN10QColorAxis12setAutoRangeEb@Base 6.2.1
 _ZN10QColorAxis12setTickCountEi@Base 6.2.1
 _ZN10QColorAxis15gradientChangedERK15QLinearGradient@Base 6.2.1
 _ZN10QColorAxis16autoRangeChangedEb@Base 6.2.1
 _ZN10QColorAxis16staticMetaObjectE@Base 6.2.1
 _ZN10QColorAxis16tickCountChangedEi@Base 6.2.1
 _ZN10QColorAxis6setMaxEd@Base 6.2.1
 _ZN10QColorAxis6setMinEd@Base 6.2.1
 _ZN10QColorAxis7setSizeEd@Base 6.2.1
 _ZN10QColorAxis8setRangeEdd@Base 6.2.1
 _ZN10QColorAxisC1EP7QObject@Base 6.2.1
 _ZN10QColorAxisC1ER17QColorAxisPrivateP7QObject@Base 6.2.1
 _ZN10QColorAxisC2EP7QObject@Base 6.2.1
 _ZN10QColorAxisC2ER17QColorAxisPrivateP7QObject@Base 6.2.1
 _ZN10QColorAxisD0Ev@Base 6.2.1
 _ZN10QColorAxisD1Ev@Base 6.2.1
 _ZN10QColorAxisD2Ev@Base 6.2.1
 _ZN10QPieSeries10setPieSizeEd@Base 6.2.1
 _ZN10QPieSeries10sumChangedEv@Base 6.2.1
 _ZN10QPieSeries11qt_metacallEN11QMetaObject4CallEiPPv@Base 6.2.1
 _ZN10QPieSeries11qt_metacastEPKc@Base 6.2.1
 _ZN10QPieSeries11setHoleSizeEd@Base 6.2.1
 _ZN10QPieSeries12countChangedEv@Base 6.2.1
 _ZN10QPieSeries13doubleClickedEP9QPieSlice@Base 6.2.1
 _ZN10QPieSeries14setPieEndAngleEd@Base 6.2.1
 _ZN10QPieSeries16setLabelsVisibleEb@Base 6.2.1
 _ZN10QPieSeries16setPieStartAngleEd@Base 6.2.1
 _ZN10QPieSeries16staticMetaObjectE@Base 6.2.1
 _ZN10QPieSeries17setLabelsPositionEN9QPieSlice13LabelPositionE@Base 6.2.1
 _ZN10QPieSeries19setVerticalPositionEd@Base 6.2.1
 _ZN10QPieSeries21setHorizontalPositionEd@Base 6.2.1
 _ZN10QPieSeries4takeEP9QPieSlice@Base 6.2.1
 _ZN10QPieSeries5addedERK5QListIP9QPieSliceE@Base 6.2.1
 _ZN10QPieSeries5clearEv@Base 6.2.1
 _ZN10QPieSeries6appendEP9QPieSlice@Base 6.2.1
 _ZN10QPieSeries6appendERK5QListIP9QPieSliceE@Base 6.2.1
 _ZN10QPieSeries6appendERK7QStringd@Base 6.2.1
 _ZN10QPieSeries6insertEiP9QPieSlice@Base 6.2.1
 _ZN10QPieSeries6removeEP9QPieSlice@Base 6.2.1
 _ZN10QPieSeries7clickedEP9QPieSlice@Base 6.2.1
 _ZN10QPieSeries7hoveredEP9QPieSliceb@Base 6.2.1
 _ZN10QPieSeries7pressedEP9QPieSlice@Base 6.2.1
 _ZN10QPieSeries7removedERK5QListIP9QPieSliceE@Base 6.2.1
 _ZN10QPieSeries8releasedEP9QPieSlice@Base 6.2.1
 _ZN10QPieSeriesC1EP7QObject@Base 6.2.1
 _ZN10QPieSeriesC2EP7QObject@Base 6.2.1
 _ZN10QPieSeriesD0Ev@Base 6.2.1
 _ZN10QPieSeriesD1Ev@Base 6.2.1
 _ZN10QPieSeriesD2Ev@Base 6.2.1
 _ZN10QPieSerieslsEP9QPieSlice@Base 6.2.1
 _ZN10QValueAxis10maxChangedEd@Base 6.2.1
 _ZN10QValueAxis10minChangedEd@Base 6.2.1
 _ZN10QValueAxis11qt_metacallEN11QMetaObject4CallEiPPv@Base 6.2.1
 _ZN10QValueAxis11qt_metacastEPKc@Base 6.2.1
 _ZN10QValueAxis11setTickTypeENS_8TickTypeE@Base 6.2.1
 _ZN10QValueAxis12rangeChangedEdd@Base 6.2.1
 _ZN10QValueAxis12setTickCountEi@Base 6.2.1
 _ZN10QValueAxis13setTickAnchorEd@Base 6.2.1
 _ZN10QValueAxis14setLabelFormatERK7QString@Base 6.2.1
 _ZN10QValueAxis15setTickIntervalEd@Base 6.2.1
 _ZN10QValueAxis15tickTypeChangedENS_8TickTypeE@Base 6.2.1
 _ZN10QValueAxis16applyNiceNumbersEv@Base 6.2.1
 _ZN10QValueAxis16staticMetaObjectE@Base 6.2.1
 _ZN10QValueAxis16tickCountChangedEi@Base 6.2.1
 _ZN10QValueAxis17setMinorTickCountEi@Base 6.2.1
 _ZN10QValueAxis17tickAnchorChangedEd@Base 6.2.1
 _ZN10QValueAxis18labelFormatChangedERK7QString@Base 6.2.1
 _ZN10QValueAxis19tickIntervalChangedEd@Base 6.2.1
 _ZN10QValueAxis21minorTickCountChangedEi@Base 6.2.1
 _ZN10QValueAxis6setMaxEd@Base 6.2.1
 _ZN10QValueAxis6setMinEd@Base 6.2.1
 _ZN10QValueAxis8setRangeEdd@Base 6.2.1
 _ZN10QValueAxisC1EP7QObject@Base 6.2.1
 _ZN10QValueAxisC1ER17QValueAxisPrivateP7QObject@Base 6.2.1
 _ZN10QValueAxisC2EP7QObject@Base 6.2.1
 _ZN10QValueAxisC2ER17QValueAxisPrivateP7QObject@Base 6.2.1
 _ZN10QValueAxisD0Ev@Base 6.2.1
 _ZN10QValueAxisD1Ev@Base 6.2.1
 _ZN10QValueAxisD2Ev@Base 6.2.1
 _ZN10StarMarker7polygonEdddd@Base 6.2.1
 _ZN10StarMarkerC1EddddP16ScatterChartItem@Base 6.2.1
 _ZN10StarMarkerC2EddddP16ScatterChartItem@Base 6.2.1
 _ZN11BoxWhiskers11qt_metacallEN11QMetaObject4CallEiPPv@Base 6.2.1
 _ZN11BoxWhiskers11qt_metacastEPKc@Base 6.2.1
 _ZN11BoxWhiskers11setBoxWidthEd@Base 6.2.1
 _ZN11BoxWhiskers11setGeometryERK6QRectF@Base 6.2.1
 _ZN11BoxWhiskers13doubleClickedEP7QBoxSet@Base 6.2.1
 _ZN11BoxWhiskers14updateGeometryEP14AbstractDomain@Base 6.2.1
 _ZN11BoxWhiskers15hoverEnterEventEP24QGraphicsSceneHoverEvent@Base 6.2.1
 _ZN11BoxWhiskers15hoverLeaveEventEP24QGraphicsSceneHoverEvent@Base 6.2.1
 _ZN11BoxWhiskers15mousePressEventEP24QGraphicsSceneMouseEvent@Base 6.2.1
 _ZN11BoxWhiskers16staticMetaObjectE@Base 6.2.1
 _ZN11BoxWhiskers17mouseReleaseEventEP24QGraphicsSceneMouseEvent@Base 6.2.1
 _ZN11BoxWhiskers21mouseDoubleClickEventEP24QGraphicsSceneMouseEvent@Base 6.2.1
 _ZN11BoxWhiskers5paintEP8QPainterPK24QStyleOptionGraphicsItemP7QWidget@Base 6.2.1
 _ZN11BoxWhiskers6setPenERK4QPen@Base 6.2.1
 _ZN11BoxWhiskers7clickedEP7QBoxSet@Base 6.2.1
 _ZN11BoxWhiskers7hoveredEbP7QBoxSet@Base 6.2.1
 _ZN11BoxWhiskers7pressedEP7QBoxSet@Base 6.2.1
 _ZN11BoxWhiskers8releasedEP7QBoxSet@Base 6.2.1
 _ZN11BoxWhiskers8setBrushERK6QBrush@Base 6.2.1
 _ZN11BoxWhiskers9setLayoutERK15BoxWhiskersData@Base 6.2.1
 _ZN11BoxWhiskersC1EP7QBoxSetP14AbstractDomainP15QGraphicsObject@Base 6.2.1
 _ZN11BoxWhiskersC2EP7QBoxSetP14AbstractDomainP15QGraphicsObject@Base 6.2.1
 _ZN11BoxWhiskersD0Ev@Base 6.2.1
 _ZN11BoxWhiskersD1Ev@Base 6.2.1
 _ZN11BoxWhiskersD2Ev@Base 6.2.1
 _ZN11Candlestick11qt_metacallEN11QMetaObject4CallEiPPv@Base 6.2.1
 _ZN11Candlestick11qt_metacastEPKc@Base 6.2.1
 _ZN11Candlestick12setBodyWidthEd@Base 6.2.1
 _ZN11Candlestick12setCapsWidthEd@Base 6.2.1
 _ZN11Candlestick13doubleClickedEP15QCandlestickSet@Base 6.2.1
 _ZN11Candlestick13setTimePeriodEd@Base 6.2.1
 _ZN11Candlestick14setCapsVisibleEb@Base 6.2.1
 _ZN11Candlestick14updateGeometryEP14AbstractDomain@Base 6.2.1
 _ZN11Candlestick15hoverEnterEventEP24QGraphicsSceneHoverEvent@Base 6.2.1
 _ZN11Candlestick15hoverLeaveEventEP24QGraphicsSceneHoverEvent@Base 6.2.1
 _ZN11Candlestick15mousePressEventEP24QGraphicsSceneMouseEvent@Base 6.2.1
 _ZN11Candlestick16staticMetaObjectE@Base 6.2.1
 _ZN11Candlestick17mouseReleaseEventEP24QGraphicsSceneMouseEvent@Base 6.2.1
 _ZN11Candlestick18setDecreasingColorERK6QColor@Base 6.2.1
 _ZN11Candlestick18setIncreasingColorERK6QColor@Base 6.2.1
 _ZN11Candlestick21mouseDoubleClickEventEP24QGraphicsSceneMouseEvent@Base 6.2.1
 _ZN11Candlestick21setBodyOutlineVisibleEb@Base 6.2.1
 _ZN11Candlestick21setMaximumColumnWidthEd@Base 6.2.1
 _ZN11Candlestick21setMinimumColumnWidthEd@Base 6.2.1
 _ZN11Candlestick5paintEP8QPainterPK24QStyleOptionGraphicsItemP7QWidget@Base 6.2.1
 _ZN11Candlestick6setPenERK4QPen@Base 6.2.1
 _ZN11Candlestick7clickedEP15QCandlestickSet@Base 6.2.1
 _ZN11Candlestick7hoveredEbP15QCandlestickSet@Base 6.2.1
 _ZN11Candlestick7pressedEP15QCandlestickSet@Base 6.2.1
 _ZN11Candlestick8releasedEP15QCandlestickSet@Base 6.2.1
 _ZN11Candlestick8setBrushERK6QBrush@Base 6.2.1
 _ZN11Candlestick9setLayoutERK15CandlestickData@Base 6.2.1
 _ZN11CandlestickC1EP15QCandlestickSetP14AbstractDomainP15QGraphicsObject@Base 6.2.1
 _ZN11CandlestickC2EP15QCandlestickSetP14AbstractDomainP15QGraphicsObject@Base 6.2.1
 _ZN11CandlestickD0Ev@Base 6.2.1
 _ZN11CandlestickD1Ev@Base 6.2.1
 _ZN11CandlestickD2Ev@Base 6.2.1
 _ZN11ChartConfig10m_instanceE@Base 6.2.1
 (optional=templinst)_ZN11ChartMarkerI17QGraphicsRectItemE15hoverEnterEventEP24QGraphicsSceneHoverEvent@Base 6.2.1
 (optional=templinst)_ZN11ChartMarkerI17QGraphicsRectItemE15hoverLeaveEventEP24QGraphicsSceneHoverEvent@Base 6.2.1
 (optional=templinst)_ZN11ChartMarkerI17QGraphicsRectItemE15mousePressEventEP24QGraphicsSceneMouseEvent@Base 6.2.1
 (optional=templinst)_ZN11ChartMarkerI17QGraphicsRectItemE17mouseReleaseEventEP24QGraphicsSceneMouseEvent@Base 6.2.1
 (optional=templinst)_ZN11ChartMarkerI17QGraphicsRectItemE21mouseDoubleClickEventEP24QGraphicsSceneMouseEvent@Base 6.2.1
 (optional=templinst)_ZN11ChartMarkerI20QGraphicsEllipseItemE15hoverEnterEventEP24QGraphicsSceneHoverEvent@Base 6.2.1
 (optional=templinst)_ZN11ChartMarkerI20QGraphicsEllipseItemE15hoverLeaveEventEP24QGraphicsSceneHoverEvent@Base 6.2.1
 (optional=templinst)_ZN11ChartMarkerI20QGraphicsEllipseItemE15mousePressEventEP24QGraphicsSceneMouseEvent@Base 6.2.1
 (optional=templinst)_ZN11ChartMarkerI20QGraphicsEllipseItemE17mouseReleaseEventEP24QGraphicsSceneMouseEvent@Base 6.2.1
 (optional=templinst)_ZN11ChartMarkerI20QGraphicsEllipseItemE21mouseDoubleClickEventEP24QGraphicsSceneMouseEvent@Base 6.2.1
 (optional=templinst)_ZN11ChartMarkerI20QGraphicsPolygonItemE15hoverEnterEventEP24QGraphicsSceneHoverEvent@Base 6.2.1
 (optional=templinst)_ZN11ChartMarkerI20QGraphicsPolygonItemE15hoverLeaveEventEP24QGraphicsSceneHoverEvent@Base 6.2.1
 (optional=templinst)_ZN11ChartMarkerI20QGraphicsPolygonItemE15mousePressEventEP24QGraphicsSceneMouseEvent@Base 6.2.1
 (optional=templinst)_ZN11ChartMarkerI20QGraphicsPolygonItemE17mouseReleaseEventEP24QGraphicsSceneMouseEvent@Base 6.2.1
 (optional=templinst)_ZN11ChartMarkerI20QGraphicsPolygonItemE21mouseDoubleClickEventEP24QGraphicsSceneMouseEvent@Base 6.2.1
 _ZN11LogXYDomain10attachAxisEP13QAbstractAxis@Base 6.2.1
 _ZN11LogXYDomain10detachAxisEP13QAbstractAxis@Base 6.2.1
 _ZN11LogXYDomain11qt_metacallEN11QMetaObject4CallEiPPv@Base 6.2.1
 _ZN11LogXYDomain11qt_metacastEPKc@Base 6.2.1
 _ZN11LogXYDomain16staticMetaObjectE@Base 6.2.1
 _ZN11LogXYDomain31handleHorizontalAxisBaseChangedEd@Base 6.2.1
 _ZN11LogXYDomain4moveEdd@Base 6.2.1
 _ZN11LogXYDomain6zoomInERK6QRectF@Base 6.2.1
 _ZN11LogXYDomain7zoomOutERK6QRectF@Base 6.2.1
 _ZN11LogXYDomain8setRangeEdddd@Base 6.2.1
 _ZN11LogXYDomainC1EP7QObject@Base 6.2.1
 _ZN11LogXYDomainC2EP7QObject@Base 6.2.1
 _ZN11LogXYDomainD0Ev@Base 6.2.1
 _ZN11LogXYDomainD1Ev@Base 6.2.1
 _ZN11LogXYDomainD2Ev@Base 6.2.1
 _ZN11PolarDomain11qt_metacallEN11QMetaObject4CallEiPPv@Base 6.2.1
 _ZN11PolarDomain11qt_metacastEPKc@Base 6.2.1
 _ZN11PolarDomain16staticMetaObjectE@Base 6.2.1
 _ZN11PolarDomain7setSizeERK6QSizeF@Base 6.2.1
 _ZN11PolarDomainC1EP7QObject@Base 6.2.1
 _ZN11PolarDomainC2EP7QObject@Base 6.2.1
 _ZN11PolarDomainD0Ev@Base 6.2.1
 _ZN11PolarDomainD1Ev@Base 6.2.1
 _ZN11PolarDomainD2Ev@Base 6.2.1
 _ZN11QAreaSeries11qt_metacallEN11QMetaObject4CallEiPPv@Base 6.2.1
 _ZN11QAreaSeries11qt_metacastEPKc@Base 6.2.1
 _ZN11QAreaSeries12colorChangedE6QColor@Base 6.2.1
 _ZN11QAreaSeries13doubleClickedERK7QPointF@Base 6.2.1
 _ZN11QAreaSeries14setBorderColorERK6QColor@Base 6.2.1
 _ZN11QAreaSeries14setLowerSeriesEP11QLineSeries@Base 6.2.1
 _ZN11QAreaSeries14setUpperSeriesEP11QLineSeries@Base 6.2.1
 _ZN11QAreaSeries16setPointsVisibleEb@Base 6.2.1
 _ZN11QAreaSeries16staticMetaObjectE@Base 6.2.1
 _ZN11QAreaSeries18borderColorChangedE6QColor@Base 6.2.1
 _ZN11QAreaSeries18setPointLabelsFontERK5QFont@Base 6.2.1
 _ZN11QAreaSeries19setPointLabelsColorERK6QColor@Base 6.2.1
 _ZN11QAreaSeries20setPointLabelsFormatERK7QString@Base 6.2.1
 _ZN11QAreaSeries21setPointLabelsVisibleEb@Base 6.2.1
 _ZN11QAreaSeries22pointLabelsFontChangedERK5QFont@Base 6.2.1
 _ZN11QAreaSeries22setPointLabelsClippingEb@Base 6.2.1
 _ZN11QAreaSeries23pointLabelsColorChangedERK6QColor@Base 6.2.1
 _ZN11QAreaSeries24pointLabelsFormatChangedERK7QString@Base 6.2.1
 _ZN11QAreaSeries26pointLabelsClippingChangedEb@Base 6.2.1
 _ZN11QAreaSeries28pointLabelsVisibilityChangedEb@Base 6.2.1
 _ZN11QAreaSeries6setPenERK4QPen@Base 6.2.1
 _ZN11QAreaSeries7clickedERK7QPointF@Base 6.2.1
 _ZN11QAreaSeries7hoveredERK7QPointFb@Base 6.2.1
 _ZN11QAreaSeries7pressedERK7QPointF@Base 6.2.1
 _ZN11QAreaSeries8releasedERK7QPointF@Base 6.2.1
 _ZN11QAreaSeries8selectedEv@Base 6.2.1
 _ZN11QAreaSeries8setBrushERK6QBrush@Base 6.2.1
 _ZN11QAreaSeries8setColorERK6QColor@Base 6.2.1
 _ZN11QAreaSeriesC1EP11QLineSeriesS1_@Base 6.2.1
 _ZN11QAreaSeriesC1EP7QObject@Base 6.2.1
 _ZN11QAreaSeriesC2EP11QLineSeriesS1_@Base 6.2.1
 _ZN11QAreaSeriesC2EP7QObject@Base 6.2.1
 _ZN11QAreaSeriesD0Ev@Base 6.2.1
 _ZN11QAreaSeriesD1Ev@Base 6.2.1
 _ZN11QAreaSeriesD2Ev@Base 6.2.1
 _ZN11QLineSeries11qt_metacallEN11QMetaObject4CallEiPPv@Base 6.2.1
 _ZN11QLineSeries11qt_metacastEPKc@Base 6.2.1
 _ZN11QLineSeries16staticMetaObjectE@Base 6.2.1
 _ZN11QLineSeriesC1EP7QObject@Base 6.2.1
 _ZN11QLineSeriesC1ER18QLineSeriesPrivateP7QObject@Base 6.2.1
 _ZN11QLineSeriesC2EP7QObject@Base 6.2.1
 _ZN11QLineSeriesC2ER18QLineSeriesPrivateP7QObject@Base 6.2.1
 _ZN11QLineSeriesD0Ev@Base 6.2.1
 _ZN11QLineSeriesD1Ev@Base 6.2.1
 _ZN11QLineSeriesD2Ev@Base 6.2.1
 _ZN11QPolarChart11qt_metacallEN11QMetaObject4CallEiPPv@Base 6.2.1
 _ZN11QPolarChart11qt_metacastEPKc@Base 6.2.1
 _ZN11QPolarChart16staticMetaObjectE@Base 6.2.1
 _ZN11QPolarChart20axisPolarOrientationEP13QAbstractAxis@Base 6.2.1
 _ZN11QPolarChart7addAxisEP13QAbstractAxisNS_16PolarOrientationE@Base 6.2.1
 _ZN11QPolarChartC1EP13QGraphicsItem6QFlagsIN2Qt10WindowTypeEE@Base 6.2.1
 _ZN11QPolarChartC2EP13QGraphicsItem6QFlagsIN2Qt10WindowTypeEE@Base 6.2.1
 _ZN11QPolarChartD0Ev@Base 6.2.1
 _ZN11QPolarChartD1Ev@Base 6.2.1
 _ZN11QPolarChartD2Ev@Base 6.2.1
 _ZN11XLogYDomain10attachAxisEP13QAbstractAxis@Base 6.2.1
 _ZN11XLogYDomain10detachAxisEP13QAbstractAxis@Base 6.2.1
 _ZN11XLogYDomain11qt_metacallEN11QMetaObject4CallEiPPv@Base 6.2.1
 _ZN11XLogYDomain11qt_metacastEPKc@Base 6.2.1
 _ZN11XLogYDomain16staticMetaObjectE@Base 6.2.1
 _ZN11XLogYDomain29handleVerticalAxisBaseChangedEd@Base 6.2.1
 _ZN11XLogYDomain4moveEdd@Base 6.2.1
 _ZN11XLogYDomain6zoomInERK6QRectF@Base 6.2.1
 _ZN11XLogYDomain7zoomOutERK6QRectF@Base 6.2.1
 _ZN11XLogYDomain8setRangeEdddd@Base 6.2.1
 _ZN11XLogYDomainC1EP7QObject@Base 6.2.1
 _ZN11XLogYDomainC2EP7QObject@Base 6.2.1
 _ZN11XLogYDomainD0Ev@Base 6.2.1
 _ZN11XLogYDomainD1Ev@Base 6.2.1
 _ZN11XLogYDomainD2Ev@Base 6.2.1
 _ZN11XYAnimation11updateStateEN18QAbstractAnimation5StateES1_@Base 6.2.1
 _ZN11XYAnimation18updateCurrentValueERK8QVariant@Base 6.2.1
 _ZN11XYAnimation5setupERK5QListI7QPointFES4_i@Base 6.2.1
 _ZN11XYAnimationC1EP7XYChartiR12QEasingCurve@Base 6.2.1
 _ZN11XYAnimationC2EP7XYChartiR12QEasingCurve@Base 6.2.1
 _ZN11XYAnimationD0Ev@Base 6.2.1
 _ZN11XYAnimationD1Ev@Base 6.2.1
 _ZN11XYAnimationD2Ev@Base 6.2.1
 _ZN12BarAnimation11qt_metacallEN11QMetaObject4CallEiPPv@Base 6.2.1
 _ZN12BarAnimation11qt_metacastEPKc@Base 6.2.1
 _ZN12BarAnimation16staticMetaObjectE@Base 6.2.1
 _ZN12BarAnimation18updateCurrentValueERK8QVariant@Base 6.2.1
 _ZN12BarAnimation5setupERK5QListI6QRectFES4_@Base 6.2.1
 _ZN12BarAnimationC1EP20AbstractBarChartItemiR12QEasingCurve@Base 6.2.1
 _ZN12BarAnimationC2EP20AbstractBarChartItemiR12QEasingCurve@Base 6.2.1
 _ZN12BarAnimationD0Ev@Base 6.2.1
 _ZN12BarAnimationD1Ev@Base 6.2.1
 _ZN12BarAnimationD2Ev@Base 6.2.1
 _ZN12BarChartItem11qt_metacallEN11QMetaObject4CallEiPPv@Base 6.2.1
 _ZN12BarChartItem11qt_metacastEPKc@Base 6.2.1
 _ZN12BarChartItem12topLeftPointEiiidd@Base 6.2.1
 _ZN12BarChartItem14positionLabelsEv@Base 6.2.1
 _ZN12BarChartItem15calculateLayoutEv@Base 6.2.1
 _ZN12BarChartItem16bottomRightPointEiiidd@Base 6.2.1
 _ZN12BarChartItem16initializeLayoutEiiib@Base 6.2.1
 _ZN12BarChartItem16staticMetaObjectE@Base 6.2.1
 _ZN12BarChartItem27handleLabelsPositionChangedEv@Base 6.2.1
 _ZN12BarChartItemC1EP18QAbstractBarSeriesP13QGraphicsItem@Base 6.2.1
 _ZN12BarChartItemC2EP18QAbstractBarSeriesP13QGraphicsItem@Base 6.2.1
 _ZN12ChartDataSet10attachAxisEP15QAbstractSeriesP13QAbstractAxis@Base 6.2.1
 _ZN12ChartDataSet10createAxesE6QFlagsIN13QAbstractAxis8AxisTypeEEN2Qt11OrientationE@Base 6.2.1
 _ZN12ChartDataSet10detachAxisEP15QAbstractSeriesP13QAbstractAxis@Base 6.2.1
 _ZN12ChartDataSet10mapToValueERK7QPointFP15QAbstractSeries@Base 6.2.1
 _ZN12ChartDataSet10removeAxisEP13QAbstractAxis@Base 6.2.1
 _ZN12ChartDataSet11axisRemovedEP13QAbstractAxis@Base 6.2.1
 _ZN12ChartDataSet11qt_metacallEN11QMetaObject4CallEiPPv@Base 6.2.1
 _ZN12ChartDataSet11qt_metacastEPKc@Base 6.2.1
 _ZN12ChartDataSet11seriesAddedEP15QAbstractSeries@Base 6.2.1
 _ZN12ChartDataSet12createDomainEN14AbstractDomain10DomainTypeE@Base 6.2.1
 _ZN12ChartDataSet12removeSeriesEP15QAbstractSeries@Base 6.2.1
 _ZN12ChartDataSet12scrollDomainEdd@Base 6.2.1
 _ZN12ChartDataSet12selectDomainERK5QListIP13QAbstractAxisE@Base 6.2.1
 _ZN12ChartDataSet12zoomInDomainERK6QRectF@Base 6.2.1
 _ZN12ChartDataSet13deleteAllAxesEv@Base 6.2.1
 _ZN12ChartDataSet13mapToPositionERK7QPointFP15QAbstractSeries@Base 6.2.1
 _ZN12ChartDataSet13seriesRemovedEP15QAbstractSeries@Base 6.2.1
 _ZN12ChartDataSet13zoomOutDomainERK6QRectF@Base 6.2.1
 _ZN12ChartDataSet14isZoomedDomainEv@Base 6.2.1
 _ZN12ChartDataSet14reverseChangedEv@Base 6.2.1
 _ZN12ChartDataSet15deleteAllSeriesEv@Base 6.2.1
 _ZN12ChartDataSet15zoomResetDomainEv@Base 6.2.1
 _ZN12ChartDataSet16staticMetaObjectE@Base 6.2.1
 _ZN12ChartDataSet17createDefaultAxesEv@Base 6.2.1
 _ZN12ChartDataSet19findMinMaxForSeriesERK5QListIP15QAbstractSeriesE6QFlagsIN2Qt11OrientationEERdSA_@Base 6.2.1
 _ZN12ChartDataSet7addAxisEP13QAbstractAxis6QFlagsIN2Qt13AlignmentFlagEE@Base 6.2.1
 _ZN12ChartDataSet9addSeriesEP15QAbstractSeries@Base 6.2.1
 _ZN12ChartDataSet9axisAddedEP13QAbstractAxis@Base 6.2.1
 _ZN12ChartDataSetC1EP6QChart@Base 6.2.1
 _ZN12ChartDataSetC2EP6QChart@Base 6.2.1
 _ZN12ChartDataSetD0Ev@Base 6.2.1
 _ZN12ChartDataSetD1Ev@Base 6.2.1
 _ZN12ChartDataSetD2Ev@Base 6.2.1
 _ZN12ChartElement10setDataSetEP12ChartDataSet@Base 6.2.1
 _ZN12ChartElement12setPresenterEP14ChartPresenter@Base 6.2.1
 _ZN12ChartElement15setThemeManagerEP17ChartThemeManager@Base 6.2.1
 _ZN12ChartElementC1EP13QGraphicsItem@Base 6.2.1
 _ZN12ChartElementC2EP13QGraphicsItem@Base 6.2.1
 _ZN12LegendLayout10invalidateEv@Base 6.2.1
 _ZN12LegendLayout11setGeometryERK6QRectF@Base 6.2.1
 _ZN12LegendLayout15widthLongerThanEPKNS_17LegendWidthStructES2_@Base 6.2.1
 _ZN12LegendLayout19setAttachedGeometryERK6QRectF@Base 6.2.1
 _ZN12LegendLayout20setDettachedGeometryERK6QRectF@Base 6.2.1
 _ZN12LegendLayout9setOffsetEdd@Base 6.2.1
 _ZN12LegendLayoutC1EP7QLegend@Base 6.2.1
 _ZN12LegendLayoutC2EP7QLegend@Base 6.2.1
 _ZN12LegendLayoutD0Ev@Base 6.2.1
 _ZN12LegendLayoutD1Ev@Base 6.2.1
 _ZN12LegendLayoutD2Ev@Base 6.2.1
 _ZN12PieAnimation11qt_metacallEN11QMetaObject4CallEiPPv@Base 6.2.1
 _ZN12PieAnimation11qt_metacastEPKc@Base 6.2.1
 _ZN12PieAnimation11removeSliceEP12PieSliceItem@Base 6.2.1
 _ZN12PieAnimation11updateValueEP12PieSliceItemRK12PieSliceData@Base 6.2.1
 _ZN12PieAnimation16staticMetaObjectE@Base 6.2.1
 _ZN12PieAnimation18updateCurrentValueERK8QVariant@Base 6.2.1
 _ZN12PieAnimation8addSliceEP12PieSliceItemRK12PieSliceDatab@Base 6.2.1
 _ZN12PieAnimationC1EP12PieChartItemiR12QEasingCurve@Base 6.2.1
 _ZN12PieAnimationC2EP12PieChartItemiR12QEasingCurve@Base 6.2.1
 _ZN12PieAnimationD0Ev@Base 6.2.1
 _ZN12PieAnimationD1Ev@Base 6.2.1
 _ZN12PieAnimationD2Ev@Base 6.2.1
 _ZN12PieChartItem11qt_metacallEN11QMetaObject4CallEiPPv@Base 6.2.1
 _ZN12PieChartItem11qt_metacastEPKc@Base 6.2.1
 _ZN12PieChartItem12setAnimationEP12PieAnimation@Base 6.2.1
 _ZN12PieChartItem12updateLayoutEv@Base 6.2.1
 _ZN12PieChartItem15hoverEnterEventEP24QGraphicsSceneHoverEvent@Base 6.2.1
 _ZN12PieChartItem15hoverLeaveEventEP24QGraphicsSceneHoverEvent@Base 6.2.1
 _ZN12PieChartItem15mousePressEventEP24QGraphicsSceneMouseEvent@Base 6.2.1
 _ZN12PieChartItem16staticMetaObjectE@Base 6.2.1
 _ZN12PieChartItem17handleSlicesAddedERK5QListIP9QPieSliceE@Base 6.2.1
 _ZN12PieChartItem17mouseReleaseEventEP24QGraphicsSceneMouseEvent@Base 6.2.1
 _ZN12PieChartItem18handleSliceChangedEv@Base 6.2.1
 _ZN12PieChartItem19handleDomainUpdatedEv@Base 6.2.1
 _ZN12PieChartItem19handleSlicesRemovedERK5QListIP9QPieSliceE@Base 6.2.1
 _ZN12PieChartItem19updateSliceGeometryEP9QPieSlice@Base 6.2.1
 _ZN12PieChartItem20handleOpacityChangedEv@Base 6.2.1
 _ZN12PieChartItem21mouseDoubleClickEventEP24QGraphicsSceneMouseEvent@Base 6.2.1
 _ZN12PieChartItem26handleSeriesVisibleChangedEv@Base 6.2.1
 _ZN12PieChartItem7cleanupEv@Base 6.2.1
 _ZN12PieChartItemC1EP10QPieSeriesP13QGraphicsItem@Base 6.2.1
 _ZN12PieChartItemC2EP10QPieSeriesP13QGraphicsItem@Base 6.2.1
 _ZN12PieChartItemD0Ev@Base 6.2.1
 _ZN12PieChartItemD1Ev@Base 6.2.1
 _ZN12PieChartItemD2Ev@Base 6.2.1
 _ZN12PieSliceItem11qt_metacallEN11QMetaObject4CallEiPPv@Base 6.2.1
 _ZN12PieSliceItem11qt_metacastEPKc@Base 6.2.1
 _ZN12PieSliceItem11sliceCenterE7QPointFdP9QPieSlice@Base 6.2.1
 _ZN12PieSliceItem12labelArmPathE7QPointFdddPS0_@Base 6.2.1
 _ZN12PieSliceItem13doubleClickedE6QFlagsIN2Qt11MouseButtonEE@Base 6.2.1
 _ZN12PieSliceItem14updateGeometryEv@Base 6.2.1
 _ZN12PieSliceItem15hoverEnterEventEP24QGraphicsSceneHoverEvent@Base 6.2.1
 _ZN12PieSliceItem15hoverLeaveEventEP24QGraphicsSceneHoverEvent@Base 6.2.1
 _ZN12PieSliceItem15mousePressEventEP24QGraphicsSceneMouseEvent@Base 6.2.1
 _ZN12PieSliceItem16staticMetaObjectE@Base 6.2.1
 _ZN12PieSliceItem17mouseReleaseEventEP24QGraphicsSceneMouseEvent@Base 6.2.1
 _ZN12PieSliceItem21mouseDoubleClickEventEP24QGraphicsSceneMouseEvent@Base 6.2.1
 _ZN12PieSliceItem5paintEP8QPainterPK24QStyleOptionGraphicsItemP7QWidget@Base 6.2.1
 _ZN12PieSliceItem7clickedE6QFlagsIN2Qt11MouseButtonEE@Base 6.2.1
 _ZN12PieSliceItem7hoveredEb@Base 6.2.1
 _ZN12PieSliceItem7pressedE6QFlagsIN2Qt11MouseButtonEE@Base 6.2.1
 _ZN12PieSliceItem8releasedE6QFlagsIN2Qt11MouseButtonEE@Base 6.2.1
 _ZN12PieSliceItem9setLayoutERK12PieSliceData@Base 6.2.1
 _ZN12PieSliceItem9slicePathE7QPointFdddPdPS0_@Base 6.2.1
 _ZN12PieSliceItemC1EP13QGraphicsItem@Base 6.2.1
 _ZN12PieSliceItemC2EP13QGraphicsItem@Base 6.2.1
 _ZN12PieSliceItemD0Ev@Base 6.2.1
 _ZN12PieSliceItemD1Ev@Base 6.2.1
 _ZN12PieSliceItemD2Ev@Base 6.2.1
 _ZN12ScrollTicker10timerEventEP11QTimerEvent@Base 6.2.1
 _ZN12ScrollTicker11qt_metacallEN11QMetaObject4CallEiPPv@Base 6.2.1
 _ZN12ScrollTicker11qt_metacastEPKc@Base 6.2.1
 _ZN12ScrollTicker16staticMetaObjectE@Base 6.2.1
 _ZN12ScrollTicker4stopEv@Base 6.2.1
 _ZN12ScrollTicker5startEi@Base 6.2.1
 _ZN12ScrollTickerC1EP8ScrollerP7QObject@Base 6.2.1
 _ZN12ScrollTickerC2EP8ScrollerP7QObject@Base 6.2.1
 _ZN12VerticalAxis14updateGeometryEv@Base 6.2.1
 _ZN12VerticalAxis23updateMinorTickGeometryEv@Base 6.2.1
 _ZN12VerticalAxisC1EP13QAbstractAxisP13QGraphicsItemb@Base 6.2.1
 _ZN12VerticalAxisC2EP13QAbstractAxisP13QGraphicsItemb@Base 6.2.1
 _ZN12VerticalAxisD0Ev@Base 6.2.1
 _ZN12VerticalAxisD1Ev@Base 6.2.1
 _ZN12VerticalAxisD2Ev@Base 6.2.1
 _ZN13AreaChartItem10updatePathEv@Base 6.2.1
 _ZN13AreaChartItem11qt_metacallEN11QMetaObject4CallEiPPv@Base 6.2.1
 _ZN13AreaChartItem11qt_metacastEPKc@Base 6.2.1
 _ZN13AreaChartItem12setPresenterEP14ChartPresenter@Base 6.2.1
 _ZN13AreaChartItem13doubleClickedERK7QPointF@Base 6.2.1
 _ZN13AreaChartItem13handleUpdatedEv@Base 6.2.1
 _ZN13AreaChartItem14setLowerSeriesEP11QLineSeries@Base 6.2.1
 _ZN13AreaChartItem14setUpperSeriesEP11QLineSeries@Base 6.2.1
 _ZN13AreaChartItem15hoverEnterEventEP24QGraphicsSceneHoverEvent@Base 6.2.1
 _ZN13AreaChartItem15hoverLeaveEventEP24QGraphicsSceneHoverEvent@Base 6.2.1
 _ZN13AreaChartItem15mousePressEventEP24QGraphicsSceneMouseEvent@Base 6.2.1
 _ZN13AreaChartItem16staticMetaObjectE@Base 6.2.1
 _ZN13AreaChartItem17mouseReleaseEventEP24QGraphicsSceneMouseEvent@Base 6.2.1
 _ZN13AreaChartItem19fixEdgeSeriesDomainEP13LineChartItem@Base 6.2.1
 _ZN13AreaChartItem19handleDomainUpdatedEv@Base 6.2.1
 _ZN13AreaChartItem21mouseDoubleClickEventEP24QGraphicsSceneMouseEvent@Base 6.2.1
 _ZN13AreaChartItem5paintEP8QPainterPK24QStyleOptionGraphicsItemP7QWidget@Base 6.2.1
 _ZN13AreaChartItem7clickedERK7QPointF@Base 6.2.1
 _ZN13AreaChartItem7hoveredERK7QPointFb@Base 6.2.1
 _ZN13AreaChartItem7pressedERK7QPointF@Base 6.2.1
 _ZN13AreaChartItem8releasedERK7QPointF@Base 6.2.1
 _ZN13AreaChartItemC1EP11QAreaSeriesP13QGraphicsItem@Base 6.2.1
 _ZN13AreaChartItemC2EP11QAreaSeriesP13QGraphicsItem@Base 6.2.1
 _ZN13AreaChartItemD0Ev@Base 6.2.1
 _ZN13AreaChartItemD1Ev@Base 6.2.1
 _ZN13AreaChartItemD2Ev@Base 6.2.1
 _ZN13AxisAnimation16setAnimationTypeENS_9AnimationE@Base 6.2.1
 _ZN13AxisAnimation17setAnimationPointERK7QPointF@Base 6.2.1
 _ZN13AxisAnimation18updateCurrentValueERK8QVariant@Base 6.2.1
 _ZN13AxisAnimation9setValuesER5QListIdERKS1_@Base 6.2.1
 _ZN13AxisAnimationC1EP16ChartAxisElementiR12QEasingCurve@Base 6.2.1
 _ZN13AxisAnimationC2EP16ChartAxisElementiR12QEasingCurve@Base 6.2.1
 _ZN13AxisAnimationD0Ev@Base 6.2.1
 _ZN13AxisAnimationD1Ev@Base 6.2.1
 _ZN13AxisAnimationD2Ev@Base 6.2.1
 _ZN13LineChartItem11qt_metacallEN11QMetaObject4CallEiPPv@Base 6.2.1
 _ZN13LineChartItem11qt_metacastEPKc@Base 6.2.1
 _ZN13LineChartItem14updateGeometryEv@Base 6.2.1
 _ZN13LineChartItem15hoverEnterEventEP24QGraphicsSceneHoverEvent@Base 6.2.1
 _ZN13LineChartItem15hoverLeaveEventEP24QGraphicsSceneHoverEvent@Base 6.2.1
 _ZN13LineChartItem15mousePressEventEP24QGraphicsSceneMouseEvent@Base 6.2.1
 _ZN13LineChartItem16staticMetaObjectE@Base 6.2.1
 _ZN13LineChartItem17mouseReleaseEventEP24QGraphicsSceneMouseEvent@Base 6.2.1
 _ZN13LineChartItem19handleSeriesUpdatedEv@Base 6.2.1
 _ZN13LineChartItem21mouseDoubleClickEventEP24QGraphicsSceneMouseEvent@Base 6.2.1
 _ZN13LineChartItem5paintEP8QPainterPK24QStyleOptionGraphicsItemP7QWidget@Base 6.2.1
 _ZN13LineChartItemC1EP11QLineSeriesP13QGraphicsItem@Base 6.2.1
 _ZN13LineChartItemC2EP11QLineSeriesP13QGraphicsItem@Base 6.2.1
 _ZN13QAbstractAxis10setLinePenERK4QPen@Base 6.2.1
 _ZN13QAbstractAxis10setReverseEb@Base 6.2.1
 _ZN13QAbstractAxis10setVisibleEb@Base 6.2.1
 _ZN13QAbstractAxis11qt_metacallEN11QMetaObject4CallEiPPv@Base 6.2.1
 _ZN13QAbstractAxis11qt_metacastEPKc@Base 6.2.1
 _ZN13QAbstractAxis12colorChangedE6QColor@Base 6.2.1
 _ZN13QAbstractAxis12setShadesPenERK4QPen@Base 6.2.1
 _ZN13QAbstractAxis12setTitleFontERK5QFont@Base 6.2.1
 _ZN13QAbstractAxis12setTitleTextERK7QString@Base 6.2.1
 _ZN13QAbstractAxis13gridLineColorEv@Base 6.2.1
 _ZN13QAbstractAxis13setLabelsFontERK5QFont@Base 6.2.1
 _ZN13QAbstractAxis13setTitleBrushERK6QBrush@Base 6.2.1
 _ZN13QAbstractAxis14linePenChangedERK4QPen@Base 6.2.1
 _ZN13QAbstractAxis14reverseChangedEb@Base 6.2.1
 _ZN13QAbstractAxis14setGridLinePenERK4QPen@Base 6.2.1
 _ZN13QAbstractAxis14setLabelsAngleEi@Base 6.2.1
 _ZN13QAbstractAxis14setLabelsBrushERK6QBrush@Base 6.2.1
 _ZN13QAbstractAxis14setLabelsColorE6QColor@Base 6.2.1
 _ZN13QAbstractAxis14setLineVisibleEb@Base 6.2.1
 _ZN13QAbstractAxis14setShadesBrushERK6QBrush@Base 6.2.1
 _ZN13QAbstractAxis14setShadesColorE6QColor@Base 6.2.1
 _ZN13QAbstractAxis14visibleChangedEb@Base 6.2.1
 _ZN13QAbstractAxis15setLinePenColorE6QColor@Base 6.2.1
 _ZN13QAbstractAxis15setTitleVisibleEb@Base 6.2.1
 _ZN13QAbstractAxis16setGridLineColorERK6QColor@Base 6.2.1
 _ZN13QAbstractAxis16setLabelsVisibleEb@Base 6.2.1
 _ZN13QAbstractAxis16setShadesVisibleEb@Base 6.2.1
 _ZN13QAbstractAxis16shadesPenChangedERK4QPen@Base 6.2.1
 _ZN13QAbstractAxis16staticMetaObjectE@Base 6.2.1
 _ZN13QAbstractAxis16titleFontChangedERK5QFont@Base 6.2.1
 _ZN13QAbstractAxis16titleTextChangedERK7QString@Base 6.2.1
 _ZN13QAbstractAxis17labelsFontChangedERK5QFont@Base 6.2.1
 _ZN13QAbstractAxis17setLabelsEditableEb@Base 6.2.1
 _ZN13QAbstractAxis17setTruncateLabelsEb@Base 6.2.1
 _ZN13QAbstractAxis17titleBrushChangedERK6QBrush@Base 6.2.1
 _ZN13QAbstractAxis18gridLinePenChangedERK4QPen@Base 6.2.1
 _ZN13QAbstractAxis18gridVisibleChangedEb@Base 6.2.1
 _ZN13QAbstractAxis18labelsAngleChangedEi@Base 6.2.1
 _ZN13QAbstractAxis18labelsBrushChangedERK6QBrush@Base 6.2.1
 _ZN13QAbstractAxis18labelsColorChangedE6QColor@Base 6.2.1
 _ZN13QAbstractAxis18lineVisibleChangedEb@Base 6.2.1
 _ZN13QAbstractAxis18minorGridLineColorEv@Base 6.2.1
 _ZN13QAbstractAxis18setGridLineVisibleEb@Base 6.2.1
 _ZN13QAbstractAxis18shadesBrushChangedERK6QBrush@Base 6.2.1
 _ZN13QAbstractAxis18shadesColorChangedE6QColor@Base 6.2.1
 _ZN13QAbstractAxis19setMinorGridLinePenERK4QPen@Base 6.2.1
 _ZN13QAbstractAxis19titleVisibleChangedEb@Base 6.2.1
 _ZN13QAbstractAxis20gridLineColorChangedERK6QColor@Base 6.2.1
 _ZN13QAbstractAxis20labelsVisibleChangedEb@Base 6.2.1
 _ZN13QAbstractAxis20setShadesBorderColorE6QColor@Base 6.2.1
 _ZN13QAbstractAxis20shadesVisibleChangedEb@Base 6.2.1
 _ZN13QAbstractAxis21labelsEditableChangedEb@Base 6.2.1
 _ZN13QAbstractAxis21setMinorGridLineColorERK6QColor@Base 6.2.1
 _ZN13QAbstractAxis21truncateLabelsChangedEb@Base 6.2.1
 _ZN13QAbstractAxis22labelsTruncatedChangedEb@Base 6.2.1
 _ZN13QAbstractAxis23minorGridLinePenChangedERK4QPen@Base 6.2.1
 _ZN13QAbstractAxis23minorGridVisibleChangedEb@Base 6.2.1
 _ZN13QAbstractAxis23setMinorGridLineVisibleEb@Base 6.2.1
 _ZN13QAbstractAxis24shadesBorderColorChangedE6QColor@Base 6.2.1
 _ZN13QAbstractAxis25minorGridLineColorChangedERK6QColor@Base 6.2.1
 _ZN13QAbstractAxis4hideEv@Base 6.2.1
 _ZN13QAbstractAxis4showEv@Base 6.2.1
 _ZN13QAbstractAxis6setMaxERK8QVariant@Base 6.2.1
 _ZN13QAbstractAxis6setMinERK8QVariant@Base 6.2.1
 _ZN13QAbstractAxis8setRangeERK8QVariantS2_@Base 6.2.1
 _ZN13QAbstractAxisC1ER20QAbstractAxisPrivateP7QObject@Base 6.2.1
 _ZN13QAbstractAxisC2ER20QAbstractAxisPrivateP7QObject@Base 6.2.1
 _ZN13QAbstractAxisD0Ev@Base 6.2.1
 _ZN13QAbstractAxisD1Ev@Base 6.2.1
 _ZN13QAbstractAxisD2Ev@Base 6.2.1
 _ZN13QCategoryAxis11qt_metacallEN11QMetaObject4CallEiPPv@Base 6.2.1
 _ZN13QCategoryAxis11qt_metacastEPKc@Base 6.2.1
 _ZN13QCategoryAxis12replaceLabelERK7QStringS2_@Base 6.2.1
 _ZN13QCategoryAxis13setStartValueEd@Base 6.2.1
 _ZN13QCategoryAxis16categoriesLabelsEv@Base 6.2.1
 _ZN13QCategoryAxis16staticMetaObjectE@Base 6.2.1
 _ZN13QCategoryAxis17categoriesChangedEv@Base 6.2.1
 _ZN13QCategoryAxis17setLabelsPositionENS_18AxisLabelsPositionE@Base 6.2.1
 _ZN13QCategoryAxis21labelsPositionChangedENS_18AxisLabelsPositionE@Base 6.2.1
 _ZN13QCategoryAxis6appendERK7QStringd@Base 6.2.1
 _ZN13QCategoryAxis6removeERK7QString@Base 6.2.1
 _ZN13QCategoryAxisC1EP7QObject@Base 6.2.1
 _ZN13QCategoryAxisC1ER20QCategoryAxisPrivateP7QObject@Base 6.2.1
 _ZN13QCategoryAxisC2EP7QObject@Base 6.2.1
 _ZN13QCategoryAxisC2ER20QCategoryAxisPrivateP7QObject@Base 6.2.1
 _ZN13QCategoryAxisD0Ev@Base 6.2.1
 _ZN13QCategoryAxisD1Ev@Base 6.2.1
 _ZN13QCategoryAxisD2Ev@Base 6.2.1
 _ZN13QChartPrivate10defaultPenEv@Base 6.2.1
 _ZN13QChartPrivate11defaultFontEv@Base 6.2.1
 _ZN13QChartPrivate12defaultBrushEv@Base 6.2.1
 _ZN13QChartPrivate4initEv@Base 6.2.1
 _ZN13QChartPrivate6scrollEdd@Base 6.2.1
 _ZN13QChartPrivate6zoomInERK6QRectF@Base 6.2.1
 _ZN13QChartPrivate6zoomInEd@Base 6.2.1
 _ZN13QChartPrivate7zoomOutEd@Base 6.2.1
 _ZN13QChartPrivate8isZoomedEv@Base 6.2.1
 _ZN13QChartPrivate9zoomResetEv@Base 6.2.1
 _ZN13QChartPrivateC1EP6QChartNS0_9ChartTypeE@Base 6.2.1
 _ZN13QChartPrivateC2EP6QChartNS0_9ChartTypeE@Base 6.2.1
 _ZN13QChartPrivateD1Ev@Base 6.2.1
 _ZN13QChartPrivateD2Ev@Base 6.2.1
 _ZN13QDateTimeAxis10maxChangedE9QDateTime@Base 6.2.1
 _ZN13QDateTimeAxis10minChangedE9QDateTime@Base 6.2.1
 _ZN13QDateTimeAxis11qt_metacallEN11QMetaObject4CallEiPPv@Base 6.2.1
 _ZN13QDateTimeAxis11qt_metacastEPKc@Base 6.2.1
 _ZN13QDateTimeAxis12rangeChangedE9QDateTimeS0_@Base 6.2.1
 _ZN13QDateTimeAxis12setTickCountEi@Base 6.2.1
 _ZN13QDateTimeAxis13formatChangedE7QString@Base 6.2.1
 _ZN13QDateTimeAxis16staticMetaObjectE@Base 6.2.1
 _ZN13QDateTimeAxis16tickCountChangedEi@Base 6.2.1
 _ZN13QDateTimeAxis6setMaxE9QDateTime@Base 6.2.1
 _ZN13QDateTimeAxis6setMinE9QDateTime@Base 6.2.1
 _ZN13QDateTimeAxis8setRangeE9QDateTimeS0_@Base 6.2.1
 _ZN13QDateTimeAxis9setFormatE7QString@Base 6.2.1
 _ZN13QDateTimeAxisC1EP7QObject@Base 6.2.1
 _ZN13QDateTimeAxisC1ER20QDateTimeAxisPrivateP7QObject@Base 6.2.1
 _ZN13QDateTimeAxisC2EP7QObject@Base 6.2.1
 _ZN13QDateTimeAxisC2ER20QDateTimeAxisPrivateP7QObject@Base 6.2.1
 _ZN13QDateTimeAxisD0Ev@Base 6.2.1
 _ZN13QDateTimeAxisD1Ev@Base 6.2.1
 _ZN13QDateTimeAxisD2Ev@Base 6.2.1
 _ZN13QLegendMarker10penChangedEv@Base 6.2.1
 _ZN13QLegendMarker10setVisibleEb@Base 6.2.1
 _ZN13QLegendMarker11fontChangedEv@Base 6.2.1
 _ZN13QLegendMarker11qt_metacallEN11QMetaObject4CallEiPPv@Base 6.2.1
 _ZN13QLegendMarker11qt_metacastEPKc@Base 6.2.1
 _ZN13QLegendMarker12brushChangedEv@Base 6.2.1
 _ZN13QLegendMarker12labelChangedEv@Base 6.2.1
 _ZN13QLegendMarker12shapeChangedEv@Base 6.2.1
 _ZN13QLegendMarker13setLabelBrushERK6QBrush@Base 6.2.1
 _ZN13QLegendMarker14visibleChangedEv@Base 6.2.1
 _ZN13QLegendMarker16staticMetaObjectE@Base 6.2.1
 _ZN13QLegendMarker17labelBrushChangedEv@Base 6.2.1
 _ZN13QLegendMarker6setPenERK4QPen@Base 6.2.1
 _ZN13QLegendMarker7clickedEv@Base 6.2.1
 _ZN13QLegendMarker7hoveredEb@Base 6.2.1
 _ZN13QLegendMarker7setFontERK5QFont@Base 6.2.1
 _ZN13QLegendMarker8setBrushERK6QBrush@Base 6.2.1
 _ZN13QLegendMarker8setLabelERK7QString@Base 6.2.1
 _ZN13QLegendMarker8setShapeEN7QLegend11MarkerShapeE@Base 6.2.1
 _ZN13QLegendMarkerC1ER20QLegendMarkerPrivateP7QObject@Base 6.2.1
 _ZN13QLegendMarkerC2ER20QLegendMarkerPrivateP7QObject@Base 6.2.1
 _ZN13QLegendMarkerD0Ev@Base 6.2.1
 _ZN13QLegendMarkerD1Ev@Base 6.2.1
 _ZN13QLegendMarkerD2Ev@Base 6.2.1
 _ZN13QLogValueAxis10maxChangedEd@Base 6.2.1
 _ZN13QLogValueAxis10minChangedEd@Base 6.2.1
 _ZN13QLogValueAxis11baseChangedEd@Base 6.2.1
 _ZN13QLogValueAxis11qt_metacallEN11QMetaObject4CallEiPPv@Base 6.2.1
 _ZN13QLogValueAxis11qt_metacastEPKc@Base 6.2.1
 _ZN13QLogValueAxis12rangeChangedEdd@Base 6.2.1
 _ZN13QLogValueAxis14setLabelFormatERK7QString@Base 6.2.1
 _ZN13QLogValueAxis16staticMetaObjectE@Base 6.2.1
 _ZN13QLogValueAxis16tickCountChangedEi@Base 6.2.1
 _ZN13QLogValueAxis17setMinorTickCountEi@Base 6.2.1
 _ZN13QLogValueAxis18labelFormatChangedERK7QString@Base 6.2.1
 _ZN13QLogValueAxis21minorTickCountChangedEi@Base 6.2.1
 _ZN13QLogValueAxis6setMaxEd@Base 6.2.1
 _ZN13QLogValueAxis6setMinEd@Base 6.2.1
 _ZN13QLogValueAxis7setBaseEd@Base 6.2.1
 _ZN13QLogValueAxis8setRangeEdd@Base 6.2.1
 _ZN13QLogValueAxisC1EP7QObject@Base 6.2.1
 _ZN13QLogValueAxisC1ER20QLogValueAxisPrivateP7QObject@Base 6.2.1
 _ZN13QLogValueAxisC2EP7QObject@Base 6.2.1
 _ZN13QLogValueAxisC2ER20QLogValueAxisPrivateP7QObject@Base 6.2.1
 _ZN13QLogValueAxisD0Ev@Base 6.2.1
 _ZN13QLogValueAxisD1Ev@Base 6.2.1
 _ZN13QLogValueAxisD2Ev@Base 6.2.1
 _ZN13QMetaSequence12MetaSequenceI5QListI6QRectFEE5valueE@Base 6.2.1
 _ZN13QMetaSequence12MetaSequenceI5QListI7QPointFEE5valueE@Base 6.2.1
 _ZN13QMetaSequence12MetaSequenceI5QListIP15QCandlestickSetEE5valueE@Base 6.2.1
 _ZN13QMetaSequence12MetaSequenceI5QListIP7QBarSetEE5valueE@Base 6.2.1
 _ZN13QMetaSequence12MetaSequenceI5QListIP7QBoxSetEE5valueE@Base 6.2.1
 _ZN13QMetaSequence12MetaSequenceI5QListIP9QPieSliceEE5valueE@Base 6.2.1
 _ZN13QMetaSequence12MetaSequenceI5QListIdEE5valueE@Base 6.2.1
 _ZN13QMetaSequence12MetaSequenceI5QListIiEE5valueE@Base 6.2.1
 _ZN13QSplineSeries11qt_metacallEN11QMetaObject4CallEiPPv@Base 6.2.1
 _ZN13QSplineSeries11qt_metacastEPKc@Base 6.2.1
 _ZN13QSplineSeries16staticMetaObjectE@Base 6.2.1
 _ZN13QSplineSeriesC1EP7QObject@Base 6.2.1
 _ZN13QSplineSeriesC2EP7QObject@Base 6.2.1
 _ZN13QSplineSeriesD0Ev@Base 6.2.1
 _ZN13QSplineSeriesD1Ev@Base 6.2.1
 _ZN13QSplineSeriesD2Ev@Base 6.2.1
 _ZN13XYPolarDomain11qt_metacallEN11QMetaObject4CallEiPPv@Base 6.2.1
 _ZN13XYPolarDomain11qt_metacastEPKc@Base 6.2.1
 _ZN13XYPolarDomain16staticMetaObjectE@Base 6.2.1
 _ZN13XYPolarDomain4moveEdd@Base 6.2.1
 _ZN13XYPolarDomain6zoomInERK6QRectF@Base 6.2.1
 _ZN13XYPolarDomain7zoomOutERK6QRectF@Base 6.2.1
 _ZN13XYPolarDomain8setRangeEdddd@Base 6.2.1
 _ZN13XYPolarDomainC1EP7QObject@Base 6.2.1
 _ZN13XYPolarDomainC2EP7QObject@Base 6.2.1
 _ZN13XYPolarDomainD0Ev@Base 6.2.1
 _ZN13XYPolarDomainD1Ev@Base 6.2.1
 _ZN13XYPolarDomainD2Ev@Base 6.2.1
 _ZN14AbstractDomain10attachAxisEP13QAbstractAxis@Base 6.2.1
 _ZN14AbstractDomain10detachAxisEP13QAbstractAxis@Base 6.2.1
 _ZN14AbstractDomain10niceNumberEdb@Base 6.2.1
 _ZN14AbstractDomain11fixZoomRectERK6QRectF@Base 6.2.1
 _ZN14AbstractDomain11qt_metacallEN11QMetaObject4CallEiPPv@Base 6.2.1
 _ZN14AbstractDomain11qt_metacastEPKc@Base 6.2.1
 _ZN14AbstractDomain14storeZoomResetEv@Base 6.2.1
 _ZN14AbstractDomain16looseNiceNumbersERdS0_Ri@Base 6.2.1
 _ZN14AbstractDomain16staticMetaObjectE@Base 6.2.1
 _ZN14AbstractDomain17blockRangeSignalsEb@Base 6.2.1
 _ZN14AbstractDomain20rangeVerticalChangedEdd@Base 6.2.1
 _ZN14AbstractDomain21adjustLogDomainRangesERdS0_@Base 6.2.1
 _ZN14AbstractDomain21handleReverseXChangedEb@Base 6.2.1
 _ZN14AbstractDomain21handleReverseYChangedEb@Base 6.2.1
 _ZN14AbstractDomain22rangeHorizontalChangedEdd@Base 6.2.1
 _ZN14AbstractDomain30handleVerticalAxisRangeChangedEdd@Base 6.2.1
 _ZN14AbstractDomain32handleHorizontalAxisRangeChangedEdd@Base 6.2.1
 _ZN14AbstractDomain7setMaxXEd@Base 6.2.1
 _ZN14AbstractDomain7setMaxYEd@Base 6.2.1
 _ZN14AbstractDomain7setMinXEd@Base 6.2.1
 _ZN14AbstractDomain7setMinYEd@Base 6.2.1
 _ZN14AbstractDomain7setSizeERK6QSizeF@Base 6.2.1
 _ZN14AbstractDomain7updatedEv@Base 6.2.1
 _ZN14AbstractDomain9setRangeXEdd@Base 6.2.1
 _ZN14AbstractDomain9setRangeYEdd@Base 6.2.1
 _ZN14AbstractDomain9zoomResetEv@Base 6.2.1
 _ZN14AbstractDomainC1EP7QObject@Base 6.2.1
 _ZN14AbstractDomainC2EP7QObject@Base 6.2.1
 _ZN14AbstractDomainD0Ev@Base 6.2.1
 _ZN14AbstractDomainD1Ev@Base 6.2.1
 _ZN14AbstractDomainD2Ev@Base 6.2.1
 _ZN14ChartAnimation11qt_metacallEN11QMetaObject4CallEiPPv@Base 6.2.1
 _ZN14ChartAnimation11qt_metacastEPKc@Base 6.2.1
 _ZN14ChartAnimation16staticMetaObjectE@Base 6.2.1
 _ZN14ChartAnimation19startChartAnimationEv@Base 6.2.1
 _ZN14ChartAnimation19stopAndDestroyLaterEv@Base 6.2.1
 _ZN14ChartAnimationC1EP7QObject@Base 6.2.1
 _ZN14ChartAnimationC2EP7QObject@Base 6.2.1
 _ZN14ChartPresenter10setVisibleEb@Base 6.2.1
 _ZN14ChartPresenter11qt_metacallEN11QMetaObject4CallEiPPv@Base 6.2.1
 _ZN14ChartPresenter11qt_metacastEPKc@Base 6.2.1
 _ZN14ChartPresenter11setGeometryE6QRectF@Base 6.2.1
 _ZN14ChartPresenter12setTitleFontERK5QFont@Base 6.2.1
 _ZN14ChartPresenter12titleElementEv@Base 6.2.1
 _ZN14ChartPresenter13setTitleBrushERK6QBrush@Base 6.2.1
 _ZN14ChartPresenter13truncatedTextERK5QFontRK7QStringdddR6QRectF@Base 6.2.1
 _ZN14ChartPresenter14numberToStringEdci@Base 6.2.1
 _ZN14ChartPresenter14numberToStringEi@Base 6.2.1
 _ZN14ChartPresenter14startAnimationEP14ChartAnimation@Base 6.2.1
 _ZN14ChartPresenter14updateGLWidgetEv@Base 6.2.1
 _ZN14ChartPresenter14updateGeometryERK6QRectF@Base 6.2.1
 _ZN14ChartPresenter15createTitleItemEv@Base 6.2.1
 _ZN14ChartPresenter15handleAxisAddedEP13QAbstractAxis@Base 6.2.1
 _ZN14ChartPresenter15plotAreaChangedERK6QRectF@Base 6.2.1
 _ZN14ChartPresenter15plotAreaElementEv@Base 6.2.1
 _ZN14ChartPresenter16setBackgroundPenERK4QPen@Base 6.2.1
 _ZN14ChartPresenter16setFixedGeometryERK6QRectF@Base 6.2.1
 _ZN14ChartPresenter16staticMetaObjectE@Base 6.2.1
 _ZN14ChartPresenter16textBoundingRectERK5QFontRK7QStringd@Base 6.2.1
 _ZN14ChartPresenter17backgroundElementEv@Base 6.2.1
 _ZN14ChartPresenter17handleAxisRemovedEP13QAbstractAxis@Base 6.2.1
 _ZN14ChartPresenter17handleSeriesAddedEP15QAbstractSeries@Base 6.2.1
 _ZN14ChartPresenter18setBackgroundBrushERK6QBrush@Base 6.2.1
 _ZN14ChartPresenter18setLocalizeNumbersEb@Base 6.2.1
 _ZN14ChartPresenter19handleSeriesRemovedEP15QAbstractSeries@Base 6.2.1
 _ZN14ChartPresenter19setAnimationOptionsE6QFlagsIN6QChart15AnimationOptionEE@Base 6.2.1
 _ZN14ChartPresenter20createBackgroundItemEv@Base 6.2.1
 _ZN14ChartPresenter20setAnimationDurationEi@Base 6.2.1
 _ZN14ChartPresenter20setBackgroundVisibleEb@Base 6.2.1
 _ZN14ChartPresenter22setBackgroundRoundnessEd@Base 6.2.1
 _ZN14ChartPresenter23setAnimationEasingCurveERK12QEasingCurve@Base 6.2.1
 _ZN14ChartPresenter24setPlotAreaBackgroundPenERK4QPen@Base 6.2.1
 _ZN14ChartPresenter26setPlotAreaBackgroundBrushERK6QBrush@Base 6.2.1
 _ZN14ChartPresenter28createPlotAreaBackgroundItemEv@Base 6.2.1
 _ZN14ChartPresenter28setPlotAreaBackgroundVisibleEb@Base 6.2.1
 _ZN14ChartPresenter30setBackgroundDropShadowEnabledEb@Base 6.2.1
 _ZN14ChartPresenter6layoutEv@Base 6.2.1
 _ZN14ChartPresenter6legendEv@Base 6.2.1
 _ZN14ChartPresenter8setStateENS_5StateE7QPointF@Base 6.2.1
 _ZN14ChartPresenter8setTitleERK7QString@Base 6.2.1
 _ZN14ChartPresenter9setLocaleERK7QLocale@Base 6.2.1
 _ZN14ChartPresenterC1EP6QChartNS0_9ChartTypeE@Base 6.2.1
 _ZN14ChartPresenterC2EP6QChartNS0_9ChartTypeE@Base 6.2.1
 _ZN14ChartPresenterD0Ev@Base 6.2.1
 _ZN14ChartPresenterD1Ev@Base 6.2.1
 _ZN14ChartPresenterD2Ev@Base 6.2.1
 _ZN14HorizontalAxis14updateGeometryEv@Base 6.2.1
 _ZN14HorizontalAxis23updateMinorTickGeometryEv@Base 6.2.1
 _ZN14HorizontalAxisC1EP13QAbstractAxisP13QGraphicsItemb@Base 6.2.1
 _ZN14HorizontalAxisC2EP13QAbstractAxisP13QGraphicsItemb@Base 6.2.1
 _ZN14HorizontalAxisD0Ev@Base 6.2.1
 _ZN14HorizontalAxisD1Ev@Base 6.2.1
 _ZN14HorizontalAxisD2Ev@Base 6.2.1
 _ZN14LegendScroller11qt_metacallEN11QMetaObject4CallEiPPv@Base 6.2.1
 _ZN14LegendScroller11qt_metacastEPKc@Base 6.2.1
 _ZN14LegendScroller14handleDetachedEb@Base 6.2.1
 _ZN14LegendScroller14hoverMoveEventEP24QGraphicsSceneHoverEvent@Base 6.2.1
 _ZN14LegendScroller14mouseMoveEventEP24QGraphicsSceneMouseEvent@Base 6.2.1
 _ZN14LegendScroller15hoverEnterEventEP24QGraphicsSceneHoverEvent@Base 6.2.1
 _ZN14LegendScroller15hoverLeaveEventEP24QGraphicsSceneHoverEvent@Base 6.2.1
 _ZN14LegendScroller15mousePressEventEP24QGraphicsSceneMouseEvent@Base 6.2.1
 _ZN14LegendScroller16staticMetaObjectE@Base 6.2.1
 _ZN14LegendScroller17mouseReleaseEventEP24QGraphicsSceneMouseEvent@Base 6.2.1
 _ZN14LegendScroller21mouseDoubleClickEventEP24QGraphicsSceneMouseEvent@Base 6.2.1
 _ZN14LegendScroller22updateForResizerChangeEv@Base 6.2.1
 _ZN14LegendScroller24handleInteractiveChangedEb@Base 6.2.1
 _ZN14LegendScroller5paintEP8QPainterPK24QStyleOptionGraphicsItemP7QWidget@Base 6.2.1
 _ZN14LegendScroller9setOffsetERK7QPointF@Base 6.2.1
 _ZN14LegendScrollerC1EP6QChart@Base 6.2.1
 _ZN14LegendScrollerC2EP6QChart@Base 6.2.1
 _ZN14LogXLogYDomain10attachAxisEP13QAbstractAxis@Base 6.2.1
 _ZN14LogXLogYDomain10detachAxisEP13QAbstractAxis@Base 6.2.1
 _ZN14LogXLogYDomain11qt_metacallEN11QMetaObject4CallEiPPv@Base 6.2.1
 _ZN14LogXLogYDomain11qt_metacastEPKc@Base 6.2.1
 _ZN14LogXLogYDomain16staticMetaObjectE@Base 6.2.1
 _ZN14LogXLogYDomain29handleVerticalAxisBaseChangedEd@Base 6.2.1
 _ZN14LogXLogYDomain31handleHorizontalAxisBaseChangedEd@Base 6.2.1
 _ZN14LogXLogYDomain4moveEdd@Base 6.2.1
 _ZN14LogXLogYDomain6zoomInERK6QRectF@Base 6.2.1
 _ZN14LogXLogYDomain7zoomOutERK6QRectF@Base 6.2.1
 _ZN14LogXLogYDomain8setRangeEdddd@Base 6.2.1
 _ZN14LogXLogYDomainC1EP7QObject@Base 6.2.1
 _ZN14LogXLogYDomainC2EP7QObject@Base 6.2.1
 _ZN14LogXLogYDomainD0Ev@Base 6.2.1
 _ZN14LogXLogYDomainD1Ev@Base 6.2.1
 _ZN14LogXLogYDomainD2Ev@Base 6.2.1
 _ZN14PentagonMarker7polygonEdddd@Base 6.2.1
 _ZN14PentagonMarkerC1EddddP16ScatterChartItem@Base 6.2.1
 _ZN14PentagonMarkerC2EddddP16ScatterChartItem@Base 6.2.1
 _ZN14PolarChartAxis11deleteItemsEi@Base 6.2.1
 _ZN14PolarChartAxis11qt_metacallEN11QMetaObject4CallEiPPv@Base 6.2.1
 _ZN14PolarChartAxis11qt_metacastEPKc@Base 6.2.1
 _ZN14PolarChartAxis11setGeometryERK6QRectFS2_@Base 6.2.1
 _ZN14PolarChartAxis12updateLayoutERK5QListIdE@Base 6.2.1
 _ZN14PolarChartAxis16staticMetaObjectE@Base 6.2.1
 _ZN14PolarChartAxis22handleShadesPenChangedERK4QPen@Base 6.2.1
 _ZN14PolarChartAxis24handleShadesBrushChangedERK6QBrush@Base 6.2.1
 _ZN14PolarChartAxisC1EP13QAbstractAxisP13QGraphicsItemb@Base 6.2.1
 _ZN14PolarChartAxisC2EP13QAbstractAxisP13QGraphicsItemb@Base 6.2.1
 _ZN14PolarChartAxisD0Ev@Base 6.2.1
 _ZN14PolarChartAxisD1Ev@Base 6.2.1
 _ZN14PolarChartAxisD2Ev@Base 6.2.1
 _ZN14QBarSetPrivate10valueAddedEii@Base 6.2.1
 _ZN14QBarSetPrivate11qt_metacallEN11QMetaObject4CallEiPPv@Base 6.2.1
 _ZN14QBarSetPrivate11qt_metacastEPKc@Base 6.2.1
 _ZN14QBarSetPrivate11updatedBarsEv@Base 6.2.1
 _ZN14QBarSetPrivate12valueChangedEi@Base 6.2.1
 _ZN14QBarSetPrivate12valueRemovedEii@Base 6.2.1
 _ZN14QBarSetPrivate14setBarSelectedEibRb@Base 6.2.1
 _ZN14QBarSetPrivate16staticMetaObjectE@Base 6.2.1
 _ZN14QBarSetPrivate3posEi@Base 6.2.1
 _ZN14QBarSetPrivate5valueEi@Base 6.2.1
 _ZN14QBarSetPrivate6appendE7QPointF@Base 6.2.1
 _ZN14QBarSetPrivate6appendERK5QListI7QPointFE@Base 6.2.1
 _ZN14QBarSetPrivate6appendERK5QListIdE@Base 6.2.1
 _ZN14QBarSetPrivate6insertEi7QPointF@Base 6.2.1
 _ZN14QBarSetPrivate6insertEid@Base 6.2.1
 _ZN14QBarSetPrivate6removeEii@Base 6.2.1
 _ZN14QBarSetPrivate7replaceEid@Base 6.2.1
 _ZN14QBarSetPrivateC1E7QStringP7QBarSet@Base 6.2.1
 _ZN14QBarSetPrivateC2E7QStringP7QBarSet@Base 6.2.1
 _ZN14QBarSetPrivateD0Ev@Base 6.2.1
 _ZN14QBarSetPrivateD1Ev@Base 6.2.1
 _ZN14QBarSetPrivateD2Ev@Base 6.2.1
 _ZN14QBoxPlotSeries10penChangedEv@Base 6.2.1
 _ZN14QBoxPlotSeries11qt_metacallEN11QMetaObject4CallEiPPv@Base 6.2.1
 _ZN14QBoxPlotSeries11qt_metacastEPKc@Base 6.2.1
 _ZN14QBoxPlotSeries11setBoxWidthEd@Base 6.2.1
 _ZN14QBoxPlotSeries12boxsetsAddedERK5QListIP7QBoxSetE@Base 6.2.1
 _ZN14QBoxPlotSeries12brushChangedEv@Base 6.2.1
 _ZN14QBoxPlotSeries12countChangedEv@Base 6.2.1
 _ZN14QBoxPlotSeries13doubleClickedEP7QBoxSet@Base 6.2.1
 _ZN14QBoxPlotSeries14boxsetsRemovedERK5QListIP7QBoxSetE@Base 6.2.1
 _ZN14QBoxPlotSeries15boxWidthChangedEv@Base 6.2.1
 _ZN14QBoxPlotSeries16staticMetaObjectE@Base 6.2.1
 _ZN14QBoxPlotSeries17boxOutlineVisibleEv@Base 6.2.1
 _ZN14QBoxPlotSeries20setBoxOutlineVisibleEb@Base 6.2.1
 _ZN14QBoxPlotSeries27boxOutlineVisibilityChangedEv@Base 6.2.1
 _ZN14QBoxPlotSeries4takeEP7QBoxSet@Base 6.2.1
 _ZN14QBoxPlotSeries5clearEv@Base 6.2.1
 _ZN14QBoxPlotSeries6appendEP7QBoxSet@Base 6.2.1
 _ZN14QBoxPlotSeries6appendERK5QListIP7QBoxSetE@Base 6.2.1
 _ZN14QBoxPlotSeries6insertEiP7QBoxSet@Base 6.2.1
 _ZN14QBoxPlotSeries6removeEP7QBoxSet@Base 6.2.1
 _ZN14QBoxPlotSeries6setPenERK4QPen@Base 6.2.1
 _ZN14QBoxPlotSeries7clickedEP7QBoxSet@Base 6.2.1
 _ZN14QBoxPlotSeries7hoveredEbP7QBoxSet@Base 6.2.1
 _ZN14QBoxPlotSeries7pressedEP7QBoxSet@Base 6.2.1
 _ZN14QBoxPlotSeries8boxWidthEv@Base 6.2.1
 _ZN14QBoxPlotSeries8releasedEP7QBoxSet@Base 6.2.1
 _ZN14QBoxPlotSeries8setBrushERK6QBrush@Base 6.2.1
 _ZN14QBoxPlotSeriesC1EP7QObject@Base 6.2.1
 _ZN14QBoxPlotSeriesC2EP7QObject@Base 6.2.1
 _ZN14QBoxPlotSeriesD0Ev@Base 6.2.1
 _ZN14QBoxPlotSeriesD1Ev@Base 6.2.1
 _ZN14QBoxPlotSeriesD2Ev@Base 6.2.1
 _ZN14QBoxSetPrivate10updatedBoxEv@Base 6.2.1
 _ZN14QBoxSetPrivate11qt_metacallEN11QMetaObject4CallEiPPv@Base 6.2.1
 _ZN14QBoxSetPrivate11qt_metacastEPKc@Base 6.2.1
 _ZN14QBoxSetPrivate13updatedLayoutEv@Base 6.2.1
 _ZN14QBoxSetPrivate15restructuredBoxEv@Base 6.2.1
 _ZN14QBoxSetPrivate16staticMetaObjectE@Base 6.2.1
 _ZN14QBoxSetPrivate5clearEv@Base 6.2.1
 _ZN14QBoxSetPrivate5valueEi@Base 6.2.1
 _ZN14QBoxSetPrivate6appendERK5QListIdE@Base 6.2.1
 _ZN14QBoxSetPrivate6appendEd@Base 6.2.1
 _ZN14QBoxSetPrivate8setValueEid@Base 6.2.1
 _ZN14QBoxSetPrivateC1E7QStringP7QBoxSet@Base 6.2.1
 _ZN14QBoxSetPrivateC2E7QStringP7QBoxSet@Base 6.2.1
 _ZN14QBoxSetPrivateD0Ev@Base 6.2.1
 _ZN14QBoxSetPrivateD1Ev@Base 6.2.1
 _ZN14QBoxSetPrivateD2Ev@Base 6.2.1
 _ZN14QLegendPrivate10addMarkersERK5QListIP13QLegendMarkerE@Base 6.2.1
 _ZN14QLegendPrivate11qt_metacallEN11QMetaObject4CallEiPPv@Base 6.2.1
 _ZN14QLegendPrivate11qt_metacastEPKc@Base 6.2.1
 _ZN14QLegendPrivate13relatedObjectEPK13QLegendMarker@Base 6.2.1
 _ZN14QLegendPrivate13removeMarkersERK5QListIP13QLegendMarkerE@Base 6.2.1
 _ZN14QLegendPrivate14decorateMarkerEP13QLegendMarker@Base 6.2.1
 _ZN14QLegendPrivate14updateToolTipsEv@Base 6.2.1
 _ZN14QLegendPrivate15decorateMarkersERK5QListIP13QLegendMarkerE@Base 6.2.1
 _ZN14QLegendPrivate16staticMetaObjectE@Base 6.2.1
 _ZN14QLegendPrivate17handleSeriesAddedEP15QAbstractSeries@Base 6.2.1
 _ZN14QLegendPrivate18handleCountChangedEv@Base 6.2.1
 _ZN14QLegendPrivate18insertMarkerHelperEP13QLegendMarker@Base 6.2.1
 _ZN14QLegendPrivate18removeMarkerHelperEP13QLegendMarker@Base 6.2.1
 _ZN14QLegendPrivate19handleSeriesRemovedEP15QAbstractSeries@Base 6.2.1
 _ZN14QLegendPrivate26handleSeriesVisibleChangedEv@Base 6.2.1
 _ZN14QLegendPrivate7markersEP15QAbstractSeries@Base 6.2.1
 _ZN14QLegendPrivate9roundnessEd@Base 6.2.1
 _ZN14QLegendPrivate9setOffsetERK7QPointF@Base 6.2.1
 _ZN14QLegendPrivateC1EP14ChartPresenterP6QChartP7QLegend@Base 6.2.1
 _ZN14QLegendPrivateC2EP14ChartPresenterP6QChartP7QLegend@Base 6.2.1
 _ZN14QLegendPrivateD0Ev@Base 6.2.1
 _ZN14QLegendPrivateD1Ev@Base 6.2.1
 _ZN14QLegendPrivateD2Ev@Base 6.2.1
 _ZN14QScatterSeries11qt_metacallEN11QMetaObject4CallEiPPv@Base 6.2.1
 _ZN14QScatterSeries11qt_metacastEPKc@Base 6.2.1
 _ZN14QScatterSeries12colorChangedE6QColor@Base 6.2.1
 _ZN14QScatterSeries13setMarkerSizeEd@Base 6.2.1
 _ZN14QScatterSeries14setBorderColorERK6QColor@Base 6.2.1
 _ZN14QScatterSeries14setMarkerShapeENS_11MarkerShapeE@Base 6.2.1
 _ZN14QScatterSeries16staticMetaObjectE@Base 6.2.1
 _ZN14QScatterSeries17markerSizeChangedEd@Base 6.2.1
 _ZN14QScatterSeries18borderColorChangedE6QColor@Base 6.2.1
 _ZN14QScatterSeries18markerShapeChangedENS_11MarkerShapeE@Base 6.2.1
 _ZN14QScatterSeries6setPenERK4QPen@Base 6.2.1
 _ZN14QScatterSeries8setBrushERK6QBrush@Base 6.2.1
 _ZN14QScatterSeries8setColorERK6QColor@Base 6.2.1
 _ZN14QScatterSeriesC1EP7QObject@Base 6.2.1
 _ZN14QScatterSeriesC2EP7QObject@Base 6.2.1
 _ZN14QScatterSeriesD0Ev@Base 6.2.1
 _ZN14QScatterSeriesD1Ev@Base 6.2.1
 _ZN14QScatterSeriesD2Ev@Base 6.2.1
 _ZN14QXYModelMapper11qt_metacallEN11QMetaObject4CallEiPPv@Base 6.2.1
 _ZN14QXYModelMapper11qt_metacastEPKc@Base 6.2.1
 _ZN14QXYModelMapper11setXSectionEi@Base 6.2.1
 _ZN14QXYModelMapper11setYSectionEi@Base 6.2.1
 _ZN14QXYModelMapper14setOrientationEN2Qt11OrientationE@Base 6.2.1
 _ZN14QXYModelMapper16staticMetaObjectE@Base 6.2.1
 _ZN14QXYModelMapper8setCountEi@Base 6.2.1
 _ZN14QXYModelMapper8setFirstEi@Base 6.2.1
 _ZN14QXYModelMapper8setModelEP18QAbstractItemModel@Base 6.2.1
 _ZN14QXYModelMapper9setSeriesEP9QXYSeries@Base 6.2.1
 _ZN14QXYModelMapperC1EP7QObject@Base 6.2.1
 _ZN14QXYModelMapperC2EP7QObject@Base 6.2.1
 _ZN14TriangleMarker7polygonEdddd@Base 6.2.1
 _ZN14TriangleMarkerC1EddddP16ScatterChartItem@Base 6.2.1
 _ZN14TriangleMarkerC2EddddP16ScatterChartItem@Base 6.2.1
 _ZN14ValueAxisLabel11qt_metacallEN11QMetaObject4CallEiPPv@Base 6.2.1
 _ZN14ValueAxisLabel11qt_metacastEPKc@Base 6.2.1
 _ZN14ValueAxisLabel12valueChangedEdd@Base 6.2.1
 _ZN14ValueAxisLabel13finishEditingEv@Base 6.2.1
 _ZN14ValueAxisLabel13keyPressEventEP9QKeyEvent@Base 6.2.1
 _ZN14ValueAxisLabel16staticMetaObjectE@Base 6.2.1
 _ZN14ValueAxisLabel19setInitialEditValueEv@Base 6.2.1
 _ZN14ValueAxisLabel20resetBeforeEditValueEv@Base 6.2.1
 _ZN14ValueAxisLabel8setValueERKd@Base 6.2.1
 _ZN14ValueAxisLabelC1EP13QGraphicsItem@Base 6.2.1
 _ZN14ValueAxisLabelC2EP13QGraphicsItem@Base 6.2.1
 _ZN15ChartBackground11setDiameterEd@Base 6.2.1
 _ZN15ChartBackground20setDropShadowEnabledEb@Base 6.2.1
 _ZN15ChartBackground5paintEP8QPainterPK24QStyleOptionGraphicsItemP7QWidget@Base 6.2.1
 _ZN15ChartBackgroundC1EP13QGraphicsItem@Base 6.2.1
 _ZN15ChartBackgroundC2EP13QGraphicsItem@Base 6.2.1
 _ZN15ChartBackgroundD0Ev@Base 6.2.1
 _ZN15ChartBackgroundD1Ev@Base 6.2.1
 _ZN15ChartBackgroundD2Ev@Base 6.2.1
 _ZN15ChartColorAxisX11qt_metacallEN11QMetaObject4CallEiPPv@Base 6.2.1
 _ZN15ChartColorAxisX11qt_metacastEPKc@Base 6.2.1
 _ZN15ChartColorAxisX14updateGeometryEv@Base 6.2.1
 _ZN15ChartColorAxisX16staticMetaObjectE@Base 6.2.1
 _ZN15ChartColorAxisXC1EP10QColorAxisP13QGraphicsItem@Base 6.2.1
 _ZN15ChartColorAxisXC2EP10QColorAxisP13QGraphicsItem@Base 6.2.1
 _ZN15ChartColorAxisXD0Ev@Base 6.2.1
 _ZN15ChartColorAxisXD1Ev@Base 6.2.1
 _ZN15ChartColorAxisXD2Ev@Base 6.2.1
 _ZN15ChartColorAxisY11qt_metacallEN11QMetaObject4CallEiPPv@Base 6.2.1
 _ZN15ChartColorAxisY11qt_metacastEPKc@Base 6.2.1
 _ZN15ChartColorAxisY14updateGeometryEv@Base 6.2.1
 _ZN15ChartColorAxisY16staticMetaObjectE@Base 6.2.1
 _ZN15ChartColorAxisYC1EP10QColorAxisP13QGraphicsItem@Base 6.2.1
 _ZN15ChartColorAxisYC2EP10QColorAxisP13QGraphicsItem@Base 6.2.1
 _ZN15ChartColorAxisYD0Ev@Base 6.2.1
 _ZN15ChartColorAxisYD1Ev@Base 6.2.1
 _ZN15ChartColorAxisYD2Ev@Base 6.2.1
 _ZN15ChartValueAxisX11qt_metacallEN11QMetaObject4CallEiPPv@Base 6.2.1
 _ZN15ChartValueAxisX11qt_metacastEPKc@Base 6.2.1
 _ZN15ChartValueAxisX14updateGeometryEv@Base 6.2.1
 _ZN15ChartValueAxisX16staticMetaObjectE@Base 6.2.1
 _ZN15ChartValueAxisX21handleTickTypeChangedEN10QValueAxis8TickTypeE@Base 6.2.1
 _ZN15ChartValueAxisX22handleTickCountChangedEi@Base 6.2.1
 _ZN15ChartValueAxisX23handleTickAnchorChangedEd@Base 6.2.1
 _ZN15ChartValueAxisX24handleLabelFormatChangedERK7QString@Base 6.2.1
 _ZN15ChartValueAxisX25handleTickIntervalChangedEd@Base 6.2.1
 _ZN15ChartValueAxisX27handleMinorTickCountChangedEi@Base 6.2.1
 _ZN15ChartValueAxisXC1EP10QValueAxisP13QGraphicsItem@Base 6.2.1
 _ZN15ChartValueAxisXC2EP10QValueAxisP13QGraphicsItem@Base 6.2.1
 _ZN15ChartValueAxisXD0Ev@Base 6.2.1
 _ZN15ChartValueAxisXD1Ev@Base 6.2.1
 _ZN15ChartValueAxisXD2Ev@Base 6.2.1
 _ZN15ChartValueAxisY11qt_metacallEN11QMetaObject4CallEiPPv@Base 6.2.1
 _ZN15ChartValueAxisY11qt_metacastEPKc@Base 6.2.1
 _ZN15ChartValueAxisY14updateGeometryEv@Base 6.2.1
 _ZN15ChartValueAxisY16staticMetaObjectE@Base 6.2.1
 _ZN15ChartValueAxisY21handleTickTypeChangedEN10QValueAxis8TickTypeE@Base 6.2.1
 _ZN15ChartValueAxisY22handleTickCountChangedEi@Base 6.2.1
 _ZN15ChartValueAxisY23handleTickAnchorChangedEd@Base 6.2.1
 _ZN15ChartValueAxisY24handleLabelFormatChangedERK7QString@Base 6.2.1
 _ZN15ChartValueAxisY25handleTickIntervalChangedEd@Base 6.2.1
 _ZN15ChartValueAxisY27handleMinorTickCountChangedEi@Base 6.2.1
 _ZN15ChartValueAxisYC1EP10QValueAxisP13QGraphicsItem@Base 6.2.1
 _ZN15ChartValueAxisYC2EP10QValueAxisP13QGraphicsItem@Base 6.2.1
 _ZN15ChartValueAxisYD0Ev@Base 6.2.1
 _ZN15ChartValueAxisYD1Ev@Base 6.2.1
 _ZN15ChartValueAxisYD2Ev@Base 6.2.1
 _ZN15QAbstractSeries10attachAxisEP13QAbstractAxis@Base 6.2.1
 _ZN15QAbstractSeries10detachAxisEP13QAbstractAxis@Base 6.2.1
 _ZN15QAbstractSeries10setOpacityEd@Base 6.2.1
 _ZN15QAbstractSeries10setVisibleEb@Base 6.2.1
 _ZN15QAbstractSeries11nameChangedEv@Base 6.2.1
 _ZN15QAbstractSeries11qt_metacallEN11QMetaObject4CallEiPPv@Base 6.2.1
 _ZN15QAbstractSeries11qt_metacastEPKc@Base 6.2.1
 _ZN15QAbstractSeries12attachedAxesEv@Base 6.2.1
 _ZN15QAbstractSeries12setUseOpenGLEb@Base 6.2.1
 _ZN15QAbstractSeries14opacityChangedEv@Base 6.2.1
 _ZN15QAbstractSeries14visibleChangedEv@Base 6.2.1
 _ZN15QAbstractSeries16staticMetaObjectE@Base 6.2.1
 _ZN15QAbstractSeries16useOpenGLChangedEv@Base 6.2.1
 _ZN15QAbstractSeries4hideEv@Base 6.2.1
 _ZN15QAbstractSeries4showEv@Base 6.2.1
 _ZN15QAbstractSeries7setNameERK7QString@Base 6.2.1
 _ZN15QAbstractSeriesC1ER22QAbstractSeriesPrivateP7QObject@Base 6.2.1
 _ZN15QAbstractSeriesC2ER22QAbstractSeriesPrivateP7QObject@Base 6.2.1
 _ZN15QAbstractSeriesD0Ev@Base 6.2.1
 _ZN15QAbstractSeriesD1Ev@Base 6.2.1
 _ZN15QAbstractSeriesD2Ev@Base 6.2.1
 _ZN15QBarModelMapper11qt_metacallEN11QMetaObject4CallEiPPv@Base 6.2.1
 _ZN15QBarModelMapper11qt_metacastEPKc@Base 6.2.1
 _ZN15QBarModelMapper14setOrientationEN2Qt11OrientationE@Base 6.2.1
 _ZN15QBarModelMapper16staticMetaObjectE@Base 6.2.1
 _ZN15QBarModelMapper20setLastBarSetSectionEi@Base 6.2.1
 _ZN15QBarModelMapper21setFirstBarSetSectionEi@Base 6.2.1
 _ZN15QBarModelMapper8setCountEi@Base 6.2.1
 _ZN15QBarModelMapper8setFirstEi@Base 6.2.1
 _ZN15QBarModelMapper8setModelEP18QAbstractItemModel@Base 6.2.1
 _ZN15QBarModelMapper9setSeriesEP18QAbstractBarSeries@Base 6.2.1
 _ZN15QBarModelMapperC1EP7QObject@Base 6.2.1
 _ZN15QBarModelMapperC2EP7QObject@Base 6.2.1
 _ZN15QCandlestickSet10lowChangedEv@Base 6.2.1
 _ZN15QCandlestickSet10penChangedEv@Base 6.2.1
 _ZN15QCandlestickSet11highChangedEv@Base 6.2.1
 _ZN15QCandlestickSet11openChangedEv@Base 6.2.1
 _ZN15QCandlestickSet11qt_metacallEN11QMetaObject4CallEiPPv@Base 6.2.1
 _ZN15QCandlestickSet11qt_metacastEPKc@Base 6.2.1
 _ZN15QCandlestickSet12brushChangedEv@Base 6.2.1
 _ZN15QCandlestickSet12closeChangedEv@Base 6.2.1
 _ZN15QCandlestickSet12setTimestampEd@Base 6.2.1
 _ZN15QCandlestickSet13doubleClickedEv@Base 6.2.1
 _ZN15QCandlestickSet16staticMetaObjectE@Base 6.2.1
 _ZN15QCandlestickSet16timestampChangedEv@Base 6.2.1
 _ZN15QCandlestickSet6setLowEd@Base 6.2.1
 _ZN15QCandlestickSet6setPenERK4QPen@Base 6.2.1
 _ZN15QCandlestickSet7clickedEv@Base 6.2.1
 _ZN15QCandlestickSet7hoveredEb@Base 6.2.1
 _ZN15QCandlestickSet7pressedEv@Base 6.2.1
 _ZN15QCandlestickSet7setHighEd@Base 6.2.1
 _ZN15QCandlestickSet7setOpenEd@Base 6.2.1
 _ZN15QCandlestickSet8releasedEv@Base 6.2.1
 _ZN15QCandlestickSet8setBrushERK6QBrush@Base 6.2.1
 _ZN15QCandlestickSet8setCloseEd@Base 6.2.1
 _ZN15QCandlestickSetC1EdP7QObject@Base 6.2.1
 _ZN15QCandlestickSetC1EdddddP7QObject@Base 6.2.1
 _ZN15QCandlestickSetC2EdP7QObject@Base 6.2.1
 _ZN15QCandlestickSetC2EdddddP7QObject@Base 6.2.1
 _ZN15QCandlestickSetD0Ev@Base 6.2.1
 _ZN15QCandlestickSetD1Ev@Base 6.2.1
 _ZN15QCandlestickSetD2Ev@Base 6.2.1
 _ZN15QHXYModelMapper11qt_metacallEN11QMetaObject4CallEiPPv@Base 6.2.1
 _ZN15QHXYModelMapper11qt_metacastEPKc@Base 6.2.1
 _ZN15QHXYModelMapper11xRowChangedEv@Base 6.2.1
 _ZN15QHXYModelMapper11yRowChangedEv@Base 6.2.1
 _ZN15QHXYModelMapper13modelReplacedEv@Base 6.2.1
 _ZN15QHXYModelMapper14seriesReplacedEv@Base 6.2.1
 _ZN15QHXYModelMapper14setColumnCountEi@Base 6.2.1
 _ZN15QHXYModelMapper14setFirstColumnEi@Base 6.2.1
 _ZN15QHXYModelMapper16staticMetaObjectE@Base 6.2.1
 _ZN15QHXYModelMapper18columnCountChangedEv@Base 6.2.1
 _ZN15QHXYModelMapper18firstColumnChangedEv@Base 6.2.1
 _ZN15QHXYModelMapper7setXRowEi@Base 6.2.1
 _ZN15QHXYModelMapper7setYRowEi@Base 6.2.1
 _ZN15QHXYModelMapper8setModelEP18QAbstractItemModel@Base 6.2.1
 _ZN15QHXYModelMapper9setSeriesEP9QXYSeries@Base 6.2.1
 _ZN15QHXYModelMapperC1EP7QObject@Base 6.2.1
 _ZN15QHXYModelMapperC2EP7QObject@Base 6.2.1
 _ZN15QPieModelMapper11qt_metacallEN11QMetaObject4CallEiPPv@Base 6.2.1
 _ZN15QPieModelMapper11qt_metacastEPKc@Base 6.2.1
 _ZN15QPieModelMapper14setOrientationEN2Qt11OrientationE@Base 6.2.1
 _ZN15QPieModelMapper16setLabelsSectionEi@Base 6.2.1
 _ZN15QPieModelMapper16setValuesSectionEi@Base 6.2.1
 _ZN15QPieModelMapper16staticMetaObjectE@Base 6.2.1
 _ZN15QPieModelMapper8setCountEi@Base 6.2.1
 _ZN15QPieModelMapper8setFirstEi@Base 6.2.1
 _ZN15QPieModelMapper8setModelEP18QAbstractItemModel@Base 6.2.1
 _ZN15QPieModelMapper9setSeriesEP10QPieSeries@Base 6.2.1
 _ZN15QPieModelMapperC1EP7QObject@Base 6.2.1
 _ZN15QPieModelMapperC2EP7QObject@Base 6.2.1
 _ZN15QVXYModelMapper10setXColumnEi@Base 6.2.1
 _ZN15QVXYModelMapper10setYColumnEi@Base 6.2.1
 _ZN15QVXYModelMapper11qt_metacallEN11QMetaObject4CallEiPPv@Base 6.2.1
 _ZN15QVXYModelMapper11qt_metacastEPKc@Base 6.2.1
 _ZN15QVXYModelMapper11setFirstRowEi@Base 6.2.1
 _ZN15QVXYModelMapper11setRowCountEi@Base 6.2.1
 _ZN15QVXYModelMapper13modelReplacedEv@Base 6.2.1
 _ZN15QVXYModelMapper14seriesReplacedEv@Base 6.2.1
 _ZN15QVXYModelMapper14xColumnChangedEv@Base 6.2.1
 _ZN15QVXYModelMapper14yColumnChangedEv@Base 6.2.1
 _ZN15QVXYModelMapper15firstRowChangedEv@Base 6.2.1
 _ZN15QVXYModelMapper15rowCountChangedEv@Base 6.2.1
 _ZN15QVXYModelMapper16staticMetaObjectE@Base 6.2.1
 _ZN15QVXYModelMapper8setModelEP18QAbstractItemModel@Base 6.2.1
 _ZN15QVXYModelMapper9setSeriesEP9QXYSeries@Base 6.2.1
 _ZN15QVXYModelMapperC1EP7QObject@Base 6.2.1
 _ZN15QVXYModelMapperC2EP7QObject@Base 6.2.1
 _ZN15QXYLegendMarker11qt_metacallEN11QMetaObject4CallEiPPv@Base 6.2.1
 _ZN15QXYLegendMarker11qt_metacastEPKc@Base 6.2.1
 _ZN15QXYLegendMarker16staticMetaObjectE@Base 6.2.1
 _ZN15QXYLegendMarker6seriesEv@Base 6.2.1
 _ZN15QXYLegendMarkerC1EP9QXYSeriesP7QLegendP7QObject@Base 6.2.1
 _ZN15QXYLegendMarkerC1ER22QXYLegendMarkerPrivateP7QObject@Base 6.2.1
 _ZN15QXYLegendMarkerC2EP9QXYSeriesP7QLegendP7QObject@Base 6.2.1
 _ZN15QXYLegendMarkerC2ER22QXYLegendMarkerPrivateP7QObject@Base 6.2.1
 _ZN15QXYLegendMarkerD0Ev@Base 6.2.1
 _ZN15QXYLegendMarkerD1Ev@Base 6.2.1
 _ZN15QXYLegendMarkerD2Ev@Base 6.2.1
 _ZN15SplineAnimation11updateStateEN18QAbstractAnimation5StateES1_@Base 6.2.1
 _ZN15SplineAnimation18updateCurrentValueERK8QVariant@Base 6.2.1
 _ZN15SplineAnimation5setupERK5QListI7QPointFES4_S4_S4_i@Base 6.2.1
 _ZN15SplineAnimationC1EP15SplineChartItemiR12QEasingCurve@Base 6.2.1
 _ZN15SplineAnimationC2EP15SplineChartItemiR12QEasingCurve@Base 6.2.1
 _ZN15SplineAnimationD0Ev@Base 6.2.1
 _ZN15SplineAnimationD1Ev@Base 6.2.1
 _ZN15SplineAnimationD2Ev@Base 6.2.1
 _ZN15SplineChartItem11qt_metacallEN11QMetaObject4CallEiPPv@Base 6.2.1
 _ZN15SplineChartItem11qt_metacastEPKc@Base 6.2.1
 _ZN15SplineChartItem11updateChartERK5QListI7QPointFES4_i@Base 6.2.1
 _ZN15SplineChartItem12setAnimationEP15SplineAnimation@Base 6.2.1
 _ZN15SplineChartItem14updateGeometryEv@Base 6.2.1
 _ZN15SplineChartItem15hoverEnterEventEP24QGraphicsSceneHoverEvent@Base 6.2.1
 _ZN15SplineChartItem15hoverLeaveEventEP24QGraphicsSceneHoverEvent@Base 6.2.1
 _ZN15SplineChartItem15mousePressEventEP24QGraphicsSceneMouseEvent@Base 6.2.1
 _ZN15SplineChartItem16staticMetaObjectE@Base 6.2.1
 _ZN15SplineChartItem17mouseReleaseEventEP24QGraphicsSceneMouseEvent@Base 6.2.1
 _ZN15SplineChartItem18firstControlPointsERK5QListIdE@Base 6.2.1
 _ZN15SplineChartItem19handleSeriesUpdatedEv@Base 6.2.1
 _ZN15SplineChartItem21mouseDoubleClickEventEP24QGraphicsSceneMouseEvent@Base 6.2.1
 _ZN15SplineChartItem22calculateControlPointsERK5QListI7QPointFE@Base 6.2.1
 _ZN15SplineChartItem24setControlGeometryPointsERK5QListI7QPointFE@Base 6.2.1
 _ZN15SplineChartItem5paintEP8QPainterPK24QStyleOptionGraphicsItemP7QWidget@Base 6.2.1
 _ZN15SplineChartItemC1EP13QSplineSeriesP13QGraphicsItem@Base 6.2.1
 _ZN15SplineChartItemC2EP13QSplineSeriesP13QGraphicsItem@Base 6.2.1
 _ZN16BoxPlotAnimation11qt_metacallEN11QMetaObject4CallEiPPv@Base 6.2.1
 _ZN16BoxPlotAnimation11qt_metacastEPKc@Base 6.2.1
 _ZN16BoxPlotAnimation12boxAnimationEP11BoxWhiskers@Base 6.2.1
 _ZN16BoxPlotAnimation16staticMetaObjectE@Base 6.2.1
 _ZN16BoxPlotAnimation17setAnimationStartEP11BoxWhiskers@Base 6.2.1
 _ZN16BoxPlotAnimation18boxChangeAnimationEP11BoxWhiskers@Base 6.2.1
 _ZN16BoxPlotAnimation18removeBoxAnimationEP11BoxWhiskers@Base 6.2.1
 _ZN16BoxPlotAnimation6addBoxEP11BoxWhiskers@Base 6.2.1
 _ZN16BoxPlotAnimation7stopAllEv@Base 6.2.1
 _ZN16BoxPlotAnimationC1EP16BoxPlotChartItemiR12QEasingCurve@Base 6.2.1
 _ZN16BoxPlotAnimationC2EP16BoxPlotChartItemiR12QEasingCurve@Base 6.2.1
 _ZN16BoxPlotAnimationD0Ev@Base 6.2.1
 _ZN16BoxPlotAnimationD1Ev@Base 6.2.1
 _ZN16BoxPlotAnimationD2Ev@Base 6.2.1
 _ZN16BoxPlotChartItem11qt_metacallEN11QMetaObject4CallEiPPv@Base 6.2.1
 _ZN16BoxPlotChartItem11qt_metacastEPKc@Base 6.2.1
 _ZN16BoxPlotChartItem12setAnimationEP16BoxPlotAnimation@Base 6.2.1
 _ZN16BoxPlotChartItem15calculateLayoutEv@Base 6.2.1
 _ZN16BoxPlotChartItem16initializeLayoutEv@Base 6.2.1
 _ZN16BoxPlotChartItem16staticMetaObjectE@Base 6.2.1
 _ZN16BoxPlotChartItem17handleUpdatedBarsEv@Base 6.2.1
 _ZN16BoxPlotChartItem17updateBoxGeometryEP11BoxWhiskersi@Base 6.2.1
 _ZN16BoxPlotChartItem18handleBoxsetRemoveERK5QListIP7QBoxSetE@Base 6.2.1
 _ZN16BoxPlotChartItem19handleDomainUpdatedEv@Base 6.2.1
 _ZN16BoxPlotChartItem19handleLayoutChangedEv@Base 6.2.1
 _ZN16BoxPlotChartItem20handleOpacityChangedEv@Base 6.2.1
 _ZN16BoxPlotChartItem26handleDataStructureChangedEv@Base 6.2.1
 _ZN16BoxPlotChartItem26handleSeriesVisibleChangedEv@Base 6.2.1
 _ZN16BoxPlotChartItem5paintEP8QPainterPK24QStyleOptionGraphicsItemP7QWidget@Base 6.2.1
 _ZN16BoxPlotChartItemC1EP14QBoxPlotSeriesP13QGraphicsItem@Base 6.2.1
 _ZN16BoxPlotChartItemC2EP14QBoxPlotSeriesP13QGraphicsItem@Base 6.2.1
 _ZN16BoxPlotChartItemD0Ev@Base 6.2.1
 _ZN16BoxPlotChartItemD1Ev@Base 6.2.1
 _ZN16BoxPlotChartItemD2Ev@Base 6.2.1
 _ZN16ChartAxisElement11qt_metacallEN11QMetaObject4CallEiPPv@Base 6.2.1
 _ZN16ChartAxisElement11qt_metacastEPKc@Base 6.2.1
 _ZN16ChartAxisElement12axisSelectedEv@Base 6.2.1
 _ZN16ChartAxisElement12connectSlotsEv@Base 6.2.1
 _ZN16ChartAxisElement16staticMetaObjectE@Base 6.2.1
 _ZN16ChartAxisElement16valueLabelEditedEdd@Base 6.2.1
 _ZN16ChartAxisElement17prepareColorScaleEdd@Base 6.2.1
 _ZN16ChartAxisElement17setLabelsEditableEb@Base 6.2.1
 _ZN16ChartAxisElement18handleRangeChangedEdd@Base 6.2.1
 _ZN16ChartAxisElement19dateTimeLabelEditedERK9QDateTimeS2_@Base 6.2.1
 _ZN16ChartAxisElement20handleReverseChangedEb@Base 6.2.1
 _ZN16ChartAxisElement20handleVisibleChangedEb@Base 6.2.1
 _ZN16ChartAxisElement22handleTitleFontChangedERK5QFont@Base 6.2.1
 _ZN16ChartAxisElement22handleTitleTextChangedERK7QString@Base 6.2.1
 _ZN16ChartAxisElement23handleLabelsFontChangedERK5QFont@Base 6.2.1
 _ZN16ChartAxisElement23handleTitleBrushChangedERK6QBrush@Base 6.2.1
 _ZN16ChartAxisElement24handleGridVisibleChangedEb@Base 6.2.1
 _ZN16ChartAxisElement24handleLabelsAngleChangedEi@Base 6.2.1
 _ZN16ChartAxisElement24handleLabelsBrushChangedERK6QBrush@Base 6.2.1
 _ZN16ChartAxisElement25handleArrowVisibleChangedEb@Base 6.2.1
 _ZN16ChartAxisElement25handleTitleVisibleChangedEb@Base 6.2.1
 _ZN16ChartAxisElement26handleLabelsVisibleChangedEb@Base 6.2.1
 _ZN16ChartAxisElement26handleShadesVisibleChangedEb@Base 6.2.1
 _ZN16ChartAxisElement27handleColorScaleSizeChangedEv@Base 6.2.1
 _ZN16ChartAxisElement27handleLabelsPositionChangedEv@Base 6.2.1
 _ZN16ChartAxisElement27handleTruncateLabelsChangedEv@Base 6.2.1
 _ZN16ChartAxisElement29handleMinorGridVisibleChangedEb@Base 6.2.1
 _ZN16ChartAxisElement30handleMinorArrowVisibleChangedEb@Base 6.2.1
 _ZN16ChartAxisElement31handleColorScaleGradientChangedEv@Base 6.2.1
 _ZN16ChartAxisElement7clickedEv@Base 6.2.1
 _ZN16ChartAxisElementC1EP13QAbstractAxisP13QGraphicsItemb@Base 6.2.1
 _ZN16ChartAxisElementC2EP13QAbstractAxisP13QGraphicsItemb@Base 6.2.1
 _ZN16ChartAxisElementD0Ev@Base 6.2.1
 _ZN16ChartAxisElementD1Ev@Base 6.2.1
 _ZN16ChartAxisElementD2Ev@Base 6.2.1
 _ZN16LegendMarkerItem10setToolTipERK7QString@Base 6.2.1
 _ZN16LegendMarkerItem11qt_metacallEN11QMetaObject4CallEiPPv@Base 6.2.1
 _ZN16LegendMarkerItem11qt_metacastEPKc@Base 6.2.1
 _ZN16LegendMarkerItem11setGeometryERK6QRectF@Base 6.2.1
 _ZN16LegendMarkerItem11setItemRectEv@Base 6.2.1
 _ZN16LegendMarkerItem12setSeriesPenERK4QPen@Base 6.2.1
 _ZN16LegendMarkerItem13setLabelBrushERK6QBrush@Base 6.2.1
 _ZN16LegendMarkerItem14setMarkerShapeEN7QLegend11MarkerShapeE@Base 6.2.1
 _ZN16LegendMarkerItem14setSeriesBrushERK6QBrush@Base 6.2.1
 _ZN16LegendMarkerItem15hoverEnterEventEP24QGraphicsSceneHoverEvent@Base 6.2.1
 _ZN16LegendMarkerItem15hoverLeaveEventEP24QGraphicsSceneHoverEvent@Base 6.2.1
 _ZN16LegendMarkerItem16staticMetaObjectE@Base 6.2.1
 _ZN16LegendMarkerItem17markerRectChangedEv@Base 6.2.1
 _ZN16LegendMarkerItem18setItemBrushAndPenEv@Base 6.2.1
 _ZN16LegendMarkerItem20setSeriesLightMarkerERK6QImage@Base 6.2.1
 _ZN16LegendMarkerItem24updateMarkerShapeAndSizeEv@Base 6.2.1
 _ZN16LegendMarkerItem5paintEP8QPainterPK24QStyleOptionGraphicsItemP7QWidget@Base 6.2.1
 _ZN16LegendMarkerItem6setPenERK4QPen@Base 6.2.1
 _ZN16LegendMarkerItem7setFontERK5QFont@Base 6.2.1
 _ZN16LegendMarkerItem8setBrushERK6QBrush@Base 6.2.1
 _ZN16LegendMarkerItem8setLabelE7QString@Base 6.2.1
 _ZN16LegendMarkerItemC1EP20QLegendMarkerPrivateP15QGraphicsObject@Base 6.2.1
 _ZN16LegendMarkerItemC2EP20QLegendMarkerPrivateP15QGraphicsObject@Base 6.2.1
 _ZN16LegendMarkerItemD0Ev@Base 6.2.1
 _ZN16LegendMarkerItemD1Ev@Base 6.2.1
 _ZN16LegendMarkerItemD2Ev@Base 6.2.1
 _ZN16LogXYPolarDomain10attachAxisEP13QAbstractAxis@Base 6.2.1
 _ZN16LogXYPolarDomain10detachAxisEP13QAbstractAxis@Base 6.2.1
 _ZN16LogXYPolarDomain11qt_metacallEN11QMetaObject4CallEiPPv@Base 6.2.1
 _ZN16LogXYPolarDomain11qt_metacastEPKc@Base 6.2.1
 _ZN16LogXYPolarDomain16staticMetaObjectE@Base 6.2.1
 _ZN16LogXYPolarDomain31handleHorizontalAxisBaseChangedEd@Base 6.2.1
 _ZN16LogXYPolarDomain4moveEdd@Base 6.2.1
 _ZN16LogXYPolarDomain6zoomInERK6QRectF@Base 6.2.1
 _ZN16LogXYPolarDomain7zoomOutERK6QRectF@Base 6.2.1
 _ZN16LogXYPolarDomain8setRangeEdddd@Base 6.2.1
 _ZN16LogXYPolarDomainC1EP7QObject@Base 6.2.1
 _ZN16LogXYPolarDomainC2EP7QObject@Base 6.2.1
 _ZN16LogXYPolarDomainD0Ev@Base 6.2.1
 _ZN16LogXYPolarDomainD1Ev@Base 6.2.1
 _ZN16LogXYPolarDomainD2Ev@Base 6.2.1
 _ZN16PolarChartLayoutC1EP14ChartPresenter@Base 6.2.1
 _ZN16PolarChartLayoutC2EP14ChartPresenter@Base 6.2.1
 _ZN16PolarChartLayoutD0Ev@Base 6.2.1
 _ZN16PolarChartLayoutD1Ev@Base 6.2.1
 _ZN16PolarChartLayoutD2Ev@Base 6.2.1
 _ZN16QBarCategoryAxis10categoriesEv@Base 6.2.1
 _ZN16QBarCategoryAxis10maxChangedERK7QString@Base 6.2.1
 _ZN16QBarCategoryAxis10minChangedERK7QString@Base 6.2.1
 _ZN16QBarCategoryAxis11qt_metacallEN11QMetaObject4CallEiPPv@Base 6.2.1
 _ZN16QBarCategoryAxis11qt_metacastEPKc@Base 6.2.1
 _ZN16QBarCategoryAxis12countChangedEv@Base 6.2.1
 _ZN16QBarCategoryAxis12rangeChangedERK7QStringS2_@Base 6.2.1
 _ZN16QBarCategoryAxis13setCategoriesERK5QListI7QStringE@Base 6.2.1
 _ZN16QBarCategoryAxis16staticMetaObjectE@Base 6.2.1
 _ZN16QBarCategoryAxis17categoriesChangedEv@Base 6.2.1
 _ZN16QBarCategoryAxis5clearEv@Base 6.2.1
 _ZN16QBarCategoryAxis6appendERK5QListI7QStringE@Base 6.2.1
 _ZN16QBarCategoryAxis6appendERK7QString@Base 6.2.1
 _ZN16QBarCategoryAxis6insertEiRK7QString@Base 6.2.1
 _ZN16QBarCategoryAxis6removeERK7QString@Base 6.2.1
 _ZN16QBarCategoryAxis6setMaxERK7QString@Base 6.2.1
 _ZN16QBarCategoryAxis6setMinERK7QString@Base 6.2.1
 _ZN16QBarCategoryAxis7replaceERK7QStringS2_@Base 6.2.1
 _ZN16QBarCategoryAxis8setRangeERK7QStringS2_@Base 6.2.1
 _ZN16QBarCategoryAxisC1EP7QObject@Base 6.2.1
 _ZN16QBarCategoryAxisC1ER23QBarCategoryAxisPrivateP7QObject@Base 6.2.1
 _ZN16QBarCategoryAxisC2EP7QObject@Base 6.2.1
 _ZN16QBarCategoryAxisC2ER23QBarCategoryAxisPrivateP7QObject@Base 6.2.1
 _ZN16QBarCategoryAxisD0Ev@Base 6.2.1
 _ZN16QBarCategoryAxisD1Ev@Base 6.2.1
 _ZN16QBarCategoryAxisD2Ev@Base 6.2.1
 _ZN16QBarLegendMarker11qt_metacallEN11QMetaObject4CallEiPPv@Base 6.2.1
 _ZN16QBarLegendMarker11qt_metacastEPKc@Base 6.2.1
 _ZN16QBarLegendMarker16staticMetaObjectE@Base 6.2.1
 _ZN16QBarLegendMarker6barsetEv@Base 6.2.1
 _ZN16QBarLegendMarker6seriesEv@Base 6.2.1
 _ZN16QBarLegendMarkerC1EP18QAbstractBarSeriesP7QBarSetP7QLegendP7QObject@Base 6.2.1
 _ZN16QBarLegendMarkerC1ER23QBarLegendMarkerPrivateP7QObject@Base 6.2.1
 _ZN16QBarLegendMarkerC2EP18QAbstractBarSeriesP7QBarSetP7QLegendP7QObject@Base 6.2.1
 _ZN16QBarLegendMarkerC2ER23QBarLegendMarkerPrivateP7QObject@Base 6.2.1
 _ZN16QBarLegendMarkerD0Ev@Base 6.2.1
 _ZN16QBarLegendMarkerD1Ev@Base 6.2.1
 _ZN16QBarLegendMarkerD2Ev@Base 6.2.1
 _ZN16QHBarModelMapper11qt_metacallEN11QMetaObject4CallEiPPv@Base 6.2.1
 _ZN16QHBarModelMapper11qt_metacastEPKc@Base 6.2.1
 _ZN16QHBarModelMapper13modelReplacedEv@Base 6.2.1
 _ZN16QHBarModelMapper14seriesReplacedEv@Base 6.2.1
 _ZN16QHBarModelMapper14setColumnCountEi@Base 6.2.1
 _ZN16QHBarModelMapper14setFirstColumnEi@Base 6.2.1
 _ZN16QHBarModelMapper16setLastBarSetRowEi@Base 6.2.1
 _ZN16QHBarModelMapper16staticMetaObjectE@Base 6.2.1
 _ZN16QHBarModelMapper17setFirstBarSetRowEi@Base 6.2.1
 _ZN16QHBarModelMapper18columnCountChangedEv@Base 6.2.1
 _ZN16QHBarModelMapper18firstColumnChangedEv@Base 6.2.1
 _ZN16QHBarModelMapper20lastBarSetRowChangedEv@Base 6.2.1
 _ZN16QHBarModelMapper21firstBarSetRowChangedEv@Base 6.2.1
 _ZN16QHBarModelMapper8setModelEP18QAbstractItemModel@Base 6.2.1
 _ZN16QHBarModelMapper9setSeriesEP18QAbstractBarSeries@Base 6.2.1
 _ZN16QHBarModelMapperC1EP7QObject@Base 6.2.1
 _ZN16QHBarModelMapperC2EP7QObject@Base 6.2.1
 _ZN16QHPieModelMapper11qt_metacallEN11QMetaObject4CallEiPPv@Base 6.2.1
 _ZN16QHPieModelMapper11qt_metacastEPKc@Base 6.2.1
 _ZN16QHPieModelMapper12setLabelsRowEi@Base 6.2.1
 _ZN16QHPieModelMapper12setValuesRowEi@Base 6.2.1
 _ZN16QHPieModelMapper13modelReplacedEv@Base 6.2.1
 _ZN16QHPieModelMapper14seriesReplacedEv@Base 6.2.1
 _ZN16QHPieModelMapper14setColumnCountEi@Base 6.2.1
 _ZN16QHPieModelMapper14setFirstColumnEi@Base 6.2.1
 _ZN16QHPieModelMapper16labelsRowChangedEv@Base 6.2.1
 _ZN16QHPieModelMapper16staticMetaObjectE@Base 6.2.1
 _ZN16QHPieModelMapper16valuesRowChangedEv@Base 6.2.1
 _ZN16QHPieModelMapper18columnCountChangedEv@Base 6.2.1
 _ZN16QHPieModelMapper18firstColumnChangedEv@Base 6.2.1
 _ZN16QHPieModelMapper8setModelEP18QAbstractItemModel@Base 6.2.1
 _ZN16QHPieModelMapper9setSeriesEP10QPieSeries@Base 6.2.1
 _ZN16QHPieModelMapperC1EP7QObject@Base 6.2.1
 _ZN16QHPieModelMapperC2EP7QObject@Base 6.2.1
 _ZN16QMetaAssociation15MetaAssociationI5QHashIN9QXYSeries18PointConfigurationE8QVariantEE5valueE@Base 6.2.1
 _ZN16QMetaAssociation15MetaAssociationI5QHashIiS1_IN9QXYSeries18PointConfigurationE8QVariantEEE5valueE@Base 6.2.1
 _ZN16QPieLegendMarker11qt_metacallEN11QMetaObject4CallEiPPv@Base 6.2.1
 _ZN16QPieLegendMarker11qt_metacastEPKc@Base 6.2.1
 _ZN16QPieLegendMarker16staticMetaObjectE@Base 6.2.1
 _ZN16QPieLegendMarker5sliceEv@Base 6.2.1
 _ZN16QPieLegendMarker6seriesEv@Base 6.2.1
 _ZN16QPieLegendMarkerC1EP10QPieSeriesP9QPieSliceP7QLegendP7QObject@Base 6.2.1
 _ZN16QPieLegendMarkerC1ER23QPieLegendMarkerPrivateP7QObject@Base 6.2.1
 _ZN16QPieLegendMarkerC2EP10QPieSeriesP9QPieSliceP7QLegendP7QObject@Base 6.2.1
 _ZN16QPieLegendMarkerC2ER23QPieLegendMarkerPrivateP7QObject@Base 6.2.1
 _ZN16QPieLegendMarkerD0Ev@Base 6.2.1
 _ZN16QPieLegendMarkerD1Ev@Base 6.2.1
 _ZN16QPieLegendMarkerD2Ev@Base 6.2.1
 _ZN16QPieSlicePrivate11qt_metacallEN11QMetaObject4CallEiPPv@Base 6.2.1
 _ZN16QPieSlicePrivate11qt_metacastEPKc@Base 6.2.1
 _ZN16QPieSlicePrivate12setAngleSpanEd@Base 6.2.1
 _ZN16QPieSlicePrivate12setLabelFontERK5QFontb@Base 6.2.1
 _ZN16QPieSlicePrivate13setLabelBrushERK6QBrushb@Base 6.2.1
 _ZN16QPieSlicePrivate13setPercentageEd@Base 6.2.1
 _ZN16QPieSlicePrivate13setStartAngleEd@Base 6.2.1
 _ZN16QPieSlicePrivate15explodedChangedEv@Base 6.2.1
 _ZN16QPieSlicePrivate16staticMetaObjectE@Base 6.2.1
 _ZN16QPieSlicePrivate20labelPositionChangedEv@Base 6.2.1
 _ZN16QPieSlicePrivate27labelArmLengthFactorChangedEv@Base 6.2.1
 _ZN16QPieSlicePrivate28explodeDistanceFactorChangedEv@Base 6.2.1
 _ZN16QPieSlicePrivate6setPenERK4QPenb@Base 6.2.1
 _ZN16QPieSlicePrivate8setBrushERK6QBrushb@Base 6.2.1
 _ZN16QPieSlicePrivate9fromSliceEP9QPieSlice@Base 6.2.1
 _ZN16QPieSlicePrivateC1EP9QPieSlice@Base 6.2.1
 _ZN16QPieSlicePrivateC2EP9QPieSlice@Base 6.2.1
 _ZN16QPieSlicePrivateD0Ev@Base 6.2.1
 _ZN16QPieSlicePrivateD1Ev@Base 6.2.1
 _ZN16QPieSlicePrivateD2Ev@Base 6.2.1
 _ZN16QVBarModelMapper11qt_metacallEN11QMetaObject4CallEiPPv@Base 6.2.1
 _ZN16QVBarModelMapper11qt_metacastEPKc@Base 6.2.1
 _ZN16QVBarModelMapper11setFirstRowEi@Base 6.2.1
 _ZN16QVBarModelMapper11setRowCountEi@Base 6.2.1
 _ZN16QVBarModelMapper13modelReplacedEv@Base 6.2.1
 _ZN16QVBarModelMapper14seriesReplacedEv@Base 6.2.1
 _ZN16QVBarModelMapper15firstRowChangedEv@Base 6.2.1
 _ZN16QVBarModelMapper15rowCountChangedEv@Base 6.2.1
 _ZN16QVBarModelMapper16staticMetaObjectE@Base 6.2.1
 _ZN16QVBarModelMapper19setLastBarSetColumnEi@Base 6.2.1
 _ZN16QVBarModelMapper20setFirstBarSetColumnEi@Base 6.2.1
 _ZN16QVBarModelMapper23lastBarSetColumnChangedEv@Base 6.2.1
 _ZN16QVBarModelMapper24firstBarSetColumnChangedEv@Base 6.2.1
 _ZN16QVBarModelMapper8setModelEP18QAbstractItemModel@Base 6.2.1
 _ZN16QVBarModelMapper9setSeriesEP18QAbstractBarSeries@Base 6.2.1
 _ZN16QVBarModelMapperC1EP7QObject@Base 6.2.1
 _ZN16QVBarModelMapperC2EP7QObject@Base 6.2.1
 _ZN16QVPieModelMapper11qt_metacallEN11QMetaObject4CallEiPPv@Base 6.2.1
 _ZN16QVPieModelMapper11qt_metacastEPKc@Base 6.2.1
 _ZN16QVPieModelMapper11setFirstRowEi@Base 6.2.1
 _ZN16QVPieModelMapper11setRowCountEi@Base 6.2.1
 _ZN16QVPieModelMapper13modelReplacedEv@Base 6.2.1
 _ZN16QVPieModelMapper14seriesReplacedEv@Base 6.2.1
 _ZN16QVPieModelMapper15firstRowChangedEv@Base 6.2.1
 _ZN16QVPieModelMapper15rowCountChangedEv@Base 6.2.1
 _ZN16QVPieModelMapper15setLabelsColumnEi@Base 6.2.1
 _ZN16QVPieModelMapper15setValuesColumnEi@Base 6.2.1
 _ZN16QVPieModelMapper16staticMetaObjectE@Base 6.2.1
 _ZN16QVPieModelMapper19labelsColumnChangedEv@Base 6.2.1
 _ZN16QVPieModelMapper19valuesColumnChangedEv@Base 6.2.1
 _ZN16QVPieModelMapper8setModelEP18QAbstractItemModel@Base 6.2.1
 _ZN16QVPieModelMapper9setSeriesEP10QPieSeries@Base 6.2.1
 _ZN16QVPieModelMapperC1EP7QObject@Base 6.2.1
 _ZN16QVPieModelMapperC2EP7QObject@Base 6.2.1
 _ZN16QXYSeriesPrivate11qt_metacallEN11QMetaObject4CallEiPPv@Base 6.2.1
 _ZN16QXYSeriesPrivate11qt_metacastEPKc@Base 6.2.1
 _ZN16QXYSeriesPrivate13seriesUpdatedEv@Base 6.2.1
 _ZN16QXYSeriesPrivate13setMarkerSizeEd@Base 6.2.1
 _ZN16QXYSeriesPrivate14initializeAxesEv@Base 6.2.1
 _ZN16QXYSeriesPrivate15drawBestFitLineEP8QPainterRK6QRectF@Base 6.2.1
 _ZN16QXYSeriesPrivate15drawPointLabelsEP8QPainterRK5QListI7QPointFEi@Base 6.2.1
 _ZN16QXYSeriesPrivate15isPointSelectedEi@Base 6.2.1
 _ZN16QXYSeriesPrivate16initializeDomainEv@Base 6.2.1
 _ZN16QXYSeriesPrivate16setPointSelectedEibRb@Base 6.2.1
 _ZN16QXYSeriesPrivate16staticMetaObjectE@Base 6.2.1
 _ZN16QXYSeriesPrivate19createLegendMarkersEP7QLegend@Base 6.2.1
 _ZN16QXYSeriesPrivate19isMarkerSizeDefaultEv@Base 6.2.1
 _ZN16QXYSeriesPrivate20initializeAnimationsE6QFlagsIN6QChart15AnimationOptionEEiR12QEasingCurve@Base 6.2.1
 _ZN16QXYSeriesPrivate21drawSeriesPointLabelsEP8QPainterRK5QListI7QPointFEiRK5QHashIiiERKS2_IiE@Base 6.2.1
 _ZN16QXYSeriesPrivateC1EP9QXYSeries@Base 6.2.1
 _ZN16QXYSeriesPrivateC2EP9QXYSeries@Base 6.2.1
 _ZN16ScatterAnimation11updateStateEN18QAbstractAnimation5StateES1_@Base 6.2.1
 _ZN16ScatterAnimationC1EP16ScatterChartItemiR12QEasingCurve@Base 6.2.1
 _ZN16ScatterAnimationC2EP16ScatterChartItemiR12QEasingCurve@Base 6.2.1
 _ZN16ScatterAnimationD0Ev@Base 6.2.1
 _ZN16ScatterAnimationD1Ev@Base 6.2.1
 _ZN16ScatterAnimationD2Ev@Base 6.2.1
 _ZN16ScatterChartItem11qt_metacallEN11QMetaObject4CallEiPPv@Base 6.2.1
 _ZN16ScatterChartItem11qt_metacastEPKc@Base 6.2.1
 _ZN16ScatterChartItem12createPointsEi@Base 6.2.1
 _ZN16ScatterChartItem12deletePointsEi@Base 6.2.1
 _ZN16ScatterChartItem12resizeMarkerEP13QGraphicsItemi@Base 6.2.1
 _ZN16ScatterChartItem13markerHoveredEP13QGraphicsItemb@Base 6.2.1
 _ZN16ScatterChartItem13markerPressedEP13QGraphicsItem@Base 6.2.1
 _ZN16ScatterChartItem14hoverMoveEventEP24QGraphicsSceneHoverEvent@Base 6.2.1
 _ZN16ScatterChartItem14markerReleasedEP13QGraphicsItem@Base 6.2.1
 _ZN16ScatterChartItem14markerSelectedEP13QGraphicsItem@Base 6.2.1
 _ZN16ScatterChartItem14updateGeometryEv@Base 6.2.1
 _ZN16ScatterChartItem15mousePressEventEP24QGraphicsSceneMouseEvent@Base 6.2.1
 _ZN16ScatterChartItem16staticMetaObjectE@Base 6.2.1
 _ZN16ScatterChartItem17mouseReleaseEventEP24QGraphicsSceneMouseEvent@Base 6.2.1
 _ZN16ScatterChartItem19handleSeriesUpdatedEv@Base 6.2.1
 _ZN16ScatterChartItem19markerDoubleClickedEP13QGraphicsItem@Base 6.2.1
 _ZN16ScatterChartItem21mouseDoubleClickEventEP24QGraphicsSceneMouseEvent@Base 6.2.1
 _ZN16ScatterChartItem5paintEP8QPainterPK24QStyleOptionGraphicsItemP7QWidget@Base 6.2.1
 _ZN16ScatterChartItem6setPenERK4QPen@Base 6.2.1
 _ZN16ScatterChartItem8setBrushERK6QBrush@Base 6.2.1
 _ZN16ScatterChartItemC1EP14QScatterSeriesP13QGraphicsItem@Base 6.2.1
 _ZN16ScatterChartItemC2EP14QScatterSeriesP13QGraphicsItem@Base 6.2.1
 _ZN16XLogYPolarDomain10attachAxisEP13QAbstractAxis@Base 6.2.1
 _ZN16XLogYPolarDomain10detachAxisEP13QAbstractAxis@Base 6.2.1
 _ZN16XLogYPolarDomain11qt_metacallEN11QMetaObject4CallEiPPv@Base 6.2.1
 _ZN16XLogYPolarDomain11qt_metacastEPKc@Base 6.2.1
 _ZN16XLogYPolarDomain16staticMetaObjectE@Base 6.2.1
 _ZN16XLogYPolarDomain29handleVerticalAxisBaseChangedEd@Base 6.2.1
 _ZN16XLogYPolarDomain4moveEdd@Base 6.2.1
 _ZN16XLogYPolarDomain6zoomInERK6QRectF@Base 6.2.1
 _ZN16XLogYPolarDomain7zoomOutERK6QRectF@Base 6.2.1
 _ZN16XLogYPolarDomain8setRangeEdddd@Base 6.2.1
 _ZN16XLogYPolarDomainC1EP7QObject@Base 6.2.1
 _ZN16XLogYPolarDomainC2EP7QObject@Base 6.2.1
 _ZN16XLogYPolarDomainD0Ev@Base 6.2.1
 _ZN16XLogYPolarDomainD1Ev@Base 6.2.1
 _ZN16XLogYPolarDomainD2Ev@Base 6.2.1
 _ZN17ChartThemeManager11qt_metacallEN11QMetaObject4CallEiPPv@Base 6.2.1
 _ZN17ChartThemeManager11qt_metacastEPKc@Base 6.2.1
 _ZN17ChartThemeManager12updateSeriesEP15QAbstractSeries@Base 6.2.1
 _ZN17ChartThemeManager15handleAxisAddedEP13QAbstractAxis@Base 6.2.1
 _ZN17ChartThemeManager16staticMetaObjectE@Base 6.2.1
 _ZN17ChartThemeManager17handleAxisRemovedEP13QAbstractAxis@Base 6.2.1
 _ZN17ChartThemeManager17handleSeriesAddedEP15QAbstractSeries@Base 6.2.1
 _ZN17ChartThemeManager19handleSeriesRemovedEP15QAbstractSeries@Base 6.2.1
 _ZN17ChartThemeManager23generateSeriesGradientsERK5QListI6QColorE@Base 6.2.1
 _ZN17ChartThemeManager7colorAtERK6QColorS2_d@Base 6.2.1
 _ZN17ChartThemeManager7colorAtERK9QGradientd@Base 6.2.1
 _ZN17ChartThemeManager8setThemeEN6QChart10ChartThemeE@Base 6.2.1
 _ZN17ChartThemeManagerC1EP6QChart@Base 6.2.1
 _ZN17ChartThemeManagerC2EP6QChart@Base 6.2.1
 _ZN17DateTimeAxisLabel11qt_metacallEN11QMetaObject4CallEiPPv@Base 6.2.1
 _ZN17DateTimeAxisLabel11qt_metacastEPKc@Base 6.2.1
 _ZN17DateTimeAxisLabel13finishEditingEv@Base 6.2.1
 _ZN17DateTimeAxisLabel13keyPressEventEP9QKeyEvent@Base 6.2.1
 _ZN17DateTimeAxisLabel15dateTimeChangedERK9QDateTimeS2_@Base 6.2.1
 _ZN17DateTimeAxisLabel16staticMetaObjectE@Base 6.2.1
 _ZN17DateTimeAxisLabel19setInitialEditValueEv@Base 6.2.1
 _ZN17DateTimeAxisLabel20resetBeforeEditValueEv@Base 6.2.1
 _ZN17DateTimeAxisLabel8setValueERK9QDateTime@Base 6.2.1
 _ZN17DateTimeAxisLabel9setFormatERK7QString@Base 6.2.1
 _ZN17DateTimeAxisLabelC1EP13QGraphicsItem@Base 6.2.1
 _ZN17DateTimeAxisLabelC2EP13QGraphicsItem@Base 6.2.1
 _ZN17EditableAxisLabel10sceneEventEP6QEvent@Base 6.2.1
 _ZN17EditableAxisLabel11qt_metacallEN11QMetaObject4CallEiPPv@Base 6.2.1
 _ZN17EditableAxisLabel11qt_metacastEPKc@Base 6.2.1
 _ZN17EditableAxisLabel11setEditableEb@Base 6.2.1
 _ZN17EditableAxisLabel12focusInEventEP11QFocusEvent@Base 6.2.1
 _ZN17EditableAxisLabel13focusOutEventEP11QFocusEvent@Base 6.2.1
 _ZN17EditableAxisLabel16staticMetaObjectE@Base 6.2.1
 _ZN17EditableAxisLabel20isEditEndingKeyPressEP9QKeyEvent@Base 6.2.1
 _ZN17EditableAxisLabel23reloadBeforeEditContentEv@Base 6.2.1
 _ZN17EditableAxisLabelC1EP13QGraphicsItem@Base 6.2.1
 _ZN17EditableAxisLabelC2EP13QGraphicsItem@Base 6.2.1
 _ZN17PieSliceAnimation11updateValueERK12PieSliceData@Base 6.2.1
 _ZN17PieSliceAnimation17currentSliceValueEv@Base 6.2.1
 _ZN17PieSliceAnimation18updateCurrentValueERK8QVariant@Base 6.2.1
 _ZN17PieSliceAnimation8setValueERK12PieSliceDataS2_@Base 6.2.1
 _ZN17PieSliceAnimationC1EP12PieSliceItem@Base 6.2.1
 _ZN17PieSliceAnimationC2EP12PieSliceItem@Base 6.2.1
 _ZN17PieSliceAnimationD0Ev@Base 6.2.1
 _ZN17PieSliceAnimationD1Ev@Base 6.2.1
 _ZN17PieSliceAnimationD2Ev@Base 6.2.1
 _ZN17QAreaLegendMarker11qt_metacallEN11QMetaObject4CallEiPPv@Base 6.2.1
 _ZN17QAreaLegendMarker11qt_metacastEPKc@Base 6.2.1
 _ZN17QAreaLegendMarker16staticMetaObjectE@Base 6.2.1
 _ZN17QAreaLegendMarker6seriesEv@Base 6.2.1
 _ZN17QAreaLegendMarkerC1EP11QAreaSeriesP7QLegendP7QObject@Base 6.2.1
 _ZN17QAreaLegendMarkerC1ER24QAreaLegendMarkerPrivateP7QObject@Base 6.2.1
 _ZN17QAreaLegendMarkerC2EP11QAreaSeriesP7QLegendP7QObject@Base 6.2.1
 _ZN17QAreaLegendMarkerC2ER24QAreaLegendMarkerPrivateP7QObject@Base 6.2.1
 _ZN17QAreaLegendMarkerD0Ev@Base 6.2.1
 _ZN17QAreaLegendMarkerD1Ev@Base 6.2.1
 _ZN17QAreaLegendMarkerD2Ev@Base 6.2.1
 _ZN17QBarSeriesPrivate16initializeDomainEv@Base 6.2.1
 _ZN17QBarSeriesPrivate18initializeGraphicsEP13QGraphicsItem@Base 6.2.1
 _ZN17QBarSeriesPrivateC1EP10QBarSeries@Base 6.2.1
 _ZN17QBarSeriesPrivateC2EP10QBarSeries@Base 6.2.1
 _ZN17QChartViewPrivate6resizeEv@Base 6.2.1
 _ZN17QChartViewPrivate8setChartEP6QChart@Base 6.2.1
 _ZN17QChartViewPrivateC1EP10QChartViewP6QChart@Base 6.2.1
 _ZN17QChartViewPrivateC2EP10QChartViewP6QChart@Base 6.2.1
 _ZN17QChartViewPrivateD1Ev@Base 6.2.1
 _ZN17QChartViewPrivateD2Ev@Base 6.2.1
 _ZN17QColorAxisPrivate11qt_metacallEN11QMetaObject4CallEiPPv@Base 6.2.1
 _ZN17QColorAxisPrivate11qt_metacastEPKc@Base 6.2.1
 _ZN17QColorAxisPrivate12updateSeriesEv@Base 6.2.1
 _ZN17QColorAxisPrivate16initializeDomainEP14AbstractDomain@Base 6.2.1
 _ZN17QColorAxisPrivate16staticMetaObjectE@Base 6.2.1
 _ZN17QColorAxisPrivate18initializeGraphicsEP13QGraphicsItem@Base 6.2.1
 _ZN17QColorAxisPrivate6setMaxERK8QVariant@Base 6.2.1
 _ZN17QColorAxisPrivate6setMinERK8QVariant@Base 6.2.1
 _ZN17QColorAxisPrivate8setRangeERK8QVariantS2_@Base 6.2.1
 _ZN17QColorAxisPrivate8setRangeEdd@Base 6.2.1
 _ZN17QColorAxisPrivateC1EP10QColorAxis@Base 6.2.1
 _ZN17QColorAxisPrivateC2EP10QColorAxis@Base 6.2.1
 _ZN17QColorAxisPrivateD0Ev@Base 6.2.1
 _ZN17QColorAxisPrivateD1Ev@Base 6.2.1
 _ZN17QColorAxisPrivateD2Ev@Base 6.2.1
 _ZN17QPercentBarSeries11qt_metacallEN11QMetaObject4CallEiPPv@Base 6.2.1
 _ZN17QPercentBarSeries11qt_metacastEPKc@Base 6.2.1
 _ZN17QPercentBarSeries16staticMetaObjectE@Base 6.2.1
 _ZN17QPercentBarSeriesC1EP7QObject@Base 6.2.1
 _ZN17QPercentBarSeriesC2EP7QObject@Base 6.2.1
 _ZN17QPercentBarSeriesD0Ev@Base 6.2.1
 _ZN17QPercentBarSeriesD1Ev@Base 6.2.1
 _ZN17QPercentBarSeriesD2Ev@Base 6.2.1
 _ZN17QPieSeriesPrivate10fromSeriesEP10QPieSeries@Base 6.2.1
 _ZN17QPieSeriesPrivate11qt_metacallEN11QMetaObject4CallEiPPv@Base 6.2.1
 _ZN17QPieSeriesPrivate11qt_metacastEPKc@Base 6.2.1
 _ZN17QPieSeriesPrivate12sliceClickedEv@Base 6.2.1
 _ZN17QPieSeriesPrivate12sliceHoveredEb@Base 6.2.1
 _ZN17QPieSeriesPrivate12slicePressedEv@Base 6.2.1
 _ZN17QPieSeriesPrivate13sliceReleasedEv@Base 6.2.1
 _ZN17QPieSeriesPrivate14initializeAxesEv@Base 6.2.1
 _ZN17QPieSeriesPrivate14pieSizeChangedEv@Base 6.2.1
 _ZN17QPieSeriesPrivate15initializeThemeEiP10ChartThemeb@Base 6.2.1
 _ZN17QPieSeriesPrivate16initializeDomainEv@Base 6.2.1
 _ZN17QPieSeriesPrivate16staticMetaObjectE@Base 6.2.1
 _ZN17QPieSeriesPrivate17sliceValueChangedEv@Base 6.2.1
 _ZN17QPieSeriesPrivate18initializeGraphicsEP13QGraphicsItem@Base 6.2.1
 _ZN17QPieSeriesPrivate18pieEndAngleChangedEv@Base 6.2.1
 _ZN17QPieSeriesPrivate18sliceDoubleClickedEv@Base 6.2.1
 _ZN17QPieSeriesPrivate19createLegendMarkersEP7QLegend@Base 6.2.1
 _ZN17QPieSeriesPrivate20initializeAnimationsE6QFlagsIN6QChart15AnimationOptionEEiR12QEasingCurve@Base 6.2.1
 _ZN17QPieSeriesPrivate20pieStartAngleChangedEv@Base 6.2.1
 _ZN17QPieSeriesPrivate20updateDerivativeDataEv@Base 6.2.1
 _ZN17QPieSeriesPrivate21calculatedDataChangedEv@Base 6.2.1
 _ZN17QPieSeriesPrivate23verticalPositionChangedEv@Base 6.2.1
 _ZN17QPieSeriesPrivate25horizontalPositionChangedEv@Base 6.2.1
 _ZN17QPieSeriesPrivate8setSizesEdd@Base 6.2.1
 _ZN17QPieSeriesPrivateC1EP10QPieSeries@Base 6.2.1
 _ZN17QPieSeriesPrivateC2EP10QPieSeries@Base 6.2.1
 _ZN17QPieSeriesPrivateD0Ev@Base 6.2.1
 _ZN17QPieSeriesPrivateD1Ev@Base 6.2.1
 _ZN17QPieSeriesPrivateD2Ev@Base 6.2.1
 _ZN17QStackedBarSeries11qt_metacallEN11QMetaObject4CallEiPPv@Base 6.2.1
 _ZN17QStackedBarSeries11qt_metacastEPKc@Base 6.2.1
 _ZN17QStackedBarSeries16staticMetaObjectE@Base 6.2.1
 _ZN17QStackedBarSeriesC1EP7QObject@Base 6.2.1
 _ZN17QStackedBarSeriesC2EP7QObject@Base 6.2.1
 _ZN17QStackedBarSeriesD0Ev@Base 6.2.1
 _ZN17QStackedBarSeriesD1Ev@Base 6.2.1
 _ZN17QStackedBarSeriesD2Ev@Base 6.2.1
 _ZN17QValueAxisPrivate11qt_metacallEN11QMetaObject4CallEiPPv@Base 6.2.1
 _ZN17QValueAxisPrivate11qt_metacastEPKc@Base 6.2.1
 _ZN17QValueAxisPrivate16initializeDomainEP14AbstractDomain@Base 6.2.1
 _ZN17QValueAxisPrivate16staticMetaObjectE@Base 6.2.1
 _ZN17QValueAxisPrivate18initializeGraphicsEP13QGraphicsItem@Base 6.2.1
 _ZN17QValueAxisPrivate6setMaxERK8QVariant@Base 6.2.1
 _ZN17QValueAxisPrivate6setMinERK8QVariant@Base 6.2.1
 _ZN17QValueAxisPrivate8setRangeERK8QVariantS2_@Base 6.2.1
 _ZN17QValueAxisPrivate8setRangeEdd@Base 6.2.1
 _ZN17QValueAxisPrivateC1EP10QValueAxis@Base 6.2.1
 _ZN17QValueAxisPrivateC2EP10QValueAxis@Base 6.2.1
 _ZN17QValueAxisPrivateD0Ev@Base 6.2.1
 _ZN17QValueAxisPrivateD1Ev@Base 6.2.1
 _ZN17QValueAxisPrivateD2Ev@Base 6.2.1
 _ZN18CartesianChartAxis11createItemsEi@Base 6.2.1
 _ZN18CartesianChartAxis11deleteItemsEi@Base 6.2.1
 _ZN18CartesianChartAxis11qt_metacallEN11QMetaObject4CallEiPPv@Base 6.2.1
 _ZN18CartesianChartAxis11qt_metacastEPKc@Base 6.2.1
 _ZN18CartesianChartAxis11setGeometryERK6QRectFS2_@Base 6.2.1
 _ZN18CartesianChartAxis12updateLayoutERK5QListIdE@Base 6.2.1
 _ZN18CartesianChartAxis16staticMetaObjectE@Base 6.2.1
 _ZN18CartesianChartAxis18updateLabelsValuesEP10QValueAxis@Base 6.2.1
 _ZN18CartesianChartAxis20handleGridPenChangedERK4QPen@Base 6.2.1
 _ZN18CartesianChartAxis20updateMinorTickItemsEv@Base 6.2.1
 _ZN18CartesianChartAxis21handleArrowPenChangedERK4QPen@Base 6.2.1
 _ZN18CartesianChartAxis21updateLabelsDateTimesEv@Base 6.2.1
 _ZN18CartesianChartAxis22handleShadesPenChangedERK4QPen@Base 6.2.1
 _ZN18CartesianChartAxis23setDateTimeLabelsFormatERK7QString@Base 6.2.1
 _ZN18CartesianChartAxis24handleShadesBrushChangedERK6QBrush@Base 6.2.1
 _ZN18CartesianChartAxis25handleMinorGridPenChangedERK4QPen@Base 6.2.1
 _ZN18CartesianChartAxis26handleGridLineColorChangedERK6QColor@Base 6.2.1
 _ZN18CartesianChartAxis26handleMinorArrowPenChangedERK4QPen@Base 6.2.1
 _ZN18CartesianChartAxis31handleMinorGridLineColorChangedERK6QColor@Base 6.2.1
 _ZN18CartesianChartAxisC1EP13QAbstractAxisP13QGraphicsItemb@Base 6.2.1
 _ZN18CartesianChartAxisC2EP13QAbstractAxisP13QGraphicsItemb@Base 6.2.1
 _ZN18CartesianChartAxisD0Ev@Base 6.2.1
 _ZN18CartesianChartAxisD1Ev@Base 6.2.1
 _ZN18CartesianChartAxisD2Ev@Base 6.2.1
 _ZN18ChartCategoryAxisX11qt_metacallEN11QMetaObject4CallEiPPv@Base 6.2.1
 _ZN18ChartCategoryAxisX11qt_metacastEPKc@Base 6.2.1
 _ZN18ChartCategoryAxisX14updateGeometryEv@Base 6.2.1
 _ZN18ChartCategoryAxisX16staticMetaObjectE@Base 6.2.1
 _ZN18ChartCategoryAxisX23handleCategoriesChangedEv@Base 6.2.1
 _ZN18ChartCategoryAxisXC1EP13QCategoryAxisP13QGraphicsItem@Base 6.2.1
 _ZN18ChartCategoryAxisXC2EP13QCategoryAxisP13QGraphicsItem@Base 6.2.1
 _ZN18ChartCategoryAxisXD0Ev@Base 6.2.1
 _ZN18ChartCategoryAxisXD1Ev@Base 6.2.1
 _ZN18ChartCategoryAxisXD2Ev@Base 6.2.1
 _ZN18ChartCategoryAxisY11qt_metacallEN11QMetaObject4CallEiPPv@Base 6.2.1
 _ZN18ChartCategoryAxisY11qt_metacastEPKc@Base 6.2.1
 _ZN18ChartCategoryAxisY14updateGeometryEv@Base 6.2.1
 _ZN18ChartCategoryAxisY16staticMetaObjectE@Base 6.2.1
 _ZN18ChartCategoryAxisY23handleCategoriesChangedEv@Base 6.2.1
 _ZN18ChartCategoryAxisYC1EP13QCategoryAxisP13QGraphicsItem@Base 6.2.1
 _ZN18ChartCategoryAxisYC2EP13QCategoryAxisP13QGraphicsItem@Base 6.2.1
 _ZN18ChartCategoryAxisYD0Ev@Base 6.2.1
 _ZN18ChartCategoryAxisYD1Ev@Base 6.2.1
 _ZN18ChartCategoryAxisYD2Ev@Base 6.2.1
 _ZN18ChartDateTimeAxisX11qt_metacallEN11QMetaObject4CallEiPPv@Base 6.2.1
 _ZN18ChartDateTimeAxisX11qt_metacastEPKc@Base 6.2.1
 _ZN18ChartDateTimeAxisX14updateGeometryEv@Base 6.2.1
 _ZN18ChartDateTimeAxisX16staticMetaObjectE@Base 6.2.1
 _ZN18ChartDateTimeAxisX19handleFormatChangedERK7QString@Base 6.2.1
 _ZN18ChartDateTimeAxisX22handleTickCountChangedEi@Base 6.2.1
 _ZN18ChartDateTimeAxisXC1EP13QDateTimeAxisP13QGraphicsItem@Base 6.2.1
 _ZN18ChartDateTimeAxisXC2EP13QDateTimeAxisP13QGraphicsItem@Base 6.2.1
 _ZN18ChartDateTimeAxisXD0Ev@Base 6.2.1
 _ZN18ChartDateTimeAxisXD1Ev@Base 6.2.1
 _ZN18ChartDateTimeAxisXD2Ev@Base 6.2.1
 _ZN18ChartDateTimeAxisY11qt_metacallEN11QMetaObject4CallEiPPv@Base 6.2.1
 _ZN18ChartDateTimeAxisY11qt_metacastEPKc@Base 6.2.1
 _ZN18ChartDateTimeAxisY14updateGeometryEv@Base 6.2.1
 _ZN18ChartDateTimeAxisY16staticMetaObjectE@Base 6.2.1
 _ZN18ChartDateTimeAxisY19handleFormatChangedERK7QString@Base 6.2.1
 _ZN18ChartDateTimeAxisY22handleTickCountChangedEi@Base 6.2.1
 _ZN18ChartDateTimeAxisYC1EP13QDateTimeAxisP13QGraphicsItem@Base 6.2.1
 _ZN18ChartDateTimeAxisYC2EP13QDateTimeAxisP13QGraphicsItem@Base 6.2.1
 _ZN18ChartDateTimeAxisYD0Ev@Base 6.2.1
 _ZN18ChartDateTimeAxisYD1Ev@Base 6.2.1
 _ZN18ChartDateTimeAxisYD2Ev@Base 6.2.1
 _ZN18ChartLogValueAxisX11qt_metacallEN11QMetaObject4CallEiPPv@Base 6.2.1
 _ZN18ChartLogValueAxisX11qt_metacastEPKc@Base 6.2.1
 _ZN18ChartLogValueAxisX14updateGeometryEv@Base 6.2.1
 _ZN18ChartLogValueAxisX16staticMetaObjectE@Base 6.2.1
 _ZN18ChartLogValueAxisX17handleBaseChangedEd@Base 6.2.1
 _ZN18ChartLogValueAxisX24handleLabelFormatChangedERK7QString@Base 6.2.1
 _ZN18ChartLogValueAxisXC1EP13QLogValueAxisP13QGraphicsItem@Base 6.2.1
 _ZN18ChartLogValueAxisXC2EP13QLogValueAxisP13QGraphicsItem@Base 6.2.1
 _ZN18ChartLogValueAxisXD0Ev@Base 6.2.1
 _ZN18ChartLogValueAxisXD1Ev@Base 6.2.1
 _ZN18ChartLogValueAxisXD2Ev@Base 6.2.1
 _ZN18ChartLogValueAxisY11qt_metacallEN11QMetaObject4CallEiPPv@Base 6.2.1
 _ZN18ChartLogValueAxisY11qt_metacastEPKc@Base 6.2.1
 _ZN18ChartLogValueAxisY14updateGeometryEv@Base 6.2.1
 _ZN18ChartLogValueAxisY16staticMetaObjectE@Base 6.2.1
 _ZN18ChartLogValueAxisY17handleBaseChangedEd@Base 6.2.1
 _ZN18ChartLogValueAxisY24handleLabelFormatChangedERK7QString@Base 6.2.1
 _ZN18ChartLogValueAxisYC1EP13QLogValueAxisP13QGraphicsItem@Base 6.2.1
 _ZN18ChartLogValueAxisYC2EP13QLogValueAxisP13QGraphicsItem@Base 6.2.1
 _ZN18ChartLogValueAxisYD0Ev@Base 6.2.1
 _ZN18ChartLogValueAxisYD1Ev@Base 6.2.1
 _ZN18ChartLogValueAxisYD2Ev@Base 6.2.1
 _ZN18QAbstractBarSeries11qt_metacallEN11QMetaObject4CallEiPPv@Base 6.2.1
 _ZN18QAbstractBarSeries11qt_metacastEPKc@Base 6.2.1
 _ZN18QAbstractBarSeries11setBarWidthEd@Base 6.2.1
 _ZN18QAbstractBarSeries12barsetsAddedERK5QListIP7QBarSetE@Base 6.2.1
 _ZN18QAbstractBarSeries12countChangedEv@Base 6.2.1
 _ZN18QAbstractBarSeries13doubleClickedEiP7QBarSet@Base 6.2.1
 _ZN18QAbstractBarSeries14barsetsRemovedERK5QListIP7QBarSetE@Base 6.2.1
 _ZN18QAbstractBarSeries14setLabelsAngleEd@Base 6.2.1
 _ZN18QAbstractBarSeries15setLabelsFormatERK7QString@Base 6.2.1
 _ZN18QAbstractBarSeries16setLabelsVisibleEb@Base 6.2.1
 _ZN18QAbstractBarSeries16staticMetaObjectE@Base 6.2.1
 _ZN18QAbstractBarSeries17setLabelsPositionENS_14LabelsPositionE@Base 6.2.1
 _ZN18QAbstractBarSeries18labelsAngleChangedEd@Base 6.2.1
 _ZN18QAbstractBarSeries18setLabelsPrecisionEi@Base 6.2.1
 _ZN18QAbstractBarSeries19labelsFormatChangedERK7QString@Base 6.2.1
 _ZN18QAbstractBarSeries20labelsVisibleChangedEv@Base 6.2.1
 _ZN18QAbstractBarSeries21labelsPositionChangedENS_14LabelsPositionE@Base 6.2.1
 _ZN18QAbstractBarSeries22labelsPrecisionChangedEi@Base 6.2.1
 _ZN18QAbstractBarSeries4takeEP7QBarSet@Base 6.2.1
 _ZN18QAbstractBarSeries5clearEv@Base 6.2.1
 _ZN18QAbstractBarSeries6appendEP7QBarSet@Base 6.2.1
 _ZN18QAbstractBarSeries6appendERK5QListIP7QBarSetE@Base 6.2.1
 _ZN18QAbstractBarSeries6insertEiP7QBarSet@Base 6.2.1
 _ZN18QAbstractBarSeries6removeEP7QBarSet@Base 6.2.1
 _ZN18QAbstractBarSeries7clickedEiP7QBarSet@Base 6.2.1
 _ZN18QAbstractBarSeries7hoveredEbiP7QBarSet@Base 6.2.1
 _ZN18QAbstractBarSeries7pressedEiP7QBarSet@Base 6.2.1
 _ZN18QAbstractBarSeries8releasedEiP7QBarSet@Base 6.2.1
 _ZN18QAbstractBarSeriesC1ER25QAbstractBarSeriesPrivateP7QObject@Base 6.2.1
 _ZN18QAbstractBarSeriesC2ER25QAbstractBarSeriesPrivateP7QObject@Base 6.2.1
 _ZN18QAbstractBarSeriesD0Ev@Base 6.2.1
 _ZN18QAbstractBarSeriesD1Ev@Base 6.2.1
 _ZN18QAbstractBarSeriesD2Ev@Base 6.2.1
 _ZN18QAreaSeriesPrivate11qt_metacallEN11QMetaObject4CallEiPPv@Base 6.2.1
 _ZN18QAreaSeriesPrivate11qt_metacastEPKc@Base 6.2.1
 _ZN18QAreaSeriesPrivate14initializeAxesEv@Base 6.2.1
 _ZN18QAreaSeriesPrivate15initializeThemeEiP10ChartThemeb@Base 6.2.1
 _ZN18QAreaSeriesPrivate16initializeDomainEv@Base 6.2.1
 _ZN18QAreaSeriesPrivate16staticMetaObjectE@Base 6.2.1
 _ZN18QAreaSeriesPrivate18initializeGraphicsEP13QGraphicsItem@Base 6.2.1
 _ZN18QAreaSeriesPrivate19createLegendMarkersEP7QLegend@Base 6.2.1
 _ZN18QAreaSeriesPrivate20initializeAnimationsE6QFlagsIN6QChart15AnimationOptionEEiR12QEasingCurve@Base 6.2.1
 _ZN18QAreaSeriesPrivate7updatedEv@Base 6.2.1
 _ZN18QAreaSeriesPrivateC1EP11QLineSeriesS1_P11QAreaSeries@Base 6.2.1
 _ZN18QAreaSeriesPrivateC2EP11QLineSeriesS1_P11QAreaSeries@Base 6.2.1
 _ZN18QCandlestickSeries10penChangedEv@Base 6.2.1
 _ZN18QCandlestickSeries11qt_metacallEN11QMetaObject4CallEiPPv@Base 6.2.1
 _ZN18QCandlestickSeries11qt_metacastEPKc@Base 6.2.1
 _ZN18QCandlestickSeries12brushChangedEv@Base 6.2.1
 _ZN18QCandlestickSeries12countChangedEv@Base 6.2.1
 _ZN18QCandlestickSeries12setBodyWidthEd@Base 6.2.1
 _ZN18QCandlestickSeries12setCapsWidthEd@Base 6.2.1
 _ZN18QCandlestickSeries13doubleClickedEP15QCandlestickSet@Base 6.2.1
 _ZN18QCandlestickSeries14setCapsVisibleEb@Base 6.2.1
 _ZN18QCandlestickSeries16bodyWidthChangedEv@Base 6.2.1
 _ZN18QCandlestickSeries16capsWidthChangedEv@Base 6.2.1
 _ZN18QCandlestickSeries16staticMetaObjectE@Base 6.2.1
 _ZN18QCandlestickSeries18setDecreasingColorERK6QColor@Base 6.2.1
 _ZN18QCandlestickSeries18setIncreasingColorERK6QColor@Base 6.2.1
 _ZN18QCandlestickSeries20candlestickSetsAddedERK5QListIP15QCandlestickSetE@Base 6.2.1
 _ZN18QCandlestickSeries21capsVisibilityChangedEv@Base 6.2.1
 _ZN18QCandlestickSeries21setBodyOutlineVisibleEb@Base 6.2.1
 _ZN18QCandlestickSeries21setMaximumColumnWidthEd@Base 6.2.1
 _ZN18QCandlestickSeries21setMinimumColumnWidthEd@Base 6.2.1
 _ZN18QCandlestickSeries22candlestickSetsRemovedERK5QListIP15QCandlestickSetE@Base 6.2.1
 _ZN18QCandlestickSeries22decreasingColorChangedEv@Base 6.2.1
 _ZN18QCandlestickSeries22increasingColorChangedEv@Base 6.2.1
 _ZN18QCandlestickSeries25maximumColumnWidthChangedEv@Base 6.2.1
 _ZN18QCandlestickSeries25minimumColumnWidthChangedEv@Base 6.2.1
 _ZN18QCandlestickSeries28bodyOutlineVisibilityChangedEv@Base 6.2.1
 _ZN18QCandlestickSeries4takeEP15QCandlestickSet@Base 6.2.1
 _ZN18QCandlestickSeries5clearEv@Base 6.2.1
 _ZN18QCandlestickSeries6appendEP15QCandlestickSet@Base 6.2.1
 _ZN18QCandlestickSeries6appendERK5QListIP15QCandlestickSetE@Base 6.2.1
 _ZN18QCandlestickSeries6insertEiP15QCandlestickSet@Base 6.2.1
 _ZN18QCandlestickSeries6removeEP15QCandlestickSet@Base 6.2.1
 _ZN18QCandlestickSeries6removeERK5QListIP15QCandlestickSetE@Base 6.2.1
 _ZN18QCandlestickSeries6setPenERK4QPen@Base 6.2.1
 _ZN18QCandlestickSeries7clickedEP15QCandlestickSet@Base 6.2.1
 _ZN18QCandlestickSeries7hoveredEbP15QCandlestickSet@Base 6.2.1
 _ZN18QCandlestickSeries7pressedEP15QCandlestickSet@Base 6.2.1
 _ZN18QCandlestickSeries8releasedEP15QCandlestickSet@Base 6.2.1
 _ZN18QCandlestickSeries8setBrushERK6QBrush@Base 6.2.1
 _ZN18QCandlestickSeriesC1EP7QObject@Base 6.2.1
 _ZN18QCandlestickSeriesC2EP7QObject@Base 6.2.1
 _ZN18QCandlestickSeriesD0Ev@Base 6.2.1
 _ZN18QCandlestickSeriesD1Ev@Base 6.2.1
 _ZN18QCandlestickSeriesD2Ev@Base 6.2.1
 _ZN18QLineSeriesPrivate15initializeThemeEiP10ChartThemeb@Base 6.2.1
 _ZN18QLineSeriesPrivate18initializeGraphicsEP13QGraphicsItem@Base 6.2.1
 _ZN18QLineSeriesPrivateC1EP11QLineSeries@Base 6.2.1
 _ZN18QLineSeriesPrivateC2EP11QLineSeries@Base 6.2.1
 _ZN19AbstractChartLayout10setMarginsERK8QMargins@Base 6.2.1
 _ZN19AbstractChartLayout11setGeometryERK6QRectF@Base 6.2.1
 _ZN19AbstractChartLayoutC1EP14ChartPresenter@Base 6.2.1
 _ZN19AbstractChartLayoutC2EP14ChartPresenter@Base 6.2.1
 _ZN19AbstractChartLayoutD0Ev@Base 6.2.1
 _ZN19AbstractChartLayoutD1Ev@Base 6.2.1
 _ZN19AbstractChartLayoutD2Ev@Base 6.2.1
 _ZN19LogXLogYPolarDomain10attachAxisEP13QAbstractAxis@Base 6.2.1
 _ZN19LogXLogYPolarDomain10detachAxisEP13QAbstractAxis@Base 6.2.1
 _ZN19LogXLogYPolarDomain11qt_metacallEN11QMetaObject4CallEiPPv@Base 6.2.1
 _ZN19LogXLogYPolarDomain11qt_metacastEPKc@Base 6.2.1
 _ZN19LogXLogYPolarDomain16staticMetaObjectE@Base 6.2.1
 _ZN19LogXLogYPolarDomain29handleVerticalAxisBaseChangedEd@Base 6.2.1
 _ZN19LogXLogYPolarDomain31handleHorizontalAxisBaseChangedEd@Base 6.2.1
 _ZN19LogXLogYPolarDomain4moveEdd@Base 6.2.1
 _ZN19LogXLogYPolarDomain6zoomInERK6QRectF@Base 6.2.1
 _ZN19LogXLogYPolarDomain7zoomOutERK6QRectF@Base 6.2.1
 _ZN19LogXLogYPolarDomain8setRangeEdddd@Base 6.2.1
 _ZN19LogXLogYPolarDomainC1EP7QObject@Base 6.2.1
 _ZN19LogXLogYPolarDomainC2EP7QObject@Base 6.2.1
 _ZN19LogXLogYPolarDomainD0Ev@Base 6.2.1
 _ZN19LogXLogYPolarDomainD1Ev@Base 6.2.1
 _ZN19LogXLogYPolarDomainD2Ev@Base 6.2.1
 _ZN19PercentBarChartItem11qt_metacallEN11QMetaObject4CallEiPPv@Base 6.2.1
 _ZN19PercentBarChartItem11qt_metacastEPKc@Base 6.2.1
 _ZN19PercentBarChartItem12topLeftPointEidd@Base 6.2.1
 _ZN19PercentBarChartItem14positionLabelsEv@Base 6.2.1
 _ZN19PercentBarChartItem15calculateLayoutEv@Base 6.2.1
 _ZN19PercentBarChartItem15markLabelsDirtyEP7QBarSetii@Base 6.2.1
 _ZN19PercentBarChartItem16bottomRightPointEidd@Base 6.2.1
 _ZN19PercentBarChartItem16initializeLayoutEiiib@Base 6.2.1
 _ZN19PercentBarChartItem16staticMetaObjectE@Base 6.2.1
 _ZN19PercentBarChartItem17generateLabelTextEiid@Base 6.2.1
 _ZN19PercentBarChartItem27handleLabelsPositionChangedEv@Base 6.2.1
 _ZN19PercentBarChartItemC1EP18QAbstractBarSeriesP13QGraphicsItem@Base 6.2.1
 _ZN19PercentBarChartItemC2EP18QAbstractBarSeriesP13QGraphicsItem@Base 6.2.1
 _ZN19QBoxPlotModelMapper11qt_metacallEN11QMetaObject4CallEiPPv@Base 6.2.1
 _ZN19QBoxPlotModelMapper11qt_metacastEPKc@Base 6.2.1
 _ZN19QBoxPlotModelMapper14setOrientationEN2Qt11OrientationE@Base 6.2.1
 _ZN19QBoxPlotModelMapper16staticMetaObjectE@Base 6.2.1
 _ZN19QBoxPlotModelMapper20setLastBoxSetSectionEi@Base 6.2.1
 _ZN19QBoxPlotModelMapper21setFirstBoxSetSectionEi@Base 6.2.1
 _ZN19QBoxPlotModelMapper8setCountEi@Base 6.2.1
 _ZN19QBoxPlotModelMapper8setFirstEi@Base 6.2.1
 _ZN19QBoxPlotModelMapper8setModelEP18QAbstractItemModel@Base 6.2.1
 _ZN19QBoxPlotModelMapper9setSeriesEP14QBoxPlotSeries@Base 6.2.1
 _ZN19QBoxPlotModelMapperC1EP7QObject@Base 6.2.1
 _ZN19QBoxPlotModelMapperC2EP7QObject@Base 6.2.1
 _ZN19StackedBarChartItem11qt_metacallEN11QMetaObject4CallEiPPv@Base 6.2.1
 _ZN19StackedBarChartItem11qt_metacastEPKc@Base 6.2.1
 _ZN19StackedBarChartItem12topLeftPointEidd@Base 6.2.1
 _ZN19StackedBarChartItem14positionLabelsEv@Base 6.2.1
 _ZN19StackedBarChartItem15calculateLayoutEv@Base 6.2.1
 _ZN19StackedBarChartItem16bottomRightPointEidd@Base 6.2.1
 _ZN19StackedBarChartItem16initializeLayoutEiiib@Base 6.2.1
 _ZN19StackedBarChartItem16staticMetaObjectE@Base 6.2.1
 _ZN19StackedBarChartItem27handleLabelsPositionChangedEv@Base 6.2.1
 _ZN19StackedBarChartItemC1EP18QAbstractBarSeriesP13QGraphicsItem@Base 6.2.1
 _ZN19StackedBarChartItemC2EP18QAbstractBarSeriesP13QGraphicsItem@Base 6.2.1
 _ZN20AbstractBarChartItem11applyLayoutERK5QListI6QRectFE@Base 6.2.1
 _ZN20AbstractBarChartItem11qt_metacallEN11QMetaObject4CallEiPPv@Base 6.2.1
 _ZN20AbstractBarChartItem11qt_metacastEPKc@Base 6.2.1
 _ZN20AbstractBarChartItem12setAnimationEP12BarAnimation@Base 6.2.1
 _ZN20AbstractBarChartItem14positionLabelsEv@Base 6.2.1
 _ZN20AbstractBarChartItem14resetAnimationEv@Base 6.2.1
 _ZN20AbstractBarChartItem14updateBarItemsEv@Base 6.2.1
 _ZN20AbstractBarChartItem15markLabelsDirtyEP7QBarSetii@Base 6.2.1
 _ZN20AbstractBarChartItem16createLabelItemsEv@Base 6.2.1
 _ZN20AbstractBarChartItem16staticMetaObjectE@Base 6.2.1
 _ZN20AbstractBarChartItem17generateLabelTextEiid@Base 6.2.1
 _ZN20AbstractBarChartItem17handleBarValueAddEiiP7QBarSet@Base 6.2.1
 _ZN20AbstractBarChartItem17handleSeriesAddedEP15QAbstractSeries@Base 6.2.1
 _ZN20AbstractBarChartItem17handleUpdatedBarsEv@Base 6.2.1
 _ZN20AbstractBarChartItem19handleDomainUpdatedEv@Base 6.2.1
 _ZN20AbstractBarChartItem19handleLayoutChangedEv@Base 6.2.1
 _ZN20AbstractBarChartItem19handleSeriesRemovedEP15QAbstractSeries@Base 6.2.1
 _ZN20AbstractBarChartItem20handleBarValueChangeEiP7QBarSet@Base 6.2.1
 _ZN20AbstractBarChartItem20handleBarValueRemoveEiiP7QBarSet@Base 6.2.1
 _ZN20AbstractBarChartItem20handleOpacityChangedEv@Base 6.2.1
 _ZN20AbstractBarChartItem20handleVisibleChangedEv@Base 6.2.1
 _ZN20AbstractBarChartItem20initializeFullLayoutEv@Base 6.2.1
 _ZN20AbstractBarChartItem22positionLabelsVerticalEv@Base 6.2.1
 _ZN20AbstractBarChartItem24handleSetStructureChangeEv@Base 6.2.1
 _ZN20AbstractBarChartItem26handleDataStructureChangedEv@Base 6.2.1
 _ZN20AbstractBarChartItem26handleLabelsVisibleChangedEb@Base 6.2.1
 _ZN20AbstractBarChartItem27handleLabelsPositionChangedEv@Base 6.2.1
 _ZN20AbstractBarChartItem41calculateSeriesPositionAdjustmentAndWidthEv@Base 6.2.1
 _ZN20AbstractBarChartItem5paintEP8QPainterPK24QStyleOptionGraphicsItemP7QWidget@Base 6.2.1
 _ZN20AbstractBarChartItem9setLayoutERK5QListI6QRectFE@Base 6.2.1
 _ZN20AbstractBarChartItemC1EP18QAbstractBarSeriesP13QGraphicsItem@Base 6.2.1
 _ZN20AbstractBarChartItemC2EP18QAbstractBarSeriesP13QGraphicsItem@Base 6.2.1
 _ZN20AbstractBarChartItemD0Ev@Base 6.2.1
 _ZN20AbstractBarChartItemD1Ev@Base 6.2.1
 _ZN20AbstractBarChartItemD2Ev@Base 6.2.1
 _ZN20BoxWhiskersAnimation10setEndDataERK15BoxWhiskersData@Base 6.2.1
 _ZN20BoxWhiskersAnimation11qt_metacallEN11QMetaObject4CallEiPPv@Base 6.2.1
 _ZN20BoxWhiskersAnimation11qt_metacastEPKc@Base 6.2.1
 _ZN20BoxWhiskersAnimation12setStartDataERK15BoxWhiskersData@Base 6.2.1
 _ZN20BoxWhiskersAnimation16staticMetaObjectE@Base 6.2.1
 _ZN20BoxWhiskersAnimation18updateCurrentValueERK8QVariant@Base 6.2.1
 _ZN20BoxWhiskersAnimation5setupERK15BoxWhiskersDataS2_@Base 6.2.1
 _ZN20BoxWhiskersAnimationC1EP11BoxWhiskersP16BoxPlotAnimationiR12QEasingCurve@Base 6.2.1
 _ZN20BoxWhiskersAnimationC2EP11BoxWhiskersP16BoxPlotAnimationiR12QEasingCurve@Base 6.2.1
 _ZN20BoxWhiskersAnimationD0Ev@Base 6.2.1
 _ZN20BoxWhiskersAnimationD1Ev@Base 6.2.1
 _ZN20BoxWhiskersAnimationD2Ev@Base 6.2.1
 _ZN20CandlestickAnimation11qt_metacallEN11QMetaObject4CallEiPPv@Base 6.2.1
 _ZN20CandlestickAnimation11qt_metacastEPKc@Base 6.2.1
 _ZN20CandlestickAnimation14addCandlestickEP11Candlestick@Base 6.2.1
 _ZN20CandlestickAnimation16staticMetaObjectE@Base 6.2.1
 _ZN20CandlestickAnimation17setAnimationStartEP11Candlestick@Base 6.2.1
 _ZN20CandlestickAnimation20candlestickAnimationEP11Candlestick@Base 6.2.1
 _ZN20CandlestickAnimation26candlestickChangeAnimationEP11Candlestick@Base 6.2.1
 _ZN20CandlestickAnimation26removeCandlestickAnimationEP11Candlestick@Base 6.2.1
 _ZN20CandlestickAnimation7stopAllEv@Base 6.2.1
 _ZN20CandlestickAnimationC1EP20CandlestickChartItemiR12QEasingCurve@Base 6.2.1
 _ZN20CandlestickAnimationC2EP20CandlestickChartItemiR12QEasingCurve@Base 6.2.1
 _ZN20CandlestickAnimationD0Ev@Base 6.2.1
 _ZN20CandlestickAnimationD1Ev@Base 6.2.1
 _ZN20CandlestickAnimationD2Ev@Base 6.2.1
 _ZN20CandlestickChartItem11qt_metacallEN11QMetaObject4CallEiPPv@Base 6.2.1
 _ZN20CandlestickChartItem11qt_metacastEPKc@Base 6.2.1
 _ZN20CandlestickChartItem12addTimestampEd@Base 6.2.1
 _ZN20CandlestickChartItem12setAnimationEP20CandlestickAnimation@Base 6.2.1
 _ZN20CandlestickChartItem15removeTimestampEd@Base 6.2.1
 _ZN20CandlestickChartItem16staticMetaObjectE@Base 6.2.1
 _ZN20CandlestickChartItem16updateTimePeriodEv@Base 6.2.1
 _ZN20CandlestickChartItem19handleDomainUpdatedEv@Base 6.2.1
 _ZN20CandlestickChartItem19handleLayoutUpdatedEv@Base 6.2.1
 _ZN20CandlestickChartItem24handleCandlestickSetsAddERK5QListIP15QCandlestickSetE@Base 6.2.1
 _ZN20CandlestickChartItem25handleCandlesticksUpdatedEv@Base 6.2.1
 _ZN20CandlestickChartItem25updateCandlestickGeometryEP11Candlesticki@Base 6.2.1
 _ZN20CandlestickChartItem26handleDataStructureChangedEv@Base 6.2.1
 _ZN20CandlestickChartItem27handleCandlestickSetsRemoveERK5QListIP15QCandlestickSetE@Base 6.2.1
 _ZN20CandlestickChartItem27updateCandlestickAppearanceEP11CandlestickP15QCandlestickSet@Base 6.2.1
 _ZN20CandlestickChartItem29handleCandlestickSeriesChangeEv@Base 6.2.1
 _ZN20CandlestickChartItem5paintEP8QPainterPK24QStyleOptionGraphicsItemP7QWidget@Base 6.2.1
 _ZN20CandlestickChartItemC1EP18QCandlestickSeriesP13QGraphicsItem@Base 6.2.1
 _ZN20CandlestickChartItemC2EP18QCandlestickSeriesP13QGraphicsItem@Base 6.2.1
 _ZN20CandlestickChartItemD0Ev@Base 6.2.1
 _ZN20CandlestickChartItemD1Ev@Base 6.2.1
 _ZN20CandlestickChartItemD2Ev@Base 6.2.1
 _ZN20CartesianChartLayoutC1EP14ChartPresenter@Base 6.2.1
 _ZN20CartesianChartLayoutC2EP14ChartPresenter@Base 6.2.1
 _ZN20CartesianChartLayoutD0Ev@Base 6.2.1
 _ZN20CartesianChartLayoutD1Ev@Base 6.2.1
 _ZN20CartesianChartLayoutD2Ev@Base 6.2.1
 _ZN20PolarChartAxisRadial11createItemsEi@Base 6.2.1
 _ZN20PolarChartAxisRadial11qt_metacallEN11QMetaObject4CallEiPPv@Base 6.2.1
 _ZN20PolarChartAxisRadial11qt_metacastEPKc@Base 6.2.1
 _ZN20PolarChartAxisRadial14updateGeometryEv@Base 6.2.1
 _ZN20PolarChartAxisRadial16staticMetaObjectE@Base 6.2.1
 _ZN20PolarChartAxisRadial19preferredAxisRadiusERK6QSizeF@Base 6.2.1
 _ZN20PolarChartAxisRadial20handleGridPenChangedERK4QPen@Base 6.2.1
 _ZN20PolarChartAxisRadial20updateMinorTickItemsEv@Base 6.2.1
 _ZN20PolarChartAxisRadial21handleArrowPenChangedERK4QPen@Base 6.2.1
 _ZN20PolarChartAxisRadial23updateMinorTickGeometryEv@Base 6.2.1
 _ZN20PolarChartAxisRadial25handleMinorGridPenChangedERK4QPen@Base 6.2.1
 _ZN20PolarChartAxisRadial26handleGridLineColorChangedERK6QColor@Base 6.2.1
 _ZN20PolarChartAxisRadial26handleMinorArrowPenChangedERK4QPen@Base 6.2.1
 _ZN20PolarChartAxisRadial31handleMinorGridLineColorChangedERK6QColor@Base 6.2.1
 _ZN20PolarChartAxisRadialC1EP13QAbstractAxisP13QGraphicsItemb@Base 6.2.1
 _ZN20PolarChartAxisRadialC2EP13QAbstractAxisP13QGraphicsItemb@Base 6.2.1
 _ZN20PolarChartAxisRadialD0Ev@Base 6.2.1
 _ZN20PolarChartAxisRadialD1Ev@Base 6.2.1
 _ZN20PolarChartAxisRadialD2Ev@Base 6.2.1
 _ZN20QAbstractAxisPrivate11qt_metacallEN11QMetaObject4CallEiPPv@Base 6.2.1
 _ZN20QAbstractAxisPrivate11qt_metacastEPKc@Base 6.2.1
 _ZN20QAbstractAxisPrivate12rangeChangedEdd@Base 6.2.1
 _ZN20QAbstractAxisPrivate12setAlignmentE6QFlagsIN2Qt13AlignmentFlagEE@Base 6.2.1
 _ZN20QAbstractAxisPrivate15initializeThemeEP10ChartThemeb@Base 6.2.1
 _ZN20QAbstractAxisPrivate16staticMetaObjectE@Base 6.2.1
 _ZN20QAbstractAxisPrivate18handleRangeChangedEdd@Base 6.2.1
 _ZN20QAbstractAxisPrivate18initializeGraphicsEP13QGraphicsItem@Base 6.2.1
 _ZN20QAbstractAxisPrivate18setLabelsTruncatedEb@Base 6.2.1
 _ZN20QAbstractAxisPrivate20initializeAnimationsE6QFlagsIN6QChart15AnimationOptionEEiR12QEasingCurve@Base 6.2.1
 _ZN20QAbstractAxisPrivateC1EP13QAbstractAxis@Base 6.2.1
 _ZN20QAbstractAxisPrivateC2EP13QAbstractAxis@Base 6.2.1
 _ZN20QAbstractAxisPrivateD0Ev@Base 6.2.1
 _ZN20QAbstractAxisPrivateD1Ev@Base 6.2.1
 _ZN20QAbstractAxisPrivateD2Ev@Base 6.2.1
 _ZN20QBoxPlotLegendMarker11qt_metacallEN11QMetaObject4CallEiPPv@Base 6.2.1
 _ZN20QBoxPlotLegendMarker11qt_metacastEPKc@Base 6.2.1
 _ZN20QBoxPlotLegendMarker16staticMetaObjectE@Base 6.2.1
 _ZN20QBoxPlotLegendMarker6seriesEv@Base 6.2.1
 _ZN20QBoxPlotLegendMarkerC1EP14QBoxPlotSeriesP7QLegendP7QObject@Base 6.2.1
 _ZN20QBoxPlotLegendMarkerC1ER27QBoxPlotLegendMarkerPrivateP7QObject@Base 6.2.1
 _ZN20QBoxPlotLegendMarkerC2EP14QBoxPlotSeriesP7QLegendP7QObject@Base 6.2.1
 _ZN20QBoxPlotLegendMarkerC2ER27QBoxPlotLegendMarkerPrivateP7QObject@Base 6.2.1
 _ZN20QBoxPlotLegendMarkerD0Ev@Base 6.2.1
 _ZN20QBoxPlotLegendMarkerD1Ev@Base 6.2.1
 _ZN20QBoxPlotLegendMarkerD2Ev@Base 6.2.1
 _ZN20QCategoryAxisPrivate11qt_metacallEN11QMetaObject4CallEiPPv@Base 6.2.1
 _ZN20QCategoryAxisPrivate11qt_metacastEPKc@Base 6.2.1
 _ZN20QCategoryAxisPrivate16staticMetaObjectE@Base 6.2.1
 _ZN20QCategoryAxisPrivate18initializeGraphicsEP13QGraphicsItem@Base 6.2.1
 _ZN20QCategoryAxisPrivateC1EP13QCategoryAxis@Base 6.2.1
 _ZN20QCategoryAxisPrivateC2EP13QCategoryAxis@Base 6.2.1
 _ZN20QCategoryAxisPrivateD0Ev@Base 6.2.1
 _ZN20QCategoryAxisPrivateD1Ev@Base 6.2.1
 _ZN20QCategoryAxisPrivateD2Ev@Base 6.2.1
 _ZN20QDateTimeAxisPrivate11qt_metacallEN11QMetaObject4CallEiPPv@Base 6.2.1
 _ZN20QDateTimeAxisPrivate11qt_metacastEPKc@Base 6.2.1
 _ZN20QDateTimeAxisPrivate16initializeDomainEP14AbstractDomain@Base 6.2.1
 _ZN20QDateTimeAxisPrivate16staticMetaObjectE@Base 6.2.1
 _ZN20QDateTimeAxisPrivate18initializeGraphicsEP13QGraphicsItem@Base 6.2.1
 _ZN20QDateTimeAxisPrivate6setMaxERK8QVariant@Base 6.2.1
 _ZN20QDateTimeAxisPrivate6setMinERK8QVariant@Base 6.2.1
 _ZN20QDateTimeAxisPrivate8setRangeERK8QVariantS2_@Base 6.2.1
 _ZN20QDateTimeAxisPrivate8setRangeEdd@Base 6.2.1
 _ZN20QDateTimeAxisPrivateC1EP13QDateTimeAxis@Base 6.2.1
 _ZN20QDateTimeAxisPrivateC2EP13QDateTimeAxis@Base 6.2.1
 _ZN20QDateTimeAxisPrivateD0Ev@Base 6.2.1
 _ZN20QDateTimeAxisPrivateD1Ev@Base 6.2.1
 _ZN20QDateTimeAxisPrivateD2Ev@Base 6.2.1
 _ZN20QHBoxPlotModelMapper11qt_metacallEN11QMetaObject4CallEiPPv@Base 6.2.1
 _ZN20QHBoxPlotModelMapper11qt_metacastEPKc@Base 6.2.1
 _ZN20QHBoxPlotModelMapper13modelReplacedEv@Base 6.2.1
 _ZN20QHBoxPlotModelMapper14seriesReplacedEv@Base 6.2.1
 _ZN20QHBoxPlotModelMapper14setColumnCountEi@Base 6.2.1
 _ZN20QHBoxPlotModelMapper14setFirstColumnEi@Base 6.2.1
 _ZN20QHBoxPlotModelMapper16setLastBoxSetRowEi@Base 6.2.1
 _ZN20QHBoxPlotModelMapper16staticMetaObjectE@Base 6.2.1
 _ZN20QHBoxPlotModelMapper17setFirstBoxSetRowEi@Base 6.2.1
 _ZN20QHBoxPlotModelMapper18columnCountChangedEv@Base 6.2.1
 _ZN20QHBoxPlotModelMapper18firstColumnChangedEv@Base 6.2.1
 _ZN20QHBoxPlotModelMapper20lastBoxSetRowChangedEv@Base 6.2.1
 _ZN20QHBoxPlotModelMapper21firstBoxSetRowChangedEv@Base 6.2.1
 _ZN20QHBoxPlotModelMapper8setModelEP18QAbstractItemModel@Base 6.2.1
 _ZN20QHBoxPlotModelMapper9setSeriesEP14QBoxPlotSeries@Base 6.2.1
 _ZN20QHBoxPlotModelMapperC1EP7QObject@Base 6.2.1
 _ZN20QHBoxPlotModelMapperC2EP7QObject@Base 6.2.1
 _ZN20QHorizontalBarSeries11qt_metacallEN11QMetaObject4CallEiPPv@Base 6.2.1
 _ZN20QHorizontalBarSeries11qt_metacastEPKc@Base 6.2.1
 _ZN20QHorizontalBarSeries16staticMetaObjectE@Base 6.2.1
 _ZN20QHorizontalBarSeriesC1EP7QObject@Base 6.2.1
 _ZN20QHorizontalBarSeriesC2EP7QObject@Base 6.2.1
 _ZN20QHorizontalBarSeriesD0Ev@Base 6.2.1
 _ZN20QHorizontalBarSeriesD1Ev@Base 6.2.1
 _ZN20QHorizontalBarSeriesD2Ev@Base 6.2.1
 _ZN20QLegendMarkerPrivate11qt_metacallEN11QMetaObject4CallEiPPv@Base 6.2.1
 _ZN20QLegendMarkerPrivate11qt_metacastEPKc@Base 6.2.1
 _ZN20QLegendMarkerPrivate16invalidateLegendEv@Base 6.2.1
 _ZN20QLegendMarkerPrivate16staticMetaObjectE@Base 6.2.1
 _ZN20QLegendMarkerPrivate17handleShapeChangeEv@Base 6.2.1
 _ZN20QLegendMarkerPrivate18invalidateAllItemsEv@Base 6.2.1
 _ZN20QLegendMarkerPrivateC1EP13QLegendMarkerP7QLegend@Base 6.2.1
 _ZN20QLegendMarkerPrivateC2EP13QLegendMarkerP7QLegend@Base 6.2.1
 _ZN20QLegendMarkerPrivateD0Ev@Base 6.2.1
 _ZN20QLegendMarkerPrivateD1Ev@Base 6.2.1
 _ZN20QLegendMarkerPrivateD2Ev@Base 6.2.1
 _ZN20QLogValueAxisPrivate11qt_metacallEN11QMetaObject4CallEiPPv@Base 6.2.1
 _ZN20QLogValueAxisPrivate11qt_metacastEPKc@Base 6.2.1
 _ZN20QLogValueAxisPrivate15updateTickCountEv@Base 6.2.1
 _ZN20QLogValueAxisPrivate16initializeDomainEP14AbstractDomain@Base 6.2.1
 _ZN20QLogValueAxisPrivate16staticMetaObjectE@Base 6.2.1
 _ZN20QLogValueAxisPrivate18initializeGraphicsEP13QGraphicsItem@Base 6.2.1
 _ZN20QLogValueAxisPrivate6setMaxERK8QVariant@Base 6.2.1
 _ZN20QLogValueAxisPrivate6setMinERK8QVariant@Base 6.2.1
 _ZN20QLogValueAxisPrivate8setRangeERK8QVariantS2_@Base 6.2.1
 _ZN20QLogValueAxisPrivate8setRangeEdd@Base 6.2.1
 _ZN20QLogValueAxisPrivateC1EP13QLogValueAxis@Base 6.2.1
 _ZN20QLogValueAxisPrivateC2EP13QLogValueAxis@Base 6.2.1
 _ZN20QLogValueAxisPrivateD0Ev@Base 6.2.1
 _ZN20QLogValueAxisPrivateD1Ev@Base 6.2.1
 _ZN20QLogValueAxisPrivateD2Ev@Base 6.2.1
 _ZN20QSplineSeriesPrivate11qt_metacallEN11QMetaObject4CallEiPPv@Base 6.2.1
 _ZN20QSplineSeriesPrivate11qt_metacastEPKc@Base 6.2.1
 _ZN20QSplineSeriesPrivate15initializeThemeEiP10ChartThemeb@Base 6.2.1
 _ZN20QSplineSeriesPrivate16staticMetaObjectE@Base 6.2.1
 _ZN20QSplineSeriesPrivate18initializeGraphicsEP13QGraphicsItem@Base 6.2.1
 _ZN20QSplineSeriesPrivate20initializeAnimationsE6QFlagsIN6QChart15AnimationOptionEEiR12QEasingCurve@Base 6.2.1
 _ZN20QSplineSeriesPrivateC1EP13QSplineSeries@Base 6.2.1
 _ZN20QSplineSeriesPrivateC2EP13QSplineSeries@Base 6.2.1
 _ZN20QVBoxPlotModelMapper11qt_metacallEN11QMetaObject4CallEiPPv@Base 6.2.1
 _ZN20QVBoxPlotModelMapper11qt_metacastEPKc@Base 6.2.1
 _ZN20QVBoxPlotModelMapper11setFirstRowEi@Base 6.2.1
 _ZN20QVBoxPlotModelMapper11setRowCountEi@Base 6.2.1
 _ZN20QVBoxPlotModelMapper13modelReplacedEv@Base 6.2.1
 _ZN20QVBoxPlotModelMapper14seriesReplacedEv@Base 6.2.1
 _ZN20QVBoxPlotModelMapper15firstRowChangedEv@Base 6.2.1
 _ZN20QVBoxPlotModelMapper15rowCountChangedEv@Base 6.2.1
 _ZN20QVBoxPlotModelMapper16staticMetaObjectE@Base 6.2.1
 _ZN20QVBoxPlotModelMapper19setLastBoxSetColumnEi@Base 6.2.1
 _ZN20QVBoxPlotModelMapper20setFirstBoxSetColumnEi@Base 6.2.1
 _ZN20QVBoxPlotModelMapper23lastBoxSetColumnChangedEv@Base 6.2.1
 _ZN20QVBoxPlotModelMapper24firstBoxSetColumnChangedEv@Base 6.2.1
 _ZN20QVBoxPlotModelMapper8setModelEP18QAbstractItemModel@Base 6.2.1
 _ZN20QVBoxPlotModelMapper9setSeriesEP14QBoxPlotSeries@Base 6.2.1
 _ZN20QVBoxPlotModelMapperC1EP7QObject@Base 6.2.1
 _ZN20QVBoxPlotModelMapperC2EP7QObject@Base 6.2.1
 _ZN21ChartBarCategoryAxisX11qt_metacallEN11QMetaObject4CallEiPPv@Base 6.2.1
 _ZN21ChartBarCategoryAxisX11qt_metacastEPKc@Base 6.2.1
 _ZN21ChartBarCategoryAxisX14updateGeometryEv@Base 6.2.1
 _ZN21ChartBarCategoryAxisX16staticMetaObjectE@Base 6.2.1
 _ZN21ChartBarCategoryAxisX23handleCategoriesChangedEv@Base 6.2.1
 _ZN21ChartBarCategoryAxisXC1EP16QBarCategoryAxisP13QGraphicsItem@Base 6.2.1
 _ZN21ChartBarCategoryAxisXC2EP16QBarCategoryAxisP13QGraphicsItem@Base 6.2.1
 _ZN21ChartBarCategoryAxisXD0Ev@Base 6.2.1
 _ZN21ChartBarCategoryAxisXD1Ev@Base 6.2.1
 _ZN21ChartBarCategoryAxisXD2Ev@Base 6.2.1
 _ZN21ChartBarCategoryAxisY11qt_metacallEN11QMetaObject4CallEiPPv@Base 6.2.1
 _ZN21ChartBarCategoryAxisY11qt_metacastEPKc@Base 6.2.1
 _ZN21ChartBarCategoryAxisY14updateGeometryEv@Base 6.2.1
 _ZN21ChartBarCategoryAxisY16staticMetaObjectE@Base 6.2.1
 _ZN21ChartBarCategoryAxisY23handleCategoriesChangedEv@Base 6.2.1
 _ZN21ChartBarCategoryAxisYC1EP16QBarCategoryAxisP13QGraphicsItem@Base 6.2.1
 _ZN21ChartBarCategoryAxisYC2EP16QBarCategoryAxisP13QGraphicsItem@Base 6.2.1
 _ZN21ChartBarCategoryAxisYD0Ev@Base 6.2.1
 _ZN21ChartBarCategoryAxisYD1Ev@Base 6.2.1
 _ZN21ChartBarCategoryAxisYD2Ev@Base 6.2.1
 _ZN21GLXYSeriesDataManager11qt_metacallEN11QMetaObject4CallEiPPv@Base 6.2.1
 _ZN21GLXYSeriesDataManager11qt_metacastEPKc@Base 6.2.1
 _ZN21GLXYSeriesDataManager12removeSeriesEPK9QXYSeries@Base 6.2.1
 _ZN21GLXYSeriesDataManager13seriesRemovedEPK9QXYSeries@Base 6.2.1
 _ZN21GLXYSeriesDataManager16staticMetaObjectE@Base 6.2.1
 _ZN21GLXYSeriesDataManager21handleSeriesPenChangeEv@Base 6.2.1
 _ZN21GLXYSeriesDataManager24handleAxisReverseChangedERK5QListIP15QAbstractSeriesE@Base 6.2.1
 _ZN21GLXYSeriesDataManager24handleScatterColorChangeEv@Base 6.2.1
 _ZN21GLXYSeriesDataManager24handleSeriesOpenGLChangeEv@Base 6.2.1
 _ZN21GLXYSeriesDataManager28handleSeriesVisibilityChangeEv@Base 6.2.1
 _ZN21GLXYSeriesDataManager29handleScatterMarkerSizeChangeEv@Base 6.2.1
 _ZN21GLXYSeriesDataManager7cleanupEv@Base 6.2.1
 _ZN21GLXYSeriesDataManager9setPointsEP9QXYSeriesPK14AbstractDomain@Base 6.2.1
 _ZN21GLXYSeriesDataManagerC1EP7QObject@Base 6.2.1
 _ZN21GLXYSeriesDataManagerC2EP7QObject@Base 6.2.1
 _ZN21GLXYSeriesDataManagerD0Ev@Base 6.2.1
 _ZN21GLXYSeriesDataManagerD1Ev@Base 6.2.1
 _ZN21GLXYSeriesDataManagerD2Ev@Base 6.2.1
 _ZN21PolarChartAxisAngular11createItemsEi@Base 6.2.1
 _ZN21PolarChartAxisAngular11qt_metacallEN11QMetaObject4CallEiPPv@Base 6.2.1
 _ZN21PolarChartAxisAngular11qt_metacastEPKc@Base 6.2.1
 _ZN21PolarChartAxisAngular14updateGeometryEv@Base 6.2.1
 _ZN21PolarChartAxisAngular16staticMetaObjectE@Base 6.2.1
 _ZN21PolarChartAxisAngular19preferredAxisRadiusERK6QSizeF@Base 6.2.1
 _ZN21PolarChartAxisAngular20handleGridPenChangedERK4QPen@Base 6.2.1
 _ZN21PolarChartAxisAngular20updateMinorTickItemsEv@Base 6.2.1
 _ZN21PolarChartAxisAngular21handleArrowPenChangedERK4QPen@Base 6.2.1
 _ZN21PolarChartAxisAngular23updateMinorTickGeometryEv@Base 6.2.1
 _ZN21PolarChartAxisAngular25handleMinorGridPenChangedERK4QPen@Base 6.2.1
 _ZN21PolarChartAxisAngular26handleGridLineColorChangedERK6QColor@Base 6.2.1
 _ZN21PolarChartAxisAngular26handleMinorArrowPenChangedERK4QPen@Base 6.2.1
 _ZN21PolarChartAxisAngular31handleMinorGridLineColorChangedERK6QColor@Base 6.2.1
 _ZN21PolarChartAxisAngularC1EP13QAbstractAxisP13QGraphicsItemb@Base 6.2.1
 _ZN21PolarChartAxisAngularC2EP13QAbstractAxisP13QGraphicsItemb@Base 6.2.1
 _ZN21PolarChartAxisAngularD0Ev@Base 6.2.1
 _ZN21PolarChartAxisAngularD1Ev@Base 6.2.1
 _ZN21PolarChartAxisAngularD2Ev@Base 6.2.1
 _ZN21QBoxPlotSeriesPrivate11qt_metacallEN11QMetaObject4CallEiPPv@Base 6.2.1
 _ZN21QBoxPlotSeriesPrivate11qt_metacastEPKc@Base 6.2.1
 _ZN21QBoxPlotSeriesPrivate12updatedBoxesEv@Base 6.2.1
 _ZN21QBoxPlotSeriesPrivate13doubleClickedEiP7QBoxSet@Base 6.2.1
 _ZN21QBoxPlotSeriesPrivate13updatedLayoutEv@Base 6.2.1
 _ZN21QBoxPlotSeriesPrivate14initializeAxesEv@Base 6.2.1
 _ZN21QBoxPlotSeriesPrivate15initializeThemeEiP10ChartThemeb@Base 6.2.1
 _ZN21QBoxPlotSeriesPrivate16initializeDomainEv@Base 6.2.1
 _ZN21QBoxPlotSeriesPrivate16staticMetaObjectE@Base 6.2.1
 _ZN21QBoxPlotSeriesPrivate17restructuredBoxesEv@Base 6.2.1
 _ZN21QBoxPlotSeriesPrivate18handleSeriesChangeEP15QAbstractSeries@Base 6.2.1
 _ZN21QBoxPlotSeriesPrivate18handleSeriesRemoveEP15QAbstractSeries@Base 6.2.1
 _ZN21QBoxPlotSeriesPrivate18initializeGraphicsEP13QGraphicsItem@Base 6.2.1
 _ZN21QBoxPlotSeriesPrivate18populateCategoriesEP16QBarCategoryAxis@Base 6.2.1
 _ZN21QBoxPlotSeriesPrivate19createLegendMarkersEP7QLegend@Base 6.2.1
 _ZN21QBoxPlotSeriesPrivate20initializeAnimationsE6QFlagsIN6QChart15AnimationOptionEEiR12QEasingCurve@Base 6.2.1
 _ZN21QBoxPlotSeriesPrivate3maxEv@Base 6.2.1
 _ZN21QBoxPlotSeriesPrivate3minEv@Base 6.2.1
 _ZN21QBoxPlotSeriesPrivate6appendEP7QBoxSet@Base 6.2.1
 _ZN21QBoxPlotSeriesPrivate6appendERK5QListIP7QBoxSetE@Base 6.2.1
 _ZN21QBoxPlotSeriesPrivate6insertEiP7QBoxSet@Base 6.2.1
 _ZN21QBoxPlotSeriesPrivate6removeEP7QBoxSet@Base 6.2.1
 _ZN21QBoxPlotSeriesPrivate6removeERK5QListIP7QBoxSetE@Base 6.2.1
 _ZN21QBoxPlotSeriesPrivate7clickedEiP7QBoxSet@Base 6.2.1
 _ZN21QBoxPlotSeriesPrivate7pressedEiP7QBoxSet@Base 6.2.1
 _ZN21QBoxPlotSeriesPrivate7updatedEv@Base 6.2.1
 _ZN21QBoxPlotSeriesPrivate8boxSetAtEi@Base 6.2.1
 _ZN21QBoxPlotSeriesPrivate8releasedEiP7QBoxSet@Base 6.2.1
 _ZN21QBoxPlotSeriesPrivateC1EP14QBoxPlotSeries@Base 6.2.1
 _ZN21QBoxPlotSeriesPrivateC2EP14QBoxPlotSeries@Base 6.2.1
 _ZN21QBoxPlotSeriesPrivateD0Ev@Base 6.2.1
 _ZN21QBoxPlotSeriesPrivateD1Ev@Base 6.2.1
 _ZN21QBoxPlotSeriesPrivateD2Ev@Base 6.2.1
 _ZN21QScatterSeriesPrivate15initializeThemeEiP10ChartThemeb@Base 6.2.1
 _ZN21QScatterSeriesPrivate18initializeGraphicsEP13QGraphicsItem@Base 6.2.1
 _ZN21QScatterSeriesPrivate20initializeAnimationsE6QFlagsIN6QChart15AnimationOptionEEiR12QEasingCurve@Base 6.2.1
 _ZN21QScatterSeriesPrivateC1EP14QScatterSeries@Base 6.2.1
 _ZN21QScatterSeriesPrivateC2EP14QScatterSeries@Base 6.2.1
 _ZN21QXYModelMapperPrivate10insertDataEii@Base 6.2.1
 _ZN21QXYModelMapperPrivate10removeDataEii@Base 6.2.1
 _ZN21QXYModelMapperPrivate11qt_metacallEN11QMetaObject4CallEiPPv@Base 6.2.1
 _ZN21QXYModelMapperPrivate11qt_metacastEPKc@Base 6.2.1
 _ZN21QXYModelMapperPrivate11xModelIndexEi@Base 6.2.1
 _ZN21QXYModelMapperPrivate11yModelIndexEi@Base 6.2.1
 _ZN21QXYModelMapperPrivate12modelUpdatedE11QModelIndexS0_@Base 6.2.1
 _ZN21QXYModelMapperPrivate14modelRowsAddedE11QModelIndexii@Base 6.2.1
 _ZN21QXYModelMapperPrivate14valueFromModelE11QModelIndex@Base 6.2.1
 _ZN21QXYModelMapperPrivate15setValueToModelE11QModelIndexd@Base 6.2.1
 _ZN21QXYModelMapperPrivate16handlePointAddedEi@Base 6.2.1
 _ZN21QXYModelMapperPrivate16modelRowsRemovedE11QModelIndexii@Base 6.2.1
 _ZN21QXYModelMapperPrivate16staticMetaObjectE@Base 6.2.1
 _ZN21QXYModelMapperPrivate17blockModelSignalsEb@Base 6.2.1
 _ZN21QXYModelMapperPrivate17modelColumnsAddedE11QModelIndexii@Base 6.2.1
 _ZN21QXYModelMapperPrivate18blockSeriesSignalsEb@Base 6.2.1
 _ZN21QXYModelMapperPrivate18handlePointRemovedEi@Base 6.2.1
 _ZN21QXYModelMapperPrivate19handlePointReplacedEi@Base 6.2.1
 _ZN21QXYModelMapperPrivate19handlePointsRemovedEii@Base 6.2.1
 _ZN21QXYModelMapperPrivate19modelColumnsRemovedE11QModelIndexii@Base 6.2.1
 _ZN21QXYModelMapperPrivate20handleModelDestroyedEv@Base 6.2.1
 _ZN21QXYModelMapperPrivate21handleSeriesDestroyedEv@Base 6.2.1
 _ZN21QXYModelMapperPrivate21initializeXYFromModelEv@Base 6.2.1
 _ZN21QXYModelMapperPrivateC1EP14QXYModelMapper@Base 6.2.1
 _ZN21QXYModelMapperPrivateC2EP14QXYModelMapper@Base 6.2.1
 _ZN22HorizontalBarChartItem11qt_metacallEN11QMetaObject4CallEiPPv@Base 6.2.1
 _ZN22HorizontalBarChartItem11qt_metacastEPKc@Base 6.2.1
 _ZN22HorizontalBarChartItem12topLeftPointEiiidd@Base 6.2.1
 _ZN22HorizontalBarChartItem15calculateLayoutEv@Base 6.2.1
 _ZN22HorizontalBarChartItem16bottomRightPointEiiidd@Base 6.2.1
 _ZN22HorizontalBarChartItem16initializeLayoutEiiib@Base 6.2.1
 _ZN22HorizontalBarChartItem16staticMetaObjectE@Base 6.2.1
 _ZN22HorizontalBarChartItemC1EP18QAbstractBarSeriesP13QGraphicsItem@Base 6.2.1
 _ZN22HorizontalBarChartItemC2EP18QAbstractBarSeriesP13QGraphicsItem@Base 6.2.1
 _ZN22QAbstractSeriesPrivate11qt_metacallEN11QMetaObject4CallEiPPv@Base 6.2.1
 _ZN22QAbstractSeriesPrivate11qt_metacastEPKc@Base 6.2.1
 _ZN22QAbstractSeriesPrivate12countChangedEv@Base 6.2.1
 _ZN22QAbstractSeriesPrivate12setPresenterEP14ChartPresenter@Base 6.2.1
 _ZN22QAbstractSeriesPrivate14setBlockOpenGLEb@Base 6.2.1
 _ZN22QAbstractSeriesPrivate16staticMetaObjectE@Base 6.2.1
 _ZN22QAbstractSeriesPrivate18initializeGraphicsEP13QGraphicsItem@Base 6.2.1
 _ZN22QAbstractSeriesPrivate20initializeAnimationsE6QFlagsIN6QChart15AnimationOptionEEiR12QEasingCurve@Base 6.2.1
 _ZN22QAbstractSeriesPrivate9setDomainEP14AbstractDomain@Base 6.2.1
 _ZN22QAbstractSeriesPrivateC1EP15QAbstractSeries@Base 6.2.1
 _ZN22QAbstractSeriesPrivateC2EP15QAbstractSeries@Base 6.2.1
 _ZN22QAbstractSeriesPrivateD0Ev@Base 6.2.1
 _ZN22QAbstractSeriesPrivateD1Ev@Base 6.2.1
 _ZN22QAbstractSeriesPrivateD2Ev@Base 6.2.1
 _ZN22QBarModelMapperPrivate10insertDataEii@Base 6.2.1
 _ZN22QBarModelMapperPrivate10removeDataEii@Base 6.2.1
 _ZN22QBarModelMapperPrivate11qt_metacallEN11QMetaObject4CallEiPPv@Base 6.2.1
 _ZN22QBarModelMapperPrivate11qt_metacastEPKc@Base 6.2.1
 _ZN22QBarModelMapperPrivate11valuesAddedEii@Base 6.2.1
 _ZN22QBarModelMapperPrivate12barSetsAddedERK5QListIP7QBarSetE@Base 6.2.1
 _ZN22QBarModelMapperPrivate12modelUpdatedE11QModelIndexS0_@Base 6.2.1
 _ZN22QBarModelMapperPrivate13barModelIndexEii@Base 6.2.1
 _ZN22QBarModelMapperPrivate13valuesRemovedEii@Base 6.2.1
 _ZN22QBarModelMapperPrivate14barSetsRemovedERK5QListIP7QBarSetE@Base 6.2.1
 _ZN22QBarModelMapperPrivate14modelRowsAddedE11QModelIndexii@Base 6.2.1
 _ZN22QBarModelMapperPrivate15barLabelChangedEv@Base 6.2.1
 _ZN22QBarModelMapperPrivate15barValueChangedEi@Base 6.2.1
 _ZN22QBarModelMapperPrivate16modelRowsRemovedE11QModelIndexii@Base 6.2.1
 _ZN22QBarModelMapperPrivate16staticMetaObjectE@Base 6.2.1
 _ZN22QBarModelMapperPrivate17blockModelSignalsEb@Base 6.2.1
 _ZN22QBarModelMapperPrivate17modelColumnsAddedE11QModelIndexii@Base 6.2.1
 _ZN22QBarModelMapperPrivate18blockSeriesSignalsEb@Base 6.2.1
 _ZN22QBarModelMapperPrivate19modelColumnsRemovedE11QModelIndexii@Base 6.2.1
 _ZN22QBarModelMapperPrivate20handleModelDestroyedEv@Base 6.2.1
 _ZN22QBarModelMapperPrivate21handleSeriesDestroyedEv@Base 6.2.1
 _ZN22QBarModelMapperPrivate22initializeBarFromModelEv@Base 6.2.1
 _ZN22QBarModelMapperPrivate22modelHeaderDataUpdatedEN2Qt11OrientationEii@Base 6.2.1
 _ZN22QBarModelMapperPrivate6barSetE11QModelIndex@Base 6.2.1
 _ZN22QBarModelMapperPrivateC1EP15QBarModelMapper@Base 6.2.1
 _ZN22QBarModelMapperPrivateC2EP15QBarModelMapper@Base 6.2.1
 _ZN22QCandlestickSetPrivate11qt_metacallEN11QMetaObject4CallEiPPv@Base 6.2.1
 _ZN22QCandlestickSetPrivate11qt_metacastEPKc@Base 6.2.1
 _ZN22QCandlestickSetPrivate12setTimestampEd@Base 6.2.1
 _ZN22QCandlestickSetPrivate13updatedLayoutEv@Base 6.2.1
 _ZN22QCandlestickSetPrivate16staticMetaObjectE@Base 6.2.1
 _ZN22QCandlestickSetPrivate18updatedCandlestickEv@Base 6.2.1
 _ZN22QCandlestickSetPrivateC1EdP15QCandlestickSet@Base 6.2.1
 _ZN22QCandlestickSetPrivateC2EdP15QCandlestickSet@Base 6.2.1
 _ZN22QCandlestickSetPrivateD0Ev@Base 6.2.1
 _ZN22QCandlestickSetPrivateD1Ev@Base 6.2.1
 _ZN22QCandlestickSetPrivateD2Ev@Base 6.2.1
 _ZN22QPieModelMapperPrivate10insertDataEii@Base 6.2.1
 _ZN22QPieModelMapperPrivate10removeDataEii@Base 6.2.1
 _ZN22QPieModelMapperPrivate11qt_metacallEN11QMetaObject4CallEiPPv@Base 6.2.1
 _ZN22QPieModelMapperPrivate11qt_metacastEPKc@Base 6.2.1
 _ZN22QPieModelMapperPrivate11slicesAddedERK5QListIP9QPieSliceE@Base 6.2.1
 _ZN22QPieModelMapperPrivate12modelUpdatedE11QModelIndexS0_@Base 6.2.1
 _ZN22QPieModelMapperPrivate13slicesRemovedERK5QListIP9QPieSliceE@Base 6.2.1
 _ZN22QPieModelMapperPrivate14modelRowsAddedE11QModelIndexii@Base 6.2.1
 _ZN22QPieModelMapperPrivate15labelModelIndexEi@Base 6.2.1
 _ZN22QPieModelMapperPrivate15valueModelIndexEi@Base 6.2.1
 _ZN22QPieModelMapperPrivate16modelRowsRemovedE11QModelIndexii@Base 6.2.1
 _ZN22QPieModelMapperPrivate16staticMetaObjectE@Base 6.2.1
 _ZN22QPieModelMapperPrivate17blockModelSignalsEb@Base 6.2.1
 _ZN22QPieModelMapperPrivate17modelColumnsAddedE11QModelIndexii@Base 6.2.1
 _ZN22QPieModelMapperPrivate17sliceLabelChangedEv@Base 6.2.1
 _ZN22QPieModelMapperPrivate17sliceValueChangedEv@Base 6.2.1
 _ZN22QPieModelMapperPrivate18blockSeriesSignalsEb@Base 6.2.1
 _ZN22QPieModelMapperPrivate19modelColumnsRemovedE11QModelIndexii@Base 6.2.1
 _ZN22QPieModelMapperPrivate20handleModelDestroyedEv@Base 6.2.1
 _ZN22QPieModelMapperPrivate21handleSeriesDestroyedEv@Base 6.2.1
 _ZN22QPieModelMapperPrivate22initializePieFromModelEv@Base 6.2.1
 _ZN22QPieModelMapperPrivateC1EP15QPieModelMapper@Base 6.2.1
 _ZN22QPieModelMapperPrivateC2EP15QPieModelMapper@Base 6.2.1
 _ZN22QXYLegendMarkerPrivate11qt_metacallEN11QMetaObject4CallEiPPv@Base 6.2.1
 _ZN22QXYLegendMarkerPrivate11qt_metacastEPKc@Base 6.2.1
 _ZN22QXYLegendMarkerPrivate13relatedObjectEv@Base 6.2.1
 _ZN22QXYLegendMarkerPrivate16staticMetaObjectE@Base 6.2.1
 _ZN22QXYLegendMarkerPrivate6seriesEv@Base 6.2.1
 _ZN22QXYLegendMarkerPrivate7updatedEv@Base 6.2.1
 _ZN22QXYLegendMarkerPrivateC1EP15QXYLegendMarkerP9QXYSeriesP7QLegend@Base 6.2.1
 _ZN22QXYLegendMarkerPrivateC2EP15QXYLegendMarkerP9QXYSeriesP7QLegend@Base 6.2.1
 _ZN22QXYLegendMarkerPrivateD0Ev@Base 6.2.1
 _ZN22QXYLegendMarkerPrivateD1Ev@Base 6.2.1
 _ZN22QXYLegendMarkerPrivateD2Ev@Base 6.2.1
 _ZN22RotatedRectangleMarker7polygonEdddd@Base 6.2.1
 _ZN22RotatedRectangleMarkerC1EddddP16ScatterChartItem@Base 6.2.1
 _ZN22RotatedRectangleMarkerC2EddddP16ScatterChartItem@Base 6.2.1
 _ZN23LegendMoveResizeHandler14setMouseCursorENS_13MousePositionE@Base 6.2.1
 _ZN23LegendMoveResizeHandler14setMouseCursorEv@Base 6.2.1
 _ZN23LegendMoveResizeHandler20handleHoverMoveEventEP24QGraphicsSceneHoverEvent@Base 6.2.1
 _ZN23LegendMoveResizeHandler20handleMouseMoveEventEP24QGraphicsSceneMouseEvent@Base 6.2.1
 _ZN23LegendMoveResizeHandler21handleHoverEnterEventEP24QGraphicsSceneHoverEvent@Base 6.2.1
 _ZN23LegendMoveResizeHandler21handleHoverLeaveEventEP24QGraphicsSceneHoverEvent@Base 6.2.1
 _ZN23LegendMoveResizeHandler21handleMousePressEventEP24QGraphicsSceneMouseEvent@Base 6.2.1
 _ZN23LegendMoveResizeHandler22determineMousePositionE7QPointF@Base 6.2.1
 _ZN23LegendMoveResizeHandler23handleMouseReleaseEventEP24QGraphicsSceneMouseEvent@Base 6.2.1
 _ZN23LegendMoveResizeHandler5resetEv@Base 6.2.1
 _ZN23LegendMoveResizeHandlerC1EP7QLegend@Base 6.2.1
 _ZN23LegendMoveResizeHandlerC2EP7QLegend@Base 6.2.1
 _ZN23LegendMoveResizeHandlerD1Ev@Base 6.2.1
 _ZN23LegendMoveResizeHandlerD2Ev@Base 6.2.1
 _ZN23QBarCategoryAxisPrivate11qt_metacallEN11QMetaObject4CallEiPPv@Base 6.2.1
 _ZN23QBarCategoryAxisPrivate11qt_metacastEPKc@Base 6.2.1
 _ZN23QBarCategoryAxisPrivate16initializeDomainEP14AbstractDomain@Base 6.2.1
 _ZN23QBarCategoryAxisPrivate16staticMetaObjectE@Base 6.2.1
 _ZN23QBarCategoryAxisPrivate18initializeGraphicsEP13QGraphicsItem@Base 6.2.1
 _ZN23QBarCategoryAxisPrivate20updateCategoryDomainEv@Base 6.2.1
 _ZN23QBarCategoryAxisPrivate6setMaxERK8QVariant@Base 6.2.1
 _ZN23QBarCategoryAxisPrivate6setMinERK8QVariant@Base 6.2.1
 _ZN23QBarCategoryAxisPrivate8setRangeERK7QStringS2_@Base 6.2.1
 _ZN23QBarCategoryAxisPrivate8setRangeERK8QVariantS2_@Base 6.2.1
 _ZN23QBarCategoryAxisPrivate8setRangeEdd@Base 6.2.1
 _ZN23QBarCategoryAxisPrivateC1EP16QBarCategoryAxis@Base 6.2.1
 _ZN23QBarCategoryAxisPrivateC2EP16QBarCategoryAxis@Base 6.2.1
 _ZN23QBarCategoryAxisPrivateD0Ev@Base 6.2.1
 _ZN23QBarCategoryAxisPrivateD1Ev@Base 6.2.1
 _ZN23QBarCategoryAxisPrivateD2Ev@Base 6.2.1
 _ZN23QBarLegendMarkerPrivate11qt_metacallEN11QMetaObject4CallEiPPv@Base 6.2.1
 _ZN23QBarLegendMarkerPrivate11qt_metacastEPKc@Base 6.2.1
 _ZN23QBarLegendMarkerPrivate13relatedObjectEv@Base 6.2.1
 _ZN23QBarLegendMarkerPrivate16staticMetaObjectE@Base 6.2.1
 _ZN23QBarLegendMarkerPrivate6seriesEv@Base 6.2.1
 _ZN23QBarLegendMarkerPrivate7updatedEv@Base 6.2.1
 _ZN23QBarLegendMarkerPrivateC1EP16QBarLegendMarkerP18QAbstractBarSeriesP7QBarSetP7QLegend@Base 6.2.1
 _ZN23QBarLegendMarkerPrivateC2EP16QBarLegendMarkerP18QAbstractBarSeriesP7QBarSetP7QLegend@Base 6.2.1
 _ZN23QBarLegendMarkerPrivateD0Ev@Base 6.2.1
 _ZN23QBarLegendMarkerPrivateD1Ev@Base 6.2.1
 _ZN23QBarLegendMarkerPrivateD2Ev@Base 6.2.1
 _ZN23QCandlestickModelMapper11qt_metacallEN11QMetaObject4CallEiPPv@Base 6.2.1
 _ZN23QCandlestickModelMapper11qt_metacastEPKc@Base 6.2.1
 _ZN23QCandlestickModelMapper12setTimestampEi@Base 6.2.1
 _ZN23QCandlestickModelMapper13modelReplacedEv@Base 6.2.1
 _ZN23QCandlestickModelMapper14seriesReplacedEv@Base 6.2.1
 _ZN23QCandlestickModelMapper16staticMetaObjectE@Base 6.2.1
 _ZN23QCandlestickModelMapper17setLastSetSectionEi@Base 6.2.1
 _ZN23QCandlestickModelMapper18setFirstSetSectionEi@Base 6.2.1
 _ZN23QCandlestickModelMapper6setLowEi@Base 6.2.1
 _ZN23QCandlestickModelMapper7setHighEi@Base 6.2.1
 _ZN23QCandlestickModelMapper7setOpenEi@Base 6.2.1
 _ZN23QCandlestickModelMapper8setCloseEi@Base 6.2.1
 _ZN23QCandlestickModelMapper8setModelEP18QAbstractItemModel@Base 6.2.1
 _ZN23QCandlestickModelMapper9setSeriesEP18QCandlestickSeries@Base 6.2.1
 _ZN23QCandlestickModelMapperC1EP7QObject@Base 6.2.1
 _ZN23QCandlestickModelMapperC2EP7QObject@Base 6.2.1
 _ZN23QPieLegendMarkerPrivate11qt_metacallEN11QMetaObject4CallEiPPv@Base 6.2.1
 _ZN23QPieLegendMarkerPrivate11qt_metacastEPKc@Base 6.2.1
 _ZN23QPieLegendMarkerPrivate13relatedObjectEv@Base 6.2.1
 _ZN23QPieLegendMarkerPrivate16staticMetaObjectE@Base 6.2.1
 _ZN23QPieLegendMarkerPrivate6seriesEv@Base 6.2.1
 _ZN23QPieLegendMarkerPrivate7updatedEv@Base 6.2.1
 _ZN23QPieLegendMarkerPrivateC1EP16QPieLegendMarkerP10QPieSeriesP9QPieSliceP7QLegend@Base 6.2.1
 _ZN23QPieLegendMarkerPrivateC2EP16QPieLegendMarkerP10QPieSeriesP9QPieSliceP7QLegend@Base 6.2.1
 _ZN23QPieLegendMarkerPrivateD0Ev@Base 6.2.1
 _ZN23QPieLegendMarkerPrivateD1Ev@Base 6.2.1
 _ZN23QPieLegendMarkerPrivateD2Ev@Base 6.2.1
 _ZN24QAreaLegendMarkerPrivate11qt_metacallEN11QMetaObject4CallEiPPv@Base 6.2.1
 _ZN24QAreaLegendMarkerPrivate11qt_metacastEPKc@Base 6.2.1
 _ZN24QAreaLegendMarkerPrivate13relatedObjectEv@Base 6.2.1
 _ZN24QAreaLegendMarkerPrivate16staticMetaObjectE@Base 6.2.1
 _ZN24QAreaLegendMarkerPrivate6seriesEv@Base 6.2.1
 _ZN24QAreaLegendMarkerPrivate7updatedEv@Base 6.2.1
 _ZN24QAreaLegendMarkerPrivateC1EP17QAreaLegendMarkerP11QAreaSeriesP7QLegend@Base 6.2.1
 _ZN24QAreaLegendMarkerPrivateC2EP17QAreaLegendMarkerP11QAreaSeriesP7QLegend@Base 6.2.1
 _ZN24QAreaLegendMarkerPrivateD0Ev@Base 6.2.1
 _ZN24QAreaLegendMarkerPrivateD1Ev@Base 6.2.1
 _ZN24QAreaLegendMarkerPrivateD2Ev@Base 6.2.1
 _ZN24QCandlestickLegendMarker11qt_metacallEN11QMetaObject4CallEiPPv@Base 6.2.1
 _ZN24QCandlestickLegendMarker11qt_metacastEPKc@Base 6.2.1
 _ZN24QCandlestickLegendMarker16staticMetaObjectE@Base 6.2.1
 _ZN24QCandlestickLegendMarker4typeEv@Base 6.2.1
 _ZN24QCandlestickLegendMarker6seriesEv@Base 6.2.1
 _ZN24QCandlestickLegendMarkerC1EP18QCandlestickSeriesP7QLegendP7QObject@Base 6.2.1
 _ZN24QCandlestickLegendMarkerC2EP18QCandlestickSeriesP7QLegendP7QObject@Base 6.2.1
 _ZN24QCandlestickLegendMarkerD0Ev@Base 6.2.1
 _ZN24QCandlestickLegendMarkerD1Ev@Base 6.2.1
 _ZN24QCandlestickLegendMarkerD2Ev@Base 6.2.1
 _ZN24QHCandlestickModelMapper11qt_metacallEN11QMetaObject4CallEiPPv@Base 6.2.1
 _ZN24QHCandlestickModelMapper11qt_metacastEPKc@Base 6.2.1
 _ZN24QHCandlestickModelMapper12setLowColumnEi@Base 6.2.1
 _ZN24QHCandlestickModelMapper13setHighColumnEi@Base 6.2.1
 _ZN24QHCandlestickModelMapper13setLastSetRowEi@Base 6.2.1
 _ZN24QHCandlestickModelMapper13setOpenColumnEi@Base 6.2.1
 _ZN24QHCandlestickModelMapper14setCloseColumnEi@Base 6.2.1
 _ZN24QHCandlestickModelMapper14setFirstSetRowEi@Base 6.2.1
 _ZN24QHCandlestickModelMapper16lowColumnChangedEv@Base 6.2.1
 _ZN24QHCandlestickModelMapper16staticMetaObjectE@Base 6.2.1
 _ZN24QHCandlestickModelMapper17highColumnChangedEv@Base 6.2.1
 _ZN24QHCandlestickModelMapper17lastSetRowChangedEv@Base 6.2.1
 _ZN24QHCandlestickModelMapper17openColumnChangedEv@Base 6.2.1
 _ZN24QHCandlestickModelMapper18closeColumnChangedEv@Base 6.2.1
 _ZN24QHCandlestickModelMapper18firstSetRowChangedEv@Base 6.2.1
 _ZN24QHCandlestickModelMapper18setTimestampColumnEi@Base 6.2.1
 _ZN24QHCandlestickModelMapper22timestampColumnChangedEv@Base 6.2.1
 _ZN24QHCandlestickModelMapperC1EP7QObject@Base 6.2.1
 _ZN24QHCandlestickModelMapperC2EP7QObject@Base 6.2.1
 _ZN24QPercentBarSeriesPrivate16initializeDomainEv@Base 6.2.1
 _ZN24QPercentBarSeriesPrivate18initializeGraphicsEP13QGraphicsItem@Base 6.2.1
 _ZN24QPercentBarSeriesPrivateC1EP17QPercentBarSeries@Base 6.2.1
 _ZN24QPercentBarSeriesPrivateC2EP17QPercentBarSeries@Base 6.2.1
 _ZN24QStackedBarSeriesPrivate16initializeDomainEv@Base 6.2.1
 _ZN24QStackedBarSeriesPrivate18initializeGraphicsEP13QGraphicsItem@Base 6.2.1
 _ZN24QStackedBarSeriesPrivateC1EP17QStackedBarSeries@Base 6.2.1
 _ZN24QStackedBarSeriesPrivateC2EP17QStackedBarSeries@Base 6.2.1
 _ZN24QVCandlestickModelMapper10setHighRowEi@Base 6.2.1
 _ZN24QVCandlestickModelMapper10setOpenRowEi@Base 6.2.1
 _ZN24QVCandlestickModelMapper11qt_metacallEN11QMetaObject4CallEiPPv@Base 6.2.1
 _ZN24QVCandlestickModelMapper11qt_metacastEPKc@Base 6.2.1
 _ZN24QVCandlestickModelMapper11setCloseRowEi@Base 6.2.1
 _ZN24QVCandlestickModelMapper13lowRowChangedEv@Base 6.2.1
 _ZN24QVCandlestickModelMapper14highRowChangedEv@Base 6.2.1
 _ZN24QVCandlestickModelMapper14openRowChangedEv@Base 6.2.1
 _ZN24QVCandlestickModelMapper15closeRowChangedEv@Base 6.2.1
 _ZN24QVCandlestickModelMapper15setTimestampRowEi@Base 6.2.1
 _ZN24QVCandlestickModelMapper16setLastSetColumnEi@Base 6.2.1
 _ZN24QVCandlestickModelMapper16staticMetaObjectE@Base 6.2.1
 _ZN24QVCandlestickModelMapper17setFirstSetColumnEi@Base 6.2.1
 _ZN24QVCandlestickModelMapper19timestampRowChangedEv@Base 6.2.1
 _ZN24QVCandlestickModelMapper20lastSetColumnChangedEv@Base 6.2.1
 _ZN24QVCandlestickModelMapper21firstSetColumnChangedEv@Base 6.2.1
 _ZN24QVCandlestickModelMapper9setLowRowEi@Base 6.2.1
 _ZN24QVCandlestickModelMapperC1EP7QObject@Base 6.2.1
 _ZN24QVCandlestickModelMapperC2EP7QObject@Base 6.2.1
 _ZN25PolarChartValueAxisRadial11qt_metacallEN11QMetaObject4CallEiPPv@Base 6.2.1
 _ZN25PolarChartValueAxisRadial11qt_metacastEPKc@Base 6.2.1
 _ZN25PolarChartValueAxisRadial16createAxisLabelsERK5QListIdE@Base 6.2.1
 _ZN25PolarChartValueAxisRadial16staticMetaObjectE@Base 6.2.1
 _ZN25PolarChartValueAxisRadial22handleTickCountChangedEi@Base 6.2.1
 _ZN25PolarChartValueAxisRadial24handleLabelFormatChangedERK7QString@Base 6.2.1
 _ZN25PolarChartValueAxisRadial27handleMinorTickCountChangedEi@Base 6.2.1
 _ZN25PolarChartValueAxisRadialC1EP10QValueAxisP13QGraphicsItem@Base 6.2.1
 _ZN25PolarChartValueAxisRadialC2EP10QValueAxisP13QGraphicsItem@Base 6.2.1
 _ZN25PolarChartValueAxisRadialD0Ev@Base 6.2.1
 _ZN25PolarChartValueAxisRadialD1Ev@Base 6.2.1
 _ZN25PolarChartValueAxisRadialD2Ev@Base 6.2.1
 _ZN25QAbstractBarSeriesPrivate10setVisibleEb@Base 6.2.1
 _ZN25QAbstractBarSeriesPrivate11categorySumEi@Base 6.2.1
 _ZN25QAbstractBarSeriesPrivate11categoryTopEi@Base 6.2.1
 _ZN25QAbstractBarSeriesPrivate11qt_metacallEN11QMetaObject4CallEiPPv@Base 6.2.1
 _ZN25QAbstractBarSeriesPrivate11qt_metacastEPKc@Base 6.2.1
 _ZN25QAbstractBarSeriesPrivate11setBarWidthEd@Base 6.2.1
 _ZN25QAbstractBarSeriesPrivate11updatedBarsEv@Base 6.2.1
 _ZN25QAbstractBarSeriesPrivate12percentageAtEii@Base 6.2.1
 _ZN25QAbstractBarSeriesPrivate13doubleClickedEiP7QBarSet@Base 6.2.1
 _ZN25QAbstractBarSeriesPrivate13setValueAddedEiiP7QBarSet@Base 6.2.1
 _ZN25QAbstractBarSeriesPrivate13updatedLayoutEv@Base 6.2.1
 _ZN25QAbstractBarSeriesPrivate14blockBarUpdateEv@Base 6.2.1
 _ZN25QAbstractBarSeriesPrivate14categoryBottomEi@Base 6.2.1
 _ZN25QAbstractBarSeriesPrivate14initializeAxesEv@Base 6.2.1
 _ZN25QAbstractBarSeriesPrivate14maxCategorySumEv@Base 6.2.1
 _ZN25QAbstractBarSeriesPrivate14visibleChangedEv@Base 6.2.1
 _ZN25QAbstractBarSeriesPrivate15initializeThemeEiP10ChartThemeb@Base 6.2.1
 _ZN25QAbstractBarSeriesPrivate15setValueChangedEiP7QBarSet@Base 6.2.1
 _ZN25QAbstractBarSeriesPrivate15setValueRemovedEiiP7QBarSet@Base 6.2.1
 _ZN25QAbstractBarSeriesPrivate16initializeDomainEv@Base 6.2.1
 _ZN25QAbstractBarSeriesPrivate16restructuredBarsEv@Base 6.2.1
 _ZN25QAbstractBarSeriesPrivate16setLabelsVisibleEb@Base 6.2.1
 _ZN25QAbstractBarSeriesPrivate16staticMetaObjectE@Base 6.2.1
 _ZN25QAbstractBarSeriesPrivate17handleSetValueAddEii@Base 6.2.1
 _ZN25QAbstractBarSeriesPrivate18populateCategoriesEP16QBarCategoryAxis@Base 6.2.1
 _ZN25QAbstractBarSeriesPrivate19absoluteCategorySumEi@Base 6.2.1
 _ZN25QAbstractBarSeriesPrivate19createLegendMarkersEP7QLegend@Base 6.2.1
 _ZN25QAbstractBarSeriesPrivate20handleSetValueChangeEi@Base 6.2.1
 _ZN25QAbstractBarSeriesPrivate20handleSetValueRemoveEii@Base 6.2.1
 _ZN25QAbstractBarSeriesPrivate20initializeAnimationsE6QFlagsIN6QChart15AnimationOptionEEiR12QEasingCurve@Base 6.2.1
 _ZN25QAbstractBarSeriesPrivate20labelsVisibleChangedEb@Base 6.2.1
 _ZN25QAbstractBarSeriesPrivate3maxEv@Base 6.2.1
 _ZN25QAbstractBarSeriesPrivate3minEv@Base 6.2.1
 _ZN25QAbstractBarSeriesPrivate3topEv@Base 6.2.1
 _ZN25QAbstractBarSeriesPrivate4maxXEv@Base 6.2.1
 _ZN25QAbstractBarSeriesPrivate4minXEv@Base 6.2.1
 _ZN25QAbstractBarSeriesPrivate6appendEP7QBarSet@Base 6.2.1
 _ZN25QAbstractBarSeriesPrivate6appendERK5QListIP7QBarSetE@Base 6.2.1
 _ZN25QAbstractBarSeriesPrivate6bottomEv@Base 6.2.1
 _ZN25QAbstractBarSeriesPrivate6insertEiP7QBarSet@Base 6.2.1
 _ZN25QAbstractBarSeriesPrivate6removeEP7QBarSet@Base 6.2.1
 _ZN25QAbstractBarSeriesPrivate6removeERK5QListIP7QBarSetE@Base 6.2.1
 _ZN25QAbstractBarSeriesPrivate7clickedEiP7QBarSet@Base 6.2.1
 _ZN25QAbstractBarSeriesPrivate7pressedEiP7QBarSet@Base 6.2.1
 _ZN25QAbstractBarSeriesPrivate7valueAtEii@Base 6.2.1
 _ZN25QAbstractBarSeriesPrivate8barsetAtEi@Base 6.2.1
 _ZN25QAbstractBarSeriesPrivate8releasedEiP7QBarSet@Base 6.2.1
 _ZN25QAbstractBarSeriesPrivateC1EP18QAbstractBarSeries@Base 6.2.1
 _ZN25QAbstractBarSeriesPrivateC2EP18QAbstractBarSeries@Base 6.2.1
 _ZN25QCandlestickSeriesPrivate11qt_metacallEN11QMetaObject4CallEiPPv@Base 6.2.1
 _ZN25QCandlestickSeriesPrivate11qt_metacastEPKc@Base 6.2.1
 _ZN25QCandlestickSeriesPrivate13doubleClickedEiP15QCandlestickSet@Base 6.2.1
 _ZN25QCandlestickSeriesPrivate13updatedLayoutEv@Base 6.2.1
 _ZN25QCandlestickSeriesPrivate14initializeAxesEv@Base 6.2.1
 _ZN25QCandlestickSeriesPrivate15initializeThemeEiP10ChartThemeb@Base 6.2.1
 _ZN25QCandlestickSeriesPrivate16initializeDomainEv@Base 6.2.1
 _ZN25QCandlestickSeriesPrivate16staticMetaObjectE@Base 6.2.1
 _ZN25QCandlestickSeriesPrivate18handleSeriesChangeEP15QAbstractSeries@Base 6.2.1
 _ZN25QCandlestickSeriesPrivate18handleSeriesRemoveEP15QAbstractSeries@Base 6.2.1
 _ZN25QCandlestickSeriesPrivate18initializeGraphicsEP13QGraphicsItem@Base 6.2.1
 _ZN25QCandlestickSeriesPrivate19createLegendMarkersEP7QLegend@Base 6.2.1
 _ZN25QCandlestickSeriesPrivate19updatedCandlesticksEv@Base 6.2.1
 _ZN25QCandlestickSeriesPrivate20initializeAnimationsE6QFlagsIN6QChart15AnimationOptionEEiR12QEasingCurve@Base 6.2.1
 _ZN25QCandlestickSeriesPrivate21populateBarCategoriesEP16QBarCategoryAxis@Base 6.2.1
 _ZN25QCandlestickSeriesPrivate6appendERK5QListIP15QCandlestickSetE@Base 6.2.1
 _ZN25QCandlestickSeriesPrivate6insertEiP15QCandlestickSet@Base 6.2.1
 _ZN25QCandlestickSeriesPrivate6removeERK5QListIP15QCandlestickSetE@Base 6.2.1
 _ZN25QCandlestickSeriesPrivate7clickedEiP15QCandlestickSet@Base 6.2.1
 _ZN25QCandlestickSeriesPrivate7pressedEiP15QCandlestickSet@Base 6.2.1
 _ZN25QCandlestickSeriesPrivate7updatedEv@Base 6.2.1
 _ZN25QCandlestickSeriesPrivate8releasedEiP15QCandlestickSet@Base 6.2.1
 _ZN25QCandlestickSeriesPrivateC1EP18QCandlestickSeries@Base 6.2.1
 _ZN25QCandlestickSeriesPrivateC2EP18QCandlestickSeries@Base 6.2.1
 _ZN25QCandlestickSeriesPrivateD0Ev@Base 6.2.1
 _ZN25QCandlestickSeriesPrivateD1Ev@Base 6.2.1
 _ZN25QCandlestickSeriesPrivateD2Ev@Base 6.2.1
 _ZN26PolarChartValueAxisAngular11qt_metacallEN11QMetaObject4CallEiPPv@Base 6.2.1
 _ZN26PolarChartValueAxisAngular11qt_metacastEPKc@Base 6.2.1
 _ZN26PolarChartValueAxisAngular16createAxisLabelsERK5QListIdE@Base 6.2.1
 _ZN26PolarChartValueAxisAngular16staticMetaObjectE@Base 6.2.1
 _ZN26PolarChartValueAxisAngular22handleTickCountChangedEi@Base 6.2.1
 _ZN26PolarChartValueAxisAngular24handleLabelFormatChangedERK7QString@Base 6.2.1
 _ZN26PolarChartValueAxisAngular27handleMinorTickCountChangedEi@Base 6.2.1
 _ZN26PolarChartValueAxisAngularC1EP10QValueAxisP13QGraphicsItem@Base 6.2.1
 _ZN26PolarChartValueAxisAngularC2EP10QValueAxisP13QGraphicsItem@Base 6.2.1
 _ZN26PolarChartValueAxisAngularD0Ev@Base 6.2.1
 _ZN26PolarChartValueAxisAngularD1Ev@Base 6.2.1
 _ZN26PolarChartValueAxisAngularD2Ev@Base 6.2.1
 _ZN27QBoxPlotLegendMarkerPrivate11qt_metacallEN11QMetaObject4CallEiPPv@Base 6.2.1
 _ZN27QBoxPlotLegendMarkerPrivate11qt_metacastEPKc@Base 6.2.1
 _ZN27QBoxPlotLegendMarkerPrivate13relatedObjectEv@Base 6.2.1
 _ZN27QBoxPlotLegendMarkerPrivate16staticMetaObjectE@Base 6.2.1
 _ZN27QBoxPlotLegendMarkerPrivate6seriesEv@Base 6.2.1
 _ZN27QBoxPlotLegendMarkerPrivate7updatedEv@Base 6.2.1
 _ZN27QBoxPlotLegendMarkerPrivateC1EP20QBoxPlotLegendMarkerP14QBoxPlotSeriesP7QLegend@Base 6.2.1
 _ZN27QBoxPlotLegendMarkerPrivateC2EP20QBoxPlotLegendMarkerP14QBoxPlotSeriesP7QLegend@Base 6.2.1
 _ZN27QBoxPlotLegendMarkerPrivateD0Ev@Base 6.2.1
 _ZN27QBoxPlotLegendMarkerPrivateD1Ev@Base 6.2.1
 _ZN27QBoxPlotLegendMarkerPrivateD2Ev@Base 6.2.1
 _ZN27QHorizontalBarSeriesPrivate16initializeDomainEv@Base 6.2.1
 _ZN27QHorizontalBarSeriesPrivate18initializeGraphicsEP13QGraphicsItem@Base 6.2.1
 _ZN27QHorizontalBarSeriesPrivateC1EP20QHorizontalBarSeries@Base 6.2.1
 _ZN27QHorizontalBarSeriesPrivateC2EP20QHorizontalBarSeries@Base 6.2.1
 _ZN27QHorizontalPercentBarSeries11qt_metacallEN11QMetaObject4CallEiPPv@Base 6.2.1
 _ZN27QHorizontalPercentBarSeries11qt_metacastEPKc@Base 6.2.1
 _ZN27QHorizontalPercentBarSeries16staticMetaObjectE@Base 6.2.1
 _ZN27QHorizontalPercentBarSeriesC1EP7QObject@Base 6.2.1
 _ZN27QHorizontalPercentBarSeriesC2EP7QObject@Base 6.2.1
 _ZN27QHorizontalPercentBarSeriesD0Ev@Base 6.2.1
 _ZN27QHorizontalPercentBarSeriesD1Ev@Base 6.2.1
 _ZN27QHorizontalPercentBarSeriesD2Ev@Base 6.2.1
 _ZN27QHorizontalStackedBarSeries11qt_metacallEN11QMetaObject4CallEiPPv@Base 6.2.1
 _ZN27QHorizontalStackedBarSeries11qt_metacastEPKc@Base 6.2.1
 _ZN27QHorizontalStackedBarSeries16staticMetaObjectE@Base 6.2.1
 _ZN27QHorizontalStackedBarSeriesC1EP7QObject@Base 6.2.1
 _ZN27QHorizontalStackedBarSeriesC2EP7QObject@Base 6.2.1
 _ZN27QHorizontalStackedBarSeriesD0Ev@Base 6.2.1
 _ZN27QHorizontalStackedBarSeriesD1Ev@Base 6.2.1
 _ZN27QHorizontalStackedBarSeriesD2Ev@Base 6.2.1
 _ZN28PolarChartCategoryAxisRadial11qt_metacallEN11QMetaObject4CallEiPPv@Base 6.2.1
 _ZN28PolarChartCategoryAxisRadial11qt_metacastEPKc@Base 6.2.1
 _ZN28PolarChartCategoryAxisRadial16createAxisLabelsERK5QListIdE@Base 6.2.1
 _ZN28PolarChartCategoryAxisRadial16staticMetaObjectE@Base 6.2.1
 _ZN28PolarChartCategoryAxisRadial23handleCategoriesChangedEv@Base 6.2.1
 _ZN28PolarChartCategoryAxisRadialC1EP13QCategoryAxisP13QGraphicsItem@Base 6.2.1
 _ZN28PolarChartCategoryAxisRadialC2EP13QCategoryAxisP13QGraphicsItem@Base 6.2.1
 _ZN28PolarChartCategoryAxisRadialD0Ev@Base 6.2.1
 _ZN28PolarChartCategoryAxisRadialD1Ev@Base 6.2.1
 _ZN28PolarChartCategoryAxisRadialD2Ev@Base 6.2.1
 _ZN28PolarChartDateTimeAxisRadial11qt_metacallEN11QMetaObject4CallEiPPv@Base 6.2.1
 _ZN28PolarChartDateTimeAxisRadial11qt_metacastEPKc@Base 6.2.1
 _ZN28PolarChartDateTimeAxisRadial16createAxisLabelsERK5QListIdE@Base 6.2.1
 _ZN28PolarChartDateTimeAxisRadial16staticMetaObjectE@Base 6.2.1
 _ZN28PolarChartDateTimeAxisRadial19handleFormatChangedERK7QString@Base 6.2.1
 _ZN28PolarChartDateTimeAxisRadial22handleTickCountChangedEi@Base 6.2.1
 _ZN28PolarChartDateTimeAxisRadialC1EP13QDateTimeAxisP13QGraphicsItem@Base 6.2.1
 _ZN28PolarChartDateTimeAxisRadialC2EP13QDateTimeAxisP13QGraphicsItem@Base 6.2.1
 _ZN28PolarChartDateTimeAxisRadialD0Ev@Base 6.2.1
 _ZN28PolarChartDateTimeAxisRadialD1Ev@Base 6.2.1
 _ZN28PolarChartDateTimeAxisRadialD2Ev@Base 6.2.1
 _ZN28PolarChartLogValueAxisRadial11qt_metacallEN11QMetaObject4CallEiPPv@Base 6.2.1
 _ZN28PolarChartLogValueAxisRadial11qt_metacastEPKc@Base 6.2.1
 _ZN28PolarChartLogValueAxisRadial16createAxisLabelsERK5QListIdE@Base 6.2.1
 _ZN28PolarChartLogValueAxisRadial16staticMetaObjectE@Base 6.2.1
 _ZN28PolarChartLogValueAxisRadial17handleBaseChangedEd@Base 6.2.1
 _ZN28PolarChartLogValueAxisRadial24handleLabelFormatChangedERK7QString@Base 6.2.1
 _ZN28PolarChartLogValueAxisRadialC1EP13QLogValueAxisP13QGraphicsItem@Base 6.2.1
 _ZN28PolarChartLogValueAxisRadialC2EP13QLogValueAxisP13QGraphicsItem@Base 6.2.1
 _ZN28PolarChartLogValueAxisRadialD0Ev@Base 6.2.1
 _ZN28PolarChartLogValueAxisRadialD1Ev@Base 6.2.1
 _ZN28PolarChartLogValueAxisRadialD2Ev@Base 6.2.1
 _ZN29CandlestickBodyWicksAnimation10setEndDataERK15CandlestickData@Base 6.2.1
 _ZN29CandlestickBodyWicksAnimation11qt_metacallEN11QMetaObject4CallEiPPv@Base 6.2.1
 _ZN29CandlestickBodyWicksAnimation11qt_metacastEPKc@Base 6.2.1
 _ZN29CandlestickBodyWicksAnimation12setStartDataERK15CandlestickData@Base 6.2.1
 _ZN29CandlestickBodyWicksAnimation16staticMetaObjectE@Base 6.2.1
 _ZN29CandlestickBodyWicksAnimation18updateCurrentValueERK8QVariant@Base 6.2.1
 _ZN29CandlestickBodyWicksAnimation5setupERK15CandlestickDataS2_@Base 6.2.1
 _ZN29CandlestickBodyWicksAnimationC1EP11CandlestickP20CandlestickAnimationiR12QEasingCurve@Base 6.2.1
 _ZN29CandlestickBodyWicksAnimationC2EP11CandlestickP20CandlestickAnimationiR12QEasingCurve@Base 6.2.1
 _ZN29CandlestickBodyWicksAnimationD0Ev@Base 6.2.1
 _ZN29CandlestickBodyWicksAnimationD1Ev@Base 6.2.1
 _ZN29CandlestickBodyWicksAnimationD2Ev@Base 6.2.1
 _ZN29HorizontalPercentBarChartItem11qt_metacallEN11QMetaObject4CallEiPPv@Base 6.2.1
 _ZN29HorizontalPercentBarChartItem11qt_metacastEPKc@Base 6.2.1
 _ZN29HorizontalPercentBarChartItem12topLeftPointEidd@Base 6.2.1
 _ZN29HorizontalPercentBarChartItem15calculateLayoutEv@Base 6.2.1
 _ZN29HorizontalPercentBarChartItem15markLabelsDirtyEP7QBarSetii@Base 6.2.1
 _ZN29HorizontalPercentBarChartItem16bottomRightPointEidd@Base 6.2.1
 _ZN29HorizontalPercentBarChartItem16initializeLayoutEiiib@Base 6.2.1
 _ZN29HorizontalPercentBarChartItem16staticMetaObjectE@Base 6.2.1
 _ZN29HorizontalPercentBarChartItem17generateLabelTextEiid@Base 6.2.1
 _ZN29HorizontalPercentBarChartItemC1EP18QAbstractBarSeriesP13QGraphicsItem@Base 6.2.1
 _ZN29HorizontalPercentBarChartItemC2EP18QAbstractBarSeriesP13QGraphicsItem@Base 6.2.1
 _ZN29HorizontalStackedBarChartItem11qt_metacallEN11QMetaObject4CallEiPPv@Base 6.2.1
 _ZN29HorizontalStackedBarChartItem11qt_metacastEPKc@Base 6.2.1
 _ZN29HorizontalStackedBarChartItem12topLeftPointEidd@Base 6.2.1
 _ZN29HorizontalStackedBarChartItem15calculateLayoutEv@Base 6.2.1
 _ZN29HorizontalStackedBarChartItem16bottomRightPointEidd@Base 6.2.1
 _ZN29HorizontalStackedBarChartItem16initializeLayoutEiiib@Base 6.2.1
 _ZN29HorizontalStackedBarChartItem16staticMetaObjectE@Base 6.2.1
 _ZN29HorizontalStackedBarChartItemC1EP18QAbstractBarSeriesP13QGraphicsItem@Base 6.2.1
 _ZN29HorizontalStackedBarChartItemC2EP18QAbstractBarSeriesP13QGraphicsItem@Base 6.2.1
 _ZN29PolarChartCategoryAxisAngular11qt_metacallEN11QMetaObject4CallEiPPv@Base 6.2.1
 _ZN29PolarChartCategoryAxisAngular11qt_metacastEPKc@Base 6.2.1
 _ZN29PolarChartCategoryAxisAngular16createAxisLabelsERK5QListIdE@Base 6.2.1
 _ZN29PolarChartCategoryAxisAngular16staticMetaObjectE@Base 6.2.1
 _ZN29PolarChartCategoryAxisAngular23handleCategoriesChangedEv@Base 6.2.1
 _ZN29PolarChartCategoryAxisAngularC1EP13QCategoryAxisP13QGraphicsItem@Base 6.2.1
 _ZN29PolarChartCategoryAxisAngularC2EP13QCategoryAxisP13QGraphicsItem@Base 6.2.1
 _ZN29PolarChartCategoryAxisAngularD0Ev@Base 6.2.1
 _ZN29PolarChartCategoryAxisAngularD1Ev@Base 6.2.1
 _ZN29PolarChartCategoryAxisAngularD2Ev@Base 6.2.1
 _ZN29PolarChartDateTimeAxisAngular11qt_metacallEN11QMetaObject4CallEiPPv@Base 6.2.1
 _ZN29PolarChartDateTimeAxisAngular11qt_metacastEPKc@Base 6.2.1
 _ZN29PolarChartDateTimeAxisAngular16createAxisLabelsERK5QListIdE@Base 6.2.1
 _ZN29PolarChartDateTimeAxisAngular16staticMetaObjectE@Base 6.2.1
 _ZN29PolarChartDateTimeAxisAngular19handleFormatChangedERK7QString@Base 6.2.1
 _ZN29PolarChartDateTimeAxisAngular22handleTickCountChangedEi@Base 6.2.1
 _ZN29PolarChartDateTimeAxisAngularC1EP13QDateTimeAxisP13QGraphicsItem@Base 6.2.1
 _ZN29PolarChartDateTimeAxisAngularC2EP13QDateTimeAxisP13QGraphicsItem@Base 6.2.1
 _ZN29PolarChartDateTimeAxisAngularD0Ev@Base 6.2.1
 _ZN29PolarChartDateTimeAxisAngularD1Ev@Base 6.2.1
 _ZN29PolarChartDateTimeAxisAngularD2Ev@Base 6.2.1
 _ZN29PolarChartLogValueAxisAngular11qt_metacallEN11QMetaObject4CallEiPPv@Base 6.2.1
 _ZN29PolarChartLogValueAxisAngular11qt_metacastEPKc@Base 6.2.1
 _ZN29PolarChartLogValueAxisAngular16createAxisLabelsERK5QListIdE@Base 6.2.1
 _ZN29PolarChartLogValueAxisAngular16staticMetaObjectE@Base 6.2.1
 _ZN29PolarChartLogValueAxisAngular17handleBaseChangedEd@Base 6.2.1
 _ZN29PolarChartLogValueAxisAngular24handleLabelFormatChangedERK7QString@Base 6.2.1
 _ZN29PolarChartLogValueAxisAngularC1EP13QLogValueAxisP13QGraphicsItem@Base 6.2.1
 _ZN29PolarChartLogValueAxisAngularC2EP13QLogValueAxisP13QGraphicsItem@Base 6.2.1
 _ZN29PolarChartLogValueAxisAngularD0Ev@Base 6.2.1
 _ZN29PolarChartLogValueAxisAngularD1Ev@Base 6.2.1
 _ZN29PolarChartLogValueAxisAngularD2Ev@Base 6.2.1
 _ZN30QCandlestickModelMapperPrivate10insertDataEii@Base 6.2.1
 _ZN30QCandlestickModelMapperPrivate10lowChangedEv@Base 6.2.1
 _ZN30QCandlestickModelMapperPrivate10removeDataEii@Base 6.2.1
 _ZN30QCandlestickModelMapperPrivate11highChangedEv@Base 6.2.1
 _ZN30QCandlestickModelMapperPrivate11openChangedEv@Base 6.2.1
 _ZN30QCandlestickModelMapperPrivate11qt_metacallEN11QMetaObject4CallEiPPv@Base 6.2.1
 _ZN30QCandlestickModelMapperPrivate11qt_metacastEPKc@Base 6.2.1
 _ZN30QCandlestickModelMapperPrivate12closeChangedEv@Base 6.2.1
 _ZN30QCandlestickModelMapperPrivate14candlestickSetE11QModelIndex@Base 6.2.1
 _ZN30QCandlestickModelMapperPrivate14modelDestroyedEv@Base 6.2.1
 _ZN30QCandlestickModelMapperPrivate15seriesDestroyedEv@Base 6.2.1
 _ZN30QCandlestickModelMapperPrivate16modelDataUpdatedE11QModelIndexS0_@Base 6.2.1
 _ZN30QCandlestickModelMapperPrivate16modelRowsRemovedE11QModelIndexii@Base 6.2.1
 _ZN30QCandlestickModelMapperPrivate16staticMetaObjectE@Base 6.2.1
 _ZN30QCandlestickModelMapperPrivate16timestampChangedEv@Base 6.2.1
 _ZN30QCandlestickModelMapperPrivate17blockModelSignalsEb@Base 6.2.1
 _ZN30QCandlestickModelMapperPrivate17modelRowsInsertedE11QModelIndexii@Base 6.2.1
 _ZN30QCandlestickModelMapperPrivate18blockSeriesSignalsEb@Base 6.2.1
 _ZN30QCandlestickModelMapperPrivate19modelColumnsRemovedE11QModelIndexii@Base 6.2.1
 _ZN30QCandlestickModelMapperPrivate20candlestickSetsAddedERK5QListIP15QCandlestickSetE@Base 6.2.1
 _ZN30QCandlestickModelMapperPrivate20modelColumnsInsertedE11QModelIndexii@Base 6.2.1
 _ZN30QCandlestickModelMapperPrivate21candlestickModelIndexEii@Base 6.2.1
 _ZN30QCandlestickModelMapperPrivate21candlestickSetChangedEv@Base 6.2.1
 _ZN30QCandlestickModelMapperPrivate21lastSetSectionChangedEv@Base 6.2.1
 _ZN30QCandlestickModelMapperPrivate22candlestickSetsRemovedERK5QListIP15QCandlestickSetE@Base 6.2.1
 _ZN30QCandlestickModelMapperPrivate22firstSetSectionChangedEv@Base 6.2.1
 _ZN30QCandlestickModelMapperPrivate22modelHeaderDataUpdatedEN2Qt11OrientationEii@Base 6.2.1
 _ZN30QCandlestickModelMapperPrivate30initializeCandlestickFromModelEv@Base 6.2.1
 _ZN30QCandlestickModelMapperPrivateC1EP23QCandlestickModelMapper@Base 6.2.1
 _ZN30QCandlestickModelMapperPrivateC2EP23QCandlestickModelMapper@Base 6.2.1
 _ZN31QCandlestickLegendMarkerPrivate11qt_metacallEN11QMetaObject4CallEiPPv@Base 6.2.1
 _ZN31QCandlestickLegendMarkerPrivate11qt_metacastEPKc@Base 6.2.1
 _ZN31QCandlestickLegendMarkerPrivate13relatedObjectEv@Base 6.2.1
 _ZN31QCandlestickLegendMarkerPrivate16staticMetaObjectE@Base 6.2.1
 _ZN31QCandlestickLegendMarkerPrivate6seriesEv@Base 6.2.1
 _ZN31QCandlestickLegendMarkerPrivate7updatedEv@Base 6.2.1
 _ZN31QCandlestickLegendMarkerPrivateC1EP24QCandlestickLegendMarkerP18QCandlestickSeriesP7QLegend@Base 6.2.1
 _ZN31QCandlestickLegendMarkerPrivateC2EP24QCandlestickLegendMarkerP18QCandlestickSeriesP7QLegend@Base 6.2.1
 _ZN31QCandlestickLegendMarkerPrivateD0Ev@Base 6.2.1
 _ZN31QCandlestickLegendMarkerPrivateD1Ev@Base 6.2.1
 _ZN31QCandlestickLegendMarkerPrivateD2Ev@Base 6.2.1
 _ZN34QHorizontalPercentBarSeriesPrivate16initializeDomainEv@Base 6.2.1
 _ZN34QHorizontalPercentBarSeriesPrivate18initializeGraphicsEP13QGraphicsItem@Base 6.2.1
 _ZN34QHorizontalPercentBarSeriesPrivateC1EP27QHorizontalPercentBarSeries@Base 6.2.1
 _ZN34QHorizontalPercentBarSeriesPrivateC2EP27QHorizontalPercentBarSeries@Base 6.2.1
 _ZN34QHorizontalStackedBarSeriesPrivate16initializeDomainEv@Base 6.2.1
 _ZN34QHorizontalStackedBarSeriesPrivate18initializeGraphicsEP13QGraphicsItem@Base 6.2.1
 _ZN34QHorizontalStackedBarSeriesPrivateC1EP27QHorizontalStackedBarSeries@Base 6.2.1
 _ZN34QHorizontalStackedBarSeriesPrivateC2EP27QHorizontalStackedBarSeries@Base 6.2.1
 _ZN3Bar11qt_metacallEN11QMetaObject4CallEiPPv@Base 6.2.1
 _ZN3Bar11qt_metacastEPKc@Base 6.2.1
 _ZN3Bar13doubleClickedEiP7QBarSet@Base 6.2.1
 _ZN3Bar15hoverEnterEventEP24QGraphicsSceneHoverEvent@Base 6.2.1
 _ZN3Bar15hoverLeaveEventEP24QGraphicsSceneHoverEvent@Base 6.2.1
 _ZN3Bar15mousePressEventEP24QGraphicsSceneMouseEvent@Base 6.2.1
 _ZN3Bar16staticMetaObjectE@Base 6.2.1
 _ZN3Bar17mouseReleaseEventEP24QGraphicsSceneMouseEvent@Base 6.2.1
 _ZN3Bar21mouseDoubleClickEventEP24QGraphicsSceneMouseEvent@Base 6.2.1
 _ZN3Bar5paintEP8QPainterPK24QStyleOptionGraphicsItemP7QWidget@Base 6.2.1
 _ZN3Bar7clickedEiP7QBarSet@Base 6.2.1
 _ZN3Bar7hoveredEbiP7QBarSet@Base 6.2.1
 _ZN3Bar7pressedEiP7QBarSet@Base 6.2.1
 _ZN3Bar8releasedEiP7QBarSet@Base 6.2.1
 _ZN3BarC1EP7QBarSetP13QGraphicsItem@Base 6.2.1
 _ZN3BarC2EP7QBarSetP13QGraphicsItem@Base 6.2.1
 _ZN3BarD0Ev@Base 6.2.1
 _ZN3BarD1Ev@Base 6.2.1
 _ZN3BarD2Ev@Base 6.2.1
 _ZN6QChart10mapToValueERK7QPointFP15QAbstractSeries@Base 6.2.1
 _ZN6QChart10removeAxisEP13QAbstractAxis@Base 6.2.1
 _ZN6QChart10setMarginsERK8QMargins@Base 6.2.1
 _ZN6QChart11qt_metacallEN11QMetaObject4CallEiPPv@Base 6.2.1
 _ZN6QChart11qt_metacastEPKc@Base 6.2.1
 _ZN6QChart11setPlotAreaERK6QRectF@Base 6.2.1
 _ZN6QChart12removeSeriesEP15QAbstractSeries@Base 6.2.1
 _ZN6QChart12setTitleFontERK5QFont@Base 6.2.1
 _ZN6QChart13mapToPositionERK7QPointFP15QAbstractSeries@Base 6.2.1
 _ZN6QChart13setTitleBrushERK6QBrush@Base 6.2.1
 _ZN6QChart15plotAreaChangedERK6QRectF@Base 6.2.1
 _ZN6QChart15removeAllSeriesEv@Base 6.2.1
 _ZN6QChart16setBackgroundPenERK4QPen@Base 6.2.1
 _ZN6QChart16staticMetaObjectE@Base 6.2.1
 _ZN6QChart17createDefaultAxesEv@Base 6.2.1
 _ZN6QChart18setBackgroundBrushERK6QBrush@Base 6.2.1
 _ZN6QChart18setLocalizeNumbersEb@Base 6.2.1
 _ZN6QChart19setAnimationOptionsE6QFlagsINS_15AnimationOptionEE@Base 6.2.1
 _ZN6QChart20setAnimationDurationEi@Base 6.2.1
 _ZN6QChart20setBackgroundVisibleEb@Base 6.2.1
 _ZN6QChart20setDropShadowEnabledEb@Base 6.2.1
 _ZN6QChart22setBackgroundRoundnessEd@Base 6.2.1
 _ZN6QChart23setAnimationEasingCurveERK12QEasingCurve@Base 6.2.1
 _ZN6QChart24setPlotAreaBackgroundPenERK4QPen@Base 6.2.1
 _ZN6QChart26setPlotAreaBackgroundBrushERK6QBrush@Base 6.2.1
 _ZN6QChart28setPlotAreaBackgroundVisibleEb@Base 6.2.1
 _ZN6QChart4zoomEd@Base 6.2.1
 _ZN6QChart6scrollEdd@Base 6.2.1
 _ZN6QChart6zoomInERK6QRectF@Base 6.2.1
 _ZN6QChart6zoomInEv@Base 6.2.1
 _ZN6QChart7addAxisEP13QAbstractAxis6QFlagsIN2Qt13AlignmentFlagEE@Base 6.2.1
 _ZN6QChart7zoomOutEv@Base 6.2.1
 _ZN6QChart8isZoomedEv@Base 6.2.1
 _ZN6QChart8setAxisXEP13QAbstractAxisP15QAbstractSeries@Base 6.2.1
 _ZN6QChart8setAxisYEP13QAbstractAxisP15QAbstractSeries@Base 6.2.1
 _ZN6QChart8setThemeENS_10ChartThemeE@Base 6.2.1
 _ZN6QChart8setTitleERK7QString@Base 6.2.1
 _ZN6QChart9addSeriesEP15QAbstractSeries@Base 6.2.1
 _ZN6QChart9setLocaleERK7QLocale@Base 6.2.1
 _ZN6QChart9zoomResetEv@Base 6.2.1
 _ZN6QChartC1ENS_9ChartTypeEP13QGraphicsItem6QFlagsIN2Qt10WindowTypeEE@Base 6.2.1
 _ZN6QChartC1EP13QGraphicsItem6QFlagsIN2Qt10WindowTypeEE@Base 6.2.1
 _ZN6QChartC2ENS_9ChartTypeEP13QGraphicsItem6QFlagsIN2Qt10WindowTypeEE@Base 6.2.1
 _ZN6QChartC2EP13QGraphicsItem6QFlagsIN2Qt10WindowTypeEE@Base 6.2.1
 _ZN6QChartD0Ev@Base 6.2.1
 _ZN6QChartD1Ev@Base 6.2.1
 _ZN6QChartD2Ev@Base 6.2.1
 _ZN7QBarSet10labelColorEv@Base 6.2.1
 _ZN7QBarSet10penChangedEv@Base 6.2.1
 _ZN7QBarSet10selectBarsERK5QListIiE@Base 6.2.1
 _ZN7QBarSet11borderColorEv@Base 6.2.1
 _ZN7QBarSet11deselectBarEi@Base 6.2.1
 _ZN7QBarSet11qt_metacallEN11QMetaObject4CallEiPPv@Base 6.2.1
 _ZN7QBarSet11qt_metacastEPKc@Base 6.2.1
 _ZN7QBarSet11valuesAddedEii@Base 6.2.1
 _ZN7QBarSet12brushChangedEv@Base 6.2.1
 _ZN7QBarSet12colorChangedE6QColor@Base 6.2.1
 _ZN7QBarSet12deselectBarsERK5QListIiE@Base 6.2.1
 _ZN7QBarSet12labelChangedEv@Base 6.2.1
 _ZN7QBarSet12setLabelFontERK5QFont@Base 6.2.1
 _ZN7QBarSet12valueChangedEi@Base 6.2.1
 _ZN7QBarSet13doubleClickedEi@Base 6.2.1
 _ZN7QBarSet13selectAllBarsEv@Base 6.2.1
 _ZN7QBarSet13setLabelBrushERK6QBrush@Base 6.2.1
 _ZN7QBarSet13setLabelColorE6QColor@Base 6.2.1
 _ZN7QBarSet13valuesRemovedEii@Base 6.2.1
 _ZN7QBarSet14setBarSelectedEib@Base 6.2.1
 _ZN7QBarSet14setBorderColorE6QColor@Base 6.2.1
 _ZN7QBarSet15deselectAllBarsEv@Base 6.2.1
 _ZN7QBarSet15toggleSelectionERK5QListIiE@Base 6.2.1
 _ZN7QBarSet16labelFontChangedEv@Base 6.2.1
 _ZN7QBarSet16setSelectedColorERK6QColor@Base 6.2.1
 _ZN7QBarSet16staticMetaObjectE@Base 6.2.1
 _ZN7QBarSet17labelBrushChangedEv@Base 6.2.1
 _ZN7QBarSet17labelColorChangedE6QColor@Base 6.2.1
 _ZN7QBarSet18borderColorChangedE6QColor@Base 6.2.1
 _ZN7QBarSet19selectedBarsChangedERK5QListIiE@Base 6.2.1
 _ZN7QBarSet20selectedColorChangedERK6QColor@Base 6.2.1
 _ZN7QBarSet5colorEv@Base 6.2.1
 _ZN7QBarSet6appendERK5QListIdE@Base 6.2.1
 _ZN7QBarSet6appendEd@Base 6.2.1
 _ZN7QBarSet6insertEid@Base 6.2.1
 _ZN7QBarSet6removeEii@Base 6.2.1
 _ZN7QBarSet6setPenERK4QPen@Base 6.2.1
 _ZN7QBarSet7clickedEi@Base 6.2.1
 _ZN7QBarSet7hoveredEbi@Base 6.2.1
 _ZN7QBarSet7pressedEi@Base 6.2.1
 _ZN7QBarSet7replaceEid@Base 6.2.1
 _ZN7QBarSet8releasedEi@Base 6.2.1
 _ZN7QBarSet8setBrushERK6QBrush@Base 6.2.1
 _ZN7QBarSet8setColorE6QColor@Base 6.2.1
 _ZN7QBarSet8setLabelE7QString@Base 6.2.1
 _ZN7QBarSet9selectBarEi@Base 6.2.1
 _ZN7QBarSetC1E7QStringP7QObject@Base 6.2.1
 _ZN7QBarSetC2E7QStringP7QObject@Base 6.2.1
 _ZN7QBarSetD0Ev@Base 6.2.1
 _ZN7QBarSetD1Ev@Base 6.2.1
 _ZN7QBarSetD2Ev@Base 6.2.1
 _ZN7QBarSetlsERKd@Base 6.2.1
 _ZN7QBoxSet10penChangedEv@Base 6.2.1
 _ZN7QBoxSet11qt_metacallEN11QMetaObject4CallEiPPv@Base 6.2.1
 _ZN7QBoxSet11qt_metacastEPKc@Base 6.2.1
 _ZN7QBoxSet12brushChangedEv@Base 6.2.1
 _ZN7QBoxSet12valueChangedEi@Base 6.2.1
 _ZN7QBoxSet13doubleClickedEv@Base 6.2.1
 _ZN7QBoxSet13valuesChangedEv@Base 6.2.1
 _ZN7QBoxSet16staticMetaObjectE@Base 6.2.1
 _ZN7QBoxSet5clearEv@Base 6.2.1
 _ZN7QBoxSet6appendERK5QListIdE@Base 6.2.1
 _ZN7QBoxSet6appendEd@Base 6.2.1
 _ZN7QBoxSet6setPenERK4QPen@Base 6.2.1
 _ZN7QBoxSet7clearedEv@Base 6.2.1
 _ZN7QBoxSet7clickedEv@Base 6.2.1
 _ZN7QBoxSet7hoveredEb@Base 6.2.1
 _ZN7QBoxSet7pressedEv@Base 6.2.1
 _ZN7QBoxSet8releasedEv@Base 6.2.1
 _ZN7QBoxSet8setBrushERK6QBrush@Base 6.2.1
 _ZN7QBoxSet8setLabelE7QString@Base 6.2.1
 _ZN7QBoxSet8setValueEid@Base 6.2.1
 _ZN7QBoxSetC1E7QStringP7QObject@Base 6.2.1
 _ZN7QBoxSetC1Eddddd7QStringP7QObject@Base 6.2.1
 _ZN7QBoxSetC2E7QStringP7QObject@Base 6.2.1
 _ZN7QBoxSetC2Eddddd7QStringP7QObject@Base 6.2.1
 _ZN7QBoxSetD0Ev@Base 6.2.1
 _ZN7QBoxSetD1Ev@Base 6.2.1
 _ZN7QBoxSetD2Ev@Base 6.2.1
 _ZN7QBoxSetlsERKd@Base 6.2.1
 _ZN7QLegend11borderColorEv@Base 6.2.1
 _ZN7QLegend11fontChangedE5QFont@Base 6.2.1
 _ZN7QLegend11qt_metacallEN11QMetaObject4CallEiPPv@Base 6.2.1
 _ZN7QLegend11qt_metacastEPKc@Base 6.2.1
 _ZN7QLegend12colorChangedE6QColor@Base 6.2.1
 _ZN7QLegend12setAlignmentE6QFlagsIN2Qt13AlignmentFlagEE@Base 6.2.1
 _ZN7QLegend13attachToChartEv@Base 6.2.1
 _ZN7QLegend13setLabelBrushERK6QBrush@Base 6.2.1
 _ZN7QLegend13setLabelColorE6QColor@Base 6.2.1
 _ZN7QLegend14reverseMarkersEv@Base 6.2.1
 _ZN7QLegend14setBorderColorE6QColor@Base 6.2.1
 _ZN7QLegend14setInteractiveEb@Base 6.2.1
 _ZN7QLegend14setMarkerShapeENS_11MarkerShapeE@Base 6.2.1
 _ZN7QLegend15detachFromChartEv@Base 6.2.1
 _ZN7QLegend15setShowToolTipsEb@Base 6.2.1
 _ZN7QLegend16staticMetaObjectE@Base 6.2.1
 _ZN7QLegend17isAttachedToChartEv@Base 6.2.1
 _ZN7QLegend17labelColorChangedE6QColor@Base 6.2.1
 _ZN7QLegend17setReverseMarkersEb@Base 6.2.1
 _ZN7QLegend18borderColorChangedE6QColor@Base 6.2.1
 _ZN7QLegend18interactiveChangedEb@Base 6.2.1
 _ZN7QLegend18markerShapeChangedENS_11MarkerShapeE@Base 6.2.1
 _ZN7QLegend19showToolTipsChangedEb@Base 6.2.1
 _ZN7QLegend20setBackgroundVisibleEb@Base 6.2.1
 _ZN7QLegend21reverseMarkersChangedEb@Base 6.2.1
 _ZN7QLegend22attachedToChartChangedEb@Base 6.2.1
 _ZN7QLegend24backgroundVisibleChangedEb@Base 6.2.1
 _ZN7QLegend5colorEv@Base 6.2.1
 _ZN7QLegend5paintEP8QPainterPK24QStyleOptionGraphicsItemP7QWidget@Base 6.2.1
 _ZN7QLegend6setPenERK4QPen@Base 6.2.1
 _ZN7QLegend7setFontERK5QFont@Base 6.2.1
 _ZN7QLegend8setBrushERK6QBrush@Base 6.2.1
 _ZN7QLegend8setColorE6QColor@Base 6.2.1
 _ZN7QLegend9hideEventEP10QHideEvent@Base 6.2.1
 _ZN7QLegend9showEventEP10QShowEvent@Base 6.2.1
 _ZN7QLegendC1EP6QChart@Base 6.2.1
 _ZN7QLegendC2EP6QChart@Base 6.2.1
 _ZN7QLegendD0Ev@Base 6.2.1
 _ZN7QLegendD1Ev@Base 6.2.1
 _ZN7QLegendD2Ev@Base 6.2.1
 _ZN7XYChart11qt_metacallEN11QMetaObject4CallEiPPv@Base 6.2.1
 _ZN7XYChart11qt_metacastEPKc@Base 6.2.1
 _ZN7XYChart11updateChartERK5QListI7QPointFES4_i@Base 6.2.1
 _ZN7XYChart12setAnimationEP11XYAnimation@Base 6.2.1
 _ZN7XYChart13doubleClickedERK7QPointF@Base 6.2.1
 _ZN7XYChart13updateGlChartEv@Base 6.2.1
 _ZN7XYChart14refreshGlChartEv@Base 6.2.1
 _ZN7XYChart16handlePointAddedEi@Base 6.2.1
 _ZN7XYChart16staticMetaObjectE@Base 6.2.1
 _ZN7XYChart17setGeometryPointsERK5QListI7QPointFE@Base 6.2.1
 _ZN7XYChart18handlePointRemovedEi@Base 6.2.1
 _ZN7XYChart19handleDomainUpdatedEv@Base 6.2.1
 _ZN7XYChart19handlePointReplacedEi@Base 6.2.1
 _ZN7XYChart19handlePointsRemovedEii@Base 6.2.1
 _ZN7XYChart19handleSeriesUpdatedEv@Base 6.2.1
 _ZN7XYChart19matchForLightMarkerERK7QPointF@Base 6.2.1
 _ZN7XYChart19offGridStatusVectorEv@Base 6.2.1
 _ZN7XYChart20handlePointsReplacedEv@Base 6.2.1
 _ZN7XYChart7clickedERK7QPointF@Base 6.2.1
 _ZN7XYChart7hoveredERK7QPointFb@Base 6.2.1
 _ZN7XYChart7pressedERK7QPointF@Base 6.2.1
 _ZN7XYChart8releasedERK7QPointF@Base 6.2.1
 _ZN7XYChart8setDirtyEb@Base 6.2.1
 _ZN7XYChartC1EP9QXYSeriesP13QGraphicsItem@Base 6.2.1
 _ZN7XYChartC2EP9QXYSeriesP13QGraphicsItem@Base 6.2.1
 _ZN8Scroller10lowerSpeedER7QPointFd@Base 6.2.1
 _ZN8Scroller10scrollTickEv@Base 6.2.1
 _ZN8Scroller10stopTickerEv@Base 6.2.1
 _ZN8Scroller11startTickerEi@Base 6.2.1
 _ZN8Scroller20handleMouseMoveEventEP24QGraphicsSceneMouseEvent@Base 6.2.1
 _ZN8Scroller21handleMousePressEventEP24QGraphicsSceneMouseEvent@Base 6.2.1
 _ZN8Scroller23handleMouseReleaseEventEP24QGraphicsSceneMouseEvent@Base 6.2.1
 _ZN8Scroller4moveERK7QPointF@Base 6.2.1
 _ZN8Scroller8scrollToERK7QPointF@Base 6.2.1
 _ZN8ScrollerC1Ev@Base 6.2.1
 _ZN8ScrollerC2Ev@Base 6.2.1
 _ZN8ScrollerD0Ev@Base 6.2.1
 _ZN8ScrollerD1Ev@Base 6.2.1
 _ZN8ScrollerD2Ev@Base 6.2.1
 _ZN8XYDomain11qt_metacallEN11QMetaObject4CallEiPPv@Base 6.2.1
 _ZN8XYDomain11qt_metacastEPKc@Base 6.2.1
 _ZN8XYDomain16staticMetaObjectE@Base 6.2.1
 _ZN8XYDomain4moveEdd@Base 6.2.1
 _ZN8XYDomain6zoomInERK6QRectF@Base 6.2.1
 _ZN8XYDomain7zoomOutERK6QRectF@Base 6.2.1
 _ZN8XYDomain8setRangeEdddd@Base 6.2.1
 _ZN8XYDomainC1EP7QObject@Base 6.2.1
 _ZN8XYDomainC2EP7QObject@Base 6.2.1
 _ZN8XYDomainD0Ev@Base 6.2.1
 _ZN8XYDomainD1Ev@Base 6.2.1
 _ZN8XYDomainD2Ev@Base 6.2.1
 _ZN9ChartItem11qt_metacallEN11QMetaObject4CallEiPPv@Base 6.2.1
 _ZN9ChartItem11qt_metacastEPKc@Base 6.2.1
 _ZN9ChartItem16staticMetaObjectE@Base 6.2.1
 _ZN9ChartItem19handleDomainUpdatedEv@Base 6.2.1
 _ZN9ChartItem7cleanupEv@Base 6.2.1
 _ZN9ChartItemC1EP22QAbstractSeriesPrivateP13QGraphicsItem@Base 6.2.1
 _ZN9ChartItemC2EP22QAbstractSeriesPrivateP13QGraphicsItem@Base 6.2.1
 _ZN9QPieSlice10labelColorEv@Base 6.2.1
 _ZN9QPieSlice10penChangedEv@Base 6.2.1
 _ZN9QPieSlice11borderColorEv@Base 6.2.1
 _ZN9QPieSlice11borderWidthEv@Base 6.2.1
 _ZN9QPieSlice11qt_metacallEN11QMetaObject4CallEiPPv@Base 6.2.1
 _ZN9QPieSlice11qt_metacastEPKc@Base 6.2.1
 _ZN9QPieSlice11setExplodedEb@Base 6.2.1
 _ZN9QPieSlice12brushChangedEv@Base 6.2.1
 _ZN9QPieSlice12colorChangedEv@Base 6.2.1
 _ZN9QPieSlice12labelChangedEv@Base 6.2.1
 _ZN9QPieSlice12setLabelFontERK5QFont@Base 6.2.1
 _ZN9QPieSlice12valueChangedEv@Base 6.2.1
 _ZN9QPieSlice13doubleClickedEv@Base 6.2.1
 _ZN9QPieSlice13labelPositionEv@Base 6.2.1
 _ZN9QPieSlice13setLabelBrushERK6QBrush@Base 6.2.1
 _ZN9QPieSlice13setLabelColorE6QColor@Base 6.2.1
 _ZN9QPieSlice14setBorderColorE6QColor@Base 6.2.1
 _ZN9QPieSlice14setBorderWidthEi@Base 6.2.1
 _ZN9QPieSlice15setLabelVisibleEb@Base 6.2.1
 _ZN9QPieSlice16angleSpanChangedEv@Base 6.2.1
 _ZN9QPieSlice16labelFontChangedEv@Base 6.2.1
 _ZN9QPieSlice16setLabelPositionENS_13LabelPositionE@Base 6.2.1
 _ZN9QPieSlice16staticMetaObjectE@Base 6.2.1
 _ZN9QPieSlice17labelBrushChangedEv@Base 6.2.1
 _ZN9QPieSlice17labelColorChangedEv@Base 6.2.1
 _ZN9QPieSlice17percentageChangedEv@Base 6.2.1
 _ZN9QPieSlice17startAngleChangedEv@Base 6.2.1
 _ZN9QPieSlice18borderColorChangedEv@Base 6.2.1
 _ZN9QPieSlice18borderWidthChangedEv@Base 6.2.1
 _ZN9QPieSlice19labelVisibleChangedEv@Base 6.2.1
 _ZN9QPieSlice23setLabelArmLengthFactorEd@Base 6.2.1
 _ZN9QPieSlice24setExplodeDistanceFactorEd@Base 6.2.1
 _ZN9QPieSlice5colorEv@Base 6.2.1
 _ZN9QPieSlice6setPenERK4QPen@Base 6.2.1
 _ZN9QPieSlice7clickedEv@Base 6.2.1
 _ZN9QPieSlice7hoveredEb@Base 6.2.1
 _ZN9QPieSlice7pressedEv@Base 6.2.1
 _ZN9QPieSlice8releasedEv@Base 6.2.1
 _ZN9QPieSlice8setBrushERK6QBrush@Base 6.2.1
 _ZN9QPieSlice8setColorE6QColor@Base 6.2.1
 _ZN9QPieSlice8setLabelE7QString@Base 6.2.1
 _ZN9QPieSlice8setValueEd@Base 6.2.1
 _ZN9QPieSliceC1E7QStringdP7QObject@Base 6.2.1
 _ZN9QPieSliceC1EP7QObject@Base 6.2.1
 _ZN9QPieSliceC2E7QStringdP7QObject@Base 6.2.1
 _ZN9QPieSliceC2EP7QObject@Base 6.2.1
 _ZN9QPieSliceD0Ev@Base 6.2.1
 _ZN9QPieSliceD1Ev@Base 6.2.1
 _ZN9QPieSliceD2Ev@Base 6.2.1
 _ZN9QXYSeries10penChangedERK4QPen@Base 6.2.1
 _ZN9QXYSeries10pointAddedEi@Base 6.2.1
 _ZN9QXYSeries11qt_metacallEN11QMetaObject4CallEiPPv@Base 6.2.1
 _ZN9QXYSeries11qt_metacastEPKc@Base 6.2.1
 _ZN9QXYSeries11selectPointEi@Base 6.2.1
 _ZN9QXYSeries12colorChangedE6QColor@Base 6.2.1
 _ZN9QXYSeries12pointRemovedEi@Base 6.2.1
 _ZN9QXYSeries12removePointsEii@Base 6.2.1
 _ZN9QXYSeries12selectPointsERK5QListIiE@Base 6.2.1
 _ZN9QXYSeries13deselectPointEi@Base 6.2.1
 _ZN9QXYSeries13doubleClickedERK7QPointF@Base 6.2.1
 _ZN9QXYSeries13pointReplacedEi@Base 6.2.1
 _ZN9QXYSeries13pointsRemovedEii@Base 6.2.1
 _ZN9QXYSeries13setMarkerSizeEd@Base 6.2.1
 _ZN9QXYSeries14deselectPointsERK5QListIiE@Base 6.2.1
 _ZN9QXYSeries14pointsReplacedEv@Base 6.2.1
 _ZN9QXYSeries14setLightMarkerERK6QImage@Base 6.2.1
 _ZN9QXYSeries15isPointSelectedEi@Base 6.2.1
 _ZN9QXYSeries15selectAllPointsEv@Base 6.2.1
 _ZN9QXYSeries15toggleSelectionERK5QListIiE@Base 6.2.1
 _ZN9QXYSeries16setPointSelectedEib@Base 6.2.1
 _ZN9QXYSeries16setPointsVisibleEb@Base 6.2.1
 _ZN9QXYSeries16setSelectedColorERK6QColor@Base 6.2.1
 _ZN9QXYSeries16staticMetaObjectE@Base 6.2.1
 _ZN9QXYSeries17deselectAllPointsEv@Base 6.2.1
 _ZN9QXYSeries17markerSizeChangedEd@Base 6.2.1
 _ZN9QXYSeries17setBestFitLinePenERK4QPen@Base 6.2.1
 _ZN9QXYSeries18lightMarkerChangedERK6QImage@Base 6.2.1
 _ZN9QXYSeries18setPointLabelsFontERK5QFont@Base 6.2.1
 _ZN9QXYSeries19setBestFitLineColorERK6QColor@Base 6.2.1
 _ZN9QXYSeries19setPointLabelsColorERK6QColor@Base 6.2.1
 _ZN9QXYSeries20selectedColorChangedERK6QColor@Base 6.2.1
 _ZN9QXYSeries20setPointLabelsFormatERK7QString@Base 6.2.1
 _ZN9QXYSeries21bestFitLinePenChangedERK4QPen@Base 6.2.1
 _ZN9QXYSeries21selectedPointsChangedEv@Base 6.2.1
 _ZN9QXYSeries21setBestFitLineVisibleEb@Base 6.2.1
 _ZN9QXYSeries21setPointConfigurationEiNS_18PointConfigurationERK8QVariant@Base 6.2.1
 _ZN9QXYSeries21setPointConfigurationEiRK5QHashINS_18PointConfigurationE8QVariantE@Base 6.2.1
 _ZN9QXYSeries21setPointLabelsVisibleEb@Base 6.2.1
 _ZN9QXYSeries22pointLabelsFontChangedERK5QFont@Base 6.2.1
 _ZN9QXYSeries22setPointLabelsClippingEb@Base 6.2.1
 _ZN9QXYSeries22setPointsConfigurationERK5QHashIiS0_INS_18PointConfigurationE8QVariantEE@Base 6.2.1
 _ZN9QXYSeries22setSelectedLightMarkerERK6QImage@Base 6.2.1
 _ZN9QXYSeries23bestFitLineColorChangedERK6QColor@Base 6.2.1
 _ZN9QXYSeries23clearPointConfigurationEi@Base 6.2.1
 _ZN9QXYSeries23clearPointConfigurationEiNS_18PointConfigurationE@Base 6.2.1
 _ZN9QXYSeries23pointLabelsColorChangedERK6QColor@Base 6.2.1
 _ZN9QXYSeries24clearPointsConfigurationENS_18PointConfigurationE@Base 6.2.1
 _ZN9QXYSeries24clearPointsConfigurationEv@Base 6.2.1
 _ZN9QXYSeries24pointLabelsFormatChangedERK7QString@Base 6.2.1
 _ZN9QXYSeries26pointLabelsClippingChangedEb@Base 6.2.1
 _ZN9QXYSeries26pointsConfigurationChangedERK5QHashIiS0_INS_18PointConfigurationE8QVariantEE@Base 6.2.1
 _ZN9QXYSeries26selectedLightMarkerChangedERK6QImage@Base 6.2.1
 _ZN9QXYSeries28bestFitLineVisibilityChangedEb@Base 6.2.1
 _ZN9QXYSeries28pointLabelsVisibilityChangedEb@Base 6.2.1
 _ZN9QXYSeries5clearEv@Base 6.2.1
 _ZN9QXYSeries6appendERK5QListI7QPointFE@Base 6.2.1
 _ZN9QXYSeries6appendERK7QPointF@Base 6.2.1
 _ZN9QXYSeries6appendEdd@Base 6.2.1
 _ZN9QXYSeries6insertEiRK7QPointF@Base 6.2.1
 _ZN9QXYSeries6removeERK7QPointF@Base 6.2.1
 _ZN9QXYSeries6removeEdd@Base 6.2.1
 _ZN9QXYSeries6removeEi@Base 6.2.1
 _ZN9QXYSeries6setPenERK4QPen@Base 6.2.1
 _ZN9QXYSeries6sizeByERK5QListIdEdd@Base 6.2.1
 _ZN9QXYSeries7clickedERK7QPointF@Base 6.2.1
 _ZN9QXYSeries7colorByERK5QListIdERK15QLinearGradient@Base 6.2.1
 _ZN9QXYSeries7hoveredERK7QPointFb@Base 6.2.1
 _ZN9QXYSeries7pressedERK7QPointF@Base 6.2.1
 _ZN9QXYSeries7replaceERK5QListI7QPointFE@Base 6.2.1
 _ZN9QXYSeries7replaceERK7QPointFS2_@Base 6.2.1
 _ZN9QXYSeries7replaceEdddd@Base 6.2.1
 _ZN9QXYSeries7replaceEiRK7QPointF@Base 6.2.1
 _ZN9QXYSeries7replaceEidd@Base 6.2.1
 _ZN9QXYSeries8releasedERK7QPointF@Base 6.2.1
 _ZN9QXYSeries8setBrushERK6QBrush@Base 6.2.1
 _ZN9QXYSeries8setColorERK6QColor@Base 6.2.1
 _ZN9QXYSeriesC1ER16QXYSeriesPrivateP7QObject@Base 6.2.1
 _ZN9QXYSeriesC2ER16QXYSeriesPrivateP7QObject@Base 6.2.1
 _ZN9QXYSeriesD0Ev@Base 6.2.1
 _ZN9QXYSeriesD1Ev@Base 6.2.1
 _ZN9QXYSeriesD2Ev@Base 6.2.1
 _ZN9QXYSerieslsERK5QListI7QPointFE@Base 6.2.1
 _ZN9QXYSerieslsERK7QPointF@Base 6.2.1
 _ZNK10ChartTitle4textEv@Base 6.2.1
 _ZNK10ChartTitle8sizeHintEN2Qt8SizeHintERK6QSizeF@Base 6.2.1
 _ZNK10QBarSeries10metaObjectEv@Base 6.2.1
 _ZNK10QBarSeries4typeEv@Base 6.2.1
 _ZNK10QChartView10metaObjectEv@Base 6.2.1
 _ZNK10QChartView10rubberBandEv@Base 6.2.1
 _ZNK10QChartView5chartEv@Base 6.2.1
 _ZNK10QColorAxis10metaObjectEv@Base 6.2.1
 _ZNK10QColorAxis3maxEv@Base 6.2.1
 _ZNK10QColorAxis3minEv@Base 6.2.1
 _ZNK10QColorAxis4sizeEv@Base 6.2.1
 _ZNK10QColorAxis4typeEv@Base 6.2.1
 _ZNK10QColorAxis8gradientEv@Base 6.2.1
 _ZNK10QColorAxis9autoRangeEv@Base 6.2.1
 _ZNK10QColorAxis9tickCountEv@Base 6.2.1
 _ZNK10QPieSeries10metaObjectEv@Base 6.2.1
 _ZNK10QPieSeries11pieEndAngleEv@Base 6.2.1
 _ZNK10QPieSeries13pieStartAngleEv@Base 6.2.1
 _ZNK10QPieSeries16verticalPositionEv@Base 6.2.1
 _ZNK10QPieSeries18horizontalPositionEv@Base 6.2.1
 _ZNK10QPieSeries3sumEv@Base 6.2.1
 _ZNK10QPieSeries4typeEv@Base 6.2.1
 _ZNK10QPieSeries5countEv@Base 6.2.1
 _ZNK10QPieSeries6slicesEv@Base 6.2.1
 _ZNK10QPieSeries7isEmptyEv@Base 6.2.1
 _ZNK10QPieSeries7pieSizeEv@Base 6.2.1
 _ZNK10QPieSeries8holeSizeEv@Base 6.2.1
 _ZNK10QValueAxis10metaObjectEv@Base 6.2.1
 _ZNK10QValueAxis10tickAnchorEv@Base 6.2.1
 _ZNK10QValueAxis11labelFormatEv@Base 6.2.1
 _ZNK10QValueAxis12tickIntervalEv@Base 6.2.1
 _ZNK10QValueAxis14minorTickCountEv@Base 6.2.1
 _ZNK10QValueAxis3maxEv@Base 6.2.1
 _ZNK10QValueAxis3minEv@Base 6.2.1
 _ZNK10QValueAxis4typeEv@Base 6.2.1
 _ZNK10QValueAxis8tickTypeEv@Base 6.2.1
 _ZNK10QValueAxis9tickCountEv@Base 6.2.1
 _ZNK11BoxWhiskers10metaObjectEv@Base 6.2.1
 _ZNK11BoxWhiskers12boundingRectEv@Base 6.2.1
 _ZNK11BoxWhiskers8sizeHintEN2Qt8SizeHintERK6QSizeF@Base 6.2.1
 _ZNK11Candlestick10metaObjectEv@Base 6.2.1
 _ZNK11Candlestick12boundingRectEv@Base 6.2.1
 _ZNK11LogXYDomain10metaObjectEv@Base 6.2.1
 _ZNK11LogXYDomain20calculateDomainPointERK7QPointF@Base 6.2.1
 _ZNK11LogXYDomain22calculateGeometryPointERK7QPointFRb@Base 6.2.1
 _ZNK11LogXYDomain23calculateGeometryPointsERK5QListI7QPointFE@Base 6.2.1
 _ZNK11PolarDomain10metaObjectEv@Base 6.2.1
 _ZNK11PolarDomain22calculateGeometryPointERK7QPointFRb@Base 6.2.1
 _ZNK11PolarDomain22polarCoordinateToPointEdd@Base 6.2.1
 _ZNK11PolarDomain23calculateGeometryPointsERK5QListI7QPointFE@Base 6.2.1
 _ZNK11QAreaSeries10metaObjectEv@Base 6.2.1
 _ZNK11QAreaSeries11borderColorEv@Base 6.2.1
 _ZNK11QAreaSeries11lowerSeriesEv@Base 6.2.1
 _ZNK11QAreaSeries11upperSeriesEv@Base 6.2.1
 _ZNK11QAreaSeries13pointsVisibleEv@Base 6.2.1
 _ZNK11QAreaSeries15pointLabelsFontEv@Base 6.2.1
 _ZNK11QAreaSeries16pointLabelsColorEv@Base 6.2.1
 _ZNK11QAreaSeries17pointLabelsFormatEv@Base 6.2.1
 _ZNK11QAreaSeries18pointLabelsVisibleEv@Base 6.2.1
 _ZNK11QAreaSeries19pointLabelsClippingEv@Base 6.2.1
 _ZNK11QAreaSeries3penEv@Base 6.2.1
 _ZNK11QAreaSeries4typeEv@Base 6.2.1
 _ZNK11QAreaSeries5brushEv@Base 6.2.1
 _ZNK11QAreaSeries5colorEv@Base 6.2.1
 _ZNK11QLineSeries10metaObjectEv@Base 6.2.1
 _ZNK11QLineSeries4typeEv@Base 6.2.1
 _ZNK11QPolarChart10metaObjectEv@Base 6.2.1
 _ZNK11QPolarChart4axesE6QFlagsINS_16PolarOrientationEEP15QAbstractSeries@Base 6.2.1
 _ZNK11XLogYDomain10metaObjectEv@Base 6.2.1
 _ZNK11XLogYDomain20calculateDomainPointERK7QPointF@Base 6.2.1
 _ZNK11XLogYDomain22calculateGeometryPointERK7QPointFRb@Base 6.2.1
 _ZNK11XLogYDomain23calculateGeometryPointsERK5QListI7QPointFE@Base 6.2.1
 _ZNK11XYAnimation12interpolatedERK8QVariantS2_d@Base 6.2.1
 _ZNK12BarAnimation10metaObjectEv@Base 6.2.1
 _ZNK12BarAnimation12interpolatedERK8QVariantS2_d@Base 6.2.1
 _ZNK12BarChartItem10metaObjectEv@Base 6.2.1
 _ZNK12ChartDataSet10metaObjectEv@Base 6.2.1
 _ZNK12ChartDataSet15domainForSeriesEP15QAbstractSeries@Base 6.2.1
 _ZNK12ChartDataSet4axesEv@Base 6.2.1
 _ZNK12ChartDataSet6seriesEv@Base 6.2.1
 _ZNK12ChartElement12themeManagerEv@Base 6.2.1
 _ZNK12ChartElement7dataSetEv@Base 6.2.1
 _ZNK12ChartElement9presenterEv@Base 6.2.1
 _ZNK12LegendLayout6offsetEv@Base 6.2.1
 _ZNK12LegendLayout8sizeHintEN2Qt8SizeHintERK6QSizeF@Base 6.2.1
 _ZNK12PieAnimation10metaObjectEv@Base 6.2.1
 _ZNK12PieChartItem10metaObjectEv@Base 6.2.1
 _ZNK12PieChartItem9animationEv@Base 6.2.1
 _ZNK12PieSliceItem10metaObjectEv@Base 6.2.1
 _ZNK12PieSliceItem12boundingRectEv@Base 6.2.1
 _ZNK12PieSliceItem5shapeEv@Base 6.2.1
 _ZNK12ScrollTicker10metaObjectEv@Base 6.2.1
 _ZNK12VerticalAxis8sizeHintEN2Qt8SizeHintERK6QSizeF@Base 6.2.1
 _ZNK13AreaChartItem10metaObjectEv@Base 6.2.1
 _ZNK13AreaChartItem12boundingRectEv@Base 6.2.1
 _ZNK13AreaChartItem5shapeEv@Base 6.2.1
 _ZNK13AxisAnimation12interpolatedERK8QVariantS2_d@Base 6.2.1
 _ZNK13LineChartItem10metaObjectEv@Base 6.2.1
 _ZNK13LineChartItem12boundingRectEv@Base 6.2.1
 _ZNK13LineChartItem5shapeEv@Base 6.2.1
 _ZNK13QAbstractAxis10labelsFontEv@Base 6.2.1
 _ZNK13QAbstractAxis10metaObjectEv@Base 6.2.1
 _ZNK13QAbstractAxis10titleBrushEv@Base 6.2.1
 _ZNK13QAbstractAxis11gridLinePenEv@Base 6.2.1
 _ZNK13QAbstractAxis11labelsAngleEv@Base 6.2.1
 _ZNK13QAbstractAxis11labelsBrushEv@Base 6.2.1
 _ZNK13QAbstractAxis11labelsColorEv@Base 6.2.1
 _ZNK13QAbstractAxis11orientationEv@Base 6.2.1
 _ZNK13QAbstractAxis11shadesBrushEv@Base 6.2.1
 _ZNK13QAbstractAxis11shadesColorEv@Base 6.2.1
 _ZNK13QAbstractAxis12linePenColorEv@Base 6.2.1
 _ZNK13QAbstractAxis13isLineVisibleEv@Base 6.2.1
 _ZNK13QAbstractAxis13labelsVisibleEv@Base 6.2.1
 _ZNK13QAbstractAxis13shadesVisibleEv@Base 6.2.1
 _ZNK13QAbstractAxis14isTitleVisibleEv@Base 6.2.1
 _ZNK13QAbstractAxis14labelsEditableEv@Base 6.2.1
 _ZNK13QAbstractAxis14truncateLabelsEv@Base 6.2.1
 _ZNK13QAbstractAxis15labelsTruncatedEv@Base 6.2.1
 _ZNK13QAbstractAxis16minorGridLinePenEv@Base 6.2.1
 _ZNK13QAbstractAxis17isGridLineVisibleEv@Base 6.2.1
 _ZNK13QAbstractAxis17shadesBorderColorEv@Base 6.2.1
 _ZNK13QAbstractAxis22isMinorGridLineVisibleEv@Base 6.2.1
 _ZNK13QAbstractAxis7linePenEv@Base 6.2.1
 _ZNK13QAbstractAxis9alignmentEv@Base 6.2.1
 _ZNK13QAbstractAxis9isReverseEv@Base 6.2.1
 _ZNK13QAbstractAxis9isVisibleEv@Base 6.2.1
 _ZNK13QAbstractAxis9shadesPenEv@Base 6.2.1
 _ZNK13QAbstractAxis9titleFontEv@Base 6.2.1
 _ZNK13QAbstractAxis9titleTextEv@Base 6.2.1
 _ZNK13QCategoryAxis10metaObjectEv@Base 6.2.1
 _ZNK13QCategoryAxis10startValueERK7QString@Base 6.2.1
 _ZNK13QCategoryAxis14labelsPositionEv@Base 6.2.1
 _ZNK13QCategoryAxis4typeEv@Base 6.2.1
 _ZNK13QCategoryAxis5countEv@Base 6.2.1
 _ZNK13QCategoryAxis8endValueERK7QString@Base 6.2.1
 _ZNK13QDateTimeAxis10metaObjectEv@Base 6.2.1
 _ZNK13QDateTimeAxis3maxEv@Base 6.2.1
 _ZNK13QDateTimeAxis3minEv@Base 6.2.1
 _ZNK13QDateTimeAxis4typeEv@Base 6.2.1
 _ZNK13QDateTimeAxis6formatEv@Base 6.2.1
 _ZNK13QDateTimeAxis9tickCountEv@Base 6.2.1
 _ZNK13QLegendMarker10labelBrushEv@Base 6.2.1
 _ZNK13QLegendMarker10metaObjectEv@Base 6.2.1
 _ZNK13QLegendMarker3penEv@Base 6.2.1
 _ZNK13QLegendMarker4fontEv@Base 6.2.1
 _ZNK13QLegendMarker5brushEv@Base 6.2.1
 _ZNK13QLegendMarker5labelEv@Base 6.2.1
 _ZNK13QLegendMarker5shapeEv@Base 6.2.1
 _ZNK13QLegendMarker9isVisibleEv@Base 6.2.1
 _ZNK13QLogValueAxis10metaObjectEv@Base 6.2.1
 _ZNK13QLogValueAxis11labelFormatEv@Base 6.2.1
 _ZNK13QLogValueAxis14minorTickCountEv@Base 6.2.1
 _ZNK13QLogValueAxis3maxEv@Base 6.2.1
 _ZNK13QLogValueAxis3minEv@Base 6.2.1
 _ZNK13QLogValueAxis4baseEv@Base 6.2.1
 _ZNK13QLogValueAxis4typeEv@Base 6.2.1
 _ZNK13QLogValueAxis9tickCountEv@Base 6.2.1
 _ZNK13QSplineSeries10metaObjectEv@Base 6.2.1
 _ZNK13QSplineSeries4typeEv@Base 6.2.1
 _ZNK13XYPolarDomain10metaObjectEv@Base 6.2.1
 _ZNK13XYPolarDomain18toRadialCoordinateEdRb@Base 6.2.1
 _ZNK13XYPolarDomain19toAngularCoordinateEdRb@Base 6.2.1
 _ZNK13XYPolarDomain20calculateDomainPointERK7QPointF@Base 6.2.1
 _ZNK14AbstractDomain10metaObjectEv@Base 6.2.1
 _ZNK14AbstractDomain4sizeEv@Base 6.2.1
 _ZNK14AbstractDomain5spanXEv@Base 6.2.1
 _ZNK14AbstractDomain5spanYEv@Base 6.2.1
 _ZNK14AbstractDomain7isEmptyEv@Base 6.2.1
 _ZNK14ChartAnimation10metaObjectEv@Base 6.2.1
 _ZNK14ChartPresenter10chartItemsEv@Base 6.2.1
 _ZNK14ChartPresenter10metaObjectEv@Base 6.2.1
 _ZNK14ChartPresenter10titleBrushEv@Base 6.2.1
 _ZNK14ChartPresenter13backgroundPenEv@Base 6.2.1
 _ZNK14ChartPresenter15backgroundBrushEv@Base 6.2.1
 _ZNK14ChartPresenter16animationOptionsEv@Base 6.2.1
 _ZNK14ChartPresenter19backgroundRoundnessEv@Base 6.2.1
 _ZNK14ChartPresenter19isBackgroundVisibleEv@Base 6.2.1
 _ZNK14ChartPresenter21plotAreaBackgroundPenEv@Base 6.2.1
 _ZNK14ChartPresenter23plotAreaBackgroundBrushEv@Base 6.2.1
 _ZNK14ChartPresenter27isPlotAreaBackgroundVisibleEv@Base 6.2.1
 _ZNK14ChartPresenter29isBackgroundDropShadowEnabledEv@Base 6.2.1
 _ZNK14ChartPresenter5titleEv@Base 6.2.1
 _ZNK14ChartPresenter8geometryEv@Base 6.2.1
 _ZNK14ChartPresenter9axisItemsEv@Base 6.2.1
 _ZNK14ChartPresenter9titleFontEv@Base 6.2.1
 _ZNK14HorizontalAxis8sizeHintEN2Qt8SizeHintERK6QSizeF@Base 6.2.1
 _ZNK14LegendScroller10metaObjectEv@Base 6.2.1
 _ZNK14LegendScroller6offsetEv@Base 6.2.1
 _ZNK14LogXLogYDomain10metaObjectEv@Base 6.2.1
 _ZNK14LogXLogYDomain20calculateDomainPointERK7QPointF@Base 6.2.1
 _ZNK14LogXLogYDomain22calculateGeometryPointERK7QPointFRb@Base 6.2.1
 _ZNK14LogXLogYDomain23calculateGeometryPointsERK5QListI7QPointFE@Base 6.2.1
 _ZNK14PolarChartAxis10metaObjectEv@Base 6.2.1
 _ZNK14PolarChartAxis12gridGeometryEv@Base 6.2.1
 _ZNK14PolarChartAxis9emptyAxisEv@Base 6.2.1
 _ZNK14QBarSetPrivate10metaObjectEv@Base 6.2.1
 _ZNK14QBarSetPrivate13isBarSelectedEi@Base 6.2.1
 _ZNK14QBoxPlotSeries10metaObjectEv@Base 6.2.1
 _ZNK14QBoxPlotSeries3penEv@Base 6.2.1
 _ZNK14QBoxPlotSeries4typeEv@Base 6.2.1
 _ZNK14QBoxPlotSeries5brushEv@Base 6.2.1
 _ZNK14QBoxPlotSeries5countEv@Base 6.2.1
 _ZNK14QBoxPlotSeries7boxSetsEv@Base 6.2.1
 _ZNK14QBoxSetPrivate10metaObjectEv@Base 6.2.1
 _ZNK14QLegendPrivate10metaObjectEv@Base 6.2.1
 _ZNK14QLegendPrivate14maxMarkerWidthEv@Base 6.2.1
 _ZNK14QLegendPrivate6offsetEv@Base 6.2.1
 _ZNK14QScatterSeries10markerSizeEv@Base 6.2.1
 _ZNK14QScatterSeries10metaObjectEv@Base 6.2.1
 _ZNK14QScatterSeries11borderColorEv@Base 6.2.1
 _ZNK14QScatterSeries11markerShapeEv@Base 6.2.1
 _ZNK14QScatterSeries4typeEv@Base 6.2.1
 _ZNK14QScatterSeries5brushEv@Base 6.2.1
 _ZNK14QScatterSeries5colorEv@Base 6.2.1
 _ZNK14QXYModelMapper10metaObjectEv@Base 6.2.1
 _ZNK14QXYModelMapper11orientationEv@Base 6.2.1
 _ZNK14QXYModelMapper5countEv@Base 6.2.1
 _ZNK14QXYModelMapper5firstEv@Base 6.2.1
 _ZNK14QXYModelMapper5modelEv@Base 6.2.1
 _ZNK14QXYModelMapper6seriesEv@Base 6.2.1
 _ZNK14QXYModelMapper8xSectionEv@Base 6.2.1
 _ZNK14QXYModelMapper8ySectionEv@Base 6.2.1
 _ZNK14ValueAxisLabel10metaObjectEv@Base 6.2.1
 _ZNK14ValueAxisLabel5valueEv@Base 6.2.1
 _ZNK15ChartBackground8diameterEv@Base 6.2.1
 _ZNK15ChartColorAxisX10metaObjectEv@Base 6.2.1
 _ZNK15ChartColorAxisX15calculateLayoutEv@Base 6.2.1
 _ZNK15ChartColorAxisX8sizeHintEN2Qt8SizeHintERK6QSizeF@Base 6.2.1
 _ZNK15ChartColorAxisY10metaObjectEv@Base 6.2.1
 _ZNK15ChartColorAxisY15calculateLayoutEv@Base 6.2.1
 _ZNK15ChartColorAxisY8sizeHintEN2Qt8SizeHintERK6QSizeF@Base 6.2.1
 _ZNK15ChartValueAxisX10metaObjectEv@Base 6.2.1
 _ZNK15ChartValueAxisX15calculateLayoutEv@Base 6.2.1
 _ZNK15ChartValueAxisX8sizeHintEN2Qt8SizeHintERK6QSizeF@Base 6.2.1
 _ZNK15ChartValueAxisY10metaObjectEv@Base 6.2.1
 _ZNK15ChartValueAxisY15calculateLayoutEv@Base 6.2.1
 _ZNK15ChartValueAxisY8sizeHintEN2Qt8SizeHintERK6QSizeF@Base 6.2.1
 _ZNK15QAbstractSeries10metaObjectEv@Base 6.2.1
 _ZNK15QAbstractSeries4nameEv@Base 6.2.1
 _ZNK15QAbstractSeries5chartEv@Base 6.2.1
 _ZNK15QAbstractSeries7opacityEv@Base 6.2.1
 _ZNK15QAbstractSeries9isVisibleEv@Base 6.2.1
 _ZNK15QAbstractSeries9useOpenGLEv@Base 6.2.1
 _ZNK15QBarModelMapper10metaObjectEv@Base 6.2.1
 _ZNK15QBarModelMapper11orientationEv@Base 6.2.1
 _ZNK15QBarModelMapper17lastBarSetSectionEv@Base 6.2.1
 _ZNK15QBarModelMapper18firstBarSetSectionEv@Base 6.2.1
 _ZNK15QBarModelMapper5countEv@Base 6.2.1
 _ZNK15QBarModelMapper5firstEv@Base 6.2.1
 _ZNK15QBarModelMapper5modelEv@Base 6.2.1
 _ZNK15QBarModelMapper6seriesEv@Base 6.2.1
 _ZNK15QCandlestickSet10metaObjectEv@Base 6.2.1
 _ZNK15QCandlestickSet3lowEv@Base 6.2.1
 _ZNK15QCandlestickSet3penEv@Base 6.2.1
 _ZNK15QCandlestickSet4highEv@Base 6.2.1
 _ZNK15QCandlestickSet4openEv@Base 6.2.1
 _ZNK15QCandlestickSet5brushEv@Base 6.2.1
 _ZNK15QCandlestickSet5closeEv@Base 6.2.1
 _ZNK15QCandlestickSet9timestampEv@Base 6.2.1
 _ZNK15QHXYModelMapper10metaObjectEv@Base 6.2.1
 _ZNK15QHXYModelMapper11columnCountEv@Base 6.2.1
 _ZNK15QHXYModelMapper11firstColumnEv@Base 6.2.1
 _ZNK15QHXYModelMapper4xRowEv@Base 6.2.1
 _ZNK15QHXYModelMapper4yRowEv@Base 6.2.1
 _ZNK15QHXYModelMapper5modelEv@Base 6.2.1
 _ZNK15QHXYModelMapper6seriesEv@Base 6.2.1
 _ZNK15QPieModelMapper10metaObjectEv@Base 6.2.1
 _ZNK15QPieModelMapper11orientationEv@Base 6.2.1
 _ZNK15QPieModelMapper13labelsSectionEv@Base 6.2.1
 _ZNK15QPieModelMapper13valuesSectionEv@Base 6.2.1
 _ZNK15QPieModelMapper5countEv@Base 6.2.1
 _ZNK15QPieModelMapper5firstEv@Base 6.2.1
 _ZNK15QPieModelMapper5modelEv@Base 6.2.1
 _ZNK15QPieModelMapper6seriesEv@Base 6.2.1
 _ZNK15QVXYModelMapper10metaObjectEv@Base 6.2.1
 _ZNK15QVXYModelMapper5modelEv@Base 6.2.1
 _ZNK15QVXYModelMapper6seriesEv@Base 6.2.1
 _ZNK15QVXYModelMapper7xColumnEv@Base 6.2.1
 _ZNK15QVXYModelMapper7yColumnEv@Base 6.2.1
 _ZNK15QVXYModelMapper8firstRowEv@Base 6.2.1
 _ZNK15QVXYModelMapper8rowCountEv@Base 6.2.1
 _ZNK15QXYLegendMarker10metaObjectEv@Base 6.2.1
 _ZNK15SplineAnimation12interpolatedERK8QVariantS2_d@Base 6.2.1
 _ZNK15SplineChartItem10metaObjectEv@Base 6.2.1
 _ZNK15SplineChartItem12boundingRectEv@Base 6.2.1
 _ZNK15SplineChartItem21controlGeometryPointsEv@Base 6.2.1
 _ZNK15SplineChartItem5shapeEv@Base 6.2.1
 _ZNK15SplineChartItem9animationEv@Base 6.2.1
 _ZNK16BoxPlotAnimation10metaObjectEv@Base 6.2.1
 _ZNK16BoxPlotChartItem10metaObjectEv@Base 6.2.1
 _ZNK16BoxPlotChartItem12boundingRectEv@Base 6.2.1
 _ZNK16ChartAxisElement10metaObjectEv@Base 6.2.1
 _ZNK16ChartAxisElement10tickAnchorEv@Base 6.2.1
 _ZNK16ChartAxisElement11formatLabelERK7QStringRK10QByteArraydiS2_S2_@Base 6.2.1
 _ZNK16ChartAxisElement12tickIntervalEv@Base 6.2.1
 _ZNK16ChartAxisElement14labelsEditableEv@Base 6.2.1
 _ZNK16ChartAxisElement17createColorLabelsEddi@Base 6.2.1
 _ZNK16ChartAxisElement17createValueLabelsEddiddN10QValueAxis8TickTypeERK7QString@Base 6.2.1
 _ZNK16ChartAxisElement20createDateTimeLabelsEddiRK7QString@Base 6.2.1
 _ZNK16ChartAxisElement20createLogValueLabelsEdddiRK7QString@Base 6.2.1
 _ZNK16ChartAxisElement3maxEv@Base 6.2.1
 _ZNK16ChartAxisElement3minEv@Base 6.2.1
 _ZNK16ChartAxisElement9emptyAxisEv@Base 6.2.1
 _ZNK16LegendMarkerItem10labelBrushEv@Base 6.2.1
 _ZNK16LegendMarkerItem10markerRectEv@Base 6.2.1
 _ZNK16LegendMarkerItem10metaObjectEv@Base 6.2.1
 _ZNK16LegendMarkerItem11markerShapeEv@Base 6.2.1
 _ZNK16LegendMarkerItem11useMaxWidthEv@Base 6.2.1
 _ZNK16LegendMarkerItem12boundingRectEv@Base 6.2.1
 _ZNK16LegendMarkerItem14displayedLabelEv@Base 6.2.1
 _ZNK16LegendMarkerItem20effectiveMarkerShapeEv@Base 6.2.1
 _ZNK16LegendMarkerItem20effectiveMarkerWidthEv@Base 6.2.1
 _ZNK16LegendMarkerItem3penEv@Base 6.2.1
 _ZNK16LegendMarkerItem4fontEv@Base 6.2.1
 _ZNK16LegendMarkerItem5brushEv@Base 6.2.1
 _ZNK16LegendMarkerItem5labelEv@Base 6.2.1
 _ZNK16LegendMarkerItem8sizeHintEN2Qt8SizeHintERK6QSizeF@Base 6.2.1
 _ZNK16LogXYPolarDomain10metaObjectEv@Base 6.2.1
 _ZNK16LogXYPolarDomain18toRadialCoordinateEdRb@Base 6.2.1
 _ZNK16LogXYPolarDomain19toAngularCoordinateEdRb@Base 6.2.1
 _ZNK16LogXYPolarDomain20calculateDomainPointERK7QPointF@Base 6.2.1
 _ZNK16PolarChartLayout20calculateAxisMinimumERK6QRectFRK5QListIP16ChartAxisElementE@Base 6.2.1
 _ZNK16PolarChartLayout21calculateAxisGeometryERK6QRectFRK5QListIP16ChartAxisElementEb@Base 6.2.1
 _ZNK16QBarCategoryAxis10metaObjectEv@Base 6.2.1
 _ZNK16QBarCategoryAxis2atEi@Base 6.2.1
 _ZNK16QBarCategoryAxis3maxEv@Base 6.2.1
 _ZNK16QBarCategoryAxis3minEv@Base 6.2.1
 _ZNK16QBarCategoryAxis4typeEv@Base 6.2.1
 _ZNK16QBarCategoryAxis5countEv@Base 6.2.1
 _ZNK16QBarLegendMarker10metaObjectEv@Base 6.2.1
 _ZNK16QHBarModelMapper10metaObjectEv@Base 6.2.1
 _ZNK16QHBarModelMapper11columnCountEv@Base 6.2.1
 _ZNK16QHBarModelMapper11firstColumnEv@Base 6.2.1
 _ZNK16QHBarModelMapper13lastBarSetRowEv@Base 6.2.1
 _ZNK16QHBarModelMapper14firstBarSetRowEv@Base 6.2.1
 _ZNK16QHBarModelMapper5modelEv@Base 6.2.1
 _ZNK16QHBarModelMapper6seriesEv@Base 6.2.1
 _ZNK16QHPieModelMapper10metaObjectEv@Base 6.2.1
 _ZNK16QHPieModelMapper11columnCountEv@Base 6.2.1
 _ZNK16QHPieModelMapper11firstColumnEv@Base 6.2.1
 _ZNK16QHPieModelMapper5modelEv@Base 6.2.1
 _ZNK16QHPieModelMapper6seriesEv@Base 6.2.1
 _ZNK16QHPieModelMapper9labelsRowEv@Base 6.2.1
 _ZNK16QHPieModelMapper9valuesRowEv@Base 6.2.1
 _ZNK16QPieLegendMarker10metaObjectEv@Base 6.2.1
 _ZNK16QPieSlicePrivate10metaObjectEv@Base 6.2.1
 _ZNK16QVBarModelMapper10metaObjectEv@Base 6.2.1
 _ZNK16QVBarModelMapper16lastBarSetColumnEv@Base 6.2.1
 _ZNK16QVBarModelMapper17firstBarSetColumnEv@Base 6.2.1
 _ZNK16QVBarModelMapper5modelEv@Base 6.2.1
 _ZNK16QVBarModelMapper6seriesEv@Base 6.2.1
 _ZNK16QVBarModelMapper8firstRowEv@Base 6.2.1
 _ZNK16QVBarModelMapper8rowCountEv@Base 6.2.1
 _ZNK16QVPieModelMapper10metaObjectEv@Base 6.2.1
 _ZNK16QVPieModelMapper12labelsColumnEv@Base 6.2.1
 _ZNK16QVPieModelMapper12valuesColumnEv@Base 6.2.1
 _ZNK16QVPieModelMapper5modelEv@Base 6.2.1
 _ZNK16QVPieModelMapper6seriesEv@Base 6.2.1
 _ZNK16QVPieModelMapper8firstRowEv@Base 6.2.1
 _ZNK16QVPieModelMapper8rowCountEv@Base 6.2.1
 _ZNK16QXYSeriesPrivate10metaObjectEv@Base 6.2.1
 _ZNK16QXYSeriesPrivate11colorByDataEv@Base 6.2.1
 _ZNK16QXYSeriesPrivate15defaultAxisTypeEN2Qt11OrientationE@Base 6.2.1
 _ZNK16QXYSeriesPrivate17createDefaultAxisEN2Qt11OrientationE@Base 6.2.1
 _ZNK16QXYSeriesPrivate19bestFitLineEquationERb@Base 6.2.1
 _ZNK16ScatterChartItem10metaObjectEv@Base 6.2.1
 _ZNK16ScatterChartItem12boundingRectEv@Base 6.2.1
 _ZNK16XLogYPolarDomain10metaObjectEv@Base 6.2.1
 _ZNK16XLogYPolarDomain18toRadialCoordinateEdRb@Base 6.2.1
 _ZNK16XLogYPolarDomain19toAngularCoordinateEdRb@Base 6.2.1
 _ZNK16XLogYPolarDomain20calculateDomainPointERK7QPointF@Base 6.2.1
 _ZNK17ChartThemeManager10metaObjectEv@Base 6.2.1
 _ZNK17ChartThemeManager11seriesCountEN15QAbstractSeries10SeriesTypeE@Base 6.2.1
 _ZNK17ChartThemeManager13decorateChartEP6QChartP10ChartTheme@Base 6.2.1
 _ZNK17ChartThemeManager14createIndexKeyERK5QListIiE@Base 6.2.1
 _ZNK17ChartThemeManager14decorateLegendEP7QLegendP10ChartTheme@Base 6.2.1
 _ZNK17DateTimeAxisLabel10metaObjectEv@Base 6.2.1
 _ZNK17DateTimeAxisLabel5valueEv@Base 6.2.1
 _ZNK17EditableAxisLabel10metaObjectEv@Base 6.2.1
 _ZNK17EditableAxisLabel12boundingRectEv@Base 6.2.1
 _ZNK17PieSliceAnimation12interpolatedERK8QVariantS2_d@Base 6.2.1
 _ZNK17QAreaLegendMarker10metaObjectEv@Base 6.2.1
 _ZNK17QColorAxisPrivate10metaObjectEv@Base 6.2.1
 _ZNK17QPercentBarSeries10metaObjectEv@Base 6.2.1
 _ZNK17QPercentBarSeries4typeEv@Base 6.2.1
 _ZNK17QPieSeriesPrivate10metaObjectEv@Base 6.2.1
 _ZNK17QPieSeriesPrivate15defaultAxisTypeEN2Qt11OrientationE@Base 6.2.1
 _ZNK17QPieSeriesPrivate17createDefaultAxisEN2Qt11OrientationE@Base 6.2.1
 _ZNK17QStackedBarSeries10metaObjectEv@Base 6.2.1
 _ZNK17QStackedBarSeries4typeEv@Base 6.2.1
 _ZNK17QValueAxisPrivate10metaObjectEv@Base 6.2.1
 _ZNK18CartesianChartAxis10metaObjectEv@Base 6.2.1
 _ZNK18CartesianChartAxis8sizeHintEN2Qt8SizeHintERK6QSizeF@Base 6.2.1
 _ZNK18CartesianChartAxis9emptyAxisEv@Base 6.2.1
 _ZNK18ChartCategoryAxisX10metaObjectEv@Base 6.2.1
 _ZNK18ChartCategoryAxisX15calculateLayoutEv@Base 6.2.1
 _ZNK18ChartCategoryAxisX8sizeHintEN2Qt8SizeHintERK6QSizeF@Base 6.2.1
 _ZNK18ChartCategoryAxisY10metaObjectEv@Base 6.2.1
 _ZNK18ChartCategoryAxisY15calculateLayoutEv@Base 6.2.1
 _ZNK18ChartCategoryAxisY8sizeHintEN2Qt8SizeHintERK6QSizeF@Base 6.2.1
 _ZNK18ChartDateTimeAxisX10metaObjectEv@Base 6.2.1
 _ZNK18ChartDateTimeAxisX15calculateLayoutEv@Base 6.2.1
 _ZNK18ChartDateTimeAxisX8sizeHintEN2Qt8SizeHintERK6QSizeF@Base 6.2.1
 _ZNK18ChartDateTimeAxisY10metaObjectEv@Base 6.2.1
 _ZNK18ChartDateTimeAxisY15calculateLayoutEv@Base 6.2.1
 _ZNK18ChartDateTimeAxisY8sizeHintEN2Qt8SizeHintERK6QSizeF@Base 6.2.1
 _ZNK18ChartLogValueAxisX10metaObjectEv@Base 6.2.1
 _ZNK18ChartLogValueAxisX15calculateLayoutEv@Base 6.2.1
 _ZNK18ChartLogValueAxisX8sizeHintEN2Qt8SizeHintERK6QSizeF@Base 6.2.1
 _ZNK18ChartLogValueAxisY10metaObjectEv@Base 6.2.1
 _ZNK18ChartLogValueAxisY15calculateLayoutEv@Base 6.2.1
 _ZNK18ChartLogValueAxisY8sizeHintEN2Qt8SizeHintERK6QSizeF@Base 6.2.1
 _ZNK18QAbstractBarSeries10metaObjectEv@Base 6.2.1
 _ZNK18QAbstractBarSeries11labelsAngleEv@Base 6.2.1
 _ZNK18QAbstractBarSeries12labelsFormatEv@Base 6.2.1
 _ZNK18QAbstractBarSeries14labelsPositionEv@Base 6.2.1
 _ZNK18QAbstractBarSeries15isLabelsVisibleEv@Base 6.2.1
 _ZNK18QAbstractBarSeries15labelsPrecisionEv@Base 6.2.1
 _ZNK18QAbstractBarSeries5countEv@Base 6.2.1
 _ZNK18QAbstractBarSeries7barSetsEv@Base 6.2.1
 _ZNK18QAbstractBarSeries8barWidthEv@Base 6.2.1
 _ZNK18QAreaSeriesPrivate10metaObjectEv@Base 6.2.1
 _ZNK18QAreaSeriesPrivate15defaultAxisTypeEN2Qt11OrientationE@Base 6.2.1
 _ZNK18QAreaSeriesPrivate17createDefaultAxisEN2Qt11OrientationE@Base 6.2.1
 _ZNK18QCandlestickSeries10metaObjectEv@Base 6.2.1
 _ZNK18QCandlestickSeries11capsVisibleEv@Base 6.2.1
 _ZNK18QCandlestickSeries15decreasingColorEv@Base 6.2.1
 _ZNK18QCandlestickSeries15increasingColorEv@Base 6.2.1
 _ZNK18QCandlestickSeries18bodyOutlineVisibleEv@Base 6.2.1
 _ZNK18QCandlestickSeries18maximumColumnWidthEv@Base 6.2.1
 _ZNK18QCandlestickSeries18minimumColumnWidthEv@Base 6.2.1
 _ZNK18QCandlestickSeries3penEv@Base 6.2.1
 _ZNK18QCandlestickSeries4setsEv@Base 6.2.1
 _ZNK18QCandlestickSeries4typeEv@Base 6.2.1
 _ZNK18QCandlestickSeries5brushEv@Base 6.2.1
 _ZNK18QCandlestickSeries5countEv@Base 6.2.1
 _ZNK18QCandlestickSeries9bodyWidthEv@Base 6.2.1
 _ZNK18QCandlestickSeries9capsWidthEv@Base 6.2.1
 _ZNK19AbstractChartLayout21calculateTitleMinimumERK6QRectFP10ChartTitle@Base 6.2.1
 _ZNK19AbstractChartLayout22calculateLegendMinimumERK6QRectFP7QLegend@Base 6.2.1
 _ZNK19AbstractChartLayout22calculateTitleGeometryERK6QRectFP10ChartTitleb@Base 6.2.1
 _ZNK19AbstractChartLayout23calculateContentMinimumERK6QRectF@Base 6.2.1
 _ZNK19AbstractChartLayout23calculateLegendGeometryERK6QRectFP7QLegendb@Base 6.2.1
 _ZNK19AbstractChartLayout24calculateContentGeometryERK6QRectF@Base 6.2.1
 _ZNK19AbstractChartLayout26calculateBackgroundMinimumERK6QRectF@Base 6.2.1
 _ZNK19AbstractChartLayout27calculateBackgroundGeometryERK6QRectFP15ChartBackgroundb@Base 6.2.1
 _ZNK19AbstractChartLayout7marginsEv@Base 6.2.1
 _ZNK19AbstractChartLayout8sizeHintEN2Qt8SizeHintERK6QSizeF@Base 6.2.1
 _ZNK19LogXLogYPolarDomain10metaObjectEv@Base 6.2.1
 _ZNK19LogXLogYPolarDomain18toRadialCoordinateEdRb@Base 6.2.1
 _ZNK19LogXLogYPolarDomain19toAngularCoordinateEdRb@Base 6.2.1
 _ZNK19LogXLogYPolarDomain20calculateDomainPointERK7QPointF@Base 6.2.1
 _ZNK19PercentBarChartItem10metaObjectEv@Base 6.2.1
 _ZNK19QBoxPlotModelMapper10metaObjectEv@Base 6.2.1
 _ZNK19QBoxPlotModelMapper11orientationEv@Base 6.2.1
 _ZNK19QBoxPlotModelMapper17lastBoxSetSectionEv@Base 6.2.1
 _ZNK19QBoxPlotModelMapper18firstBoxSetSectionEv@Base 6.2.1
 _ZNK19QBoxPlotModelMapper5countEv@Base 6.2.1
 _ZNK19QBoxPlotModelMapper5firstEv@Base 6.2.1
 _ZNK19QBoxPlotModelMapper5modelEv@Base 6.2.1
 _ZNK19QBoxPlotModelMapper6seriesEv@Base 6.2.1
 _ZNK19StackedBarChartItem10metaObjectEv@Base 6.2.1
 _ZNK20AbstractBarChartItem10metaObjectEv@Base 6.2.1
 _ZNK20AbstractBarChartItem12boundingRectEv@Base 6.2.1
 _ZNK20AbstractBarChartItem9animationEv@Base 6.2.1
 _ZNK20BoxWhiskersAnimation10metaObjectEv@Base 6.2.1
 _ZNK20BoxWhiskersAnimation12interpolatedERK8QVariantS2_d@Base 6.2.1
 _ZNK20CandlestickAnimation10metaObjectEv@Base 6.2.1
 _ZNK20CandlestickChartItem10metaObjectEv@Base 6.2.1
 _ZNK20CandlestickChartItem12boundingRectEv@Base 6.2.1
 _ZNK20CartesianChartLayout20calculateAxisMinimumERK6QRectFRK5QListIP16ChartAxisElementE@Base 6.2.1
 _ZNK20CartesianChartLayout21calculateAxisGeometryERK6QRectFRK5QListIP16ChartAxisElementEb@Base 6.2.1
 _ZNK20PolarChartAxisRadial10metaObjectEv@Base 6.2.1
 _ZNK20PolarChartAxisRadial11orientationEv@Base 6.2.1
 _ZNK20PolarChartAxisRadial8sizeHintEN2Qt8SizeHintERK6QSizeF@Base 6.2.1
 _ZNK20QAbstractAxisPrivate10metaObjectEv@Base 6.2.1
 _ZNK20QBoxPlotLegendMarker10metaObjectEv@Base 6.2.1
 _ZNK20QCategoryAxisPrivate10metaObjectEv@Base 6.2.1
 _ZNK20QCategoryAxisPrivate10ticksCountEv@Base 6.2.1
 _ZNK20QDateTimeAxisPrivate10metaObjectEv@Base 6.2.1
 _ZNK20QHBoxPlotModelMapper10metaObjectEv@Base 6.2.1
 _ZNK20QHBoxPlotModelMapper11columnCountEv@Base 6.2.1
 _ZNK20QHBoxPlotModelMapper11firstColumnEv@Base 6.2.1
 _ZNK20QHBoxPlotModelMapper13lastBoxSetRowEv@Base 6.2.1
 _ZNK20QHBoxPlotModelMapper14firstBoxSetRowEv@Base 6.2.1
 _ZNK20QHBoxPlotModelMapper5modelEv@Base 6.2.1
 _ZNK20QHBoxPlotModelMapper6seriesEv@Base 6.2.1
 _ZNK20QHorizontalBarSeries10metaObjectEv@Base 6.2.1
 _ZNK20QHorizontalBarSeries4typeEv@Base 6.2.1
 _ZNK20QLegendMarkerPrivate10metaObjectEv@Base 6.2.1
 _ZNK20QLogValueAxisPrivate10metaObjectEv@Base 6.2.1
 _ZNK20QSplineSeriesPrivate10metaObjectEv@Base 6.2.1
 _ZNK20QVBoxPlotModelMapper10metaObjectEv@Base 6.2.1
 _ZNK20QVBoxPlotModelMapper16lastBoxSetColumnEv@Base 6.2.1
 _ZNK20QVBoxPlotModelMapper17firstBoxSetColumnEv@Base 6.2.1
 _ZNK20QVBoxPlotModelMapper5modelEv@Base 6.2.1
 _ZNK20QVBoxPlotModelMapper6seriesEv@Base 6.2.1
 _ZNK20QVBoxPlotModelMapper8firstRowEv@Base 6.2.1
 _ZNK20QVBoxPlotModelMapper8rowCountEv@Base 6.2.1
 _ZNK21ChartBarCategoryAxisX10metaObjectEv@Base 6.2.1
 _ZNK21ChartBarCategoryAxisX15calculateLayoutEv@Base 6.2.1
 _ZNK21ChartBarCategoryAxisX20createCategoryLabelsERK5QListIdE@Base 6.2.1
 _ZNK21ChartBarCategoryAxisX8sizeHintEN2Qt8SizeHintERK6QSizeF@Base 6.2.1
 _ZNK21ChartBarCategoryAxisY10metaObjectEv@Base 6.2.1
 _ZNK21ChartBarCategoryAxisY15calculateLayoutEv@Base 6.2.1
 _ZNK21ChartBarCategoryAxisY20createCategoryLabelsERK5QListIdE@Base 6.2.1
 _ZNK21ChartBarCategoryAxisY8sizeHintEN2Qt8SizeHintERK6QSizeF@Base 6.2.1
 _ZNK21GLXYSeriesDataManager10metaObjectEv@Base 6.2.1
 _ZNK21PolarChartAxisAngular10metaObjectEv@Base 6.2.1
 _ZNK21PolarChartAxisAngular11orientationEv@Base 6.2.1
 _ZNK21PolarChartAxisAngular19moveLabelToPositionEd7QPointF6QRectF@Base 6.2.1
 _ZNK21PolarChartAxisAngular8sizeHintEN2Qt8SizeHintERK6QSizeF@Base 6.2.1
 _ZNK21QBoxPlotSeriesPrivate10metaObjectEv@Base 6.2.1
 _ZNK21QBoxPlotSeriesPrivate15defaultAxisTypeEN2Qt11OrientationE@Base 6.2.1
 _ZNK21QBoxPlotSeriesPrivate17createDefaultAxisEN2Qt11OrientationE@Base 6.2.1
 _ZNK21QXYModelMapperPrivate10metaObjectEv@Base 6.2.1
 _ZNK22HorizontalBarChartItem10metaObjectEv@Base 6.2.1
 _ZNK22QAbstractSeriesPrivate10metaObjectEv@Base 6.2.1
 _ZNK22QAbstractSeriesPrivate9presenterEv@Base 6.2.1
 _ZNK22QBarModelMapperPrivate10metaObjectEv@Base 6.2.1
 _ZNK22QCandlestickSetPrivate10metaObjectEv@Base 6.2.1
 _ZNK22QPieModelMapperPrivate10metaObjectEv@Base 6.2.1
 _ZNK22QPieModelMapperPrivate12isLabelIndexE11QModelIndex@Base 6.2.1
 _ZNK22QPieModelMapperPrivate12isValueIndexE11QModelIndex@Base 6.2.1
 _ZNK22QPieModelMapperPrivate8pieSliceE11QModelIndex@Base 6.2.1
 _ZNK22QXYLegendMarkerPrivate10metaObjectEv@Base 6.2.1
 _ZNK23QBarCategoryAxisPrivate10metaObjectEv@Base 6.2.1
 _ZNK23QBarLegendMarkerPrivate10metaObjectEv@Base 6.2.1
 _ZNK23QCandlestickModelMapper10metaObjectEv@Base 6.2.1
 _ZNK23QCandlestickModelMapper14lastSetSectionEv@Base 6.2.1
 _ZNK23QCandlestickModelMapper15firstSetSectionEv@Base 6.2.1
 _ZNK23QCandlestickModelMapper3lowEv@Base 6.2.1
 _ZNK23QCandlestickModelMapper4highEv@Base 6.2.1
 _ZNK23QCandlestickModelMapper4openEv@Base 6.2.1
 _ZNK23QCandlestickModelMapper5closeEv@Base 6.2.1
 _ZNK23QCandlestickModelMapper5modelEv@Base 6.2.1
 _ZNK23QCandlestickModelMapper6seriesEv@Base 6.2.1
 _ZNK23QCandlestickModelMapper9timestampEv@Base 6.2.1
 _ZNK23QPieLegendMarkerPrivate10metaObjectEv@Base 6.2.1
 _ZNK24QAreaLegendMarkerPrivate10metaObjectEv@Base 6.2.1
 _ZNK24QCandlestickLegendMarker10metaObjectEv@Base 6.2.1
 _ZNK24QHCandlestickModelMapper10highColumnEv@Base 6.2.1
 _ZNK24QHCandlestickModelMapper10lastSetRowEv@Base 6.2.1
 _ZNK24QHCandlestickModelMapper10metaObjectEv@Base 6.2.1
 _ZNK24QHCandlestickModelMapper10openColumnEv@Base 6.2.1
 _ZNK24QHCandlestickModelMapper11closeColumnEv@Base 6.2.1
 _ZNK24QHCandlestickModelMapper11firstSetRowEv@Base 6.2.1
 _ZNK24QHCandlestickModelMapper11orientationEv@Base 6.2.1
 _ZNK24QHCandlestickModelMapper15timestampColumnEv@Base 6.2.1
 _ZNK24QHCandlestickModelMapper9lowColumnEv@Base 6.2.1
 _ZNK24QVCandlestickModelMapper10metaObjectEv@Base 6.2.1
 _ZNK24QVCandlestickModelMapper11orientationEv@Base 6.2.1
 _ZNK24QVCandlestickModelMapper12timestampRowEv@Base 6.2.1
 _ZNK24QVCandlestickModelMapper13lastSetColumnEv@Base 6.2.1
 _ZNK24QVCandlestickModelMapper14firstSetColumnEv@Base 6.2.1
 _ZNK24QVCandlestickModelMapper6lowRowEv@Base 6.2.1
 _ZNK24QVCandlestickModelMapper7highRowEv@Base 6.2.1
 _ZNK24QVCandlestickModelMapper7openRowEv@Base 6.2.1
 _ZNK24QVCandlestickModelMapper8closeRowEv@Base 6.2.1
 _ZNK25PolarChartValueAxisRadial10metaObjectEv@Base 6.2.1
 _ZNK25PolarChartValueAxisRadial15calculateLayoutEv@Base 6.2.1
 _ZNK25QAbstractBarSeriesPrivate10metaObjectEv@Base 6.2.1
 _ZNK25QAbstractBarSeriesPrivate11labelsAngleEv@Base 6.2.1
 _ZNK25QAbstractBarSeriesPrivate13categoryCountEv@Base 6.2.1
 _ZNK25QAbstractBarSeriesPrivate15defaultAxisTypeEN2Qt11OrientationE@Base 6.2.1
 _ZNK25QAbstractBarSeriesPrivate17createDefaultAxisEN2Qt11OrientationE@Base 6.2.1
 _ZNK25QAbstractBarSeriesPrivate8barWidthEv@Base 6.2.1
 _ZNK25QCandlestickSeriesPrivate10metaObjectEv@Base 6.2.1
 _ZNK25QCandlestickSeriesPrivate15defaultAxisTypeEN2Qt11OrientationE@Base 6.2.1
 _ZNK25QCandlestickSeriesPrivate17createDefaultAxisEN2Qt11OrientationE@Base 6.2.1
 _ZNK26PolarChartValueAxisAngular10metaObjectEv@Base 6.2.1
 _ZNK26PolarChartValueAxisAngular15calculateLayoutEv@Base 6.2.1
 _ZNK27QBoxPlotLegendMarkerPrivate10metaObjectEv@Base 6.2.1
 _ZNK27QHorizontalPercentBarSeries10metaObjectEv@Base 6.2.1
 _ZNK27QHorizontalPercentBarSeries4typeEv@Base 6.2.1
 _ZNK27QHorizontalStackedBarSeries10metaObjectEv@Base 6.2.1
 _ZNK27QHorizontalStackedBarSeries4typeEv@Base 6.2.1
 _ZNK28PolarChartCategoryAxisRadial10metaObjectEv@Base 6.2.1
 _ZNK28PolarChartCategoryAxisRadial15calculateLayoutEv@Base 6.2.1
 _ZNK28PolarChartDateTimeAxisRadial10metaObjectEv@Base 6.2.1
 _ZNK28PolarChartDateTimeAxisRadial15calculateLayoutEv@Base 6.2.1
 _ZNK28PolarChartLogValueAxisRadial10metaObjectEv@Base 6.2.1
 _ZNK28PolarChartLogValueAxisRadial15calculateLayoutEv@Base 6.2.1
 _ZNK29CandlestickBodyWicksAnimation10metaObjectEv@Base 6.2.1
 _ZNK29CandlestickBodyWicksAnimation12interpolatedERK8QVariantS2_d@Base 6.2.1
 _ZNK29HorizontalPercentBarChartItem10metaObjectEv@Base 6.2.1
 _ZNK29HorizontalStackedBarChartItem10metaObjectEv@Base 6.2.1
 _ZNK29PolarChartCategoryAxisAngular10metaObjectEv@Base 6.2.1
 _ZNK29PolarChartCategoryAxisAngular15calculateLayoutEv@Base 6.2.1
 _ZNK29PolarChartDateTimeAxisAngular10metaObjectEv@Base 6.2.1
 _ZNK29PolarChartDateTimeAxisAngular15calculateLayoutEv@Base 6.2.1
 _ZNK29PolarChartLogValueAxisAngular10metaObjectEv@Base 6.2.1
 _ZNK29PolarChartLogValueAxisAngular15calculateLayoutEv@Base 6.2.1
 _ZNK30QCandlestickModelMapperPrivate10metaObjectEv@Base 6.2.1
 _ZNK31QCandlestickLegendMarkerPrivate10metaObjectEv@Base 6.2.1
 _ZNK3Bar10metaObjectEv@Base 6.2.1
 _ZNK6QChart10metaObjectEv@Base 6.2.1
 _ZNK6QChart10titleBrushEv@Base 6.2.1
 _ZNK6QChart13backgroundPenEv@Base 6.2.1
 _ZNK6QChart15backgroundBrushEv@Base 6.2.1
 _ZNK6QChart15localizeNumbersEv@Base 6.2.1
 _ZNK6QChart16animationOptionsEv@Base 6.2.1
 _ZNK6QChart17animationDurationEv@Base 6.2.1
 _ZNK6QChart19backgroundRoundnessEv@Base 6.2.1
 _ZNK6QChart19isBackgroundVisibleEv@Base 6.2.1
 _ZNK6QChart19isDropShadowEnabledEv@Base 6.2.1
 _ZNK6QChart20animationEasingCurveEv@Base 6.2.1
 _ZNK6QChart21plotAreaBackgroundPenEv@Base 6.2.1
 _ZNK6QChart23plotAreaBackgroundBrushEv@Base 6.2.1
 _ZNK6QChart27isPlotAreaBackgroundVisibleEv@Base 6.2.1
 _ZNK6QChart4axesE6QFlagsIN2Qt11OrientationEEP15QAbstractSeries@Base 6.2.1
 _ZNK6QChart5axisXEP15QAbstractSeries@Base 6.2.1
 _ZNK6QChart5axisYEP15QAbstractSeries@Base 6.2.1
 _ZNK6QChart5themeEv@Base 6.2.1
 _ZNK6QChart5titleEv@Base 6.2.1
 _ZNK6QChart6legendEv@Base 6.2.1
 _ZNK6QChart6localeEv@Base 6.2.1
 _ZNK6QChart6seriesEv@Base 6.2.1
 _ZNK6QChart7marginsEv@Base 6.2.1
 _ZNK6QChart8plotAreaEv@Base 6.2.1
 _ZNK6QChart9chartTypeEv@Base 6.2.1
 _ZNK6QChart9titleFontEv@Base 6.2.1
 _ZNK7QBarSet10labelBrushEv@Base 6.2.1
 _ZNK7QBarSet10metaObjectEv@Base 6.2.1
 _ZNK7QBarSet12selectedBarsEv@Base 6.2.1
 _ZNK7QBarSet13isBarSelectedEi@Base 6.2.1
 _ZNK7QBarSet13selectedColorEv@Base 6.2.1
 _ZNK7QBarSet2atEi@Base 6.2.1
 _ZNK7QBarSet3penEv@Base 6.2.1
 _ZNK7QBarSet3sumEv@Base 6.2.1
 _ZNK7QBarSet5brushEv@Base 6.2.1
 _ZNK7QBarSet5countEv@Base 6.2.1
 _ZNK7QBarSet5labelEv@Base 6.2.1
 _ZNK7QBarSet9labelFontEv@Base 6.2.1
 _ZNK7QBarSetixEi@Base 6.2.1
 _ZNK7QBoxSet10metaObjectEv@Base 6.2.1
 _ZNK7QBoxSet2atEi@Base 6.2.1
 _ZNK7QBoxSet3penEv@Base 6.2.1
 _ZNK7QBoxSet5brushEv@Base 6.2.1
 _ZNK7QBoxSet5countEv@Base 6.2.1
 _ZNK7QBoxSet5labelEv@Base 6.2.1
 _ZNK7QBoxSetixEi@Base 6.2.1
 _ZNK7QLegend10labelBrushEv@Base 6.2.1
 _ZNK7QLegend10labelColorEv@Base 6.2.1
 _ZNK7QLegend10metaObjectEv@Base 6.2.1
 _ZNK7QLegend11markerShapeEv@Base 6.2.1
 _ZNK7QLegend12showToolTipsEv@Base 6.2.1
 _ZNK7QLegend13isInteractiveEv@Base 6.2.1
 _ZNK7QLegend19isBackgroundVisibleEv@Base 6.2.1
 _ZNK7QLegend3penEv@Base 6.2.1
 _ZNK7QLegend4fontEv@Base 6.2.1
 _ZNK7QLegend5brushEv@Base 6.2.1
 _ZNK7QLegend7markersEP15QAbstractSeries@Base 6.2.1
 _ZNK7QLegend9alignmentEv@Base 6.2.1
 _ZNK7XYChart10metaObjectEv@Base 6.2.1
 _ZNK8XYDomain10metaObjectEv@Base 6.2.1
 _ZNK8XYDomain20calculateDomainPointERK7QPointF@Base 6.2.1
 _ZNK8XYDomain22calculateGeometryPointERK7QPointFRb@Base 6.2.1
 _ZNK8XYDomain23calculateGeometryPointsERK5QListI7QPointFE@Base 6.2.1
 _ZNK9ChartItem10metaObjectEv@Base 6.2.1
 _ZNK9ChartItem6domainEv@Base 6.2.1
 _ZNK9QPieSlice10isExplodedEv@Base 6.2.1
 _ZNK9QPieSlice10labelBrushEv@Base 6.2.1
 _ZNK9QPieSlice10metaObjectEv@Base 6.2.1
 _ZNK9QPieSlice10percentageEv@Base 6.2.1
 _ZNK9QPieSlice10startAngleEv@Base 6.2.1
 _ZNK9QPieSlice14isLabelVisibleEv@Base 6.2.1
 _ZNK9QPieSlice20labelArmLengthFactorEv@Base 6.2.1
 _ZNK9QPieSlice21explodeDistanceFactorEv@Base 6.2.1
 _ZNK9QPieSlice3penEv@Base 6.2.1
 _ZNK9QPieSlice5brushEv@Base 6.2.1
 _ZNK9QPieSlice5labelEv@Base 6.2.1
 _ZNK9QPieSlice5valueEv@Base 6.2.1
 _ZNK9QPieSlice6seriesEv@Base 6.2.1
 _ZNK9QPieSlice9angleSpanEv@Base 6.2.1
 _ZNK9QPieSlice9labelFontEv@Base 6.2.1
 _ZNK9QXYSeries10markerSizeEv@Base 6.2.1
 _ZNK9QXYSeries10metaObjectEv@Base 6.2.1
 _ZNK9QXYSeries11lightMarkerEv@Base 6.2.1
 _ZNK9QXYSeries12pointsVectorEv@Base 6.2.1
 _ZNK9QXYSeries13pointsVisibleEv@Base 6.2.1
 _ZNK9QXYSeries13selectedColorEv@Base 6.2.1
 _ZNK9QXYSeries14bestFitLinePenEv@Base 6.2.1
 _ZNK9QXYSeries14selectedPointsEv@Base 6.2.1
 _ZNK9QXYSeries15pointLabelsFontEv@Base 6.2.1
 _ZNK9QXYSeries16bestFitLineColorEv@Base 6.2.1
 _ZNK9QXYSeries16pointLabelsColorEv@Base 6.2.1
 _ZNK9QXYSeries17pointLabelsFormatEv@Base 6.2.1
 _ZNK9QXYSeries18bestFitLineVisibleEv@Base 6.2.1
 _ZNK9QXYSeries18pointConfigurationEi@Base 6.2.1
 _ZNK9QXYSeries18pointLabelsVisibleEv@Base 6.2.1
 _ZNK9QXYSeries19bestFitLineEquationERb@Base 6.2.1
 _ZNK9QXYSeries19pointLabelsClippingEv@Base 6.2.1
 _ZNK9QXYSeries19pointsConfigurationEv@Base 6.2.1
 _ZNK9QXYSeries19selectedLightMarkerEv@Base 6.2.1
 _ZNK9QXYSeries2atEi@Base 6.2.1
 _ZNK9QXYSeries3penEv@Base 6.2.1
 _ZNK9QXYSeries5brushEv@Base 6.2.1
 _ZNK9QXYSeries5colorEv@Base 6.2.1
 _ZNK9QXYSeries5countEv@Base 6.2.1
 _ZNK9QXYSeries6pointsEv@Base 6.2.1
 (optional=templinst)_ZNKSt8_Rb_treeI7QStringSt4pairIKS0_S1_IddEESt10_Select1stIS4_ESt4lessIS0_ESaIS4_EE4findERS2_@Base 6.2.1
 (optional=templinst)_ZNSt8_Rb_treeI7QStringSt4pairIKS0_S1_IddEESt10_Select1stIS4_ESt4lessIS0_ESaIS4_EE11equal_rangeERS2_@Base 6.2.1
 (optional=templinst)_ZNSt8_Rb_treeI7QStringSt4pairIKS0_S1_IddEESt10_Select1stIS4_ESt4lessIS0_ESaIS4_EE24_M_get_insert_unique_posERS2_@Base 6.2.1
 (optional=templinst)_ZNSt8_Rb_treeI7QStringSt4pairIKS0_S1_IddEESt10_Select1stIS4_ESt4lessIS0_ESaIS4_EE29_M_get_insert_hint_unique_posESt23_Rb_tree_const_iteratorIS4_ERS2_@Base 6.2.1
 (optional=templinst|arch=amd64)_ZNSt8_Rb_treeIP15QAbstractSeriesSt4pairIKS1_iESt10_Select1stIS4_ESt4lessIS1_ESaIS4_EE16_M_insert_uniqueIS4_EES2_ISt17_Rb_tree_iteratorIS4_EbEOT_@Base 6.2.1
 (optional=templinst)_ZNSt8_Rb_treeIP15QAbstractSeriesSt4pairIKS1_iESt10_Select1stIS4_ESt4lessIS1_ESaIS4_EE24_M_get_insert_unique_posERS3_@Base 6.2.1
 (optional=templinst)_ZNSt8_Rb_treeIP15QAbstractSeriesSt4pairIKS1_iESt10_Select1stIS4_ESt4lessIS1_ESaIS4_EE29_M_get_insert_hint_unique_posESt23_Rb_tree_const_iteratorIS4_ERS3_@Base 6.2.1
 _ZTI10ChartTitle@Base 6.2.1
 _ZTI10QBarSeries@Base 6.2.1
 _ZTI10QChartView@Base 6.2.1
 _ZTI10QColorAxis@Base 6.2.1
 _ZTI10QPieSeries@Base 6.2.1
 _ZTI10QValueAxis@Base 6.2.1
 _ZTI10StarMarker@Base 6.2.1
 _ZTI11BoxWhiskers@Base 6.2.1
 _ZTI11Candlestick@Base 6.2.1
 _ZTI11ChartMarkerI17QGraphicsRectItemE@Base 6.2.1
 _ZTI11ChartMarkerI20QGraphicsEllipseItemE@Base 6.2.1
 _ZTI11ChartMarkerI20QGraphicsPolygonItemE@Base 6.2.1
 _ZTI11LogXYDomain@Base 6.2.1
 _ZTI11PolarDomain@Base 6.2.1
 _ZTI11QAreaSeries@Base 6.2.1
 _ZTI11QLineSeries@Base 6.2.1
 _ZTI11QPolarChart@Base 6.2.1
 _ZTI11XLogYDomain@Base 6.2.1
 _ZTI11XYAnimation@Base 6.2.1
 _ZTI12BarAnimation@Base 6.2.1
 _ZTI12BarChartItem@Base 6.2.1
 _ZTI12ChartDataSet@Base 6.2.1
 _ZTI12ChartElement@Base 6.2.1
 _ZTI12LegendLayout@Base 6.2.1
 _ZTI12PieAnimation@Base 6.2.1
 _ZTI12PieChartItem@Base 6.2.1
 _ZTI12PieSliceItem@Base 6.2.1
 _ZTI12ScrollTicker@Base 6.2.1
 _ZTI12VerticalAxis@Base 6.2.1
 _ZTI13AreaBoundItem@Base 6.2.1
 _ZTI13AreaChartItem@Base 6.2.1
 _ZTI13AxisAnimation@Base 6.2.1
 _ZTI13LineArrowItem@Base 6.2.1
 _ZTI13LineChartItem@Base 6.2.1
 _ZTI13QAbstractAxis@Base 6.2.1
 _ZTI13QCategoryAxis@Base 6.2.1
 _ZTI13QDateTimeAxis@Base 6.2.1
 _ZTI13QLegendMarker@Base 6.2.1
 _ZTI13QLogValueAxis@Base 6.2.1
 _ZTI13QSplineSeries@Base 6.2.1
 _ZTI13XYPolarDomain@Base 6.2.1
 _ZTI14AbstractDomain@Base 6.2.1
 _ZTI14ChartAnimation@Base 6.2.1
 _ZTI14ChartPresenter@Base 6.2.1
 _ZTI14HorizontalAxis@Base 6.2.1
 _ZTI14LegendScroller@Base 6.2.1
 _ZTI14LogXLogYDomain@Base 6.2.1
 _ZTI14PentagonMarker@Base 6.2.1
 _ZTI14PolarChartAxis@Base 6.2.1
 _ZTI14QBarSetPrivate@Base 6.2.1
 _ZTI14QBoxPlotSeries@Base 6.2.1
 _ZTI14QBoxSetPrivate@Base 6.2.1
 _ZTI14QLegendPrivate@Base 6.2.1
 _ZTI14QScatterSeries@Base 6.2.1
 _ZTI14QXYModelMapper@Base 6.2.1
 _ZTI14TriangleMarker@Base 6.2.1
 _ZTI14ValueAxisLabel@Base 6.2.1
 _ZTI15ChartBackground@Base 6.2.1
 _ZTI15ChartColorAxisX@Base 6.2.1
 _ZTI15ChartColorAxisY@Base 6.2.1
 _ZTI15ChartValueAxisX@Base 6.2.1
 _ZTI15ChartValueAxisY@Base 6.2.1
 _ZTI15QAbstractSeries@Base 6.2.1
 _ZTI15QBarModelMapper@Base 6.2.1
 _ZTI15QCandlestickSet@Base 6.2.1
 _ZTI15QHXYModelMapper@Base 6.2.1
 _ZTI15QPieModelMapper@Base 6.2.1
 _ZTI15QVXYModelMapper@Base 6.2.1
 _ZTI15QXYLegendMarker@Base 6.2.1
 _ZTI15SplineAnimation@Base 6.2.1
 _ZTI15SplineChartItem@Base 6.2.1
 _ZTI16BoxPlotAnimation@Base 6.2.1
 _ZTI16BoxPlotChartItem@Base 6.2.1
 _ZTI16ChartAxisElement@Base 6.2.1
 _ZTI16LegendMarkerItem@Base 6.2.1
 _ZTI16LogXYPolarDomain@Base 6.2.1
 _ZTI16PolarChartLayout@Base 6.2.1
 _ZTI16QBarCategoryAxis@Base 6.2.1
 _ZTI16QBarLegendMarker@Base 6.2.1
 _ZTI16QHBarModelMapper@Base 6.2.1
 _ZTI16QHPieModelMapper@Base 6.2.1
 _ZTI16QOpenGLFunctions@Base 6.2.1
 _ZTI16QPieLegendMarker@Base 6.2.1
 _ZTI16QPieSlicePrivate@Base 6.2.1
 _ZTI16QVBarModelMapper@Base 6.2.1
 _ZTI16QVPieModelMapper@Base 6.2.1
 _ZTI16QXYSeriesPrivate@Base 6.2.1
 _ZTI16ScatterAnimation@Base 6.2.1
 _ZTI16ScatterChartItem@Base 6.2.1
 _ZTI16XLogYPolarDomain@Base 6.2.1
 _ZTI17ChartThemeManager@Base 6.2.1
 _ZTI17DateTimeAxisLabel@Base 6.2.1
 _ZTI17EditableAxisLabel@Base 6.2.1
 _ZTI17PieSliceAnimation@Base 6.2.1
 _ZTI17QAreaLegendMarker@Base 6.2.1
 _ZTI17QBarSeriesPrivate@Base 6.2.1
 _ZTI17QColorAxisPrivate@Base 6.2.1
 _ZTI17QPercentBarSeries@Base 6.2.1
 _ZTI17QPieSeriesPrivate@Base 6.2.1
 _ZTI17QStackedBarSeries@Base 6.2.1
 _ZTI17QValueAxisPrivate@Base 6.2.1
 _ZTI18CartesianChartAxis@Base 6.2.1
 _ZTI18ChartCategoryAxisX@Base 6.2.1
 _ZTI18ChartCategoryAxisY@Base 6.2.1
 _ZTI18ChartDateTimeAxisX@Base 6.2.1
 _ZTI18ChartDateTimeAxisY@Base 6.2.1
 _ZTI18ChartLogValueAxisX@Base 6.2.1
 _ZTI18ChartLogValueAxisY@Base 6.2.1
 _ZTI18QAbstractBarSeries@Base 6.2.1
 _ZTI18QAreaSeriesPrivate@Base 6.2.1
 _ZTI18QCandlestickSeries@Base 6.2.1
 _ZTI18QLineSeriesPrivate@Base 6.2.1
 _ZTI19AbstractChartLayout@Base 6.2.1
 _ZTI19LogXLogYPolarDomain@Base 6.2.1
 _ZTI19PercentBarChartItem@Base 6.2.1
 _ZTI19QBoxPlotModelMapper@Base 6.2.1
 _ZTI19StackedBarChartItem@Base 6.2.1
 _ZTI20AbstractBarChartItem@Base 6.2.1
 _ZTI20BoxWhiskersAnimation@Base 6.2.1
 _ZTI20CandlestickAnimation@Base 6.2.1
 _ZTI20CandlestickChartItem@Base 6.2.1
 _ZTI20CartesianChartLayout@Base 6.2.1
 _ZTI20PolarChartAxisRadial@Base 6.2.1
 _ZTI20QAbstractAxisPrivate@Base 6.2.1
 _ZTI20QBoxPlotLegendMarker@Base 6.2.1
 _ZTI20QCategoryAxisPrivate@Base 6.2.1
 _ZTI20QDateTimeAxisPrivate@Base 6.2.1
 _ZTI20QHBoxPlotModelMapper@Base 6.2.1
 _ZTI20QHorizontalBarSeries@Base 6.2.1
 _ZTI20QLegendMarkerPrivate@Base 6.2.1
 _ZTI20QLogValueAxisPrivate@Base 6.2.1
 _ZTI20QSplineSeriesPrivate@Base 6.2.1
 _ZTI20QVBoxPlotModelMapper@Base 6.2.1
 _ZTI21ChartBarCategoryAxisX@Base 6.2.1
 _ZTI21ChartBarCategoryAxisY@Base 6.2.1
 _ZTI21GLXYSeriesDataManager@Base 6.2.1
 _ZTI21PolarChartAxisAngular@Base 6.2.1
 _ZTI21QBoxPlotSeriesPrivate@Base 6.2.1
 _ZTI21QScatterSeriesPrivate@Base 6.2.1
 _ZTI21QXYModelMapperPrivate@Base 6.2.1
 _ZTI22HorizontalBarChartItem@Base 6.2.1
 _ZTI22QAbstractSeriesPrivate@Base 6.2.1
 _ZTI22QBarModelMapperPrivate@Base 6.2.1
 _ZTI22QCandlestickSetPrivate@Base 6.2.1
 _ZTI22QPieModelMapperPrivate@Base 6.2.1
 _ZTI22QXYLegendMarkerPrivate@Base 6.2.1
 _ZTI22RotatedRectangleMarker@Base 6.2.1
 _ZTI23QBarCategoryAxisPrivate@Base 6.2.1
 _ZTI23QBarLegendMarkerPrivate@Base 6.2.1
 _ZTI23QCandlestickModelMapper@Base 6.2.1
 _ZTI23QPieLegendMarkerPrivate@Base 6.2.1
 _ZTI24QAreaLegendMarkerPrivate@Base 6.2.1
 _ZTI24QCandlestickLegendMarker@Base 6.2.1
 _ZTI24QHCandlestickModelMapper@Base 6.2.1
 _ZTI24QPercentBarSeriesPrivate@Base 6.2.1
 _ZTI24QStackedBarSeriesPrivate@Base 6.2.1
 _ZTI24QVCandlestickModelMapper@Base 6.2.1
 _ZTI25PolarChartValueAxisRadial@Base 6.2.1
 _ZTI25QAbstractBarSeriesPrivate@Base 6.2.1
 _ZTI25QCandlestickSeriesPrivate@Base 6.2.1
 _ZTI26PolarChartValueAxisAngular@Base 6.2.1
 _ZTI27QBoxPlotLegendMarkerPrivate@Base 6.2.1
 _ZTI27QHorizontalBarSeriesPrivate@Base 6.2.1
 _ZTI27QHorizontalPercentBarSeries@Base 6.2.1
 _ZTI27QHorizontalStackedBarSeries@Base 6.2.1
 _ZTI28PolarChartCategoryAxisRadial@Base 6.2.1
 _ZTI28PolarChartDateTimeAxisRadial@Base 6.2.1
 _ZTI28PolarChartLogValueAxisRadial@Base 6.2.1
 _ZTI29CandlestickBodyWicksAnimation@Base 6.2.1
 _ZTI29HorizontalPercentBarChartItem@Base 6.2.1
 _ZTI29HorizontalStackedBarChartItem@Base 6.2.1
 _ZTI29PolarChartCategoryAxisAngular@Base 6.2.1
 _ZTI29PolarChartDateTimeAxisAngular@Base 6.2.1
 _ZTI29PolarChartLogValueAxisAngular@Base 6.2.1
 _ZTI30QCandlestickModelMapperPrivate@Base 6.2.1
 _ZTI31QCandlestickLegendMarkerPrivate@Base 6.2.1
 _ZTI34QHorizontalPercentBarSeriesPrivate@Base 6.2.1
 _ZTI34QHorizontalStackedBarSeriesPrivate@Base 6.2.1
 _ZTI3Bar@Base 6.2.1
 _ZTI6QChart@Base 6.2.1
 _ZTI7QBarSet@Base 6.2.1
 _ZTI7QBoxSet@Base 6.2.1
 _ZTI7QLegend@Base 6.2.1
 _ZTI7XYChart@Base 6.2.1
 _ZTI8Scroller@Base 6.2.1
 _ZTI8XYDomain@Base 6.2.1
 _ZTI9ChartItem@Base 6.2.1
 _ZTI9QPieSlice@Base 6.2.1
 _ZTI9QXYSeries@Base 6.2.1
 _ZTIZN9QMetaType17registerConverterI5QHashIN9QXYSeries18PointConfigurationE8QVariantE9QIterableI16QMetaAssociationEN9QtPrivate34QAssociativeIterableConvertFunctorIS5_EEEEbT1_EUlPKvPvE_@Base 6.2.1
 _ZTIZN9QMetaType17registerConverterI5QHashIiS1_IN9QXYSeries18PointConfigurationE8QVariantEE9QIterableI16QMetaAssociationEN9QtPrivate34QAssociativeIterableConvertFunctorIS6_EEEEbT1_EUlPKvPvE_@Base 6.2.1
 _ZTIZN9QMetaType17registerConverterI5QListI6QRectFE9QIterableI13QMetaSequenceEN9QtPrivate33QSequentialIterableConvertFunctorIS3_EEEEbT1_EUlPKvPvE_@Base 6.2.1
 _ZTIZN9QMetaType17registerConverterI5QListI7QPointFE9QIterableI13QMetaSequenceEN9QtPrivate33QSequentialIterableConvertFunctorIS3_EEEEbT1_EUlPKvPvE_@Base 6.2.1
 _ZTIZN9QMetaType17registerConverterI5QListIP15QCandlestickSetE9QIterableI13QMetaSequenceEN9QtPrivate33QSequentialIterableConvertFunctorIS4_EEEEbT1_EUlPKvPvE_@Base 6.2.1
 _ZTIZN9QMetaType17registerConverterI5QListIP7QBarSetE9QIterableI13QMetaSequenceEN9QtPrivate33QSequentialIterableConvertFunctorIS4_EEEEbT1_EUlPKvPvE_@Base 6.2.1
 _ZTIZN9QMetaType17registerConverterI5QListIP7QBoxSetE9QIterableI13QMetaSequenceEN9QtPrivate33QSequentialIterableConvertFunctorIS4_EEEEbT1_EUlPKvPvE_@Base 6.2.1
 _ZTIZN9QMetaType17registerConverterI5QListIP9QPieSliceE9QIterableI13QMetaSequenceEN9QtPrivate33QSequentialIterableConvertFunctorIS4_EEEEbT1_EUlPKvPvE_@Base 6.2.1
 _ZTIZN9QMetaType17registerConverterI5QListIdE9QIterableI13QMetaSequenceEN9QtPrivate33QSequentialIterableConvertFunctorIS2_EEEEbT1_EUlPKvPvE_@Base 6.2.1
 _ZTIZN9QMetaType17registerConverterI5QListIiE9QIterableI13QMetaSequenceEN9QtPrivate33QSequentialIterableConvertFunctorIS2_EEEEbT1_EUlPKvPvE_@Base 6.2.1
 _ZTIZN9QMetaType17registerConverterISt4pairI5QListI7QPointFES4_EN17QtMetaTypePrivate25QPairVariantInterfaceImplENS6_35QPairVariantInterfaceConvertFunctorIS5_EEEEbT1_EUlPKvPvE_@Base 6.2.1
 _ZTIZN9QMetaType19registerMutableViewI5QHashIN9QXYSeries18PointConfigurationE8QVariantE9QIterableI16QMetaAssociationEN9QtPrivate38QAssociativeIterableMutableViewFunctorIS5_EEEEbT1_EUlPvSD_E_@Base 6.2.1
 _ZTIZN9QMetaType19registerMutableViewI5QHashIiS1_IN9QXYSeries18PointConfigurationE8QVariantEE9QIterableI16QMetaAssociationEN9QtPrivate38QAssociativeIterableMutableViewFunctorIS6_EEEEbT1_EUlPvSE_E_@Base 6.2.1
 _ZTIZN9QMetaType19registerMutableViewI5QListI6QRectFE9QIterableI13QMetaSequenceEN9QtPrivate37QSequentialIterableMutableViewFunctorIS3_EEEEbT1_EUlPvSB_E_@Base 6.2.1
 _ZTIZN9QMetaType19registerMutableViewI5QListI7QPointFE9QIterableI13QMetaSequenceEN9QtPrivate37QSequentialIterableMutableViewFunctorIS3_EEEEbT1_EUlPvSB_E_@Base 6.2.1
 _ZTIZN9QMetaType19registerMutableViewI5QListIP15QCandlestickSetE9QIterableI13QMetaSequenceEN9QtPrivate37QSequentialIterableMutableViewFunctorIS4_EEEEbT1_EUlPvSC_E_@Base 6.2.1
 _ZTIZN9QMetaType19registerMutableViewI5QListIP7QBarSetE9QIterableI13QMetaSequenceEN9QtPrivate37QSequentialIterableMutableViewFunctorIS4_EEEEbT1_EUlPvSC_E_@Base 6.2.1
 _ZTIZN9QMetaType19registerMutableViewI5QListIP7QBoxSetE9QIterableI13QMetaSequenceEN9QtPrivate37QSequentialIterableMutableViewFunctorIS4_EEEEbT1_EUlPvSC_E_@Base 6.2.1
 _ZTIZN9QMetaType19registerMutableViewI5QListIP9QPieSliceE9QIterableI13QMetaSequenceEN9QtPrivate37QSequentialIterableMutableViewFunctorIS4_EEEEbT1_EUlPvSC_E_@Base 6.2.1
 _ZTIZN9QMetaType19registerMutableViewI5QListIdE9QIterableI13QMetaSequenceEN9QtPrivate37QSequentialIterableMutableViewFunctorIS2_EEEEbT1_EUlPvSA_E_@Base 6.2.1
 _ZTIZN9QMetaType19registerMutableViewI5QListIiE9QIterableI13QMetaSequenceEN9QtPrivate37QSequentialIterableMutableViewFunctorIS2_EEEEbT1_EUlPvSA_E_@Base 6.2.1
 _ZTS10ChartTitle@Base 6.2.1
 _ZTS10QBarSeries@Base 6.2.1
 _ZTS10QChartView@Base 6.2.1
 _ZTS10QColorAxis@Base 6.2.1
 _ZTS10QPieSeries@Base 6.2.1
 _ZTS10QValueAxis@Base 6.2.1
 _ZTS10StarMarker@Base 6.2.1
 _ZTS11BoxWhiskers@Base 6.2.1
 _ZTS11Candlestick@Base 6.2.1
 _ZTS11ChartMarkerI17QGraphicsRectItemE@Base 6.2.1
 _ZTS11ChartMarkerI20QGraphicsEllipseItemE@Base 6.2.1
 _ZTS11ChartMarkerI20QGraphicsPolygonItemE@Base 6.2.1
 _ZTS11LogXYDomain@Base 6.2.1
 _ZTS11PolarDomain@Base 6.2.1
 _ZTS11QAreaSeries@Base 6.2.1
 _ZTS11QLineSeries@Base 6.2.1
 _ZTS11QPolarChart@Base 6.2.1
 _ZTS11XLogYDomain@Base 6.2.1
 _ZTS11XYAnimation@Base 6.2.1
 _ZTS12BarAnimation@Base 6.2.1
 _ZTS12BarChartItem@Base 6.2.1
 _ZTS12ChartDataSet@Base 6.2.1
 _ZTS12ChartElement@Base 6.2.1
 _ZTS12LegendLayout@Base 6.2.1
 _ZTS12PieAnimation@Base 6.2.1
 _ZTS12PieChartItem@Base 6.2.1
 _ZTS12PieSliceItem@Base 6.2.1
 _ZTS12ScrollTicker@Base 6.2.1
 _ZTS12VerticalAxis@Base 6.2.1
 _ZTS13AreaBoundItem@Base 6.2.1
 _ZTS13AreaChartItem@Base 6.2.1
 _ZTS13AxisAnimation@Base 6.2.1
 _ZTS13LineArrowItem@Base 6.2.1
 _ZTS13LineChartItem@Base 6.2.1
 _ZTS13QAbstractAxis@Base 6.2.1
 _ZTS13QCategoryAxis@Base 6.2.1
 _ZTS13QDateTimeAxis@Base 6.2.1
 _ZTS13QLegendMarker@Base 6.2.1
 _ZTS13QLogValueAxis@Base 6.2.1
 _ZTS13QSplineSeries@Base 6.2.1
 _ZTS13XYPolarDomain@Base 6.2.1
 _ZTS14AbstractDomain@Base 6.2.1
 _ZTS14ChartAnimation@Base 6.2.1
 _ZTS14ChartPresenter@Base 6.2.1
 _ZTS14HorizontalAxis@Base 6.2.1
 _ZTS14LegendScroller@Base 6.2.1
 _ZTS14LogXLogYDomain@Base 6.2.1
 _ZTS14PentagonMarker@Base 6.2.1
 _ZTS14PolarChartAxis@Base 6.2.1
 _ZTS14QBarSetPrivate@Base 6.2.1
 _ZTS14QBoxPlotSeries@Base 6.2.1
 _ZTS14QBoxSetPrivate@Base 6.2.1
 _ZTS14QLegendPrivate@Base 6.2.1
 _ZTS14QScatterSeries@Base 6.2.1
 _ZTS14QXYModelMapper@Base 6.2.1
 _ZTS14TriangleMarker@Base 6.2.1
 _ZTS14ValueAxisLabel@Base 6.2.1
 _ZTS15ChartBackground@Base 6.2.1
 _ZTS15ChartColorAxisX@Base 6.2.1
 _ZTS15ChartColorAxisY@Base 6.2.1
 _ZTS15ChartValueAxisX@Base 6.2.1
 _ZTS15ChartValueAxisY@Base 6.2.1
 _ZTS15QAbstractSeries@Base 6.2.1
 _ZTS15QBarModelMapper@Base 6.2.1
 _ZTS15QCandlestickSet@Base 6.2.1
 _ZTS15QHXYModelMapper@Base 6.2.1
 _ZTS15QPieModelMapper@Base 6.2.1
 _ZTS15QVXYModelMapper@Base 6.2.1
 _ZTS15QXYLegendMarker@Base 6.2.1
 _ZTS15SplineAnimation@Base 6.2.1
 _ZTS15SplineChartItem@Base 6.2.1
 _ZTS16BoxPlotAnimation@Base 6.2.1
 _ZTS16BoxPlotChartItem@Base 6.2.1
 _ZTS16ChartAxisElement@Base 6.2.1
 _ZTS16LegendMarkerItem@Base 6.2.1
 _ZTS16LogXYPolarDomain@Base 6.2.1
 _ZTS16PolarChartLayout@Base 6.2.1
 _ZTS16QBarCategoryAxis@Base 6.2.1
 _ZTS16QBarLegendMarker@Base 6.2.1
 _ZTS16QHBarModelMapper@Base 6.2.1
 _ZTS16QHPieModelMapper@Base 6.2.1
 _ZTS16QOpenGLFunctions@Base 6.2.1
 _ZTS16QPieLegendMarker@Base 6.2.1
 _ZTS16QPieSlicePrivate@Base 6.2.1
 _ZTS16QVBarModelMapper@Base 6.2.1
 _ZTS16QVPieModelMapper@Base 6.2.1
 _ZTS16QXYSeriesPrivate@Base 6.2.1
 _ZTS16ScatterAnimation@Base 6.2.1
 _ZTS16ScatterChartItem@Base 6.2.1
 _ZTS16XLogYPolarDomain@Base 6.2.1
 _ZTS17ChartThemeManager@Base 6.2.1
 _ZTS17DateTimeAxisLabel@Base 6.2.1
 _ZTS17EditableAxisLabel@Base 6.2.1
 _ZTS17PieSliceAnimation@Base 6.2.1
 _ZTS17QAreaLegendMarker@Base 6.2.1
 _ZTS17QBarSeriesPrivate@Base 6.2.1
 _ZTS17QColorAxisPrivate@Base 6.2.1
 _ZTS17QPercentBarSeries@Base 6.2.1
 _ZTS17QPieSeriesPrivate@Base 6.2.1
 _ZTS17QStackedBarSeries@Base 6.2.1
 _ZTS17QValueAxisPrivate@Base 6.2.1
 _ZTS18CartesianChartAxis@Base 6.2.1
 _ZTS18ChartCategoryAxisX@Base 6.2.1
 _ZTS18ChartCategoryAxisY@Base 6.2.1
 _ZTS18ChartDateTimeAxisX@Base 6.2.1
 _ZTS18ChartDateTimeAxisY@Base 6.2.1
 _ZTS18ChartLogValueAxisX@Base 6.2.1
 _ZTS18ChartLogValueAxisY@Base 6.2.1
 _ZTS18QAbstractBarSeries@Base 6.2.1
 _ZTS18QAreaSeriesPrivate@Base 6.2.1
 _ZTS18QCandlestickSeries@Base 6.2.1
 _ZTS18QLineSeriesPrivate@Base 6.2.1
 _ZTS19AbstractChartLayout@Base 6.2.1
 _ZTS19LogXLogYPolarDomain@Base 6.2.1
 _ZTS19PercentBarChartItem@Base 6.2.1
 _ZTS19QBoxPlotModelMapper@Base 6.2.1
 _ZTS19StackedBarChartItem@Base 6.2.1
 _ZTS20AbstractBarChartItem@Base 6.2.1
 _ZTS20BoxWhiskersAnimation@Base 6.2.1
 _ZTS20CandlestickAnimation@Base 6.2.1
 _ZTS20CandlestickChartItem@Base 6.2.1
 _ZTS20CartesianChartLayout@Base 6.2.1
 _ZTS20PolarChartAxisRadial@Base 6.2.1
 _ZTS20QAbstractAxisPrivate@Base 6.2.1
 _ZTS20QBoxPlotLegendMarker@Base 6.2.1
 _ZTS20QCategoryAxisPrivate@Base 6.2.1
 _ZTS20QDateTimeAxisPrivate@Base 6.2.1
 _ZTS20QHBoxPlotModelMapper@Base 6.2.1
 _ZTS20QHorizontalBarSeries@Base 6.2.1
 _ZTS20QLegendMarkerPrivate@Base 6.2.1
 _ZTS20QLogValueAxisPrivate@Base 6.2.1
 _ZTS20QSplineSeriesPrivate@Base 6.2.1
 _ZTS20QVBoxPlotModelMapper@Base 6.2.1
 _ZTS21ChartBarCategoryAxisX@Base 6.2.1
 _ZTS21ChartBarCategoryAxisY@Base 6.2.1
 _ZTS21GLXYSeriesDataManager@Base 6.2.1
 _ZTS21PolarChartAxisAngular@Base 6.2.1
 _ZTS21QBoxPlotSeriesPrivate@Base 6.2.1
 _ZTS21QScatterSeriesPrivate@Base 6.2.1
 _ZTS21QXYModelMapperPrivate@Base 6.2.1
 _ZTS22HorizontalBarChartItem@Base 6.2.1
 _ZTS22QAbstractSeriesPrivate@Base 6.2.1
 _ZTS22QBarModelMapperPrivate@Base 6.2.1
 _ZTS22QCandlestickSetPrivate@Base 6.2.1
 _ZTS22QPieModelMapperPrivate@Base 6.2.1
 _ZTS22QXYLegendMarkerPrivate@Base 6.2.1
 _ZTS22RotatedRectangleMarker@Base 6.2.1
 _ZTS23QBarCategoryAxisPrivate@Base 6.2.1
 _ZTS23QBarLegendMarkerPrivate@Base 6.2.1
 _ZTS23QCandlestickModelMapper@Base 6.2.1
 _ZTS23QPieLegendMarkerPrivate@Base 6.2.1
 _ZTS24QAreaLegendMarkerPrivate@Base 6.2.1
 _ZTS24QCandlestickLegendMarker@Base 6.2.1
 _ZTS24QHCandlestickModelMapper@Base 6.2.1
 _ZTS24QPercentBarSeriesPrivate@Base 6.2.1
 _ZTS24QStackedBarSeriesPrivate@Base 6.2.1
 _ZTS24QVCandlestickModelMapper@Base 6.2.1
 _ZTS25PolarChartValueAxisRadial@Base 6.2.1
 _ZTS25QAbstractBarSeriesPrivate@Base 6.2.1
 _ZTS25QCandlestickSeriesPrivate@Base 6.2.1
 _ZTS26PolarChartValueAxisAngular@Base 6.2.1
 _ZTS27QBoxPlotLegendMarkerPrivate@Base 6.2.1
 _ZTS27QHorizontalBarSeriesPrivate@Base 6.2.1
 _ZTS27QHorizontalPercentBarSeries@Base 6.2.1
 _ZTS27QHorizontalStackedBarSeries@Base 6.2.1
 _ZTS28PolarChartCategoryAxisRadial@Base 6.2.1
 _ZTS28PolarChartDateTimeAxisRadial@Base 6.2.1
 _ZTS28PolarChartLogValueAxisRadial@Base 6.2.1
 _ZTS29CandlestickBodyWicksAnimation@Base 6.2.1
 _ZTS29HorizontalPercentBarChartItem@Base 6.2.1
 _ZTS29HorizontalStackedBarChartItem@Base 6.2.1
 _ZTS29PolarChartCategoryAxisAngular@Base 6.2.1
 _ZTS29PolarChartDateTimeAxisAngular@Base 6.2.1
 _ZTS29PolarChartLogValueAxisAngular@Base 6.2.1
 _ZTS30QCandlestickModelMapperPrivate@Base 6.2.1
 _ZTS31QCandlestickLegendMarkerPrivate@Base 6.2.1
 _ZTS34QHorizontalPercentBarSeriesPrivate@Base 6.2.1
 _ZTS34QHorizontalStackedBarSeriesPrivate@Base 6.2.1
 _ZTS3Bar@Base 6.2.1
 _ZTS6QChart@Base 6.2.1
 _ZTS7QBarSet@Base 6.2.1
 _ZTS7QBoxSet@Base 6.2.1
 _ZTS7QLegend@Base 6.2.1
 _ZTS7XYChart@Base 6.2.1
 _ZTS8Scroller@Base 6.2.1
 _ZTS8XYDomain@Base 6.2.1
 _ZTS9ChartItem@Base 6.2.1
 _ZTS9QPieSlice@Base 6.2.1
 _ZTS9QXYSeries@Base 6.2.1
 _ZTSZN9QMetaType17registerConverterI5QHashIN9QXYSeries18PointConfigurationE8QVariantE9QIterableI16QMetaAssociationEN9QtPrivate34QAssociativeIterableConvertFunctorIS5_EEEEbT1_EUlPKvPvE_@Base 6.2.1
 _ZTSZN9QMetaType17registerConverterI5QHashIiS1_IN9QXYSeries18PointConfigurationE8QVariantEE9QIterableI16QMetaAssociationEN9QtPrivate34QAssociativeIterableConvertFunctorIS6_EEEEbT1_EUlPKvPvE_@Base 6.2.1
 _ZTSZN9QMetaType17registerConverterI5QListI6QRectFE9QIterableI13QMetaSequenceEN9QtPrivate33QSequentialIterableConvertFunctorIS3_EEEEbT1_EUlPKvPvE_@Base 6.2.1
 _ZTSZN9QMetaType17registerConverterI5QListI7QPointFE9QIterableI13QMetaSequenceEN9QtPrivate33QSequentialIterableConvertFunctorIS3_EEEEbT1_EUlPKvPvE_@Base 6.2.1
 _ZTSZN9QMetaType17registerConverterI5QListIP15QCandlestickSetE9QIterableI13QMetaSequenceEN9QtPrivate33QSequentialIterableConvertFunctorIS4_EEEEbT1_EUlPKvPvE_@Base 6.2.1
 _ZTSZN9QMetaType17registerConverterI5QListIP7QBarSetE9QIterableI13QMetaSequenceEN9QtPrivate33QSequentialIterableConvertFunctorIS4_EEEEbT1_EUlPKvPvE_@Base 6.2.1
 _ZTSZN9QMetaType17registerConverterI5QListIP7QBoxSetE9QIterableI13QMetaSequenceEN9QtPrivate33QSequentialIterableConvertFunctorIS4_EEEEbT1_EUlPKvPvE_@Base 6.2.1
 _ZTSZN9QMetaType17registerConverterI5QListIP9QPieSliceE9QIterableI13QMetaSequenceEN9QtPrivate33QSequentialIterableConvertFunctorIS4_EEEEbT1_EUlPKvPvE_@Base 6.2.1
 _ZTSZN9QMetaType17registerConverterI5QListIdE9QIterableI13QMetaSequenceEN9QtPrivate33QSequentialIterableConvertFunctorIS2_EEEEbT1_EUlPKvPvE_@Base 6.2.1
 _ZTSZN9QMetaType17registerConverterI5QListIiE9QIterableI13QMetaSequenceEN9QtPrivate33QSequentialIterableConvertFunctorIS2_EEEEbT1_EUlPKvPvE_@Base 6.2.1
 _ZTSZN9QMetaType17registerConverterISt4pairI5QListI7QPointFES4_EN17QtMetaTypePrivate25QPairVariantInterfaceImplENS6_35QPairVariantInterfaceConvertFunctorIS5_EEEEbT1_EUlPKvPvE_@Base 6.2.1
 _ZTSZN9QMetaType19registerMutableViewI5QHashIN9QXYSeries18PointConfigurationE8QVariantE9QIterableI16QMetaAssociationEN9QtPrivate38QAssociativeIterableMutableViewFunctorIS5_EEEEbT1_EUlPvSD_E_@Base 6.2.1
 _ZTSZN9QMetaType19registerMutableViewI5QHashIiS1_IN9QXYSeries18PointConfigurationE8QVariantEE9QIterableI16QMetaAssociationEN9QtPrivate38QAssociativeIterableMutableViewFunctorIS6_EEEEbT1_EUlPvSE_E_@Base 6.2.1
 _ZTSZN9QMetaType19registerMutableViewI5QListI6QRectFE9QIterableI13QMetaSequenceEN9QtPrivate37QSequentialIterableMutableViewFunctorIS3_EEEEbT1_EUlPvSB_E_@Base 6.2.1
 _ZTSZN9QMetaType19registerMutableViewI5QListI7QPointFE9QIterableI13QMetaSequenceEN9QtPrivate37QSequentialIterableMutableViewFunctorIS3_EEEEbT1_EUlPvSB_E_@Base 6.2.1
 _ZTSZN9QMetaType19registerMutableViewI5QListIP15QCandlestickSetE9QIterableI13QMetaSequenceEN9QtPrivate37QSequentialIterableMutableViewFunctorIS4_EEEEbT1_EUlPvSC_E_@Base 6.2.1
 _ZTSZN9QMetaType19registerMutableViewI5QListIP7QBarSetE9QIterableI13QMetaSequenceEN9QtPrivate37QSequentialIterableMutableViewFunctorIS4_EEEEbT1_EUlPvSC_E_@Base 6.2.1
 _ZTSZN9QMetaType19registerMutableViewI5QListIP7QBoxSetE9QIterableI13QMetaSequenceEN9QtPrivate37QSequentialIterableMutableViewFunctorIS4_EEEEbT1_EUlPvSC_E_@Base 6.2.1
 _ZTSZN9QMetaType19registerMutableViewI5QListIP9QPieSliceE9QIterableI13QMetaSequenceEN9QtPrivate37QSequentialIterableMutableViewFunctorIS4_EEEEbT1_EUlPvSC_E_@Base 6.2.1
 _ZTSZN9QMetaType19registerMutableViewI5QListIdE9QIterableI13QMetaSequenceEN9QtPrivate37QSequentialIterableMutableViewFunctorIS2_EEEEbT1_EUlPvSA_E_@Base 6.2.1
 _ZTSZN9QMetaType19registerMutableViewI5QListIiE9QIterableI13QMetaSequenceEN9QtPrivate37QSequentialIterableMutableViewFunctorIS2_EEEEbT1_EUlPvSA_E_@Base 6.2.1
 _ZTV10ChartTitle@Base 6.2.1
 _ZTV10QBarSeries@Base 6.2.1
 _ZTV10QChartView@Base 6.2.1
 _ZTV10QColorAxis@Base 6.2.1
 _ZTV10QPieSeries@Base 6.2.1
 _ZTV10QValueAxis@Base 6.2.1
 _ZTV10StarMarker@Base 6.2.1
 _ZTV11BoxWhiskers@Base 6.2.1
 _ZTV11Candlestick@Base 6.2.1
 _ZTV11ChartMarkerI17QGraphicsRectItemE@Base 6.2.1
 _ZTV11ChartMarkerI20QGraphicsEllipseItemE@Base 6.2.1
 _ZTV11ChartMarkerI20QGraphicsPolygonItemE@Base 6.2.1
 _ZTV11LogXYDomain@Base 6.2.1
 _ZTV11PolarDomain@Base 6.2.1
 _ZTV11QAreaSeries@Base 6.2.1
 _ZTV11QLineSeries@Base 6.2.1
 _ZTV11QPolarChart@Base 6.2.1
 _ZTV11XLogYDomain@Base 6.2.1
 _ZTV11XYAnimation@Base 6.2.1
 _ZTV12BarAnimation@Base 6.2.1
 _ZTV12BarChartItem@Base 6.2.1
 _ZTV12ChartDataSet@Base 6.2.1
 _ZTV12ChartElement@Base 6.2.1
 _ZTV12LegendLayout@Base 6.2.1
 _ZTV12PieAnimation@Base 6.2.1
 _ZTV12PieChartItem@Base 6.2.1
 _ZTV12PieSliceItem@Base 6.2.1
 _ZTV12ScrollTicker@Base 6.2.1
 _ZTV12VerticalAxis@Base 6.2.1
 _ZTV13AreaBoundItem@Base 6.2.1
 _ZTV13AreaChartItem@Base 6.2.1
 _ZTV13AxisAnimation@Base 6.2.1
 _ZTV13LineArrowItem@Base 6.2.1
 _ZTV13LineChartItem@Base 6.2.1
 _ZTV13QAbstractAxis@Base 6.2.1
 _ZTV13QCategoryAxis@Base 6.2.1
 _ZTV13QDateTimeAxis@Base 6.2.1
 _ZTV13QLegendMarker@Base 6.2.1
 _ZTV13QLogValueAxis@Base 6.2.1
 _ZTV13QSplineSeries@Base 6.2.1
 _ZTV13XYPolarDomain@Base 6.2.1
 _ZTV14AbstractDomain@Base 6.2.1
 _ZTV14ChartAnimation@Base 6.2.1
 _ZTV14ChartPresenter@Base 6.2.1
 _ZTV14HorizontalAxis@Base 6.2.1
 _ZTV14LegendScroller@Base 6.2.1
 _ZTV14LogXLogYDomain@Base 6.2.1
 _ZTV14PentagonMarker@Base 6.2.1
 _ZTV14PolarChartAxis@Base 6.2.1
 _ZTV14QBarSetPrivate@Base 6.2.1
 _ZTV14QBoxPlotSeries@Base 6.2.1
 _ZTV14QBoxSetPrivate@Base 6.2.1
 _ZTV14QLegendPrivate@Base 6.2.1
 _ZTV14QScatterSeries@Base 6.2.1
 _ZTV14QXYModelMapper@Base 6.2.1
 _ZTV14TriangleMarker@Base 6.2.1
 _ZTV14ValueAxisLabel@Base 6.2.1
 _ZTV15ChartBackground@Base 6.2.1
 _ZTV15ChartColorAxisX@Base 6.2.1
 _ZTV15ChartColorAxisY@Base 6.2.1
 _ZTV15ChartValueAxisX@Base 6.2.1
 _ZTV15ChartValueAxisY@Base 6.2.1
 _ZTV15QAbstractSeries@Base 6.2.1
 _ZTV15QBarModelMapper@Base 6.2.1
 _ZTV15QCandlestickSet@Base 6.2.1
 _ZTV15QHXYModelMapper@Base 6.2.1
 _ZTV15QPieModelMapper@Base 6.2.1
 _ZTV15QVXYModelMapper@Base 6.2.1
 _ZTV15QXYLegendMarker@Base 6.2.1
 _ZTV15SplineAnimation@Base 6.2.1
 _ZTV15SplineChartItem@Base 6.2.1
 _ZTV16BoxPlotAnimation@Base 6.2.1
 _ZTV16BoxPlotChartItem@Base 6.2.1
 _ZTV16ChartAxisElement@Base 6.2.1
 _ZTV16LegendMarkerItem@Base 6.2.1
 _ZTV16LogXYPolarDomain@Base 6.2.1
 _ZTV16PolarChartLayout@Base 6.2.1
 _ZTV16QBarCategoryAxis@Base 6.2.1
 _ZTV16QBarLegendMarker@Base 6.2.1
 _ZTV16QHBarModelMapper@Base 6.2.1
 _ZTV16QHPieModelMapper@Base 6.2.1
 _ZTV16QPieLegendMarker@Base 6.2.1
 _ZTV16QPieSlicePrivate@Base 6.2.1
 _ZTV16QVBarModelMapper@Base 6.2.1
 _ZTV16QVPieModelMapper@Base 6.2.1
 _ZTV16QXYSeriesPrivate@Base 6.2.1
 _ZTV16ScatterAnimation@Base 6.2.1
 _ZTV16ScatterChartItem@Base 6.2.1
 _ZTV16XLogYPolarDomain@Base 6.2.1
 _ZTV17ChartThemeManager@Base 6.2.1
 _ZTV17DateTimeAxisLabel@Base 6.2.1
 _ZTV17EditableAxisLabel@Base 6.2.1
 _ZTV17PieSliceAnimation@Base 6.2.1
 _ZTV17QAreaLegendMarker@Base 6.2.1
 _ZTV17QBarSeriesPrivate@Base 6.2.1
 _ZTV17QColorAxisPrivate@Base 6.2.1
 _ZTV17QPercentBarSeries@Base 6.2.1
 _ZTV17QPieSeriesPrivate@Base 6.2.1
 _ZTV17QStackedBarSeries@Base 6.2.1
 _ZTV17QValueAxisPrivate@Base 6.2.1
 _ZTV18CartesianChartAxis@Base 6.2.1
 _ZTV18ChartCategoryAxisX@Base 6.2.1
 _ZTV18ChartCategoryAxisY@Base 6.2.1
 _ZTV18ChartDateTimeAxisX@Base 6.2.1
 _ZTV18ChartDateTimeAxisY@Base 6.2.1
 _ZTV18ChartLogValueAxisX@Base 6.2.1
 _ZTV18ChartLogValueAxisY@Base 6.2.1
 _ZTV18QAbstractBarSeries@Base 6.2.1
 _ZTV18QAreaSeriesPrivate@Base 6.2.1
 _ZTV18QCandlestickSeries@Base 6.2.1
 _ZTV18QLineSeriesPrivate@Base 6.2.1
 _ZTV19AbstractChartLayout@Base 6.2.1
 _ZTV19LogXLogYPolarDomain@Base 6.2.1
 _ZTV19PercentBarChartItem@Base 6.2.1
 _ZTV19QBoxPlotModelMapper@Base 6.2.1
 _ZTV19StackedBarChartItem@Base 6.2.1
 _ZTV20AbstractBarChartItem@Base 6.2.1
 _ZTV20BoxWhiskersAnimation@Base 6.2.1
 _ZTV20CandlestickAnimation@Base 6.2.1
 _ZTV20CandlestickChartItem@Base 6.2.1
 _ZTV20CartesianChartLayout@Base 6.2.1
 _ZTV20PolarChartAxisRadial@Base 6.2.1
 _ZTV20QAbstractAxisPrivate@Base 6.2.1
 _ZTV20QBoxPlotLegendMarker@Base 6.2.1
 _ZTV20QCategoryAxisPrivate@Base 6.2.1
 _ZTV20QDateTimeAxisPrivate@Base 6.2.1
 _ZTV20QHBoxPlotModelMapper@Base 6.2.1
 _ZTV20QHorizontalBarSeries@Base 6.2.1
 _ZTV20QLegendMarkerPrivate@Base 6.2.1
 _ZTV20QLogValueAxisPrivate@Base 6.2.1
 _ZTV20QSplineSeriesPrivate@Base 6.2.1
 _ZTV20QVBoxPlotModelMapper@Base 6.2.1
 _ZTV21ChartBarCategoryAxisX@Base 6.2.1
 _ZTV21ChartBarCategoryAxisY@Base 6.2.1
 _ZTV21GLXYSeriesDataManager@Base 6.2.1
 _ZTV21PolarChartAxisAngular@Base 6.2.1
 _ZTV21QBoxPlotSeriesPrivate@Base 6.2.1
 _ZTV21QScatterSeriesPrivate@Base 6.2.1
 _ZTV21QXYModelMapperPrivate@Base 6.2.1
 _ZTV22HorizontalBarChartItem@Base 6.2.1
 _ZTV22QAbstractSeriesPrivate@Base 6.2.1
 _ZTV22QBarModelMapperPrivate@Base 6.2.1
 _ZTV22QCandlestickSetPrivate@Base 6.2.1
 _ZTV22QPieModelMapperPrivate@Base 6.2.1
 _ZTV22QXYLegendMarkerPrivate@Base 6.2.1
 _ZTV22RotatedRectangleMarker@Base 6.2.1
 _ZTV23QBarCategoryAxisPrivate@Base 6.2.1
 _ZTV23QBarLegendMarkerPrivate@Base 6.2.1
 _ZTV23QCandlestickModelMapper@Base 6.2.1
 _ZTV23QPieLegendMarkerPrivate@Base 6.2.1
 _ZTV24QAreaLegendMarkerPrivate@Base 6.2.1
 _ZTV24QCandlestickLegendMarker@Base 6.2.1
 _ZTV24QHCandlestickModelMapper@Base 6.2.1
 _ZTV24QPercentBarSeriesPrivate@Base 6.2.1
 _ZTV24QStackedBarSeriesPrivate@Base 6.2.1
 _ZTV24QVCandlestickModelMapper@Base 6.2.1
 _ZTV25PolarChartValueAxisRadial@Base 6.2.1
 _ZTV25QAbstractBarSeriesPrivate@Base 6.2.1
 _ZTV25QCandlestickSeriesPrivate@Base 6.2.1
 _ZTV26PolarChartValueAxisAngular@Base 6.2.1
 _ZTV27QBoxPlotLegendMarkerPrivate@Base 6.2.1
 _ZTV27QHorizontalBarSeriesPrivate@Base 6.2.1
 _ZTV27QHorizontalPercentBarSeries@Base 6.2.1
 _ZTV27QHorizontalStackedBarSeries@Base 6.2.1
 _ZTV28PolarChartCategoryAxisRadial@Base 6.2.1
 _ZTV28PolarChartDateTimeAxisRadial@Base 6.2.1
 _ZTV28PolarChartLogValueAxisRadial@Base 6.2.1
 _ZTV29CandlestickBodyWicksAnimation@Base 6.2.1
 _ZTV29HorizontalPercentBarChartItem@Base 6.2.1
 _ZTV29HorizontalStackedBarChartItem@Base 6.2.1
 _ZTV29PolarChartCategoryAxisAngular@Base 6.2.1
 _ZTV29PolarChartDateTimeAxisAngular@Base 6.2.1
 _ZTV29PolarChartLogValueAxisAngular@Base 6.2.1
 _ZTV30QCandlestickModelMapperPrivate@Base 6.2.1
 _ZTV31QCandlestickLegendMarkerPrivate@Base 6.2.1
 _ZTV34QHorizontalPercentBarSeriesPrivate@Base 6.2.1
 _ZTV34QHorizontalStackedBarSeriesPrivate@Base 6.2.1
 _ZTV3Bar@Base 6.2.1
 _ZTV6QChart@Base 6.2.1
 _ZTV7QBarSet@Base 6.2.1
 _ZTV7QBoxSet@Base 6.2.1
 _ZTV7QLegend@Base 6.2.1
 _ZTV7XYChart@Base 6.2.1
 _ZTV8Scroller@Base 6.2.1
 _ZTV8XYDomain@Base 6.2.1
 _ZTV9ChartItem@Base 6.2.1
 _ZTV9QPieSlice@Base 6.2.1
 _ZTV9QXYSeries@Base 6.2.1
 (optional=templinst)_ZZN9QMetaType21registerConverterImplI5QHashIN9QXYSeries18PointConfigurationE8QVariantE9QIterableI16QMetaAssociationEEEbSt8functionIFbPKvPvEES_S_E10unregister@Base 6.2.1
 (optional=templinst)_ZZN9QMetaType21registerConverterImplI5QHashIiS1_IN9QXYSeries18PointConfigurationE8QVariantEE9QIterableI16QMetaAssociationEEEbSt8functionIFbPKvPvEES_S_E10unregister@Base 6.2.1
 (optional=templinst)_ZZN9QMetaType21registerConverterImplI5QListI6QRectFE9QIterableI13QMetaSequenceEEEbSt8functionIFbPKvPvEES_S_E10unregister@Base 6.2.1
 (optional=templinst)_ZZN9QMetaType21registerConverterImplI5QListI7QPointFE9QIterableI13QMetaSequenceEEEbSt8functionIFbPKvPvEES_S_E10unregister@Base 6.2.1
 (optional=templinst)_ZZN9QMetaType21registerConverterImplI5QListIP15QCandlestickSetE9QIterableI13QMetaSequenceEEEbSt8functionIFbPKvPvEES_S_E10unregister@Base 6.2.1
 (optional=templinst)_ZZN9QMetaType21registerConverterImplI5QListIP7QBarSetE9QIterableI13QMetaSequenceEEEbSt8functionIFbPKvPvEES_S_E10unregister@Base 6.2.1
 (optional=templinst)_ZZN9QMetaType21registerConverterImplI5QListIP7QBoxSetE9QIterableI13QMetaSequenceEEEbSt8functionIFbPKvPvEES_S_E10unregister@Base 6.2.1
 (optional=templinst)_ZZN9QMetaType21registerConverterImplI5QListIP9QPieSliceE9QIterableI13QMetaSequenceEEEbSt8functionIFbPKvPvEES_S_E10unregister@Base 6.2.1
 (optional=templinst)_ZZN9QMetaType21registerConverterImplI5QListIdE9QIterableI13QMetaSequenceEEEbSt8functionIFbPKvPvEES_S_E10unregister@Base 6.2.1
 (optional=templinst)_ZZN9QMetaType21registerConverterImplI5QListIiE9QIterableI13QMetaSequenceEEEbSt8functionIFbPKvPvEES_S_E10unregister@Base 6.2.1
 (optional=templinst)_ZZN9QMetaType21registerConverterImplISt4pairI5QListI7QPointFES4_EN17QtMetaTypePrivate25QPairVariantInterfaceImplEEEbSt8functionIFbPKvPvEES_S_E10unregister@Base 6.2.1
 (optional=templinst)_ZZN9QMetaType23registerMutableViewImplI5QHashIN9QXYSeries18PointConfigurationE8QVariantE9QIterableI16QMetaAssociationEEEbSt8functionIFbPvSA_EES_S_E10unregister@Base 6.2.1
 (optional=templinst)_ZZN9QMetaType23registerMutableViewImplI5QHashIiS1_IN9QXYSeries18PointConfigurationE8QVariantEE9QIterableI16QMetaAssociationEEEbSt8functionIFbPvSB_EES_S_E10unregister@Base 6.2.1
 (optional=templinst)_ZZN9QMetaType23registerMutableViewImplI5QListI6QRectFE9QIterableI13QMetaSequenceEEEbSt8functionIFbPvS8_EES_S_E10unregister@Base 6.2.1
 (optional=templinst)_ZZN9QMetaType23registerMutableViewImplI5QListI7QPointFE9QIterableI13QMetaSequenceEEEbSt8functionIFbPvS8_EES_S_E10unregister@Base 6.2.1
 (optional=templinst)_ZZN9QMetaType23registerMutableViewImplI5QListIP15QCandlestickSetE9QIterableI13QMetaSequenceEEEbSt8functionIFbPvS9_EES_S_E10unregister@Base 6.2.1
 (optional=templinst)_ZZN9QMetaType23registerMutableViewImplI5QListIP7QBarSetE9QIterableI13QMetaSequenceEEEbSt8functionIFbPvS9_EES_S_E10unregister@Base 6.2.1
 (optional=templinst)_ZZN9QMetaType23registerMutableViewImplI5QListIP7QBoxSetE9QIterableI13QMetaSequenceEEEbSt8functionIFbPvS9_EES_S_E10unregister@Base 6.2.1
 (optional=templinst)_ZZN9QMetaType23registerMutableViewImplI5QListIP9QPieSliceE9QIterableI13QMetaSequenceEEEbSt8functionIFbPvS9_EES_S_E10unregister@Base 6.2.1
 (optional=templinst)_ZZN9QMetaType23registerMutableViewImplI5QListIdE9QIterableI13QMetaSequenceEEEbSt8functionIFbPvS7_EES_S_E10unregister@Base 6.2.1
 (optional=templinst)_ZZN9QMetaType23registerMutableViewImplI5QListIiE9QIterableI13QMetaSequenceEEEbSt8functionIFbPvS7_EES_S_E10unregister@Base 6.2.1
 (optional=templinst)_ZZN9QtPrivate16QMetaTypeForTypeI11QModelIndexE10getCopyCtrEvENUlPKNS_18QMetaTypeInterfaceEPvPKvE_4_FUNES5_S6_S8_@Base 6.2.1
 (optional=templinst)_ZZN9QtPrivate16QMetaTypeForTypeI11QModelIndexE10getMoveCtrEvENUlPKNS_18QMetaTypeInterfaceEPvS6_E_4_FUNES5_S6_S6_@Base 6.2.1
 (optional=templinst)_ZZN9QtPrivate16QMetaTypeForTypeI11QModelIndexE13getDefaultCtrEvENUlPKNS_18QMetaTypeInterfaceEPvE_4_FUNES5_S6_@Base 6.2.1
 (optional=templinst)_ZZN9QtPrivate16QMetaTypeForTypeI12QEasingCurveE10getCopyCtrEvENUlPKNS_18QMetaTypeInterfaceEPvPKvE_4_FUNES5_S6_S8_@Base 6.2.1
 (optional=templinst)_ZZN9QtPrivate16QMetaTypeForTypeI12QEasingCurveE10getMoveCtrEvENUlPKNS_18QMetaTypeInterfaceEPvS6_E_4_FUNES5_S6_S6_@Base 6.2.1
 (optional=templinst)_ZZN9QtPrivate16QMetaTypeForTypeI12QEasingCurveE13getDefaultCtrEvENUlPKNS_18QMetaTypeInterfaceEPvE_4_FUNES5_S6_@Base 6.2.1
 (optional=templinst)_ZZN9QtPrivate16QMetaTypeForTypeI12QEasingCurveE7getDtorEvENUlPKNS_18QMetaTypeInterfaceEPvE_4_FUNES5_S6_@Base 6.2.1
 (optional=templinst)_ZZN9QtPrivate16QMetaTypeForTypeI5QListI7QStringEE10getCopyCtrEvENUlPKNS_18QMetaTypeInterfaceEPvPKvE_4_FUNES7_S8_SA_@Base 6.2.1
 (optional=templinst)_ZZN9QtPrivate16QMetaTypeForTypeI5QListI7QStringEE10getMoveCtrEvENUlPKNS_18QMetaTypeInterfaceEPvS8_E_4_FUNES7_S8_S8_@Base 6.2.1
 (optional=templinst)_ZZN9QtPrivate16QMetaTypeForTypeI5QListI7QStringEE13getDefaultCtrEvENUlPKNS_18QMetaTypeInterfaceEPvE_4_FUNES7_S8_@Base 6.2.1
 (optional=templinst)_ZZN9QtPrivate16QMetaTypeForTypeI5QListI7QStringEE7getDtorEvENUlPKNS_18QMetaTypeInterfaceEPvE_4_FUNES7_S8_@Base 6.2.1
 (optional=templinst)_ZZN9QtPrivate16QMetaTypeForTypeI6QRectFE10getCopyCtrEvENUlPKNS_18QMetaTypeInterfaceEPvPKvE_4_FUNES5_S6_S8_@Base 6.2.1
 (optional=templinst)_ZZN9QtPrivate16QMetaTypeForTypeI6QRectFE10getMoveCtrEvENUlPKNS_18QMetaTypeInterfaceEPvS6_E_4_FUNES5_S6_S6_@Base 6.2.1
 (optional=templinst)_ZZN9QtPrivate16QMetaTypeForTypeI6QRectFE13getDefaultCtrEvENUlPKNS_18QMetaTypeInterfaceEPvE_4_FUNES5_S6_@Base 6.2.1
 (optional=templinst)_ZZN9QtPrivate16QMetaTypeForTypeI7QLocaleE10getCopyCtrEvENUlPKNS_18QMetaTypeInterfaceEPvPKvE_4_FUNES5_S6_S8_@Base 6.2.1
 (optional=templinst)_ZZN9QtPrivate16QMetaTypeForTypeI7QLocaleE10getMoveCtrEvENUlPKNS_18QMetaTypeInterfaceEPvS6_E_4_FUNES5_S6_S6_@Base 6.2.1
 (optional=templinst)_ZZN9QtPrivate16QMetaTypeForTypeI7QLocaleE13getDefaultCtrEvENUlPKNS_18QMetaTypeInterfaceEPvE_4_FUNES5_S6_@Base 6.2.1
 (optional=templinst)_ZZN9QtPrivate16QMetaTypeForTypeI7QLocaleE7getDtorEvENUlPKNS_18QMetaTypeInterfaceEPvE_4_FUNES5_S6_@Base 6.2.1
 (optional=templinst)_ZZN9QtPrivate16QMetaTypeForTypeI7QPointFE10getCopyCtrEvENUlPKNS_18QMetaTypeInterfaceEPvPKvE_4_FUNES5_S6_S8_@Base 6.2.1
 (optional=templinst)_ZZN9QtPrivate16QMetaTypeForTypeI7QPointFE10getMoveCtrEvENUlPKNS_18QMetaTypeInterfaceEPvS6_E_4_FUNES5_S6_S6_@Base 6.2.1
 (optional=templinst)_ZZN9QtPrivate16QMetaTypeForTypeI7QPointFE13getDefaultCtrEvENUlPKNS_18QMetaTypeInterfaceEPvE_4_FUNES5_S6_@Base 6.2.1
 (optional=templinst)_ZZN9QtPrivate16QMetaTypeForTypeI7QStringE10getCopyCtrEvENUlPKNS_18QMetaTypeInterfaceEPvPKvE_4_FUNES5_S6_S8_@Base 6.2.1
 (optional=templinst)_ZZN9QtPrivate16QMetaTypeForTypeI7QStringE10getMoveCtrEvENUlPKNS_18QMetaTypeInterfaceEPvS6_E_4_FUNES5_S6_S6_@Base 6.2.1
 (optional=templinst)_ZZN9QtPrivate16QMetaTypeForTypeI7QStringE13getDefaultCtrEvENUlPKNS_18QMetaTypeInterfaceEPvE_4_FUNES5_S6_@Base 6.2.1
 (optional=templinst)_ZZN9QtPrivate16QMetaTypeForTypeI7QStringE7getDtorEvENUlPKNS_18QMetaTypeInterfaceEPvE_4_FUNES5_S6_@Base 6.2.1
 (optional=templinst)_ZZN9QtPrivate16QMetaTypeForTypeI8QVariantE10getCopyCtrEvENUlPKNS_18QMetaTypeInterfaceEPvPKvE_4_FUNES5_S6_S8_@Base 6.2.1
 (optional=templinst)_ZZN9QtPrivate16QMetaTypeForTypeI8QVariantE10getMoveCtrEvENUlPKNS_18QMetaTypeInterfaceEPvS6_E_4_FUNES5_S6_S6_@Base 6.2.1
 (optional=templinst)_ZZN9QtPrivate16QMetaTypeForTypeI8QVariantE13getDefaultCtrEvENUlPKNS_18QMetaTypeInterfaceEPvE_4_FUNES5_S6_@Base 6.2.1
 (optional=templinst)_ZZN9QtPrivate16QMetaTypeForTypeI8QVariantE7getDtorEvENUlPKNS_18QMetaTypeInterfaceEPvE_4_FUNES5_S6_@Base 6.2.1
 (optional=templinst)_ZZN9QtPrivate16QMetaTypeForTypeI9QDateTimeE10getCopyCtrEvENUlPKNS_18QMetaTypeInterfaceEPvPKvE_4_FUNES5_S6_S8_@Base 6.2.1
 (optional=templinst)_ZZN9QtPrivate16QMetaTypeForTypeI9QDateTimeE10getMoveCtrEvENUlPKNS_18QMetaTypeInterfaceEPvS6_E_4_FUNES5_S6_S6_@Base 6.2.1
 (optional=templinst)_ZZN9QtPrivate16QMetaTypeForTypeI9QDateTimeE13getDefaultCtrEvENUlPKNS_18QMetaTypeInterfaceEPvE_4_FUNES5_S6_@Base 6.2.1
 (optional=templinst)_ZZN9QtPrivate16QMetaTypeForTypeI9QDateTimeE7getDtorEvENUlPKNS_18QMetaTypeInterfaceEPvE_4_FUNES5_S6_@Base 6.2.1
 (optional=templinst)_ZZN9QtPrivate16QMetaTypeForTypeIbE10getCopyCtrEvENUlPKNS_18QMetaTypeInterfaceEPvPKvE_4_FUNES4_S5_S7_@Base 6.2.1
 (optional=templinst)_ZZN9QtPrivate16QMetaTypeForTypeIbE10getMoveCtrEvENUlPKNS_18QMetaTypeInterfaceEPvS5_E_4_FUNES4_S5_S5_@Base 6.2.1
 (optional=templinst)_ZZN9QtPrivate16QMetaTypeForTypeIbE13getDefaultCtrEvENUlPKNS_18QMetaTypeInterfaceEPvE_4_FUNES4_S5_@Base 6.2.1
 (optional=templinst)_ZZN9QtPrivate16QMetaTypeForTypeIdE10getCopyCtrEvENUlPKNS_18QMetaTypeInterfaceEPvPKvE_4_FUNES4_S5_S7_@Base 6.2.1
 (optional=templinst)_ZZN9QtPrivate16QMetaTypeForTypeIdE10getMoveCtrEvENUlPKNS_18QMetaTypeInterfaceEPvS5_E_4_FUNES4_S5_S5_@Base 6.2.1
 (optional=templinst)_ZZN9QtPrivate16QMetaTypeForTypeIdE13getDefaultCtrEvENUlPKNS_18QMetaTypeInterfaceEPvE_4_FUNES4_S5_@Base 6.2.1
 (optional=templinst)_ZZN9QtPrivate16QMetaTypeForTypeIiE10getCopyCtrEvENUlPKNS_18QMetaTypeInterfaceEPvPKvE_4_FUNES4_S5_S7_@Base 6.2.1
 (optional=templinst)_ZZN9QtPrivate16QMetaTypeForTypeIiE10getMoveCtrEvENUlPKNS_18QMetaTypeInterfaceEPvS5_E_4_FUNES4_S5_S5_@Base 6.2.1
 (optional=templinst)_ZZN9QtPrivate16QMetaTypeForTypeIiE13getDefaultCtrEvENUlPKNS_18QMetaTypeInterfaceEPvE_4_FUNES4_S5_@Base 6.2.1
 (c++)"non-virtual thunk to AbstractBarChartItem::boundingRect() const@Base" 6.2.1
 (c++)"non-virtual thunk to AbstractBarChartItem::paint(QPainter*, QStyleOptionGraphicsItem const*, QWidget*)@Base" 6.2.1
 (c++)"non-virtual thunk to AbstractBarChartItem::~AbstractBarChartItem()@Base" 6.2.1
 (c++)"non-virtual thunk to AreaChartItem::boundingRect() const@Base" 6.2.1
 (c++)"non-virtual thunk to AreaChartItem::hoverEnterEvent(QGraphicsSceneHoverEvent*)@Base" 6.2.1
 (c++)"non-virtual thunk to AreaChartItem::hoverLeaveEvent(QGraphicsSceneHoverEvent*)@Base" 6.2.1
 (c++)"non-virtual thunk to AreaChartItem::mouseDoubleClickEvent(QGraphicsSceneMouseEvent*)@Base" 6.2.1
 (c++)"non-virtual thunk to AreaChartItem::mousePressEvent(QGraphicsSceneMouseEvent*)@Base" 6.2.1
 (c++)"non-virtual thunk to AreaChartItem::mouseReleaseEvent(QGraphicsSceneMouseEvent*)@Base" 6.2.1
 (c++)"non-virtual thunk to AreaChartItem::paint(QPainter*, QStyleOptionGraphicsItem const*, QWidget*)@Base" 6.2.1
 (c++)"non-virtual thunk to AreaChartItem::shape() const@Base" 6.2.1
 (c++)"non-virtual thunk to AreaChartItem::~AreaChartItem()@Base" 6.2.1
 (c++)"non-virtual thunk to Bar::hoverEnterEvent(QGraphicsSceneHoverEvent*)@Base" 6.2.1
 (c++)"non-virtual thunk to Bar::hoverLeaveEvent(QGraphicsSceneHoverEvent*)@Base" 6.2.1
 (c++)"non-virtual thunk to Bar::mouseDoubleClickEvent(QGraphicsSceneMouseEvent*)@Base" 6.2.1
 (c++)"non-virtual thunk to Bar::mousePressEvent(QGraphicsSceneMouseEvent*)@Base" 6.2.1
 (c++)"non-virtual thunk to Bar::mouseReleaseEvent(QGraphicsSceneMouseEvent*)@Base" 6.2.1
 (c++)"non-virtual thunk to Bar::paint(QPainter*, QStyleOptionGraphicsItem const*, QWidget*)@Base" 6.2.1
 (c++)"non-virtual thunk to Bar::~Bar()@Base" 6.2.1
 (c++)"non-virtual thunk to BoxPlotChartItem::boundingRect() const@Base" 6.2.1
 (c++)"non-virtual thunk to BoxPlotChartItem::paint(QPainter*, QStyleOptionGraphicsItem const*, QWidget*)@Base" 6.2.1
 (c++)"non-virtual thunk to BoxPlotChartItem::~BoxPlotChartItem()@Base" 6.2.1
 (c++)"non-virtual thunk to BoxWhiskers::boundingRect() const@Base" 6.2.1
 (c++)"non-virtual thunk to BoxWhiskers::hoverEnterEvent(QGraphicsSceneHoverEvent*)@Base" 6.2.1
 (c++)"non-virtual thunk to BoxWhiskers::hoverLeaveEvent(QGraphicsSceneHoverEvent*)@Base" 6.2.1
 (c++)"non-virtual thunk to BoxWhiskers::mouseDoubleClickEvent(QGraphicsSceneMouseEvent*)@Base" 6.2.1
 (c++)"non-virtual thunk to BoxWhiskers::mousePressEvent(QGraphicsSceneMouseEvent*)@Base" 6.2.1
 (c++)"non-virtual thunk to BoxWhiskers::mouseReleaseEvent(QGraphicsSceneMouseEvent*)@Base" 6.2.1
 (c++)"non-virtual thunk to BoxWhiskers::paint(QPainter*, QStyleOptionGraphicsItem const*, QWidget*)@Base" 6.2.1
 (c++)"non-virtual thunk to BoxWhiskers::~BoxWhiskers()@Base" 6.2.1
 (c++)"non-virtual thunk to Candlestick::boundingRect() const@Base" 6.2.1
 (c++)"non-virtual thunk to Candlestick::hoverEnterEvent(QGraphicsSceneHoverEvent*)@Base" 6.2.1
 (c++)"non-virtual thunk to Candlestick::hoverLeaveEvent(QGraphicsSceneHoverEvent*)@Base" 6.2.1
 (c++)"non-virtual thunk to Candlestick::mouseDoubleClickEvent(QGraphicsSceneMouseEvent*)@Base" 6.2.1
 (c++)"non-virtual thunk to Candlestick::mousePressEvent(QGraphicsSceneMouseEvent*)@Base" 6.2.1
 (c++)"non-virtual thunk to Candlestick::mouseReleaseEvent(QGraphicsSceneMouseEvent*)@Base" 6.2.1
 (c++)"non-virtual thunk to Candlestick::paint(QPainter*, QStyleOptionGraphicsItem const*, QWidget*)@Base" 6.2.1
 (c++)"non-virtual thunk to Candlestick::~Candlestick()@Base" 6.2.1
 (c++)"non-virtual thunk to CandlestickChartItem::boundingRect() const@Base" 6.2.1
 (c++)"non-virtual thunk to CandlestickChartItem::paint(QPainter*, QStyleOptionGraphicsItem const*, QWidget*)@Base" 6.2.1
 (c++)"non-virtual thunk to CandlestickChartItem::~CandlestickChartItem()@Base" 6.2.1
 (c++)"non-virtual thunk to CartesianChartAxis::sizeHint(Qt::SizeHint, QSizeF const&) const@Base" 6.2.1
 (c++)"non-virtual thunk to CartesianChartAxis::~CartesianChartAxis()@Base" 6.2.1
 (c++)"non-virtual thunk to ChartAxisElement::~ChartAxisElement()@Base" 6.2.1
 (c++)"non-virtual thunk to ChartBarCategoryAxisX::sizeHint(Qt::SizeHint, QSizeF const&) const@Base" 6.2.1
 (c++)"non-virtual thunk to ChartBarCategoryAxisX::updateGeometry()@Base" 6.2.1
 (c++)"non-virtual thunk to ChartBarCategoryAxisX::~ChartBarCategoryAxisX()@Base" 6.2.1
 (c++)"non-virtual thunk to ChartBarCategoryAxisY::sizeHint(Qt::SizeHint, QSizeF const&) const@Base" 6.2.1
 (c++)"non-virtual thunk to ChartBarCategoryAxisY::updateGeometry()@Base" 6.2.1
 (c++)"non-virtual thunk to ChartBarCategoryAxisY::~ChartBarCategoryAxisY()@Base" 6.2.1
 (c++)"non-virtual thunk to ChartCategoryAxisX::sizeHint(Qt::SizeHint, QSizeF const&) const@Base" 6.2.1
 (c++)"non-virtual thunk to ChartCategoryAxisX::updateGeometry()@Base" 6.2.1
 (c++)"non-virtual thunk to ChartCategoryAxisX::~ChartCategoryAxisX()@Base" 6.2.1
 (c++)"non-virtual thunk to ChartCategoryAxisY::sizeHint(Qt::SizeHint, QSizeF const&) const@Base" 6.2.1
 (c++)"non-virtual thunk to ChartCategoryAxisY::updateGeometry()@Base" 6.2.1
 (c++)"non-virtual thunk to ChartCategoryAxisY::~ChartCategoryAxisY()@Base" 6.2.1
 (c++)"non-virtual thunk to ChartColorAxisX::sizeHint(Qt::SizeHint, QSizeF const&) const@Base" 6.2.1
 (c++)"non-virtual thunk to ChartColorAxisX::updateGeometry()@Base" 6.2.1
 (c++)"non-virtual thunk to ChartColorAxisX::~ChartColorAxisX()@Base" 6.2.1
 (c++)"non-virtual thunk to ChartColorAxisY::sizeHint(Qt::SizeHint, QSizeF const&) const@Base" 6.2.1
 (c++)"non-virtual thunk to ChartColorAxisY::updateGeometry()@Base" 6.2.1
 (c++)"non-virtual thunk to ChartColorAxisY::~ChartColorAxisY()@Base" 6.2.1
 (c++)"non-virtual thunk to ChartDateTimeAxisX::sizeHint(Qt::SizeHint, QSizeF const&) const@Base" 6.2.1
 (c++)"non-virtual thunk to ChartDateTimeAxisX::updateGeometry()@Base" 6.2.1
 (c++)"non-virtual thunk to ChartDateTimeAxisX::~ChartDateTimeAxisX()@Base" 6.2.1
 (c++)"non-virtual thunk to ChartDateTimeAxisY::sizeHint(Qt::SizeHint, QSizeF const&) const@Base" 6.2.1
 (c++)"non-virtual thunk to ChartDateTimeAxisY::updateGeometry()@Base" 6.2.1
 (c++)"non-virtual thunk to ChartDateTimeAxisY::~ChartDateTimeAxisY()@Base" 6.2.1
 (c++)"non-virtual thunk to ChartLogValueAxisX::sizeHint(Qt::SizeHint, QSizeF const&) const@Base" 6.2.1
 (c++)"non-virtual thunk to ChartLogValueAxisX::updateGeometry()@Base" 6.2.1
 (c++)"non-virtual thunk to ChartLogValueAxisX::~ChartLogValueAxisX()@Base" 6.2.1
 (c++)"non-virtual thunk to ChartLogValueAxisY::sizeHint(Qt::SizeHint, QSizeF const&) const@Base" 6.2.1
 (c++)"non-virtual thunk to ChartLogValueAxisY::updateGeometry()@Base" 6.2.1
 (c++)"non-virtual thunk to ChartLogValueAxisY::~ChartLogValueAxisY()@Base" 6.2.1
 (c++)"non-virtual thunk to ChartTitle::~ChartTitle()@Base" 6.2.1
 (c++)"non-virtual thunk to ChartValueAxisX::sizeHint(Qt::SizeHint, QSizeF const&) const@Base" 6.2.1
 (c++)"non-virtual thunk to ChartValueAxisX::updateGeometry()@Base" 6.2.1
 (c++)"non-virtual thunk to ChartValueAxisX::~ChartValueAxisX()@Base" 6.2.1
 (c++)"non-virtual thunk to ChartValueAxisY::sizeHint(Qt::SizeHint, QSizeF const&) const@Base" 6.2.1
 (c++)"non-virtual thunk to ChartValueAxisY::updateGeometry()@Base" 6.2.1
 (c++)"non-virtual thunk to ChartValueAxisY::~ChartValueAxisY()@Base" 6.2.1
 (c++)"non-virtual thunk to DateTimeAxisLabel::keyPressEvent(QKeyEvent*)@Base" 6.2.1
 (c++)"non-virtual thunk to EditableAxisLabel::boundingRect() const@Base" 6.2.1
 (c++)"non-virtual thunk to EditableAxisLabel::focusInEvent(QFocusEvent*)@Base" 6.2.1
 (c++)"non-virtual thunk to EditableAxisLabel::focusOutEvent(QFocusEvent*)@Base" 6.2.1
 (c++)"non-virtual thunk to EditableAxisLabel::sceneEvent(QEvent*)@Base" 6.2.1
 (c++)"non-virtual thunk to HorizontalAxis::sizeHint(Qt::SizeHint, QSizeF const&) const@Base" 6.2.1
 (c++)"non-virtual thunk to HorizontalAxis::updateGeometry()@Base" 6.2.1
 (c++)"non-virtual thunk to HorizontalAxis::~HorizontalAxis()@Base" 6.2.1
 (c++)"non-virtual thunk to LegendMarkerItem::boundingRect() const@Base" 6.2.1
 (c++)"non-virtual thunk to LegendMarkerItem::hoverEnterEvent(QGraphicsSceneHoverEvent*)@Base" 6.2.1
 (c++)"non-virtual thunk to LegendMarkerItem::hoverLeaveEvent(QGraphicsSceneHoverEvent*)@Base" 6.2.1
 (c++)"non-virtual thunk to LegendMarkerItem::paint(QPainter*, QStyleOptionGraphicsItem const*, QWidget*)@Base" 6.2.1
 (c++)"non-virtual thunk to LegendMarkerItem::setGeometry(QRectF const&)@Base" 6.2.1
 (c++)"non-virtual thunk to LegendMarkerItem::sizeHint(Qt::SizeHint, QSizeF const&) const@Base" 6.2.1
 (c++)"non-virtual thunk to LegendMarkerItem::~LegendMarkerItem()@Base" 6.2.1
 (c++)"non-virtual thunk to LegendScroller::hoverEnterEvent(QGraphicsSceneHoverEvent*)@Base" 6.2.1
 (c++)"non-virtual thunk to LegendScroller::hoverLeaveEvent(QGraphicsSceneHoverEvent*)@Base" 6.2.1
 (c++)"non-virtual thunk to LegendScroller::hoverMoveEvent(QGraphicsSceneHoverEvent*)@Base" 6.2.1
 (c++)"non-virtual thunk to LegendScroller::mouseDoubleClickEvent(QGraphicsSceneMouseEvent*)@Base" 6.2.1
 (c++)"non-virtual thunk to LegendScroller::mouseMoveEvent(QGraphicsSceneMouseEvent*)@Base" 6.2.1
 (c++)"non-virtual thunk to LegendScroller::mousePressEvent(QGraphicsSceneMouseEvent*)@Base" 6.2.1
 (c++)"non-virtual thunk to LegendScroller::mouseReleaseEvent(QGraphicsSceneMouseEvent*)@Base" 6.2.1
 (c++)"non-virtual thunk to LegendScroller::offset() const@Base" 6.2.1
 (c++)"non-virtual thunk to LegendScroller::paint(QPainter*, QStyleOptionGraphicsItem const*, QWidget*)@Base" 6.2.1
 (c++)"non-virtual thunk to LegendScroller::setOffset(QPointF const&)@Base" 6.2.1
 (c++)"non-virtual thunk to LineChartItem::boundingRect() const@Base" 6.2.1
 (c++)"non-virtual thunk to LineChartItem::hoverEnterEvent(QGraphicsSceneHoverEvent*)@Base" 6.2.1
 (c++)"non-virtual thunk to LineChartItem::hoverLeaveEvent(QGraphicsSceneHoverEvent*)@Base" 6.2.1
 (c++)"non-virtual thunk to LineChartItem::mouseDoubleClickEvent(QGraphicsSceneMouseEvent*)@Base" 6.2.1
 (c++)"non-virtual thunk to LineChartItem::mousePressEvent(QGraphicsSceneMouseEvent*)@Base" 6.2.1
 (c++)"non-virtual thunk to LineChartItem::mouseReleaseEvent(QGraphicsSceneMouseEvent*)@Base" 6.2.1
 (c++)"non-virtual thunk to LineChartItem::paint(QPainter*, QStyleOptionGraphicsItem const*, QWidget*)@Base" 6.2.1
 (c++)"non-virtual thunk to LineChartItem::shape() const@Base" 6.2.1
 (c++)"non-virtual thunk to PieChartItem::hoverEnterEvent(QGraphicsSceneHoverEvent*)@Base" 6.2.1
 (c++)"non-virtual thunk to PieChartItem::hoverLeaveEvent(QGraphicsSceneHoverEvent*)@Base" 6.2.1
 (c++)"non-virtual thunk to PieChartItem::mouseDoubleClickEvent(QGraphicsSceneMouseEvent*)@Base" 6.2.1
 (c++)"non-virtual thunk to PieChartItem::mousePressEvent(QGraphicsSceneMouseEvent*)@Base" 6.2.1
 (c++)"non-virtual thunk to PieChartItem::mouseReleaseEvent(QGraphicsSceneMouseEvent*)@Base" 6.2.1
 (c++)"non-virtual thunk to PieChartItem::~PieChartItem()@Base" 6.2.1
 (c++)"non-virtual thunk to PieSliceItem::boundingRect() const@Base" 6.2.1
 (c++)"non-virtual thunk to PieSliceItem::hoverEnterEvent(QGraphicsSceneHoverEvent*)@Base" 6.2.1
 (c++)"non-virtual thunk to PieSliceItem::hoverLeaveEvent(QGraphicsSceneHoverEvent*)@Base" 6.2.1
 (c++)"non-virtual thunk to PieSliceItem::mouseDoubleClickEvent(QGraphicsSceneMouseEvent*)@Base" 6.2.1
 (c++)"non-virtual thunk to PieSliceItem::mousePressEvent(QGraphicsSceneMouseEvent*)@Base" 6.2.1
 (c++)"non-virtual thunk to PieSliceItem::mouseReleaseEvent(QGraphicsSceneMouseEvent*)@Base" 6.2.1
 (c++)"non-virtual thunk to PieSliceItem::paint(QPainter*, QStyleOptionGraphicsItem const*, QWidget*)@Base" 6.2.1
 (c++)"non-virtual thunk to PieSliceItem::shape() const@Base" 6.2.1
 (c++)"non-virtual thunk to PieSliceItem::~PieSliceItem()@Base" 6.2.1
 (c++)"non-virtual thunk to PolarChartAxis::~PolarChartAxis()@Base" 6.2.1
 (c++)"non-virtual thunk to PolarChartAxisAngular::sizeHint(Qt::SizeHint, QSizeF const&) const@Base" 6.2.1
 (c++)"non-virtual thunk to PolarChartAxisAngular::updateGeometry()@Base" 6.2.1
 (c++)"non-virtual thunk to PolarChartAxisAngular::~PolarChartAxisAngular()@Base" 6.2.1
 (c++)"non-virtual thunk to PolarChartAxisRadial::sizeHint(Qt::SizeHint, QSizeF const&) const@Base" 6.2.1
 (c++)"non-virtual thunk to PolarChartAxisRadial::updateGeometry()@Base" 6.2.1
 (c++)"non-virtual thunk to PolarChartAxisRadial::~PolarChartAxisRadial()@Base" 6.2.1
 (c++)"non-virtual thunk to PolarChartCategoryAxisAngular::~PolarChartCategoryAxisAngular()@Base" 6.2.1
 (c++)"non-virtual thunk to PolarChartCategoryAxisRadial::~PolarChartCategoryAxisRadial()@Base" 6.2.1
 (c++)"non-virtual thunk to PolarChartDateTimeAxisAngular::~PolarChartDateTimeAxisAngular()@Base" 6.2.1
 (c++)"non-virtual thunk to PolarChartDateTimeAxisRadial::~PolarChartDateTimeAxisRadial()@Base" 6.2.1
 (c++)"non-virtual thunk to PolarChartLogValueAxisAngular::~PolarChartLogValueAxisAngular()@Base" 6.2.1
 (c++)"non-virtual thunk to PolarChartLogValueAxisRadial::~PolarChartLogValueAxisRadial()@Base" 6.2.1
 (c++)"non-virtual thunk to PolarChartValueAxisAngular::~PolarChartValueAxisAngular()@Base" 6.2.1
 (c++)"non-virtual thunk to PolarChartValueAxisRadial::~PolarChartValueAxisRadial()@Base" 6.2.1
 (c++)"non-virtual thunk to QChart::~QChart()@Base" 6.2.1
 (c++)"non-virtual thunk to QChartView::~QChartView()@Base" 6.2.1
 (c++)"non-virtual thunk to QLegend::paint(QPainter*, QStyleOptionGraphicsItem const*, QWidget*)@Base" 6.2.1
 (c++)"non-virtual thunk to QLegend::~QLegend()@Base" 6.2.1
 (c++)"non-virtual thunk to QPolarChart::~QPolarChart()@Base" 6.2.1
 (c++)"non-virtual thunk to ScatterChartItem::boundingRect() const@Base" 6.2.1
 (c++)"non-virtual thunk to ScatterChartItem::hoverMoveEvent(QGraphicsSceneHoverEvent*)@Base" 6.2.1
 (c++)"non-virtual thunk to ScatterChartItem::mouseDoubleClickEvent(QGraphicsSceneMouseEvent*)@Base" 6.2.1
 (c++)"non-virtual thunk to ScatterChartItem::mousePressEvent(QGraphicsSceneMouseEvent*)@Base" 6.2.1
 (c++)"non-virtual thunk to ScatterChartItem::mouseReleaseEvent(QGraphicsSceneMouseEvent*)@Base" 6.2.1
 (c++)"non-virtual thunk to ScatterChartItem::paint(QPainter*, QStyleOptionGraphicsItem const*, QWidget*)@Base" 6.2.1
 (c++)"non-virtual thunk to SplineChartItem::boundingRect() const@Base" 6.2.1
 (c++)"non-virtual thunk to SplineChartItem::hoverEnterEvent(QGraphicsSceneHoverEvent*)@Base" 6.2.1
 (c++)"non-virtual thunk to SplineChartItem::hoverLeaveEvent(QGraphicsSceneHoverEvent*)@Base" 6.2.1
 (c++)"non-virtual thunk to SplineChartItem::mouseDoubleClickEvent(QGraphicsSceneMouseEvent*)@Base" 6.2.1
 (c++)"non-virtual thunk to SplineChartItem::mousePressEvent(QGraphicsSceneMouseEvent*)@Base" 6.2.1
 (c++)"non-virtual thunk to SplineChartItem::mouseReleaseEvent(QGraphicsSceneMouseEvent*)@Base" 6.2.1
 (c++)"non-virtual thunk to SplineChartItem::paint(QPainter*, QStyleOptionGraphicsItem const*, QWidget*)@Base" 6.2.1
 (c++)"non-virtual thunk to SplineChartItem::shape() const@Base" 6.2.1
 (c++)"non-virtual thunk to ValueAxisLabel::keyPressEvent(QKeyEvent*)@Base" 6.2.1
 (c++)"non-virtual thunk to VerticalAxis::sizeHint(Qt::SizeHint, QSizeF const&) const@Base" 6.2.1
 (c++)"non-virtual thunk to VerticalAxis::updateGeometry()@Base" 6.2.1
 (c++)"non-virtual thunk to VerticalAxis::~VerticalAxis()@Base" 6.2.1
 qt_allocate_bar_set@Base 6.2.1
