# SymbolsHelper-Confirmed: 6.2.2 amd64 armel armhf i386 mipsel sh4
libQt6Multimedia.so.6 libqt6multimedia6 #MINVER#
* Build-Depends-Package: qt6-multimedia-dev
 _Z18qt_gst_video_sinksv@Base 6.2.1
 _Z19qt_real_to_fractiondPiS_@Base 6.2.1
 _ZGVZN9QMetaType21registerConverterImplI5QListI12QAudioDeviceE9QIterableI13QMetaSequenceEEEbSt8functionIFbPKvPvEES_S_E10unregister@Base 6.2.1
 _ZGVZN9QMetaType21registerConverterImplI5QListI13QCameraDeviceE9QIterableI13QMetaSequenceEEEbSt8functionIFbPKvPvEES_S_E10unregister@Base 6.2.1
 _ZGVZN9QMetaType21registerConverterImplI5QListI13QCameraFormatE9QIterableI13QMetaSequenceEEEbSt8functionIFbPKvPvEES_S_E10unregister@Base 6.2.1
 _ZGVZN9QMetaType21registerConverterImplI5QListI14QMediaMetaDataE9QIterableI13QMetaSequenceEEEbSt8functionIFbPKvPvEES_S_E10unregister@Base 6.2.1
 _ZGVZN9QMetaType21registerConverterImplI5QListIN12QMediaFormat10AudioCodecEE9QIterableI13QMetaSequenceEEEbSt8functionIFbPKvPvEES_S_E10unregister@Base 6.2.1
 _ZGVZN9QMetaType21registerConverterImplI5QListIN12QMediaFormat10FileFormatEE9QIterableI13QMetaSequenceEEEbSt8functionIFbPKvPvEES_S_E10unregister@Base 6.2.1
 _ZGVZN9QMetaType21registerConverterImplI5QListIN12QMediaFormat10VideoCodecEE9QIterableI13QMetaSequenceEEEbSt8functionIFbPKvPvEES_S_E10unregister@Base 6.2.1
 _ZGVZN9QMetaType21registerConverterImplI5QListIN14QMediaMetaData3KeyEE9QIterableI13QMetaSequenceEEEbSt8functionIFbPKvPvEES_S_E10unregister@Base 6.2.1
 _ZGVZN9QMetaType23registerMutableViewImplI5QListI12QAudioDeviceE9QIterableI13QMetaSequenceEEEbSt8functionIFbPvS8_EES_S_E10unregister@Base 6.2.1
 _ZGVZN9QMetaType23registerMutableViewImplI5QListI13QCameraDeviceE9QIterableI13QMetaSequenceEEEbSt8functionIFbPvS8_EES_S_E10unregister@Base 6.2.1
 _ZGVZN9QMetaType23registerMutableViewImplI5QListI13QCameraFormatE9QIterableI13QMetaSequenceEEEbSt8functionIFbPvS8_EES_S_E10unregister@Base 6.2.1
 _ZGVZN9QMetaType23registerMutableViewImplI5QListI14QMediaMetaDataE9QIterableI13QMetaSequenceEEEbSt8functionIFbPvS8_EES_S_E10unregister@Base 6.2.1
 _ZGVZN9QMetaType23registerMutableViewImplI5QListIN12QMediaFormat10AudioCodecEE9QIterableI13QMetaSequenceEEEbSt8functionIFbPvS9_EES_S_E10unregister@Base 6.2.1
 _ZGVZN9QMetaType23registerMutableViewImplI5QListIN12QMediaFormat10FileFormatEE9QIterableI13QMetaSequenceEEEbSt8functionIFbPvS9_EES_S_E10unregister@Base 6.2.1
 _ZGVZN9QMetaType23registerMutableViewImplI5QListIN12QMediaFormat10VideoCodecEE9QIterableI13QMetaSequenceEEEbSt8functionIFbPvS9_EES_S_E10unregister@Base 6.2.1
 _ZGVZN9QMetaType23registerMutableViewImplI5QListIN14QMediaMetaData3KeyEE9QIterableI13QMetaSequenceEEEbSt8functionIFbPvS9_EES_S_E10unregister@Base 6.2.1
 _ZN10QAudioSink11qt_metacallEN11QMetaObject4CallEiPPv@Base 6.2.1
 _ZN10QAudioSink11qt_metacastEPKc@Base 6.2.1
 _ZN10QAudioSink12stateChangedEN6QAudio5StateE@Base 6.2.1
 (subst)_ZN10QAudioSink13setBufferSizeE{qptrdiff}@Base 6.2.1
 _ZN10QAudioSink16staticMetaObjectE@Base 6.2.1
 _ZN10QAudioSink4stopEv@Base 6.2.1
 _ZN10QAudioSink5resetEv@Base 6.2.1
 _ZN10QAudioSink5startEP9QIODevice@Base 6.2.1
 _ZN10QAudioSink5startEv@Base 6.2.1
 _ZN10QAudioSink6resumeEv@Base 6.2.1
 _ZN10QAudioSink7suspendEv@Base 6.2.1
 _ZN10QAudioSink9setVolumeEd@Base 6.2.1
 _ZN10QAudioSinkC1ERK12QAudioDeviceRK12QAudioFormatP7QObject@Base 6.2.1
 _ZN10QAudioSinkC1ERK12QAudioFormatP7QObject@Base 6.2.1
 _ZN10QAudioSinkC2ERK12QAudioDeviceRK12QAudioFormatP7QObject@Base 6.2.1
 _ZN10QAudioSinkC2ERK12QAudioFormatP7QObject@Base 6.2.1
 _ZN10QAudioSinkD0Ev@Base 6.2.1
 _ZN10QAudioSinkD1Ev@Base 6.2.1
 _ZN10QAudioSinkD2Ev@Base 6.2.1
 _ZN10QGstAppSrc10noMoreDataEv@Base 6.2.1
 _ZN10QGstAppSrc11onDataReadyEv@Base 6.2.1
 _ZN10QGstAppSrc11qt_metacallEN11QMetaObject4CallEiPPv@Base 6.2.1
 _ZN10QGstAppSrc11qt_metacastEPKc@Base 6.2.1
 _ZN10QGstAppSrc12on_need_dataEP10_GstAppSrcjPv@Base 6.2.1
 (subst)_ZN10QGstAppSrc12on_seek_dataEP10_GstAppSrc{uint64_t}Pv@Base 6.2.1
 _ZN10QGstAppSrc14bytesProcessedEi@Base 6.2.1
 _ZN10QGstAppSrc14on_enough_dataEP10_GstAppSrcPv@Base 6.2.1
 _ZN10QGstAppSrc14setAudioFormatERK12QAudioFormat@Base 6.2.1
 _ZN10QGstAppSrc15streamDestroyedEv@Base 6.2.1
 _ZN10QGstAppSrc16staticMetaObjectE@Base 6.2.1
 _ZN10QGstAppSrc17setExternalAppSrcERK11QGstElement@Base 6.2.1
 _ZN10QGstAppSrc5setupEP9QIODevicex@Base 6.2.1
 (subst)_ZN10QGstAppSrc5writeEPKc{qptrdiff}@Base 6.2.1
 _ZN10QGstAppSrc6doSeekEx@Base 6.2.1
 _ZN10QGstAppSrc7elementEv@Base 6.2.1
 _ZN10QGstAppSrc7sendEOSEv@Base 6.2.1
 _ZN10QGstAppSrc8pushDataEv@Base 6.2.1
 _ZN10QGstAppSrc9eosOrIdleEv@Base 6.2.1
 _ZN10QGstAppSrc9setStreamEP9QIODevicex@Base 6.2.1
 _ZN10QGstAppSrcC1EP7QObject@Base 6.2.1
 _ZN10QGstAppSrcC2EP7QObject@Base 6.2.1
 _ZN10QGstAppSrcD0Ev@Base 6.2.1
 _ZN10QGstAppSrcD1Ev@Base 6.2.1
 _ZN10QGstAppSrcD2Ev@Base 6.2.1
 _ZN10QVideoSink11qt_metacallEN11QMetaObject4CallEiPPv@Base 6.2.1
 _ZN10QVideoSink11qt_metacastEPKc@Base 6.2.1
 _ZN10QVideoSink13setVideoFrameERK11QVideoFrame@Base 6.2.1
 _ZN10QVideoSink15setSubtitleTextERK7QString@Base 6.2.1
 _ZN10QVideoSink16staticMetaObjectE@Base 6.2.1
 _ZN10QVideoSink16videoSizeChangedEv@Base 6.2.1
 _ZN10QVideoSink6setRhiEP4QRhi@Base 6.2.1
 _ZN10QVideoSink9setSourceEP7QObject@Base 6.2.1
 _ZN10QVideoSinkC1EP7QObject@Base 6.2.1
 _ZN10QVideoSinkC2EP7QObject@Base 6.2.1
 _ZN10QVideoSinkD0Ev@Base 6.2.1
 _ZN10QVideoSinkD1Ev@Base 6.2.1
 _ZN10QVideoSinkD2Ev@Base 6.2.1
 _ZN11QAudioInput11qt_metacallEN11QMetaObject4CallEiPPv@Base 6.2.1
 _ZN11QAudioInput11qt_metacastEPKc@Base 6.2.1
 _ZN11QAudioInput12mutedChangedEb@Base 6.2.1
 _ZN11QAudioInput13deviceChangedEv@Base 6.2.1
 _ZN11QAudioInput13volumeChangedEf@Base 6.2.1
 _ZN11QAudioInput16staticMetaObjectE@Base 6.2.1
 _ZN11QAudioInput21setDisconnectFunctionESt8functionIFvvEE@Base 6.2.1
 _ZN11QAudioInput8setMutedEb@Base 6.2.1
 _ZN11QAudioInput9setDeviceERK12QAudioDevice@Base 6.2.1
 _ZN11QAudioInput9setVolumeEf@Base 6.2.1
 _ZN11QAudioInputC1EP7QObject@Base 6.2.1
 _ZN11QAudioInputC1ERK12QAudioDeviceP7QObject@Base 6.2.1
 _ZN11QAudioInputC2EP7QObject@Base 6.2.1
 _ZN11QAudioInputC2ERK12QAudioDeviceP7QObject@Base 6.2.1
 _ZN11QAudioInputD0Ev@Base 6.2.1
 _ZN11QAudioInputD1Ev@Base 6.2.1
 _ZN11QAudioInputD2Ev@Base 6.2.1
 _ZN11QVideoFrame10setEndTimeEx@Base 6.2.1
 _ZN11QVideoFrame12setStartTimeEx@Base 6.2.1
 _ZN11QVideoFrame15setSubtitleTextERK7QString@Base 6.2.1
 _ZN11QVideoFrame3mapENS_7MapModeE@Base 6.2.1
 _ZN11QVideoFrame4bitsEi@Base 6.2.1
 _ZN11QVideoFrame5paintEP8QPainterRK6QRectFRKNS_12PaintOptionsE@Base 6.2.1
 _ZN11QVideoFrame5unmapEv@Base 6.2.1
 _ZN11QVideoFrameC1EP20QAbstractVideoBufferRK17QVideoFrameFormat@Base 6.2.1
 _ZN11QVideoFrameC1ERK17QVideoFrameFormat@Base 6.2.1
 _ZN11QVideoFrameC1ERKS_@Base 6.2.1
 _ZN11QVideoFrameC1Ev@Base 6.2.1
 _ZN11QVideoFrameC2EP20QAbstractVideoBufferRK17QVideoFrameFormat@Base 6.2.1
 _ZN11QVideoFrameC2ERK17QVideoFrameFormat@Base 6.2.1
 _ZN11QVideoFrameC2ERKS_@Base 6.2.1
 _ZN11QVideoFrameC2Ev@Base 6.2.1
 _ZN11QVideoFrameD1Ev@Base 6.2.1
 _ZN11QVideoFrameD2Ev@Base 6.2.1
 _ZN11QVideoFrameaSERKS_@Base 6.2.1
 _ZN12QAudioBuffer4dataEv@Base 6.2.1
 _ZN12QAudioBuffer6detachEv@Base 6.2.1
 _ZN12QAudioBufferC1ERK10QByteArrayRK12QAudioFormatx@Base 6.2.1
 _ZN12QAudioBufferC1ERKS_@Base 6.2.1
 _ZN12QAudioBufferC1EiRK12QAudioFormatx@Base 6.2.1
 _ZN12QAudioBufferC1Ev@Base 6.2.1
 _ZN12QAudioBufferC2ERK10QByteArrayRK12QAudioFormatx@Base 6.2.1
 _ZN12QAudioBufferC2ERKS_@Base 6.2.1
 _ZN12QAudioBufferC2EiRK12QAudioFormatx@Base 6.2.1
 _ZN12QAudioBufferC2Ev@Base 6.2.1
 _ZN12QAudioBufferD1Ev@Base 6.2.1
 _ZN12QAudioBufferD2Ev@Base 6.2.1
 _ZN12QAudioBufferaSERKS_@Base 6.2.1
 _ZN12QAudioDevice16staticMetaObjectE@Base 6.2.1
 _ZN12QAudioDeviceC1EP19QAudioDevicePrivate@Base 6.2.1
 _ZN12QAudioDeviceC1ERKS_@Base 6.2.1
 _ZN12QAudioDeviceC1Ev@Base 6.2.1
 _ZN12QAudioDeviceC2EP19QAudioDevicePrivate@Base 6.2.1
 _ZN12QAudioDeviceC2ERKS_@Base 6.2.1
 _ZN12QAudioDeviceC2Ev@Base 6.2.1
 _ZN12QAudioDeviceD1Ev@Base 6.2.1
 _ZN12QAudioDeviceD2Ev@Base 6.2.1
 _ZN12QAudioDeviceaSERKS_@Base 6.2.1
 _ZN12QAudioFormat16setChannelConfigENS_13ChannelConfigE@Base 6.2.1
 _ZN12QAudioOutput11qt_metacallEN11QMetaObject4CallEiPPv@Base 6.2.1
 _ZN12QAudioOutput11qt_metacastEPKc@Base 6.2.1
 _ZN12QAudioOutput12mutedChangedEb@Base 6.2.1
 _ZN12QAudioOutput13deviceChangedEv@Base 6.2.1
 _ZN12QAudioOutput13volumeChangedEf@Base 6.2.1
 _ZN12QAudioOutput16staticMetaObjectE@Base 6.2.1
 _ZN12QAudioOutput21setDisconnectFunctionESt8functionIFvvEE@Base 6.2.1
 _ZN12QAudioOutput8setMutedEb@Base 6.2.1
 _ZN12QAudioOutput9setDeviceERK12QAudioDevice@Base 6.2.1
 _ZN12QAudioOutput9setVolumeEf@Base 6.2.1
 _ZN12QAudioOutputC1EP7QObject@Base 6.2.1
 _ZN12QAudioOutputC1ERK12QAudioDeviceP7QObject@Base 6.2.1
 _ZN12QAudioOutputC2EP7QObject@Base 6.2.1
 _ZN12QAudioOutputC2ERK12QAudioDeviceP7QObject@Base 6.2.1
 _ZN12QAudioOutputD0Ev@Base 6.2.1
 _ZN12QAudioOutputD1Ev@Base 6.2.1
 _ZN12QAudioOutputD2Ev@Base 6.2.1
 _ZN12QAudioSource11qt_metacallEN11QMetaObject4CallEiPPv@Base 6.2.1
 _ZN12QAudioSource11qt_metacastEPKc@Base 6.2.1
 _ZN12QAudioSource12stateChangedEN6QAudio5StateE@Base 6.2.1
 (subst)_ZN12QAudioSource13setBufferSizeE{qptrdiff}@Base 6.2.1
 _ZN12QAudioSource16staticMetaObjectE@Base 6.2.1
 _ZN12QAudioSource4stopEv@Base 6.2.1
 _ZN12QAudioSource5resetEv@Base 6.2.1
 _ZN12QAudioSource5startEP9QIODevice@Base 6.2.1
 _ZN12QAudioSource5startEv@Base 6.2.1
 _ZN12QAudioSource6resumeEv@Base 6.2.1
 _ZN12QAudioSource7suspendEv@Base 6.2.1
 _ZN12QAudioSource9setVolumeEd@Base 6.2.1
 _ZN12QAudioSourceC1ERK12QAudioDeviceRK12QAudioFormatP7QObject@Base 6.2.1
 _ZN12QAudioSourceC1ERK12QAudioFormatP7QObject@Base 6.2.1
 _ZN12QAudioSourceC2ERK12QAudioDeviceRK12QAudioFormatP7QObject@Base 6.2.1
 _ZN12QAudioSourceC2ERK12QAudioFormatP7QObject@Base 6.2.1
 _ZN12QAudioSourceD0Ev@Base 6.2.1
 _ZN12QAudioSourceD1Ev@Base 6.2.1
 _ZN12QAudioSourceD2Ev@Base 6.2.1
 _ZN12QMediaFormat14audioCodecNameENS_10AudioCodecE@Base 6.2.1
 _ZN12QMediaFormat14fileFormatNameENS_10FileFormatE@Base 6.2.1
 _ZN12QMediaFormat14videoCodecNameENS_10VideoCodecE@Base 6.2.1
 _ZN12QMediaFormat16staticMetaObjectE@Base 6.2.1
 _ZN12QMediaFormat18resolveForEncodingENS_12ResolveFlagsE@Base 6.2.1
 _ZN12QMediaFormat20supportedAudioCodecsENS_14ConversionModeE@Base 6.2.1
 _ZN12QMediaFormat20supportedFileFormatsENS_14ConversionModeE@Base 6.2.1
 _ZN12QMediaFormat20supportedVideoCodecsENS_14ConversionModeE@Base 6.2.1
 _ZN12QMediaFormat21audioCodecDescriptionENS_10AudioCodecE@Base 6.2.1
 _ZN12QMediaFormat21fileFormatDescriptionENS_10FileFormatE@Base 6.2.1
 _ZN12QMediaFormat21videoCodecDescriptionENS_10VideoCodecE@Base 6.2.1
 _ZN12QMediaFormatC1ENS_10FileFormatE@Base 6.2.1
 _ZN12QMediaFormatC1ERKS_@Base 6.2.1
 _ZN12QMediaFormatC2ENS_10FileFormatE@Base 6.2.1
 _ZN12QMediaFormatC2ERKS_@Base 6.2.1
 _ZN12QMediaFormatD1Ev@Base 6.2.1
 _ZN12QMediaFormatD2Ev@Base 6.2.1
 _ZN12QMediaFormataSERKS_@Base 6.2.1
 _ZN12QMediaPlayer11qt_metacallEN11QMetaObject4CallEiPPv@Base 6.2.1
 _ZN12QMediaPlayer11qt_metacastEPKc@Base 6.2.1
 _ZN12QMediaPlayer11setPositionEx@Base 6.2.1
 _ZN12QMediaPlayer12errorChangedEv@Base 6.2.1
 _ZN12QMediaPlayer12loopsChangedEv@Base 6.2.1
 _ZN12QMediaPlayer12setVideoSinkEP10QVideoSink@Base 6.2.1
 _ZN12QMediaPlayer13errorOccurredENS_5ErrorERK7QString@Base 6.2.1
 _ZN12QMediaPlayer13sourceChangedERK4QUrl@Base 6.2.1
 _ZN12QMediaPlayer13tracksChangedEv@Base 6.2.1
 _ZN12QMediaPlayer14setAudioOutputEP12QAudioOutput@Base 6.2.1
 _ZN12QMediaPlayer14setVideoOutputEP7QObject@Base 6.2.1
 _ZN12QMediaPlayer15durationChangedEx@Base 6.2.1
 _ZN12QMediaPlayer15hasAudioChangedEb@Base 6.2.1
 _ZN12QMediaPlayer15hasVideoChangedEb@Base 6.2.1
 _ZN12QMediaPlayer15metaDataChangedEv@Base 6.2.1
 _ZN12QMediaPlayer15positionChangedEx@Base 6.2.1
 _ZN12QMediaPlayer15seekableChangedEb@Base 6.2.1
 _ZN12QMediaPlayer15setPlaybackRateEd@Base 6.2.1
 _ZN12QMediaPlayer15setSourceDeviceEP9QIODeviceRK4QUrl@Base 6.2.1
 _ZN12QMediaPlayer16staticMetaObjectE@Base 6.2.1
 _ZN12QMediaPlayer18audioOutputChangedEv@Base 6.2.1
 _ZN12QMediaPlayer18mediaStatusChangedENS_11MediaStatusE@Base 6.2.1
 _ZN12QMediaPlayer18videoOutputChangedEv@Base 6.2.1
 _ZN12QMediaPlayer19activeTracksChangedEv@Base 6.2.1
 _ZN12QMediaPlayer19playbackRateChangedEd@Base 6.2.1
 _ZN12QMediaPlayer19setActiveAudioTrackEi@Base 6.2.1
 _ZN12QMediaPlayer19setActiveVideoTrackEi@Base 6.2.1
 _ZN12QMediaPlayer20playbackStateChangedENS_13PlaybackStateE@Base 6.2.1
 _ZN12QMediaPlayer21bufferProgressChangedEf@Base 6.2.1
 _ZN12QMediaPlayer22setActiveSubtitleTrackEi@Base 6.2.1
 _ZN12QMediaPlayer4playEv@Base 6.2.1
 _ZN12QMediaPlayer4stopEv@Base 6.2.1
 _ZN12QMediaPlayer5pauseEv@Base 6.2.1
 _ZN12QMediaPlayer8setLoopsEi@Base 6.2.1
 _ZN12QMediaPlayer9setSourceERK4QUrl@Base 6.2.1
 _ZN12QMediaPlayerC1EP7QObject@Base 6.2.1
 _ZN12QMediaPlayerC2EP7QObject@Base 6.2.1
 _ZN12QMediaPlayerD0Ev@Base 6.2.1
 _ZN12QMediaPlayerD1Ev@Base 6.2.1
 _ZN12QMediaPlayerD2Ev@Base 6.2.1
 _ZN12QSampleCache11qt_metacallEN11QMetaObject4CallEiPPv@Base 6.2.1
 _ZN12QSampleCache11qt_metacastEPKc@Base 6.2.1
 _ZN12QSampleCache11setCapacityEx@Base 6.2.1
 _ZN12QSampleCache12unloadSampleEP7QSample@Base 6.2.1
 _ZN12QSampleCache13requestSampleERK4QUrl@Base 6.2.1
 _ZN12QSampleCache14loadingReleaseEv@Base 6.2.1
 _ZN12QSampleCache16staticMetaObjectE@Base 6.2.1
 _ZN12QSampleCache20networkAccessManagerEv@Base 6.2.1
 _ZN12QSampleCache24notifyUnreferencedSampleEP7QSample@Base 6.2.1
 _ZN12QSampleCache24removeUnreferencedSampleEP7QSample@Base 6.2.1
 _ZN12QSampleCache7refreshEx@Base 6.2.1
 _ZN12QSampleCacheC1EP7QObject@Base 6.2.1
 _ZN12QSampleCacheC2EP7QObject@Base 6.2.1
 _ZN12QSampleCacheD0Ev@Base 6.2.1
 _ZN12QSampleCacheD1Ev@Base 6.2.1
 _ZN12QSampleCacheD2Ev@Base 6.2.1
 _ZN12QSoundEffect11audioDeviceEv@Base 6.2.1
 _ZN12QSoundEffect11qt_metacallEN11QMetaObject4CallEiPPv@Base 6.2.1
 _ZN12QSoundEffect11qt_metacastEPKc@Base 6.2.1
 _ZN12QSoundEffect12mutedChangedEv@Base 6.2.1
 _ZN12QSoundEffect12setLoopCountEi@Base 6.2.1
 _ZN12QSoundEffect13loadedChangedEv@Base 6.2.1
 _ZN12QSoundEffect13sourceChangedEv@Base 6.2.1
 _ZN12QSoundEffect13statusChangedEv@Base 6.2.1
 _ZN12QSoundEffect13volumeChangedEv@Base 6.2.1
 _ZN12QSoundEffect14playingChangedEv@Base 6.2.1
 _ZN12QSoundEffect14setAudioDeviceERK12QAudioDevice@Base 6.2.1
 _ZN12QSoundEffect16loopCountChangedEv@Base 6.2.1
 _ZN12QSoundEffect16staticMetaObjectE@Base 6.2.1
 _ZN12QSoundEffect18audioDeviceChangedEv@Base 6.2.1
 _ZN12QSoundEffect18supportedMimeTypesEv@Base 6.2.1
 _ZN12QSoundEffect21loopsRemainingChangedEv@Base 6.2.1
 _ZN12QSoundEffect4playEv@Base 6.2.1
 _ZN12QSoundEffect4stopEv@Base 6.2.1
 _ZN12QSoundEffect8setMutedEb@Base 6.2.1
 _ZN12QSoundEffect9setSourceERK4QUrl@Base 6.2.1
 _ZN12QSoundEffect9setVolumeEf@Base 6.2.1
 _ZN12QSoundEffectC1EP7QObject@Base 6.2.1
 _ZN12QSoundEffectC1ERK12QAudioDeviceP7QObject@Base 6.2.1
 _ZN12QSoundEffectC2EP7QObject@Base 6.2.1
 _ZN12QSoundEffectC2ERK12QAudioDeviceP7QObject@Base 6.2.1
 _ZN12QSoundEffectD0Ev@Base 6.2.1
 _ZN12QSoundEffectD1Ev@Base 6.2.1
 _ZN12QSoundEffectD2Ev@Base 6.2.1
 _ZN12QVideoWindow11qt_metacallEN11QMetaObject4CallEiPPv@Base 6.2.1
 _ZN12QVideoWindow11qt_metacastEPKc@Base 6.2.1
 _ZN12QVideoWindow11resizeEventEP12QResizeEvent@Base 6.2.1
 _ZN12QVideoWindow13setVideoFrameERK11QVideoFrame@Base 6.2.1
 _ZN12QVideoWindow16staticMetaObjectE@Base 6.2.1
 _ZN12QVideoWindow18setAspectRatioModeEN2Qt15AspectRatioModeE@Base 6.2.1
 _ZN12QVideoWindow22aspectRatioModeChangedEN2Qt15AspectRatioModeE@Base 6.2.1
 _ZN12QVideoWindow5eventEP6QEvent@Base 6.2.1
 _ZN12QVideoWindowC1EP7QScreen@Base 6.2.1
 _ZN12QVideoWindowC1EP7QWindow@Base 6.2.1
 _ZN12QVideoWindowC2EP7QScreen@Base 6.2.1
 _ZN12QVideoWindowC2EP7QWindow@Base 6.2.1
 _ZN12QVideoWindowD0Ev@Base 6.2.1
 _ZN12QVideoWindowD1Ev@Base 6.2.1
 _ZN12QVideoWindowD2Ev@Base 6.2.1
 _ZN12QWaveDecoder10handleDataEv@Base 6.2.1
 _ZN12QWaveDecoder11formatKnownEv@Base 6.2.1
 _ZN12QWaveDecoder11qt_metacallEN11QMetaObject4CallEiPPv@Base 6.2.1
 _ZN12QWaveDecoder11qt_metacastEPKc@Base 6.2.1
 _ZN12QWaveDecoder11writeHeaderEv@Base 6.2.1
 _ZN12QWaveDecoder12discardBytesEx@Base 6.2.1
 _ZN12QWaveDecoder12headerLengthEv@Base 6.2.1
 _ZN12QWaveDecoder12parsingErrorEv@Base 6.2.1
 _ZN12QWaveDecoder13parsingFailedEv@Base 6.2.1
 _ZN12QWaveDecoder15writeDataLengthEv@Base 6.2.1
 _ZN12QWaveDecoder16staticMetaObjectE@Base 6.2.1
 _ZN12QWaveDecoder19enoughDataAvailableEv@Base 6.2.1
 _ZN12QWaveDecoder4openE6QFlagsIN13QIODeviceBase12OpenModeFlagEE@Base 6.2.1
 _ZN12QWaveDecoder4seekEx@Base 6.2.1
 _ZN12QWaveDecoder5closeEv@Base 6.2.1
 _ZN12QWaveDecoder8readDataEPcx@Base 6.2.1
 _ZN12QWaveDecoder9findChunkEPKc@Base 6.2.1
 _ZN12QWaveDecoder9getDeviceEv@Base 6.2.1
 _ZN12QWaveDecoder9peekChunkEPNS_5chunkEb@Base 6.2.1
 _ZN12QWaveDecoder9writeDataEPKcx@Base 6.2.1
 _ZN12QWaveDecoderC1EP9QIODeviceP7QObject@Base 6.2.1
 _ZN12QWaveDecoderC1EP9QIODeviceRK12QAudioFormatP7QObject@Base 6.2.1
 _ZN12QWaveDecoderC2EP9QIODeviceP7QObject@Base 6.2.1
 _ZN12QWaveDecoderC2EP9QIODeviceRK12QAudioFormatP7QObject@Base 6.2.1
 _ZN12QWaveDecoderD0Ev@Base 6.2.1
 _ZN12QWaveDecoderD1Ev@Base 6.2.1
 _ZN12QWaveDecoderD2Ev@Base 6.2.1
 _ZN13QAudioDecoder11bufferReadyEv@Base 6.2.1
 _ZN13QAudioDecoder11qt_metacallEN11QMetaObject4CallEiPPv@Base 6.2.1
 _ZN13QAudioDecoder11qt_metacastEPKc@Base 6.2.1
 _ZN13QAudioDecoder13formatChangedERK12QAudioFormat@Base 6.2.1
 _ZN13QAudioDecoder13sourceChangedEv@Base 6.2.1
 _ZN13QAudioDecoder14setAudioFormatERK12QAudioFormat@Base 6.2.1
 _ZN13QAudioDecoder15durationChangedEx@Base 6.2.1
 _ZN13QAudioDecoder15positionChangedEx@Base 6.2.1
 _ZN13QAudioDecoder15setSourceDeviceEP9QIODevice@Base 6.2.1
 _ZN13QAudioDecoder16staticMetaObjectE@Base 6.2.1
 _ZN13QAudioDecoder17isDecodingChangedEb@Base 6.2.1
 _ZN13QAudioDecoder22bufferAvailableChangedEb@Base 6.2.1
 _ZN13QAudioDecoder4stopEv@Base 6.2.1
 _ZN13QAudioDecoder5errorENS_5ErrorE@Base 6.2.1
 _ZN13QAudioDecoder5startEv@Base 6.2.1
 _ZN13QAudioDecoder8finishedEv@Base 6.2.1
 _ZN13QAudioDecoder9setSourceERK4QUrl@Base 6.2.1
 _ZN13QAudioDecoderC1EP7QObject@Base 6.2.1
 _ZN13QAudioDecoderC2EP7QObject@Base 6.2.1
 _ZN13QAudioDecoderD0Ev@Base 6.2.1
 _ZN13QAudioDecoderD1Ev@Base 6.2.1
 _ZN13QAudioDecoderD2Ev@Base 6.2.1
 _ZN13QCameraDevice16staticMetaObjectE@Base 6.2.1
 _ZN13QCameraDeviceC1EP20QCameraDevicePrivate@Base 6.2.1
 _ZN13QCameraDeviceC1ERKS_@Base 6.2.1
 _ZN13QCameraDeviceC1Ev@Base 6.2.1
 _ZN13QCameraDeviceC2EP20QCameraDevicePrivate@Base 6.2.1
 _ZN13QCameraDeviceC2ERKS_@Base 6.2.1
 _ZN13QCameraDeviceC2Ev@Base 6.2.1
 _ZN13QCameraDeviceD1Ev@Base 6.2.1
 _ZN13QCameraDeviceD2Ev@Base 6.2.1
 _ZN13QCameraDeviceaSERKS_@Base 6.2.1
 _ZN13QCameraFormat16staticMetaObjectE@Base 6.2.1
 _ZN13QCameraFormatC1EP20QCameraFormatPrivate@Base 6.2.1
 _ZN13QCameraFormatC1ERKS_@Base 6.2.1
 _ZN13QCameraFormatC1Ev@Base 6.2.1
 _ZN13QCameraFormatC2EP20QCameraFormatPrivate@Base 6.2.1
 _ZN13QCameraFormatC2ERKS_@Base 6.2.1
 _ZN13QCameraFormatC2Ev@Base 6.2.1
 _ZN13QCameraFormatD1Ev@Base 6.2.1
 _ZN13QCameraFormatD2Ev@Base 6.2.1
 _ZN13QCameraFormataSERKS_@Base 6.2.1
 _ZN13QImageCapture10imageSavedEiRK7QString@Base 6.2.1
 _ZN13QImageCapture10setQualityENS_7QualityE@Base 6.2.1
 _ZN13QImageCapture11addMetaDataERK14QMediaMetaData@Base 6.2.1
 _ZN13QImageCapture11qt_metacallEN11QMetaObject4CallEiPPv@Base 6.2.1
 _ZN13QImageCapture11qt_metacastEPKc@Base 6.2.1
 _ZN13QImageCapture11setMetaDataERK14QMediaMetaData@Base 6.2.1
 _ZN13QImageCapture12errorChangedEv@Base 6.2.1
 _ZN13QImageCapture12imageExposedEi@Base 6.2.1
 _ZN13QImageCapture13captureToFileERK7QString@Base 6.2.1
 _ZN13QImageCapture13errorOccurredEiNS_5ErrorERK7QString@Base 6.2.1
 _ZN13QImageCapture13imageCapturedEiRK6QImage@Base 6.2.1
 _ZN13QImageCapture13setFileFormatENS_10FileFormatE@Base 6.2.1
 _ZN13QImageCapture13setResolutionERK5QSize@Base 6.2.1
 _ZN13QImageCapture13setResolutionEii@Base 6.2.1
 _ZN13QImageCapture14fileFormatNameENS_10FileFormatE@Base 6.2.1
 _ZN13QImageCapture14imageAvailableEiRK11QVideoFrame@Base 6.2.1
 _ZN13QImageCapture14qualityChangedEv@Base 6.2.1
 _ZN13QImageCapture15metaDataChangedEv@Base 6.2.1
 _ZN13QImageCapture16staticMetaObjectE@Base 6.2.1
 _ZN13QImageCapture16supportedFormatsEv@Base 6.2.1
 _ZN13QImageCapture17fileFormatChangedEv@Base 6.2.1
 _ZN13QImageCapture17resolutionChangedEv@Base 6.2.1
 _ZN13QImageCapture17setCaptureSessionEP20QMediaCaptureSession@Base 6.2.1
 _ZN13QImageCapture20platformImageCaptureEv@Base 6.2.1
 _ZN13QImageCapture21fileFormatDescriptionENS_10FileFormatE@Base 6.2.1
 _ZN13QImageCapture22imageMetadataAvailableEiRK14QMediaMetaData@Base 6.2.1
 _ZN13QImageCapture22readyForCaptureChangedEb@Base 6.2.1
 _ZN13QImageCapture7captureEv@Base 6.2.1
 _ZN13QImageCaptureC1EP7QObject@Base 6.2.1
 _ZN13QImageCaptureC2EP7QObject@Base 6.2.1
 _ZN13QImageCaptureD0Ev@Base 6.2.1
 _ZN13QImageCaptureD1Ev@Base 6.2.1
 _ZN13QImageCaptureD2Ev@Base 6.2.1
 _ZN13QMediaDevices11audioInputsEv@Base 6.2.1
 _ZN13QMediaDevices11qt_metacallEN11QMetaObject4CallEiPPv@Base 6.2.1
 _ZN13QMediaDevices11qt_metacastEPKc@Base 6.2.1
 _ZN13QMediaDevices11videoInputsEv@Base 6.2.1
 _ZN13QMediaDevices12audioOutputsEv@Base 6.2.1
 _ZN13QMediaDevices16staticMetaObjectE@Base 6.2.1
 _ZN13QMediaDevices17defaultAudioInputEv@Base 6.2.1
 _ZN13QMediaDevices17defaultVideoInputEv@Base 6.2.1
 _ZN13QMediaDevices18audioInputsChangedEv@Base 6.2.1
 _ZN13QMediaDevices18defaultAudioOutputEv@Base 6.2.1
 _ZN13QMediaDevices18videoInputsChangedEv@Base 6.2.1
 _ZN13QMediaDevices19audioOutputsChangedEv@Base 6.2.1
 _ZN13QMediaDevicesC1EP7QObject@Base 6.2.1
 _ZN13QMediaDevicesC2EP7QObject@Base 6.2.1
 _ZN13QMediaDevicesD0Ev@Base 6.2.1
 _ZN13QMediaDevicesD1Ev@Base 6.2.1
 _ZN13QMediaDevicesD2Ev@Base 6.2.1
 _ZN13QMetaSequence12MetaSequenceI5QListI12QAudioDeviceEE5valueE@Base 6.2.1
 _ZN13QMetaSequence12MetaSequenceI5QListI13QCameraDeviceEE5valueE@Base 6.2.1
 _ZN13QMetaSequence12MetaSequenceI5QListI13QCameraFormatEE5valueE@Base 6.2.1
 _ZN13QMetaSequence12MetaSequenceI5QListI14QMediaMetaDataEE5valueE@Base 6.2.1
 _ZN13QMetaSequence12MetaSequenceI5QListIN12QMediaFormat10AudioCodecEEE5valueE@Base 6.2.1
 _ZN13QMetaSequence12MetaSequenceI5QListIN12QMediaFormat10FileFormatEEE5valueE@Base 6.2.1
 _ZN13QMetaSequence12MetaSequenceI5QListIN12QMediaFormat10VideoCodecEEE5valueE@Base 6.2.1
 _ZN13QMetaSequence12MetaSequenceI5QListIN14QMediaMetaData3KeyEEE5valueE@Base 6.2.1
 _ZN14QMediaMetaData16staticMetaObjectE@Base 6.2.1
 _ZN14QMediaMetaData19metaDataKeyToStringENS_3KeyE@Base 6.2.1
 _ZN14QMediaRecorder10setQualityENS_7QualityE@Base 6.2.1
 _ZN14QMediaRecorder11addMetaDataERK14QMediaMetaData@Base 6.2.1
 _ZN14QMediaRecorder11qt_metacallEN11QMetaObject4CallEiPPv@Base 6.2.1
 _ZN14QMediaRecorder11qt_metacastEPKc@Base 6.2.1
 _ZN14QMediaRecorder11setMetaDataERK14QMediaMetaData@Base 6.2.1
 _ZN14QMediaRecorder12errorChangedEv@Base 6.2.1
 _ZN14QMediaRecorder13errorOccurredENS_5ErrorERK7QString@Base 6.2.1
 _ZN14QMediaRecorder14qualityChangedEv@Base 6.2.1
 _ZN14QMediaRecorder14setMediaFormatERK12QMediaFormat@Base 6.2.1
 _ZN14QMediaRecorder15durationChangedEx@Base 6.2.1
 _ZN14QMediaRecorder15metaDataChangedEv@Base 6.2.1
 _ZN14QMediaRecorder15setAudioBitRateEi@Base 6.2.1
 _ZN14QMediaRecorder15setEncodingModeENS_12EncodingModeE@Base 6.2.1
 _ZN14QMediaRecorder15setVideoBitRateEi@Base 6.2.1
 _ZN14QMediaRecorder16staticMetaObjectE@Base 6.2.1
 _ZN14QMediaRecorder17setCaptureSessionEP20QMediaCaptureSession@Base 6.2.1
 _ZN14QMediaRecorder17setOutputLocationERK4QUrl@Base 6.2.1
 _ZN14QMediaRecorder17setVideoFrameRateEd@Base 6.2.1
 _ZN14QMediaRecorder18mediaFormatChangedEv@Base 6.2.1
 _ZN14QMediaRecorder18setAudioSampleRateEi@Base 6.2.1
 _ZN14QMediaRecorder18setVideoResolutionERK5QSize@Base 6.2.1
 _ZN14QMediaRecorder19audioBitRateChangedEv@Base 6.2.1
 _ZN14QMediaRecorder19encodingModeChangedEv@Base 6.2.1
 _ZN14QMediaRecorder19videoBitRateChangedEv@Base 6.2.1
 _ZN14QMediaRecorder20recorderStateChangedENS_13RecorderStateE@Base 6.2.1
 _ZN14QMediaRecorder20setAudioChannelCountEi@Base 6.2.1
 _ZN14QMediaRecorder21actualLocationChangedERK4QUrl@Base 6.2.1
 _ZN14QMediaRecorder21videoFrameRateChangedEv@Base 6.2.1
 _ZN14QMediaRecorder22audioSampleRateChangedEv@Base 6.2.1
 _ZN14QMediaRecorder22encoderSettingsChangedEv@Base 6.2.1
 _ZN14QMediaRecorder22videoResolutionChangedEv@Base 6.2.1
 _ZN14QMediaRecorder24audioChannelCountChangedEv@Base 6.2.1
 _ZN14QMediaRecorder4stopEv@Base 6.2.1
 _ZN14QMediaRecorder5pauseEv@Base 6.2.1
 _ZN14QMediaRecorder6recordEv@Base 6.2.1
 _ZN14QMediaRecorderC1EP7QObject@Base 6.2.1
 _ZN14QMediaRecorderC2EP7QObject@Base 6.2.1
 _ZN14QMediaRecorderD0Ev@Base 6.2.1
 _ZN14QMediaRecorderD1Ev@Base 6.2.1
 _ZN14QMediaRecorderD2Ev@Base 6.2.1
 _ZN15QGstVideoBuffer11mapTexturesEv@Base 6.2.1
 _ZN15QGstVideoBuffer3mapEN11QVideoFrame7MapModeE@Base 6.2.1
 _ZN15QGstVideoBuffer5unmapEv@Base 6.2.1
 _ZN15QGstVideoBufferC1EP10_GstBufferRK13_GstVideoInfoP19QGstreamerVideoSinkRK17QVideoFrameFormatN8QGstCaps12MemoryFormatE@Base 6.2.1
 _ZN15QGstVideoBufferC2EP10_GstBufferRK13_GstVideoInfoP19QGstreamerVideoSinkRK17QVideoFrameFormatN8QGstCaps12MemoryFormatE@Base 6.2.1
 _ZN15QGstVideoBufferD0Ev@Base 6.2.1
 _ZN15QGstVideoBufferD1Ev@Base 6.2.1
 _ZN15QGstVideoBufferD2Ev@Base 6.2.1
 _ZN15QMediaTimeRange11addIntervalERKNS_8IntervalE@Base 6.2.1
 _ZN15QMediaTimeRange11addIntervalExx@Base 6.2.1
 _ZN15QMediaTimeRange12addTimeRangeERKS_@Base 6.2.1
 _ZN15QMediaTimeRange14removeIntervalERKNS_8IntervalE@Base 6.2.1
 _ZN15QMediaTimeRange14removeIntervalExx@Base 6.2.1
 _ZN15QMediaTimeRange15removeTimeRangeERKS_@Base 6.2.1
 _ZN15QMediaTimeRange5clearEv@Base 6.2.1
 _ZN15QMediaTimeRange6detachEv@Base 6.2.1
 _ZN15QMediaTimeRangeC1ERKNS_8IntervalE@Base 6.2.1
 _ZN15QMediaTimeRangeC1ERKS_@Base 6.2.1
 _ZN15QMediaTimeRangeC1Ev@Base 6.2.1
 _ZN15QMediaTimeRangeC1Exx@Base 6.2.1
 _ZN15QMediaTimeRangeC2ERKNS_8IntervalE@Base 6.2.1
 _ZN15QMediaTimeRangeC2ERKS_@Base 6.2.1
 _ZN15QMediaTimeRangeC2Ev@Base 6.2.1
 _ZN15QMediaTimeRangeC2Exx@Base 6.2.1
 _ZN15QMediaTimeRangeD1Ev@Base 6.2.1
 _ZN15QMediaTimeRangeD2Ev@Base 6.2.1
 _ZN15QMediaTimeRangeaSERKNS_8IntervalE@Base 6.2.1
 _ZN15QMediaTimeRangeaSERKS_@Base 6.2.1
 _ZN15QMediaTimeRangemIERKNS_8IntervalE@Base 6.2.1
 _ZN15QMediaTimeRangemIERKS_@Base 6.2.1
 _ZN15QMediaTimeRangepLERKNS_8IntervalE@Base 6.2.1
 _ZN15QMediaTimeRangepLERKS_@Base 6.2.1
 _ZN15QPlatformCamera11qt_metacallEN11QMetaObject4CallEiPPv@Base 6.2.1
 _ZN15QPlatformCamera11qt_metacastEPKc@Base 6.2.1
 _ZN15QPlatformCamera13activeChangedEb@Base 6.2.1
 _ZN15QPlatformCamera16flashModeChangedEN7QCamera9FlashModeE@Base 6.2.1
 _ZN15QPlatformCamera16focusModeChangedEN7QCamera9FocusModeE@Base 6.2.1
 _ZN15QPlatformCamera16staticMetaObjectE@Base 6.2.1
 _ZN15QPlatformCamera16torchModeChangedEN7QCamera9TorchModeE@Base 6.2.1
 _ZN15QPlatformCamera17flashReadyChangedEb@Base 6.2.1
 _ZN15QPlatformCamera17zoomFactorChangedEf@Base 6.2.1
 _ZN15QPlatformCamera19exposureModeChangedEN7QCamera12ExposureModeE@Base 6.2.1
 _ZN15QPlatformCamera19exposureTimeChangedEf@Base 6.2.1
 _ZN15QPlatformCamera20findBestCameraFormatERK13QCameraDevice@Base 6.2.1
 _ZN15QPlatformCamera20focusDistanceChangedEf@Base 6.2.1
 _ZN15QPlatformCamera21isoSensitivityChangedEi@Base 6.2.1
 _ZN15QPlatformCamera23colorTemperatureChangedEi@Base 6.2.1
 _ZN15QPlatformCamera23customFocusPointChangedERK7QPointF@Base 6.2.1
 _ZN15QPlatformCamera23whiteBalanceModeChangedEN7QCamera16WhiteBalanceModeE@Base 6.2.1
 _ZN15QPlatformCamera24maximumZoomFactorChangedEf@Base 6.2.1
 _ZN15QPlatformCamera24minimumZoomFactorChangedEf@Base 6.2.1
 _ZN15QPlatformCamera24supportedFeaturesChangedE6QFlagsIN7QCamera7FeatureEE@Base 6.2.1
 _ZN15QPlatformCamera27exposureCompensationChangedEf@Base 6.2.1
 _ZN15QPlatformCamera31colorTemperatureForWhiteBalanceEN7QCamera16WhiteBalanceModeE@Base 6.2.1
 _ZN15QPlatformCamera32exposureCompensationRangeChangedEff@Base 6.2.1
 _ZN15QPlatformCamera5errorEiRK7QString@Base 6.2.1
 _ZN15QPlatformCameraC1EP7QCamera@Base 6.2.1
 _ZN15QPlatformCameraC2EP7QCamera@Base 6.2.1
 _ZN16QGstSubtitleSink10class_initEPvS0_@Base 6.2.1
 _ZN16QGstSubtitleSink10createSinkEP19QGstreamerVideoSink@Base 6.2.1
 _ZN16QGstSubtitleSink10wait_eventEP12_GstBaseSinkP9_GstEvent@Base 6.2.1
 _ZN16QGstSubtitleSink12change_stateEP11_GstElement14GstStateChange@Base 6.2.1
 _ZN16QGstSubtitleSink13instance_initEP14_GTypeInstancePv@Base 6.2.1
 _ZN16QGstSubtitleSink18propose_allocationEP12_GstBaseSinkP9_GstQuery@Base 6.2.1
 _ZN16QGstSubtitleSink6renderEP12_GstBaseSinkP10_GstBuffer@Base 6.2.1
 _ZN16QGstSubtitleSink8finalizeEP8_GObject@Base 6.2.1
 _ZN16QGstSubtitleSink8get_capsEP12_GstBaseSinkP8_GstCaps@Base 6.2.1
 _ZN16QGstSubtitleSink8get_typeEv@Base 6.2.1
 _ZN16QGstSubtitleSink8set_capsEP12_GstBaseSinkP8_GstCaps@Base 6.2.1
 _ZN16QGstSubtitleSink9base_initEPv@Base 6.2.1
 _ZN17QGstreamerMessageC1EP11_GstMessage@Base 6.2.1
 _ZN17QGstreamerMessageC1ERK13QGstStructure@Base 6.2.1
 _ZN17QGstreamerMessageC1ERKS_@Base 6.2.1
 _ZN17QGstreamerMessageC2EP11_GstMessage@Base 6.2.1
 _ZN17QGstreamerMessageC2ERK13QGstStructure@Base 6.2.1
 _ZN17QGstreamerMessageC2ERKS_@Base 6.2.1
 _ZN17QGstreamerMessageD1Ev@Base 6.2.1
 _ZN17QGstreamerMessageD2Ev@Base 6.2.1
 _ZN17QGstreamerMessageaSERKS_@Base 6.2.1
 _ZN17QVideoFrameFormat11setMirroredEb@Base 6.2.1
 _ZN17QVideoFrameFormat11setViewportERK5QRect@Base 6.2.1
 _ZN17QVideoFrameFormat12setFrameRateEd@Base 6.2.1
 _ZN17QVideoFrameFormat12setFrameSizeERK5QSize@Base 6.2.1
 _ZN17QVideoFrameFormat12setFrameSizeEii@Base 6.2.1
 _ZN17QVideoFrameFormat18setYCbCrColorSpaceENS_15YCbCrColorSpaceE@Base 6.2.1
 _ZN17QVideoFrameFormat19pixelFormatToStringENS_11PixelFormatE@Base 6.2.1
 _ZN17QVideoFrameFormat20setScanLineDirectionENS_9DirectionE@Base 6.2.1
 _ZN17QVideoFrameFormat26imageFormatFromPixelFormatENS_11PixelFormatE@Base 6.2.1
 _ZN17QVideoFrameFormat26pixelFormatFromImageFormatEN6QImage6FormatE@Base 6.2.1
 _ZN17QVideoFrameFormat6detachEv@Base 6.2.1
 _ZN17QVideoFrameFormatC1ERK5QSizeNS_11PixelFormatE@Base 6.2.1
 _ZN17QVideoFrameFormatC1ERKS_@Base 6.2.1
 _ZN17QVideoFrameFormatC1Ev@Base 6.2.1
 _ZN17QVideoFrameFormatC2ERK5QSizeNS_11PixelFormatE@Base 6.2.1
 _ZN17QVideoFrameFormatC2ERKS_@Base 6.2.1
 _ZN17QVideoFrameFormatC2Ev@Base 6.2.1
 _ZN17QVideoFrameFormatD1Ev@Base 6.2.1
 _ZN17QVideoFrameFormatD2Ev@Base 6.2.1
 _ZN17QVideoFrameFormataSERKS_@Base 6.2.1
 _ZN18QMemoryVideoBuffer3mapEN11QVideoFrame7MapModeE@Base 6.2.1
 _ZN18QMemoryVideoBuffer5unmapEv@Base 6.2.1
 _ZN18QMemoryVideoBufferC1ERK10QByteArrayi@Base 6.2.1
 _ZN18QMemoryVideoBufferC2ERK10QByteArrayi@Base 6.2.1
 _ZN18QMemoryVideoBufferD0Ev@Base 6.2.1
 _ZN18QMemoryVideoBufferD1Ev@Base 6.2.1
 _ZN18QMemoryVideoBufferD2Ev@Base 6.2.1
 _ZN18QPlatformVideoSink11qt_metacallEN11QMetaObject4CallEiPPv@Base 6.2.1
 _ZN18QPlatformVideoSink11qt_metacastEPKc@Base 6.2.1
 _ZN18QPlatformVideoSink16staticMetaObjectE@Base 6.2.1
 _ZN18QPlatformVideoSinkC1EP10QVideoSink@Base 6.2.1
 _ZN18QPlatformVideoSinkC2EP10QVideoSink@Base 6.2.1
 _ZN19QGstreamerVideoSink11qt_metacallEN11QMetaObject4CallEiPPv@Base 6.2.1
 _ZN19QGstreamerVideoSink11qt_metacastEPKc@Base 6.2.1
 _ZN19QGstreamerVideoSink11setPipelineE12QGstPipeline@Base 6.2.1
 _ZN19QGstreamerVideoSink12createQtSinkEv@Base 6.2.1
 _ZN19QGstreamerVideoSink16staticMetaObjectE@Base 6.2.1
 _ZN19QGstreamerVideoSink16unrefGstContextsEv@Base 6.2.1
 _ZN19QGstreamerVideoSink17updateGstContextsEv@Base 6.2.1
 _ZN19QGstreamerVideoSink17updateSinkElementEv@Base 6.2.1
 _ZN19QGstreamerVideoSink6setRhiEP4QRhi@Base 6.2.1
 _ZN19QGstreamerVideoSink7gstSinkEv@Base 6.2.1
 _ZN19QGstreamerVideoSinkC1EP10QVideoSink@Base 6.2.1
 _ZN19QGstreamerVideoSinkC2EP10QVideoSink@Base 6.2.1
 _ZN19QGstreamerVideoSinkD0Ev@Base 6.2.1
 _ZN19QGstreamerVideoSinkD1Ev@Base 6.2.1
 _ZN19QGstreamerVideoSinkD2Ev@Base 6.2.1
 _ZN19QVideoTextureHelper14SubtitleLayout20updateFromVideoFrameERK11QVideoFrame@Base 6.2.1
 _ZN19QVideoTextureHelper17updateRhiTexturesE11QVideoFrameP4QRhiP23QRhiResourceUpdateBatchPP11QRhiTexture@Base 6.2.1
 _ZN19QVideoTextureHelper17updateUniformDataEP10QByteArrayRK17QVideoFrameFormatRK11QVideoFrameRK10QMatrix4x4f@Base 6.2.1
 _ZN19QVideoTextureHelper18textureDescriptionEN17QVideoFrameFormat11PixelFormatE@Base 6.2.1
 _ZN19QVideoTextureHelper20vertexShaderFileNameEN17QVideoFrameFormat11PixelFormatE@Base 6.2.1
 _ZN19QVideoTextureHelper22fragmentShaderFileNameEN17QVideoFrameFormat11PixelFormatE@Base 6.2.1
 _ZN20QAbstractVideoBufferC1EN11QVideoFrame10HandleTypeEP4QRhi@Base 6.2.1
 _ZN20QAbstractVideoBufferC2EN11QVideoFrame10HandleTypeEP4QRhi@Base 6.2.1
 _ZN20QAbstractVideoBufferD0Ev@Base 6.2.1
 _ZN20QAbstractVideoBufferD1Ev@Base 6.2.1
 _ZN20QAbstractVideoBufferD2Ev@Base 6.2.1
 _ZN20QGstreamerAudioInput11qt_metacallEN11QMetaObject4CallEiPPv@Base 6.2.1
 _ZN20QGstreamerAudioInput11qt_metacastEPKc@Base 6.2.1
 _ZN20QGstreamerAudioInput12mutedChangedEb@Base 6.2.1
 _ZN20QGstreamerAudioInput13volumeChangedEi@Base 6.2.1
 _ZN20QGstreamerAudioInput14setAudioDeviceERK12QAudioDevice@Base 6.2.1
 _ZN20QGstreamerAudioInput16staticMetaObjectE@Base 6.2.1
 _ZN20QGstreamerAudioInput8setMutedEb@Base 6.2.1
 _ZN20QGstreamerAudioInput9setVolumeEf@Base 6.2.1
 _ZN20QGstreamerAudioInputC1EP11QAudioInput@Base 6.2.1
 _ZN20QGstreamerAudioInputC2EP11QAudioInput@Base 6.2.1
 _ZN20QGstreamerAudioInputD0Ev@Base 6.2.1
 _ZN20QGstreamerAudioInputD1Ev@Base 6.2.1
 _ZN20QGstreamerAudioInputD2Ev@Base 6.2.1
 _ZN20QMediaCaptureSession11qt_metacallEN11QMetaObject4CallEiPPv@Base 6.2.1
 _ZN20QMediaCaptureSession11qt_metacastEPKc@Base 6.2.1
 _ZN20QMediaCaptureSession11setRecorderEP14QMediaRecorder@Base 6.2.1
 _ZN20QMediaCaptureSession12imageCaptureEv@Base 6.2.1
 _ZN20QMediaCaptureSession12setVideoSinkEP10QVideoSink@Base 6.2.1
 _ZN20QMediaCaptureSession13cameraChangedEv@Base 6.2.1
 _ZN20QMediaCaptureSession13setAudioInputEP11QAudioInput@Base 6.2.1
 _ZN20QMediaCaptureSession14setAudioOutputEP12QAudioOutput@Base 6.2.1
 _ZN20QMediaCaptureSession14setVideoOutputEP7QObject@Base 6.2.1
 _ZN20QMediaCaptureSession15recorderChangedEv@Base 6.2.1
 _ZN20QMediaCaptureSession15setImageCaptureEP13QImageCapture@Base 6.2.1
 _ZN20QMediaCaptureSession16staticMetaObjectE@Base 6.2.1
 _ZN20QMediaCaptureSession17audioInputChangedEv@Base 6.2.1
 _ZN20QMediaCaptureSession18audioOutputChangedEv@Base 6.2.1
 _ZN20QMediaCaptureSession18videoOutputChangedEv@Base 6.2.1
 _ZN20QMediaCaptureSession19imageCaptureChangedEv@Base 6.2.1
 _ZN20QMediaCaptureSession8recorderEv@Base 6.2.1
 _ZN20QMediaCaptureSession9setCameraEP7QCamera@Base 6.2.1
 _ZN20QMediaCaptureSessionC1EP7QObject@Base 6.2.1
 _ZN20QMediaCaptureSessionC2EP7QObject@Base 6.2.1
 _ZN20QMediaCaptureSessionD0Ev@Base 6.2.1
 _ZN20QMediaCaptureSessionD1Ev@Base 6.2.1
 _ZN20QMediaCaptureSessionD2Ev@Base 6.2.1
 _ZN20QPlatformMediaPlayer12stateChangedEN12QMediaPlayer13PlaybackStateE@Base 6.2.1
 _ZN20QPlatformMediaPlayer18mediaStatusChangedEN12QMediaPlayer11MediaStatusE@Base 6.2.1
 _ZN20QPlatformMediaPlayer5errorEiRK7QString@Base 6.2.1
 _ZN20QPlatformMediaPlayerD0Ev@Base 6.2.1
 _ZN20QPlatformMediaPlayerD1Ev@Base 6.2.1
 _ZN20QPlatformMediaPlayerD2Ev@Base 6.2.1
 _ZN21QGstVideoRendererSink10class_initEPvS0_@Base 6.2.1
 _ZN21QGstVideoRendererSink10createSinkEP19QGstreamerVideoSink@Base 6.2.1
 _ZN21QGstVideoRendererSink10show_frameEP13_GstVideoSinkP10_GstBuffer@Base 6.2.1
 _ZN21QGstVideoRendererSink12change_stateEP11_GstElement14GstStateChange@Base 6.2.1
 _ZN21QGstVideoRendererSink13instance_initEP14_GTypeInstancePv@Base 6.2.1
 _ZN21QGstVideoRendererSink18propose_allocationEP12_GstBaseSinkP9_GstQuery@Base 6.2.1
 _ZN21QGstVideoRendererSink23handleShowPrerollChangeEP8_GObjectP11_GParamSpecPv@Base 6.2.1
 _ZN21QGstVideoRendererSink4stopEP12_GstBaseSink@Base 6.2.1
 _ZN21QGstVideoRendererSink5queryEP12_GstBaseSinkP9_GstQuery@Base 6.2.1
 _ZN21QGstVideoRendererSink6unlockEP12_GstBaseSink@Base 6.2.1
 _ZN21QGstVideoRendererSink7setSinkEP19QGstreamerVideoSink@Base 6.2.1
 _ZN21QGstVideoRendererSink8finalizeEP8_GObject@Base 6.2.1
 _ZN21QGstVideoRendererSink8get_capsEP12_GstBaseSinkP8_GstCaps@Base 6.2.1
 _ZN21QGstVideoRendererSink8get_typeEv@Base 6.2.1
 _ZN21QGstVideoRendererSink8set_capsEP12_GstBaseSinkP8_GstCaps@Base 6.2.1
 _ZN21QGstVideoRendererSink9base_initEPv@Base 6.2.1
 _ZN21QGstreamerAudioOutput11qt_metacallEN11QMetaObject4CallEiPPv@Base 6.2.1
 _ZN21QGstreamerAudioOutput11qt_metacastEPKc@Base 6.2.1
 _ZN21QGstreamerAudioOutput11setPipelineERK12QGstPipeline@Base 6.2.1
 _ZN21QGstreamerAudioOutput12mutedChangedEb@Base 6.2.1
 _ZN21QGstreamerAudioOutput13volumeChangedEi@Base 6.2.1
 _ZN21QGstreamerAudioOutput14setAudioDeviceERK12QAudioDevice@Base 6.2.1
 _ZN21QGstreamerAudioOutput16staticMetaObjectE@Base 6.2.1
 _ZN21QGstreamerAudioOutput8setMutedEb@Base 6.2.1
 _ZN21QGstreamerAudioOutput9setVolumeEf@Base 6.2.1
 _ZN21QGstreamerAudioOutputC1EP12QAudioOutput@Base 6.2.1
 _ZN21QGstreamerAudioOutputC2EP12QAudioOutput@Base 6.2.1
 _ZN21QGstreamerAudioOutputD0Ev@Base 6.2.1
 _ZN21QGstreamerAudioOutputD1Ev@Base 6.2.1
 _ZN21QGstreamerAudioOutputD2Ev@Base 6.2.1
 _ZN21QGstreamerBufferProbe11bufferProbeEP7_GstPadP16_GstPadProbeInfoPv@Base 6.2.1
 _ZN21QGstreamerBufferProbe11probeBufferEP10_GstBuffer@Base 6.2.1
 _ZN21QGstreamerBufferProbe13addProbeToPadEP7_GstPadb@Base 6.2.1
 _ZN21QGstreamerBufferProbe18removeProbeFromPadEP7_GstPad@Base 6.2.1
 _ZN21QGstreamerBufferProbe9capsProbeEP7_GstPadP16_GstPadProbeInfoPv@Base 6.2.1
 _ZN21QGstreamerBufferProbe9probeCapsEP8_GstCaps@Base 6.2.1
 _ZN21QGstreamerBufferProbeC1ENS_5FlagsE@Base 6.2.1
 _ZN21QGstreamerBufferProbeC2ENS_5FlagsE@Base 6.2.1
 _ZN21QGstreamerBufferProbeD0Ev@Base 6.2.1
 _ZN21QGstreamerBufferProbeD1Ev@Base 6.2.1
 _ZN21QGstreamerBufferProbeD2Ev@Base 6.2.1
 _ZN21QGstreamerMediaPlayer10trackCountEN20QPlatformMediaPlayer9TrackTypeE@Base 6.2.1
 _ZN21QGstreamerMediaPlayer11activeTrackEN20QPlatformMediaPlayer9TrackTypeE@Base 6.2.1
 _ZN21QGstreamerMediaPlayer11qt_metacallEN11QMetaObject4CallEiPPv@Base 6.2.1
 _ZN21QGstreamerMediaPlayer11qt_metacastEPKc@Base 6.2.1
 _ZN21QGstreamerMediaPlayer11setPositionEx@Base 6.2.1
 _ZN21QGstreamerMediaPlayer12removeOutputERNS_13TrackSelectorE@Base 6.2.1
 _ZN21QGstreamerMediaPlayer12setVideoSinkEP10QVideoSink@Base 6.2.1
 _ZN21QGstreamerMediaPlayer13TrackSelector14createInputPadEv@Base 6.2.1
 _ZN21QGstreamerMediaPlayer13TrackSelector14removeInputPadE7QGstPad@Base 6.2.1
 _ZN21QGstreamerMediaPlayer13TrackSelector18removeAllInputPadsEv@Base 6.2.1
 _ZN21QGstreamerMediaPlayer13TrackSelector8inputPadEi@Base 6.2.1
 _ZN21QGstreamerMediaPlayer13TrackSelectorC1EN20QPlatformMediaPlayer9TrackTypeEPKc@Base 6.2.1
 _ZN21QGstreamerMediaPlayer13TrackSelectorC2EN20QPlatformMediaPlayer9TrackTypeEPKc@Base 6.2.1
 _ZN21QGstreamerMediaPlayer13connectOutputERNS_13TrackSelectorE@Base 6.2.1
 _ZN21QGstreamerMediaPlayer13trackMetaDataEN20QPlatformMediaPlayer9TrackTypeEi@Base 6.2.1
 _ZN21QGstreamerMediaPlayer13trackSelectorEN20QPlatformMediaPlayer9TrackTypeE@Base 6.2.1
 _ZN21QGstreamerMediaPlayer14setActiveTrackEN20QPlatformMediaPlayer9TrackTypeEi@Base 6.2.1
 _ZN21QGstreamerMediaPlayer14setAudioOutputEP20QPlatformAudioOutput@Base 6.2.1
 _ZN21QGstreamerMediaPlayer15decoderPadAddedERK11QGstElementRK7QGstPad@Base 6.2.1
 _ZN21QGstreamerMediaPlayer15setPlaybackRateEd@Base 6.2.1
 _ZN21QGstreamerMediaPlayer16removeAllOutputsEv@Base 6.2.1
 _ZN21QGstreamerMediaPlayer16staticMetaObjectE@Base 6.2.1
 _ZN21QGstreamerMediaPlayer17decoderPadRemovedERK11QGstElementRK7QGstPad@Base 6.2.1
 _ZN21QGstreamerMediaPlayer17processBusMessageERK17QGstreamerMessage@Base 6.2.1
 _ZN21QGstreamerMediaPlayer18processSyncMessageERK17QGstreamerMessage@Base 6.2.1
 _ZN21QGstreamerMediaPlayer23parseStreamsAndMetadataEv@Base 6.2.1
 _ZN21QGstreamerMediaPlayer32uridecodebinElementAddedCallbackEP11_GstElementS1_PS_@Base 6.2.1
 _ZN21QGstreamerMediaPlayer4playEv@Base 6.2.1
 _ZN21QGstreamerMediaPlayer4stopEv@Base 6.2.1
 _ZN21QGstreamerMediaPlayer5pauseEv@Base 6.2.1
 _ZN21QGstreamerMediaPlayer8setMediaERK4QUrlP9QIODevice@Base 6.2.1
 _ZN21QGstreamerMediaPlayer9stopOrEOSEb@Base 6.2.1
 _ZN21QGstreamerMediaPlayerC1EP12QMediaPlayer@Base 6.2.1
 _ZN21QGstreamerMediaPlayerC2EP12QMediaPlayer@Base 6.2.1
 _ZN21QGstreamerMediaPlayerD0Ev@Base 6.2.1
 _ZN21QGstreamerMediaPlayerD1Ev@Base 6.2.1
 _ZN21QGstreamerMediaPlayerD2Ev@Base 6.2.1
 _ZN21QGstreamerVideoOutput11qt_metacallEN11QMetaObject4CallEiPPv@Base 6.2.1
 _ZN21QGstreamerVideoOutput11qt_metacastEPKc@Base 6.2.1
 _ZN21QGstreamerVideoOutput11setPipelineERK12QGstPipeline@Base 6.2.1
 _ZN21QGstreamerVideoOutput12setIsPreviewEv@Base 6.2.1
 _ZN21QGstreamerVideoOutput12setVideoSinkEP10QVideoSink@Base 6.2.1
 _ZN21QGstreamerVideoOutput14flushSubtitlesEv@Base 6.2.1
 _ZN21QGstreamerVideoOutput16staticMetaObjectE@Base 6.2.1
 _ZN21QGstreamerVideoOutput18linkSubtitleStreamE11QGstElement@Base 6.2.1
 _ZN21QGstreamerVideoOutput20doLinkSubtitleStreamEv@Base 6.2.1
 _ZN21QGstreamerVideoOutputC1EP7QObject@Base 6.2.1
 _ZN21QGstreamerVideoOutputC2EP7QObject@Base 6.2.1
 _ZN21QGstreamerVideoOutputD0Ev@Base 6.2.1
 _ZN21QGstreamerVideoOutputD1Ev@Base 6.2.1
 _ZN21QGstreamerVideoOutputD2Ev@Base 6.2.1
 _ZN21QPlatformAudioDecoder11bufferReadyEv@Base 6.2.1
 _ZN21QPlatformAudioDecoder11qt_metacallEN11QMetaObject4CallEiPPv@Base 6.2.1
 _ZN21QPlatformAudioDecoder11qt_metacastEPKc@Base 6.2.1
 _ZN21QPlatformAudioDecoder13formatChangedERK12QAudioFormat@Base 6.2.1
 _ZN21QPlatformAudioDecoder13sourceChangedEv@Base 6.2.1
 _ZN21QPlatformAudioDecoder15durationChangedEx@Base 6.2.1
 _ZN21QPlatformAudioDecoder15positionChangedEx@Base 6.2.1
 _ZN21QPlatformAudioDecoder16staticMetaObjectE@Base 6.2.1
 _ZN21QPlatformAudioDecoder22bufferAvailableChangedEb@Base 6.2.1
 _ZN21QPlatformAudioDecoder5errorEiRK7QString@Base 6.2.1
 _ZN21QPlatformAudioDecoder8finishedEv@Base 6.2.1
 _ZN21QPlatformAudioDecoderC1EP13QAudioDecoder@Base 6.2.1
 _ZN21QPlatformAudioDecoderC2EP13QAudioDecoder@Base 6.2.1
 _ZN21QPlatformImageCapture10imageSavedEiRK7QString@Base 6.2.1
 _ZN21QPlatformImageCapture11qt_metacallEN11QMetaObject4CallEiPPv@Base 6.2.1
 _ZN21QPlatformImageCapture11qt_metacastEPKc@Base 6.2.1
 _ZN21QPlatformImageCapture12imageExposedEi@Base 6.2.1
 _ZN21QPlatformImageCapture13imageCapturedEiRK6QImage@Base 6.2.1
 _ZN21QPlatformImageCapture14imageAvailableEiRK11QVideoFrame@Base 6.2.1
 _ZN21QPlatformImageCapture16staticMetaObjectE@Base 6.2.1
 _ZN21QPlatformImageCapture17msgCameraNotReadyEv@Base 6.2.1
 _ZN21QPlatformImageCapture21msgImageCaptureNotSetEv@Base 6.2.1
 _ZN21QPlatformImageCapture22imageMetadataAvailableEiRK14QMediaMetaData@Base 6.2.1
 _ZN21QPlatformImageCapture22readyForCaptureChangedEb@Base 6.2.1
 _ZN21QPlatformImageCapture5errorEiiRK7QString@Base 6.2.1
 _ZN21QPlatformImageCaptureC1EP13QImageCapture@Base 6.2.1
 _ZN21QPlatformImageCaptureC2EP13QImageCapture@Base 6.2.1
 _ZN21QPlatformMediaDevices16audioInputDeviceERK12QAudioFormatRK12QAudioDevice@Base 6.2.1
 _ZN21QPlatformMediaDevices17audioOutputDeviceERK12QAudioFormatRK12QAudioDevice@Base 6.2.1
 _ZN21QPlatformMediaDevicesC1Ev@Base 6.2.1
 _ZN21QPlatformMediaDevicesC2Ev@Base 6.2.1
 _ZN21QPlatformMediaDevicesD0Ev@Base 6.2.1
 _ZN21QPlatformMediaDevicesD1Ev@Base 6.2.1
 _ZN21QPlatformMediaDevicesD2Ev@Base 6.2.1
 _ZN22QGstreamerVideoOverlay11qt_metacallEN11QMetaObject4CallEiPPv@Base 6.2.1
 _ZN22QGstreamerVideoOverlay11qt_metacastEPKc@Base 6.2.1
 _ZN22QGstreamerVideoOverlay12setVideoSinkE11QGstElement@Base 6.2.1
 _ZN22QGstreamerVideoOverlay13activeChangedEv@Base 6.2.1
 _ZN22QGstreamerVideoOverlay13setFullScreenEb@Base 6.2.1
 _ZN22QGstreamerVideoOverlay15applyRenderRectEv@Base 6.2.1
 (subst)_ZN22QGstreamerVideoOverlay15setWindowHandleE{quintptr}@Base 6.2.1
 _ZN22QGstreamerVideoOverlay16staticMetaObjectE@Base 6.2.1
 _ZN22QGstreamerVideoOverlay18processSyncMessageERK17QGstreamerMessage@Base 6.2.1
 _ZN22QGstreamerVideoOverlay18setAspectRatioModeEN2Qt15AspectRatioModeE@Base 6.2.1
 _ZN22QGstreamerVideoOverlay18setRenderRectangleERK5QRect@Base 6.2.1
 _ZN22QGstreamerVideoOverlay22nativeVideoSizeChangedEv@Base 6.2.1
 _ZN22QGstreamerVideoOverlay9probeCapsEP8_GstCaps@Base 6.2.1
 _ZN22QGstreamerVideoOverlayC1EP19QGstreamerVideoSinkRK10QByteArray@Base 6.2.1
 _ZN22QGstreamerVideoOverlayC2EP19QGstreamerVideoSinkRK10QByteArray@Base 6.2.1
 _ZN22QGstreamerVideoOverlayD0Ev@Base 6.2.1
 _ZN22QGstreamerVideoOverlayD1Ev@Base 6.2.1
 _ZN22QGstreamerVideoOverlayD2Ev@Base 6.2.1
 _ZN22QPlatformMediaRecorder12stateChangedEN14QMediaRecorder13RecorderStateE@Base 6.2.1
 _ZN22QPlatformMediaRecorder15durationChangedEx@Base 6.2.1
 _ZN22QPlatformMediaRecorder15metaDataChangedEv@Base 6.2.1
 _ZN22QPlatformMediaRecorder21actualLocationChangedERK4QUrl@Base 6.2.1
 _ZN22QPlatformMediaRecorder5errorEN14QMediaRecorder5ErrorERK7QString@Base 6.2.1
 _ZN22QPlatformMediaRecorder5pauseEv@Base 6.2.1
 _ZN22QPlatformMediaRecorder6resumeEv@Base 6.2.1
 _ZN22QPlatformMediaRecorderC1EP14QMediaRecorder@Base 6.2.1
 _ZN22QPlatformMediaRecorderC2EP14QMediaRecorder@Base 6.2.1
 _ZN24QPlatformMediaFormatInfoC1Ev@Base 6.2.1
 _ZN24QPlatformMediaFormatInfoC2Ev@Base 6.2.1
 _ZN24QPlatformMediaFormatInfoD0Ev@Base 6.2.1
 _ZN24QPlatformMediaFormatInfoD1Ev@Base 6.2.1
 _ZN24QPlatformMediaFormatInfoD2Ev@Base 6.2.1
 _ZN25QPlatformMediaIntegration14setIntegrationEPS_@Base 6.2.1
 _ZN25QPlatformMediaIntegration16createAudioInputEP11QAudioInput@Base 6.2.1
 _ZN25QPlatformMediaIntegration17createAudioOutputEP12QAudioOutput@Base 6.2.1
 _ZN25QPlatformMediaIntegration8instanceEv@Base 6.2.1
 _ZN25QPlatformMediaIntegrationD0Ev@Base 6.2.1
 _ZN25QPlatformMediaIntegrationD1Ev@Base 6.2.1
 _ZN25QPlatformMediaIntegrationD2Ev@Base 6.2.1
 (optional=templinst)_ZN28QExplicitlySharedDataPointerI18QVideoFramePrivateED1Ev@Base 6.2.1
 (optional=templinst)_ZN28QExplicitlySharedDataPointerI18QVideoFramePrivateED2Ev@Base 6.2.1
 (optional=templinst)_ZN28QExplicitlySharedDataPointerI19QAudioBufferPrivateED1Ev@Base 6.2.1
 (optional=templinst)_ZN28QExplicitlySharedDataPointerI19QAudioBufferPrivateED2Ev@Base 6.2.1
 (optional=templinst)_ZN28QExplicitlySharedDataPointerI19QAudioDevicePrivateED1Ev@Base 6.2.1
 (optional=templinst)_ZN28QExplicitlySharedDataPointerI19QAudioDevicePrivateED2Ev@Base 6.2.1
 (optional=templinst)_ZN28QExplicitlySharedDataPointerI19QMediaFormatPrivateED1Ev@Base 6.2.1
 (optional=templinst)_ZN28QExplicitlySharedDataPointerI19QMediaFormatPrivateED2Ev@Base 6.2.1
 (optional=templinst)_ZN28QExplicitlySharedDataPointerI22QMediaTimeRangePrivateED1Ev@Base 6.2.1
 (optional=templinst)_ZN28QExplicitlySharedDataPointerI22QMediaTimeRangePrivateED2Ev@Base 6.2.1
 (optional=templinst)_ZN28QExplicitlySharedDataPointerI24QVideoFrameFormatPrivateED1Ev@Base 6.2.1
 (optional=templinst)_ZN28QExplicitlySharedDataPointerI24QVideoFrameFormatPrivateED2Ev@Base 6.2.1
 _ZN28QPlatformMediaCaptureSession11qt_metacallEN11QMetaObject4CallEiPPv@Base 6.2.1
 _ZN28QPlatformMediaCaptureSession11qt_metacastEPKc@Base 6.2.1
 _ZN28QPlatformMediaCaptureSession13cameraChangedEv@Base 6.2.1
 _ZN28QPlatformMediaCaptureSession14encoderChangedEv@Base 6.2.1
 _ZN28QPlatformMediaCaptureSession16staticMetaObjectE@Base 6.2.1
 _ZN28QPlatformMediaCaptureSession19imageCaptureChangedEv@Base 6.2.1
 _ZN28QPlatformMediaCaptureSessionD0Ev@Base 6.2.1
 _ZN28QPlatformMediaCaptureSessionD1Ev@Base 6.2.1
 _ZN28QPlatformMediaCaptureSessionD2Ev@Base 6.2.1
 _ZN30QVideoOutputOrientationHandler11qt_metacallEN11QMetaObject4CallEiPPv@Base 6.2.1
 _ZN30QVideoOutputOrientationHandler11qt_metacastEPKc@Base 6.2.1
 _ZN30QVideoOutputOrientationHandler13m_isRecordingE@Base 6.2.1
 _ZN30QVideoOutputOrientationHandler16staticMetaObjectE@Base 6.2.1
 _ZN30QVideoOutputOrientationHandler18orientationChangedEi@Base 6.2.1
 _ZN30QVideoOutputOrientationHandler24screenOrientationChangedEN2Qt17ScreenOrientationE@Base 6.2.1
 _ZN30QVideoOutputOrientationHandlerC1EP7QObject@Base 6.2.1
 _ZN30QVideoOutputOrientationHandlerC2EP7QObject@Base 6.2.1
 _ZN6QAudio13convertVolumeEfNS_11VolumeScaleES0_@Base 6.2.1
 _ZN7QCamera10flashReadyEb@Base 6.2.1
 _ZN7QCamera10hueChangedEv@Base 6.2.1
 _ZN7QCamera11qt_metacallEN11QMetaObject4CallEiPPv@Base 6.2.1
 _ZN7QCamera11qt_metacastEPKc@Base 6.2.1
 _ZN7QCamera12errorChangedEv@Base 6.2.1
 _ZN7QCamera12setFlashModeENS_9FlashModeE@Base 6.2.1
 _ZN7QCamera12setFocusModeENS_9FocusModeE@Base 6.2.1
 _ZN7QCamera12setTorchModeENS_9TorchModeE@Base 6.2.1
 _ZN7QCamera13activeChangedEb@Base 6.2.1
 _ZN7QCamera13errorOccurredENS_5ErrorERK7QString@Base 6.2.1
 _ZN7QCamera13setZoomFactorEf@Base 6.2.1
 _ZN7QCamera14platformCameraEv@Base 6.2.1
 _ZN7QCamera15contrastChangedEv@Base 6.2.1
 _ZN7QCamera15setCameraDeviceERK13QCameraDevice@Base 6.2.1
 _ZN7QCamera15setCameraFormatERK13QCameraFormat@Base 6.2.1
 _ZN7QCamera15setExposureModeENS_12ExposureModeE@Base 6.2.1
 _ZN7QCamera16flashModeChangedEv@Base 6.2.1
 _ZN7QCamera16focusModeChangedEv@Base 6.2.1
 _ZN7QCamera16setFocusDistanceEf@Base 6.2.1
 _ZN7QCamera16staticMetaObjectE@Base 6.2.1
 _ZN7QCamera16torchModeChangedEv@Base 6.2.1
 _ZN7QCamera17brightnessChangedEv@Base 6.2.1
 _ZN7QCamera17focusPointChangedEv@Base 6.2.1
 _ZN7QCamera17saturationChangedEv@Base 6.2.1
 _ZN7QCamera17setCaptureSessionEP20QMediaCaptureSession@Base 6.2.1
 _ZN7QCamera17zoomFactorChangedEf@Base 6.2.1
 _ZN7QCamera19cameraDeviceChangedEv@Base 6.2.1
 _ZN7QCamera19cameraFormatChangedEv@Base 6.2.1
 _ZN7QCamera19exposureModeChangedEv@Base 6.2.1
 _ZN7QCamera19exposureTimeChangedEf@Base 6.2.1
 _ZN7QCamera19setAutoExposureTimeEv@Base 6.2.1
 _ZN7QCamera19setColorTemperatureEi@Base 6.2.1
 _ZN7QCamera19setCustomFocusPointERK7QPointF@Base 6.2.1
 _ZN7QCamera19setWhiteBalanceModeENS_16WhiteBalanceModeE@Base 6.2.1
 _ZN7QCamera20focusDistanceChangedEf@Base 6.2.1
 _ZN7QCamera21isoSensitivityChangedEi@Base 6.2.1
 _ZN7QCamera21setAutoIsoSensitivityEv@Base 6.2.1
 _ZN7QCamera21setManualExposureTimeEf@Base 6.2.1
 _ZN7QCamera23customFocusPointChangedEv@Base 6.2.1
 _ZN7QCamera23setExposureCompensationEf@Base 6.2.1
 _ZN7QCamera23setManualIsoSensitivityEi@Base 6.2.1
 _ZN7QCamera24maximumZoomFactorChangedEf@Base 6.2.1
 _ZN7QCamera24minimumZoomFactorChangedEf@Base 6.2.1
 _ZN7QCamera24supportedFeaturesChangedEv@Base 6.2.1
 _ZN7QCamera25manualExposureTimeChangedEf@Base 6.2.1
 _ZN7QCamera27exposureCompensationChangedEf@Base 6.2.1
 _ZN7QCamera27manualIsoSensitivityChangedEi@Base 6.2.1
 _ZN7QCamera6zoomToEff@Base 6.2.1
 _ZN7QCamera9setActiveEb@Base 6.2.1
 _ZN7QCameraC1EN13QCameraDevice8PositionEP7QObject@Base 6.2.1
 _ZN7QCameraC1EP7QObject@Base 6.2.1
 _ZN7QCameraC1ERK13QCameraDeviceP7QObject@Base 6.2.1
 _ZN7QCameraC2EN13QCameraDevice8PositionEP7QObject@Base 6.2.1
 _ZN7QCameraC2EP7QObject@Base 6.2.1
 _ZN7QCameraC2ERK13QCameraDeviceP7QObject@Base 6.2.1
 _ZN7QCameraD0Ev@Base 6.2.1
 _ZN7QCameraD1Ev@Base 6.2.1
 _ZN7QCameraD2Ev@Base 6.2.1
 _ZN7QSample10readSampleEv@Base 6.2.1
 _ZN7QSample11qt_metacallEN11QMetaObject4CallEiPPv@Base 6.2.1
 _ZN7QSample11qt_metacastEPKc@Base 6.2.1
 _ZN7QSample12decoderErrorEv@Base 6.2.1
 _ZN7QSample12decoderReadyEv@Base 6.2.1
 _ZN7QSample15loadIfNecessaryEv@Base 6.2.1
 _ZN7QSample16staticMetaObjectE@Base 6.2.1
 _ZN7QSample4loadEv@Base 6.2.1
 _ZN7QSample5errorEv@Base 6.2.1
 _ZN7QSample5readyEv@Base 6.2.1
 _ZN7QSample6addRefEv@Base 6.2.1
 _ZN7QSample7cleanupEv@Base 6.2.1
 _ZN7QSample7onReadyEv@Base 6.2.1
 _ZN7QSample7releaseEv@Base 6.2.1
 _ZN7QSampleC1ERK4QUrlP12QSampleCache@Base 6.2.1
 _ZN7QSampleC2ERK4QUrlP12QSampleCache@Base 6.2.1
 _ZN7QSampleD0Ev@Base 6.2.1
 _ZN7QSampleD1Ev@Base 6.2.1
 _ZN7QSampleD2Ev@Base 6.2.1
 _ZN9QGstUtils18capsForAudioFormatERK12QAudioFormat@Base 6.2.1
 _ZN9QGstUtils20audioFormatForSampleEP10_GstSample@Base 6.2.1
 _ZNK10QAudioSink10bufferSizeEv@Base 6.2.1
 _ZNK10QAudioSink10metaObjectEv@Base 6.2.1
 _ZNK10QAudioSink12elapsedUSecsEv@Base 6.2.1
 _ZNK10QAudioSink14processedUSecsEv@Base 6.2.1
 _ZNK10QAudioSink5errorEv@Base 6.2.1
 _ZNK10QAudioSink5stateEv@Base 6.2.1
 _ZNK10QAudioSink6formatEv@Base 6.2.1
 _ZNK10QAudioSink6volumeEv@Base 6.2.1
 _ZNK10QAudioSink9bytesFreeEv@Base 6.2.1
 _ZNK10QGstAppSrc10metaObjectEv@Base 6.2.1
 _ZNK10QVideoSink10metaObjectEv@Base 6.2.1
 _ZNK10QVideoSink10videoFrameEv@Base 6.2.1
 _ZNK10QVideoSink12subtitleTextEv@Base 6.2.1
 _ZNK10QVideoSink17platformVideoSinkEv@Base 6.2.1
 _ZNK10QVideoSink17videoFrameChangedERK11QVideoFrame@Base 6.2.1
 _ZNK10QVideoSink19subtitleTextChangedERK7QString@Base 6.2.1
 _ZNK10QVideoSink3rhiEv@Base 6.2.1
 _ZNK10QVideoSink9videoSizeEv@Base 6.2.1
 _ZNK11QAudioInput10metaObjectEv@Base 6.2.1
 _ZNK11QAudioInput6deviceEv@Base 6.2.1
 _ZNK11QAudioInput6volumeEv@Base 6.2.1
 _ZNK11QAudioInput7isMutedEv@Base 6.2.1
 _ZNK11QVideoFrame10handleTypeEv@Base 6.2.1
 _ZNK11QVideoFrame10isReadableEv@Base 6.2.1
 _ZNK11QVideoFrame10isWritableEv@Base 6.2.1
 _ZNK11QVideoFrame10planeCountEv@Base 6.2.1
 _ZNK11QVideoFrame11mappedBytesEi@Base 6.2.1
 _ZNK11QVideoFrame11pixelFormatEv@Base 6.2.1
 _ZNK11QVideoFrame11videoBufferEv@Base 6.2.1
 _ZNK11QVideoFrame12bytesPerLineEi@Base 6.2.1
 _ZNK11QVideoFrame12subtitleTextEv@Base 6.2.1
 _ZNK11QVideoFrame13surfaceFormatEv@Base 6.2.1
 _ZNK11QVideoFrame13textureHandleEi@Base 6.2.1
 _ZNK11QVideoFrame4bitsEi@Base 6.2.1
 _ZNK11QVideoFrame4sizeEv@Base 6.2.1
 _ZNK11QVideoFrame5widthEv@Base 6.2.1
 _ZNK11QVideoFrame6heightEv@Base 6.2.1
 _ZNK11QVideoFrame7endTimeEv@Base 6.2.1
 _ZNK11QVideoFrame7isValidEv@Base 6.2.1
 _ZNK11QVideoFrame7mapModeEv@Base 6.2.1
 _ZNK11QVideoFrame7toImageEv@Base 6.2.1
 _ZNK11QVideoFrame8isMappedEv@Base 6.2.1
 _ZNK11QVideoFrame9startTimeEv@Base 6.2.1
 _ZNK11QVideoFrameeqERKS_@Base 6.2.1
 _ZNK11QVideoFrameneERKS_@Base 6.2.1
 _ZNK12QAudioBuffer10frameCountEv@Base 6.2.1
 _ZNK12QAudioBuffer11sampleCountEv@Base 6.2.1
 _ZNK12QAudioBuffer4dataEv@Base 6.2.1
 _ZNK12QAudioBuffer6formatEv@Base 6.2.1
 _ZNK12QAudioBuffer8durationEv@Base 6.2.1
 _ZNK12QAudioBuffer9byteCountEv@Base 6.2.1
 _ZNK12QAudioBuffer9constDataEv@Base 6.2.1
 _ZNK12QAudioBuffer9startTimeEv@Base 6.2.1
 _ZNK12QAudioDevice11descriptionEv@Base 6.2.1
 _ZNK12QAudioDevice15preferredFormatEv@Base 6.2.1
 _ZNK12QAudioDevice17isFormatSupportedERK12QAudioFormat@Base 6.2.1
 _ZNK12QAudioDevice17maximumSampleRateEv@Base 6.2.1
 _ZNK12QAudioDevice17minimumSampleRateEv@Base 6.2.1
 _ZNK12QAudioDevice19maximumChannelCountEv@Base 6.2.1
 _ZNK12QAudioDevice19minimumChannelCountEv@Base 6.2.1
 _ZNK12QAudioDevice22supportedSampleFormatsEv@Base 6.2.1
 _ZNK12QAudioDevice2idEv@Base 6.2.1
 _ZNK12QAudioDevice4modeEv@Base 6.2.1
 _ZNK12QAudioDevice6isNullEv@Base 6.2.1
 _ZNK12QAudioDevice9isDefaultEv@Base 6.2.1
 _ZNK12QAudioDeviceeqERKS_@Base 6.2.1
 _ZNK12QAudioDeviceneERKS_@Base 6.2.1
 _ZNK12QAudioFormat13channelOffsetENS_20AudioChannelPositionE@Base 6.2.1
 _ZNK12QAudioFormat14bytesForFramesEi@Base 6.2.1
 _ZNK12QAudioFormat14framesForBytesEi@Base 6.2.1
 _ZNK12QAudioFormat16bytesForDurationEx@Base 6.2.1
 _ZNK12QAudioFormat16durationForBytesEi@Base 6.2.1
 _ZNK12QAudioFormat17durationForFramesEi@Base 6.2.1
 _ZNK12QAudioFormat17framesForDurationEx@Base 6.2.1
 _ZNK12QAudioFormat21normalizedSampleValueEPKv@Base 6.2.1
 _ZNK12QAudioOutput10metaObjectEv@Base 6.2.1
 _ZNK12QAudioOutput6deviceEv@Base 6.2.1
 _ZNK12QAudioOutput6volumeEv@Base 6.2.1
 _ZNK12QAudioOutput7isMutedEv@Base 6.2.1
 _ZNK12QAudioSource10bufferSizeEv@Base 6.2.1
 _ZNK12QAudioSource10metaObjectEv@Base 6.2.1
 _ZNK12QAudioSource12elapsedUSecsEv@Base 6.2.1
 _ZNK12QAudioSource14bytesAvailableEv@Base 6.2.1
 _ZNK12QAudioSource14processedUSecsEv@Base 6.2.1
 _ZNK12QAudioSource5errorEv@Base 6.2.1
 _ZNK12QAudioSource5stateEv@Base 6.2.1
 _ZNK12QAudioSource6formatEv@Base 6.2.1
 _ZNK12QAudioSource6volumeEv@Base 6.2.1
 _ZNK12QMediaFormat11isSupportedENS_14ConversionModeE@Base 6.2.1
 _ZNK12QMediaFormat8mimeTypeEv@Base 6.2.1
 _ZNK12QMediaFormateqERKS_@Base 6.2.1
 _ZNK12QMediaPlayer10isSeekableEv@Base 6.2.1
 _ZNK12QMediaPlayer10metaObjectEv@Base 6.2.1
 _ZNK12QMediaPlayer11audioOutputEv@Base 6.2.1
 _ZNK12QMediaPlayer11audioTracksEv@Base 6.2.1
 _ZNK12QMediaPlayer11errorStringEv@Base 6.2.1
 _ZNK12QMediaPlayer11isAvailableEv@Base 6.2.1
 _ZNK12QMediaPlayer11mediaStatusEv@Base 6.2.1
 _ZNK12QMediaPlayer11videoOutputEv@Base 6.2.1
 _ZNK12QMediaPlayer11videoTracksEv@Base 6.2.1
 _ZNK12QMediaPlayer12playbackRateEv@Base 6.2.1
 _ZNK12QMediaPlayer12sourceDeviceEv@Base 6.2.1
 _ZNK12QMediaPlayer13playbackStateEv@Base 6.2.1
 _ZNK12QMediaPlayer14bufferProgressEv@Base 6.2.1
 _ZNK12QMediaPlayer14subtitleTracksEv@Base 6.2.1
 _ZNK12QMediaPlayer16activeAudioTrackEv@Base 6.2.1
 _ZNK12QMediaPlayer16activeVideoTrackEv@Base 6.2.1
 _ZNK12QMediaPlayer17bufferedTimeRangeEv@Base 6.2.1
 _ZNK12QMediaPlayer19activeSubtitleTrackEv@Base 6.2.1
 _ZNK12QMediaPlayer5errorEv@Base 6.2.1
 _ZNK12QMediaPlayer5loopsEv@Base 6.2.1
 _ZNK12QMediaPlayer6sourceEv@Base 6.2.1
 _ZNK12QMediaPlayer8durationEv@Base 6.2.1
 _ZNK12QMediaPlayer8hasAudioEv@Base 6.2.1
 _ZNK12QMediaPlayer8hasVideoEv@Base 6.2.1
 _ZNK12QMediaPlayer8metaDataEv@Base 6.2.1
 _ZNK12QMediaPlayer8positionEv@Base 6.2.1
 _ZNK12QMediaPlayer9videoSinkEv@Base 6.2.1
 _ZNK12QSampleCache10metaObjectEv@Base 6.2.1
 _ZNK12QSampleCache8isCachedERK4QUrl@Base 6.2.1
 _ZNK12QSampleCache9isLoadingEv@Base 6.2.1
 _ZNK12QSoundEffect10metaObjectEv@Base 6.2.1
 _ZNK12QSoundEffect14loopsRemainingEv@Base 6.2.1
 _ZNK12QSoundEffect6sourceEv@Base 6.2.1
 _ZNK12QSoundEffect6statusEv@Base 6.2.1
 _ZNK12QSoundEffect6volumeEv@Base 6.2.1
 _ZNK12QSoundEffect7isMutedEv@Base 6.2.1
 _ZNK12QSoundEffect8isLoadedEv@Base 6.2.1
 _ZNK12QSoundEffect9isPlayingEv@Base 6.2.1
 _ZNK12QSoundEffect9loopCountEv@Base 6.2.1
 _ZNK12QVideoWindow10metaObjectEv@Base 6.2.1
 _ZNK12QVideoWindow15aspectRatioModeEv@Base 6.2.1
 _ZNK12QVideoWindow9videoSinkEv@Base 6.2.1
 _ZNK12QWaveDecoder10metaObjectEv@Base 6.2.1
 _ZNK12QWaveDecoder11audioFormatEv@Base 6.2.1
 _ZNK12QWaveDecoder12isSequentialEv@Base 6.2.1
 _ZNK12QWaveDecoder14bytesAvailableEv@Base 6.2.1
 _ZNK12QWaveDecoder3posEv@Base 6.2.1
 _ZNK12QWaveDecoder4sizeEv@Base 6.2.1
 _ZNK12QWaveDecoder8durationEv@Base 6.2.1
 _ZNK13QAudioDecoder10isDecodingEv@Base 6.2.1
 _ZNK13QAudioDecoder10metaObjectEv@Base 6.2.1
 _ZNK13QAudioDecoder11audioFormatEv@Base 6.2.1
 _ZNK13QAudioDecoder11errorStringEv@Base 6.2.1
 _ZNK13QAudioDecoder11isSupportedEv@Base 6.2.1
 _ZNK13QAudioDecoder12sourceDeviceEv@Base 6.2.1
 _ZNK13QAudioDecoder15bufferAvailableEv@Base 6.2.1
 _ZNK13QAudioDecoder4readEv@Base 6.2.1
 _ZNK13QAudioDecoder5errorEv@Base 6.2.1
 _ZNK13QAudioDecoder6sourceEv@Base 6.2.1
 _ZNK13QAudioDecoder8durationEv@Base 6.2.1
 _ZNK13QAudioDecoder8positionEv@Base 6.2.1
 _ZNK13QCameraDevice11descriptionEv@Base 6.2.1
 _ZNK13QCameraDevice12videoFormatsEv@Base 6.2.1
 _ZNK13QCameraDevice16photoResolutionsEv@Base 6.2.1
 _ZNK13QCameraDevice2idEv@Base 6.2.1
 _ZNK13QCameraDevice6isNullEv@Base 6.2.1
 _ZNK13QCameraDevice8positionEv@Base 6.2.1
 _ZNK13QCameraDevice9isDefaultEv@Base 6.2.1
 _ZNK13QCameraDeviceeqERKS_@Base 6.2.1
 _ZNK13QCameraFormat10resolutionEv@Base 6.2.1
 _ZNK13QCameraFormat11pixelFormatEv@Base 6.2.1
 _ZNK13QCameraFormat12maxFrameRateEv@Base 6.2.1
 _ZNK13QCameraFormat12minFrameRateEv@Base 6.2.1
 _ZNK13QCameraFormateqERKS_@Base 6.2.1
 _ZNK13QGstStructure10resolutionEv@Base 6.2.1
 _ZNK13QGstStructure11pixelFormatEv@Base 6.2.1
 _ZNK13QGstStructure14frameRateRangeEv@Base 6.2.1
 _ZNK13QImageCapture10fileFormatEv@Base 6.2.1
 _ZNK13QImageCapture10metaObjectEv@Base 6.2.1
 _ZNK13QImageCapture10resolutionEv@Base 6.2.1
 _ZNK13QImageCapture11errorStringEv@Base 6.2.1
 _ZNK13QImageCapture11isAvailableEv@Base 6.2.1
 _ZNK13QImageCapture14captureSessionEv@Base 6.2.1
 _ZNK13QImageCapture17isReadyForCaptureEv@Base 6.2.1
 _ZNK13QImageCapture5errorEv@Base 6.2.1
 _ZNK13QImageCapture7qualityEv@Base 6.2.1
 _ZNK13QImageCapture8metaDataEv@Base 6.2.1
 _ZNK13QMediaDevices10metaObjectEv@Base 6.2.1
 _ZNK14QMediaMetaData11stringValueENS_3KeyE@Base 6.2.1
 _ZNK14QMediaRecorder10metaObjectEv@Base 6.2.1
 _ZNK14QMediaRecorder11errorStringEv@Base 6.2.1
 _ZNK14QMediaRecorder11isAvailableEv@Base 6.2.1
 _ZNK14QMediaRecorder11mediaFormatEv@Base 6.2.1
 _ZNK14QMediaRecorder12audioBitRateEv@Base 6.2.1
 _ZNK14QMediaRecorder12encodingModeEv@Base 6.2.1
 _ZNK14QMediaRecorder12videoBitRateEv@Base 6.2.1
 _ZNK14QMediaRecorder13recorderStateEv@Base 6.2.1
 _ZNK14QMediaRecorder14actualLocationEv@Base 6.2.1
 _ZNK14QMediaRecorder14captureSessionEv@Base 6.2.1
 _ZNK14QMediaRecorder14outputLocationEv@Base 6.2.1
 _ZNK14QMediaRecorder14videoFrameRateEv@Base 6.2.1
 _ZNK14QMediaRecorder15audioSampleRateEv@Base 6.2.1
 _ZNK14QMediaRecorder15platformRecoderEv@Base 6.2.1
 _ZNK14QMediaRecorder15videoResolutionEv@Base 6.2.1
 _ZNK14QMediaRecorder17audioChannelCountEv@Base 6.2.1
 _ZNK14QMediaRecorder5errorEv@Base 6.2.1
 _ZNK14QMediaRecorder7qualityEv@Base 6.2.1
 _ZNK14QMediaRecorder8durationEv@Base 6.2.1
 _ZNK14QMediaRecorder8metaDataEv@Base 6.2.1
 _ZNK15QGstVideoBuffer13textureHandleEi@Base 6.2.1
 _ZNK15QGstVideoBuffer7mapModeEv@Base 6.2.1
 _ZNK15QMediaTimeRange10latestTimeEv@Base 6.2.1
 _ZNK15QMediaTimeRange12earliestTimeEv@Base 6.2.1
 _ZNK15QMediaTimeRange12isContinuousEv@Base 6.2.1
 _ZNK15QMediaTimeRange7isEmptyEv@Base 6.2.1
 _ZNK15QMediaTimeRange8containsEx@Base 6.2.1
 _ZNK15QMediaTimeRange9intervalsEv@Base 6.2.1
 _ZNK15QPlatformCamera10metaObjectEv@Base 6.2.1
 _ZNK17QGstreamerMessage10rawMessageEv@Base 6.2.1
 _ZNK17QVideoFrameFormat10frameWidthEv@Base 6.2.1
 _ZNK17QVideoFrameFormat10isMirroredEv@Base 6.2.1
 _ZNK17QVideoFrameFormat10planeCountEv@Base 6.2.1
 _ZNK17QVideoFrameFormat11frameHeightEv@Base 6.2.1
 _ZNK17QVideoFrameFormat11pixelFormatEv@Base 6.2.1
 _ZNK17QVideoFrameFormat15yCbCrColorSpaceEv@Base 6.2.1
 _ZNK17QVideoFrameFormat17scanLineDirectionEv@Base 6.2.1
 _ZNK17QVideoFrameFormat17updateUniformDataEP10QByteArrayRK11QVideoFrameRK10QMatrix4x4f@Base 6.2.1
 _ZNK17QVideoFrameFormat20vertexShaderFileNameEv@Base 6.2.1
 _ZNK17QVideoFrameFormat22fragmentShaderFileNameEv@Base 6.2.1
 _ZNK17QVideoFrameFormat7isValidEv@Base 6.2.1
 _ZNK17QVideoFrameFormat8viewportEv@Base 6.2.1
 _ZNK17QVideoFrameFormat9frameRateEv@Base 6.2.1
 _ZNK17QVideoFrameFormat9frameSizeEv@Base 6.2.1
 _ZNK17QVideoFrameFormateqERKS_@Base 6.2.1
 _ZNK17QVideoFrameFormatneERKS_@Base 6.2.1
 _ZNK18QMemoryVideoBuffer7mapModeEv@Base 6.2.1
 _ZNK18QPlatformVideoSink10metaObjectEv@Base 6.2.1
 _ZNK19QGstreamerVideoSink10metaObjectEv@Base 6.2.1
 _ZNK19QGstreamerVideoSink14inStoppedStateEv@Base 6.2.1
 _ZNK19QVideoTextureHelper14SubtitleLayout4drawEP8QPainterRK6QRectF@Base 6.2.1
 _ZNK19QVideoTextureHelper14SubtitleLayout7toImageEv@Base 6.2.1
 _ZNK20QAbstractVideoBuffer10handleTypeEv@Base 6.2.1
 _ZNK20QGstreamerAudioInput10audioInputEv@Base 6.2.1
 _ZNK20QGstreamerAudioInput10metaObjectEv@Base 6.2.1
 _ZNK20QGstreamerAudioInput6volumeEv@Base 6.2.1
 _ZNK20QGstreamerAudioInput7isMutedEv@Base 6.2.1
 _ZNK20QMediaCaptureSession10audioInputEv@Base 6.2.1
 _ZNK20QMediaCaptureSession10metaObjectEv@Base 6.2.1
 _ZNK20QMediaCaptureSession11audioOutputEv@Base 6.2.1
 _ZNK20QMediaCaptureSession11videoOutputEv@Base 6.2.1
 _ZNK20QMediaCaptureSession15platformSessionEv@Base 6.2.1
 _ZNK20QMediaCaptureSession6cameraEv@Base 6.2.1
 _ZNK20QMediaCaptureSession9videoSinkEv@Base 6.2.1
 _ZNK21QGstreamerAudioOutput10metaObjectEv@Base 6.2.1
 _ZNK21QGstreamerMediaPlayer10metaObjectEv@Base 6.2.1
 _ZNK21QGstreamerMediaPlayer11mediaStreamEv@Base 6.2.1
 _ZNK21QGstreamerMediaPlayer12playbackRateEv@Base 6.2.1
 _ZNK21QGstreamerMediaPlayer14bufferProgressEv@Base 6.2.1
 _ZNK21QGstreamerMediaPlayer23availablePlaybackRangesEv@Base 6.2.1
 _ZNK21QGstreamerMediaPlayer5mediaEv@Base 6.2.1
 _ZNK21QGstreamerMediaPlayer8durationEv@Base 6.2.1
 _ZNK21QGstreamerMediaPlayer8metaDataEv@Base 6.2.1
 _ZNK21QGstreamerMediaPlayer8positionEv@Base 6.2.1
 _ZNK21QGstreamerVideoOutput10metaObjectEv@Base 6.2.1
 _ZNK21QPlatformAudioDecoder10metaObjectEv@Base 6.2.1
 _ZNK21QPlatformImageCapture10metaObjectEv@Base 6.2.1
 _ZNK21QPlatformMediaDevices10audioInputERK10QByteArray@Base 6.2.1
 _ZNK21QPlatformMediaDevices10videoInputERK10QByteArray@Base 6.2.1
 _ZNK21QPlatformMediaDevices11audioOutputERK10QByteArray@Base 6.2.1
 _ZNK21QPlatformMediaDevices18audioInputsChangedEv@Base 6.2.1
 _ZNK21QPlatformMediaDevices18videoInputsChangedEv@Base 6.2.1
 _ZNK21QPlatformMediaDevices19audioOutputsChangedEv@Base 6.2.1
 _ZNK22QGstreamerVideoOverlay10metaObjectEv@Base 6.2.1
 _ZNK22QGstreamerVideoOverlay15nativeVideoSizeEv@Base 6.2.1
 _ZNK22QGstreamerVideoOverlay9videoSinkEv@Base 6.2.1
 _ZNK24QPlatformMediaFormatInfo11isSupportedERK12QMediaFormatNS0_14ConversionModeE@Base 6.2.1
 _ZNK24QPlatformMediaFormatInfo20supportedAudioCodecsERK12QMediaFormatNS0_14ConversionModeE@Base 6.2.1
 _ZNK24QPlatformMediaFormatInfo20supportedFileFormatsERK12QMediaFormatNS0_14ConversionModeE@Base 6.2.1
 _ZNK24QPlatformMediaFormatInfo20supportedVideoCodecsERK12QMediaFormatNS0_14ConversionModeE@Base 6.2.1
 _ZNK28QPlatformMediaCaptureSession10metaObjectEv@Base 6.2.1
 _ZNK30QVideoOutputOrientationHandler10metaObjectEv@Base 6.2.1
 _ZNK30QVideoOutputOrientationHandler18currentOrientationEv@Base 6.2.1
 _ZNK7QCamera10focusPointEv@Base 6.2.1
 _ZNK7QCamera10metaObjectEv@Base 6.2.1
 _ZNK7QCamera10zoomFactorEv@Base 6.2.1
 _ZNK7QCamera11errorStringEv@Base 6.2.1
 _ZNK7QCamera11isAvailableEv@Base 6.2.1
 _ZNK7QCamera12cameraDeviceEv@Base 6.2.1
 _ZNK7QCamera12cameraFormatEv@Base 6.2.1
 _ZNK7QCamera12exposureModeEv@Base 6.2.1
 _ZNK7QCamera12exposureTimeEv@Base 6.2.1
 _ZNK7QCamera12isFlashReadyEv@Base 6.2.1
 _ZNK7QCamera13focusDistanceEv@Base 6.2.1
 _ZNK7QCamera14captureSessionEv@Base 6.2.1
 _ZNK7QCamera14isoSensitivityEv@Base 6.2.1
 _ZNK7QCamera16colorTemperatureEv@Base 6.2.1
 _ZNK7QCamera16customFocusPointEv@Base 6.2.1
 _ZNK7QCamera16whiteBalanceModeEv@Base 6.2.1
 _ZNK7QCamera17maximumZoomFactorEv@Base 6.2.1
 _ZNK7QCamera17minimumZoomFactorEv@Base 6.2.1
 _ZNK7QCamera17supportedFeaturesEv@Base 6.2.1
 _ZNK7QCamera18manualExposureTimeEv@Base 6.2.1
 _ZNK7QCamera19maximumExposureTimeEv@Base 6.2.1
 _ZNK7QCamera19minimumExposureTimeEv@Base 6.2.1
 _ZNK7QCamera20exposureCompensationEv@Base 6.2.1
 _ZNK7QCamera20isFlashModeSupportedENS_9FlashModeE@Base 6.2.1
 _ZNK7QCamera20isFocusModeSupportedENS_9FocusModeE@Base 6.2.1
 _ZNK7QCamera20isTorchModeSupportedENS_9TorchModeE@Base 6.2.1
 _ZNK7QCamera20manualIsoSensitivityEv@Base 6.2.1
 _ZNK7QCamera21maximumIsoSensitivityEv@Base 6.2.1
 _ZNK7QCamera21minimumIsoSensitivityEv@Base 6.2.1
 _ZNK7QCamera23colorTemperatureChangedEv@Base 6.2.1
 _ZNK7QCamera23isExposureModeSupportedENS_12ExposureModeE@Base 6.2.1
 _ZNK7QCamera23whiteBalanceModeChangedEv@Base 6.2.1
 _ZNK7QCamera27isWhiteBalanceModeSupportedENS_16WhiteBalanceModeE@Base 6.2.1
 _ZNK7QCamera5errorEv@Base 6.2.1
 _ZNK7QCamera8isActiveEv@Base 6.2.1
 _ZNK7QCamera9flashModeEv@Base 6.2.1
 _ZNK7QCamera9focusModeEv@Base 6.2.1
 _ZNK7QCamera9torchModeEv@Base 6.2.1
 _ZNK7QGValue16getSampleFormatsEv@Base 6.2.1
 _ZNK7QSample10metaObjectEv@Base 6.2.1
 _ZNK7QSample5stateEv@Base 6.2.1
 (optional=templinst|arch=amd64 arm64 ppc64el sh4)_ZNSt8_Rb_treeI4QUrlSt4pairIKS0_P7QSampleESt10_Select1stIS5_ESt4lessIS0_ESaIS5_EE11equal_rangeERS2_@Base 6.2.1
 (optional=templinst|arch=!ppc64el)_ZNSt8_Rb_treeI4QUrlSt4pairIKS0_P7QSampleESt10_Select1stIS5_ESt4lessIS0_ESaIS5_EE12_M_erase_auxESt23_Rb_tree_const_iteratorIS5_ESD_@Base 6.2.1
 (optional=templinst|arch=!ppc64el)_ZNSt8_Rb_treeI4QUrlSt4pairIKS0_P7QSampleESt10_Select1stIS5_ESt4lessIS0_ESaIS5_EE24_M_get_insert_unique_posERS2_@Base 6.2.1
 (optional=templinst)_ZNSt8_Rb_treeI4QUrlSt4pairIKS0_P7QSampleESt10_Select1stIS5_ESt4lessIS0_ESaIS5_EE29_M_get_insert_hint_unique_posESt23_Rb_tree_const_iteratorIS5_ERS2_@Base 6.2.1
 _ZTI10QAudioSink@Base 6.2.1
 _ZTI10QGstAppSrc@Base 6.2.1
 _ZTI10QVideoSink@Base 6.2.1
 _ZTI11QAudioInput@Base 6.2.1
 _ZTI12QAudioOutput@Base 6.2.1
 _ZTI12QAudioSource@Base 6.2.1
 _ZTI12QMediaPlayer@Base 6.2.1
 _ZTI12QSampleCache@Base 6.2.1
 _ZTI12QSoundEffect@Base 6.2.1
 _ZTI12QVideoWindow@Base 6.2.1
 _ZTI12QWaveDecoder@Base 6.2.1
 _ZTI13QAudioDecoder@Base 6.2.1
 _ZTI13QImageCapture@Base 6.2.1
 _ZTI13QMediaDevices@Base 6.2.1
 _ZTI14QMediaRecorder@Base 6.2.1
 _ZTI15QGstVideoBuffer@Base 6.2.1
 _ZTI15QPlatformCamera@Base 6.2.1
 _ZTI18QMemoryVideoBuffer@Base 6.2.1
 _ZTI18QPlatformVideoSink@Base 6.2.1
 _ZTI19QGstreamerVideoSink@Base 6.2.1
 _ZTI19QPlatformAudioInput@Base 6.2.1
 _ZTI20QAbstractVideoBuffer@Base 6.2.1
 _ZTI20QGstreamerAudioInput@Base 6.2.1
 _ZTI20QMediaCaptureSession@Base 6.2.1
 _ZTI20QPlatformAudioOutput@Base 6.2.1
 _ZTI20QPlatformMediaPlayer@Base 6.2.1
 _ZTI21QGstreamerAudioOutput@Base 6.2.1
 _ZTI21QGstreamerBufferProbe@Base 6.2.1
 _ZTI21QGstreamerMediaPlayer@Base 6.2.1
 _ZTI21QGstreamerVideoOutput@Base 6.2.1
 _ZTI21QPlatformAudioDecoder@Base 6.2.1
 _ZTI21QPlatformImageCapture@Base 6.2.1
 _ZTI21QPlatformMediaDevices@Base 6.2.1
 _ZTI22QGstreamerVideoOverlay@Base 6.2.1
 _ZTI22QPlatformMediaRecorder@Base 6.2.1
 _ZTI24QPlatformMediaFormatInfo@Base 6.2.1
 _ZTI25QPlatformMediaIntegration@Base 6.2.1
 _ZTI28QPlatformMediaCaptureSession@Base 6.2.1
 _ZTI30QVideoOutputOrientationHandler@Base 6.2.1
 _ZTI7QCamera@Base 6.2.1
 _ZTI7QSample@Base 6.2.1
 _ZTIZN9QMetaType17registerConverterI5QListI12QAudioDeviceE9QIterableI13QMetaSequenceEN9QtPrivate33QSequentialIterableConvertFunctorIS3_EEEEbT1_EUlPKvPvE_@Base 6.2.1
 _ZTIZN9QMetaType17registerConverterI5QListI13QCameraDeviceE9QIterableI13QMetaSequenceEN9QtPrivate33QSequentialIterableConvertFunctorIS3_EEEEbT1_EUlPKvPvE_@Base 6.2.1
 _ZTIZN9QMetaType17registerConverterI5QListI13QCameraFormatE9QIterableI13QMetaSequenceEN9QtPrivate33QSequentialIterableConvertFunctorIS3_EEEEbT1_EUlPKvPvE_@Base 6.2.1
 _ZTIZN9QMetaType17registerConverterI5QListI14QMediaMetaDataE9QIterableI13QMetaSequenceEN9QtPrivate33QSequentialIterableConvertFunctorIS3_EEEEbT1_EUlPKvPvE_@Base 6.2.1
 _ZTIZN9QMetaType17registerConverterI5QListIN12QMediaFormat10AudioCodecEE9QIterableI13QMetaSequenceEN9QtPrivate33QSequentialIterableConvertFunctorIS4_EEEEbT1_EUlPKvPvE_@Base 6.2.1
 _ZTIZN9QMetaType17registerConverterI5QListIN12QMediaFormat10FileFormatEE9QIterableI13QMetaSequenceEN9QtPrivate33QSequentialIterableConvertFunctorIS4_EEEEbT1_EUlPKvPvE_@Base 6.2.1
 _ZTIZN9QMetaType17registerConverterI5QListIN12QMediaFormat10VideoCodecEE9QIterableI13QMetaSequenceEN9QtPrivate33QSequentialIterableConvertFunctorIS4_EEEEbT1_EUlPKvPvE_@Base 6.2.1
 _ZTIZN9QMetaType17registerConverterI5QListIN14QMediaMetaData3KeyEE9QIterableI13QMetaSequenceEN9QtPrivate33QSequentialIterableConvertFunctorIS4_EEEEbT1_EUlPKvPvE_@Base 6.2.1
 _ZTIZN9QMetaType19registerMutableViewI5QListI12QAudioDeviceE9QIterableI13QMetaSequenceEN9QtPrivate37QSequentialIterableMutableViewFunctorIS3_EEEEbT1_EUlPvSB_E_@Base 6.2.1
 _ZTIZN9QMetaType19registerMutableViewI5QListI13QCameraDeviceE9QIterableI13QMetaSequenceEN9QtPrivate37QSequentialIterableMutableViewFunctorIS3_EEEEbT1_EUlPvSB_E_@Base 6.2.1
 _ZTIZN9QMetaType19registerMutableViewI5QListI13QCameraFormatE9QIterableI13QMetaSequenceEN9QtPrivate37QSequentialIterableMutableViewFunctorIS3_EEEEbT1_EUlPvSB_E_@Base 6.2.1
 _ZTIZN9QMetaType19registerMutableViewI5QListI14QMediaMetaDataE9QIterableI13QMetaSequenceEN9QtPrivate37QSequentialIterableMutableViewFunctorIS3_EEEEbT1_EUlPvSB_E_@Base 6.2.1
 _ZTIZN9QMetaType19registerMutableViewI5QListIN12QMediaFormat10AudioCodecEE9QIterableI13QMetaSequenceEN9QtPrivate37QSequentialIterableMutableViewFunctorIS4_EEEEbT1_EUlPvSC_E_@Base 6.2.1
 _ZTIZN9QMetaType19registerMutableViewI5QListIN12QMediaFormat10FileFormatEE9QIterableI13QMetaSequenceEN9QtPrivate37QSequentialIterableMutableViewFunctorIS4_EEEEbT1_EUlPvSC_E_@Base 6.2.1
 _ZTIZN9QMetaType19registerMutableViewI5QListIN12QMediaFormat10VideoCodecEE9QIterableI13QMetaSequenceEN9QtPrivate37QSequentialIterableMutableViewFunctorIS4_EEEEbT1_EUlPvSC_E_@Base 6.2.1
 _ZTIZN9QMetaType19registerMutableViewI5QListIN14QMediaMetaData3KeyEE9QIterableI13QMetaSequenceEN9QtPrivate37QSequentialIterableMutableViewFunctorIS4_EEEEbT1_EUlPvSC_E_@Base 6.2.1
 _ZTS10QAudioSink@Base 6.2.1
 _ZTS10QGstAppSrc@Base 6.2.1
 _ZTS10QVideoSink@Base 6.2.1
 _ZTS11QAudioInput@Base 6.2.1
 _ZTS12QAudioOutput@Base 6.2.1
 _ZTS12QAudioSource@Base 6.2.1
 _ZTS12QMediaPlayer@Base 6.2.1
 _ZTS12QSampleCache@Base 6.2.1
 _ZTS12QSoundEffect@Base 6.2.1
 _ZTS12QVideoWindow@Base 6.2.1
 _ZTS12QWaveDecoder@Base 6.2.1
 _ZTS13QAudioDecoder@Base 6.2.1
 _ZTS13QImageCapture@Base 6.2.1
 _ZTS13QMediaDevices@Base 6.2.1
 _ZTS14QMediaRecorder@Base 6.2.1
 _ZTS15QGstVideoBuffer@Base 6.2.1
 _ZTS15QPlatformCamera@Base 6.2.1
 _ZTS18QMemoryVideoBuffer@Base 6.2.1
 _ZTS18QPlatformVideoSink@Base 6.2.1
 _ZTS19QGstreamerVideoSink@Base 6.2.1
 _ZTS19QPlatformAudioInput@Base 6.2.1
 _ZTS20QAbstractVideoBuffer@Base 6.2.1
 _ZTS20QGstreamerAudioInput@Base 6.2.1
 _ZTS20QMediaCaptureSession@Base 6.2.1
 _ZTS20QPlatformAudioOutput@Base 6.2.1
 _ZTS20QPlatformMediaPlayer@Base 6.2.1
 _ZTS21QGstreamerAudioOutput@Base 6.2.1
 _ZTS21QGstreamerBufferProbe@Base 6.2.1
 _ZTS21QGstreamerMediaPlayer@Base 6.2.1
 _ZTS21QGstreamerVideoOutput@Base 6.2.1
 _ZTS21QPlatformAudioDecoder@Base 6.2.1
 _ZTS21QPlatformImageCapture@Base 6.2.1
 _ZTS21QPlatformMediaDevices@Base 6.2.1
 _ZTS22QGstreamerVideoOverlay@Base 6.2.1
 _ZTS22QPlatformMediaRecorder@Base 6.2.1
 _ZTS24QPlatformMediaFormatInfo@Base 6.2.1
 _ZTS25QPlatformMediaIntegration@Base 6.2.1
 _ZTS28QPlatformMediaCaptureSession@Base 6.2.1
 _ZTS30QVideoOutputOrientationHandler@Base 6.2.1
 _ZTS7QCamera@Base 6.2.1
 _ZTS7QSample@Base 6.2.1
 _ZTSZN9QMetaType17registerConverterI5QListI12QAudioDeviceE9QIterableI13QMetaSequenceEN9QtPrivate33QSequentialIterableConvertFunctorIS3_EEEEbT1_EUlPKvPvE_@Base 6.2.1
 _ZTSZN9QMetaType17registerConverterI5QListI13QCameraDeviceE9QIterableI13QMetaSequenceEN9QtPrivate33QSequentialIterableConvertFunctorIS3_EEEEbT1_EUlPKvPvE_@Base 6.2.1
 _ZTSZN9QMetaType17registerConverterI5QListI13QCameraFormatE9QIterableI13QMetaSequenceEN9QtPrivate33QSequentialIterableConvertFunctorIS3_EEEEbT1_EUlPKvPvE_@Base 6.2.1
 _ZTSZN9QMetaType17registerConverterI5QListI14QMediaMetaDataE9QIterableI13QMetaSequenceEN9QtPrivate33QSequentialIterableConvertFunctorIS3_EEEEbT1_EUlPKvPvE_@Base 6.2.1
 _ZTSZN9QMetaType17registerConverterI5QListIN12QMediaFormat10AudioCodecEE9QIterableI13QMetaSequenceEN9QtPrivate33QSequentialIterableConvertFunctorIS4_EEEEbT1_EUlPKvPvE_@Base 6.2.1
 _ZTSZN9QMetaType17registerConverterI5QListIN12QMediaFormat10FileFormatEE9QIterableI13QMetaSequenceEN9QtPrivate33QSequentialIterableConvertFunctorIS4_EEEEbT1_EUlPKvPvE_@Base 6.2.1
 _ZTSZN9QMetaType17registerConverterI5QListIN12QMediaFormat10VideoCodecEE9QIterableI13QMetaSequenceEN9QtPrivate33QSequentialIterableConvertFunctorIS4_EEEEbT1_EUlPKvPvE_@Base 6.2.1
 _ZTSZN9QMetaType17registerConverterI5QListIN14QMediaMetaData3KeyEE9QIterableI13QMetaSequenceEN9QtPrivate33QSequentialIterableConvertFunctorIS4_EEEEbT1_EUlPKvPvE_@Base 6.2.1
 _ZTSZN9QMetaType19registerMutableViewI5QListI12QAudioDeviceE9QIterableI13QMetaSequenceEN9QtPrivate37QSequentialIterableMutableViewFunctorIS3_EEEEbT1_EUlPvSB_E_@Base 6.2.1
 _ZTSZN9QMetaType19registerMutableViewI5QListI13QCameraDeviceE9QIterableI13QMetaSequenceEN9QtPrivate37QSequentialIterableMutableViewFunctorIS3_EEEEbT1_EUlPvSB_E_@Base 6.2.1
 _ZTSZN9QMetaType19registerMutableViewI5QListI13QCameraFormatE9QIterableI13QMetaSequenceEN9QtPrivate37QSequentialIterableMutableViewFunctorIS3_EEEEbT1_EUlPvSB_E_@Base 6.2.1
 _ZTSZN9QMetaType19registerMutableViewI5QListI14QMediaMetaDataE9QIterableI13QMetaSequenceEN9QtPrivate37QSequentialIterableMutableViewFunctorIS3_EEEEbT1_EUlPvSB_E_@Base 6.2.1
 _ZTSZN9QMetaType19registerMutableViewI5QListIN12QMediaFormat10AudioCodecEE9QIterableI13QMetaSequenceEN9QtPrivate37QSequentialIterableMutableViewFunctorIS4_EEEEbT1_EUlPvSC_E_@Base 6.2.1
 _ZTSZN9QMetaType19registerMutableViewI5QListIN12QMediaFormat10FileFormatEE9QIterableI13QMetaSequenceEN9QtPrivate37QSequentialIterableMutableViewFunctorIS4_EEEEbT1_EUlPvSC_E_@Base 6.2.1
 _ZTSZN9QMetaType19registerMutableViewI5QListIN12QMediaFormat10VideoCodecEE9QIterableI13QMetaSequenceEN9QtPrivate37QSequentialIterableMutableViewFunctorIS4_EEEEbT1_EUlPvSC_E_@Base 6.2.1
 _ZTSZN9QMetaType19registerMutableViewI5QListIN14QMediaMetaData3KeyEE9QIterableI13QMetaSequenceEN9QtPrivate37QSequentialIterableMutableViewFunctorIS4_EEEEbT1_EUlPvSC_E_@Base 6.2.1
 _ZTV10QAudioSink@Base 6.2.1
 _ZTV10QGstAppSrc@Base 6.2.1
 _ZTV10QVideoSink@Base 6.2.1
 _ZTV11QAudioInput@Base 6.2.1
 _ZTV12QAudioOutput@Base 6.2.1
 _ZTV12QAudioSource@Base 6.2.1
 _ZTV12QMediaPlayer@Base 6.2.1
 _ZTV12QSampleCache@Base 6.2.1
 _ZTV12QSoundEffect@Base 6.2.1
 _ZTV12QVideoWindow@Base 6.2.1
 _ZTV12QWaveDecoder@Base 6.2.1
 _ZTV13QAudioDecoder@Base 6.2.1
 _ZTV13QImageCapture@Base 6.2.1
 _ZTV13QMediaDevices@Base 6.2.1
 _ZTV14QMediaRecorder@Base 6.2.1
 _ZTV15QGstVideoBuffer@Base 6.2.1
 _ZTV15QPlatformCamera@Base 6.2.1
 _ZTV18QMemoryVideoBuffer@Base 6.2.1
 _ZTV18QPlatformVideoSink@Base 6.2.1
 _ZTV19QGstreamerVideoSink@Base 6.2.1
 _ZTV19QPlatformAudioInput@Base 6.2.1
 _ZTV20QAbstractVideoBuffer@Base 6.2.1
 _ZTV20QGstreamerAudioInput@Base 6.2.1
 _ZTV20QMediaCaptureSession@Base 6.2.1
 _ZTV20QPlatformAudioOutput@Base 6.2.1
 _ZTV20QPlatformMediaPlayer@Base 6.2.1
 _ZTV21QGstreamerAudioOutput@Base 6.2.1
 _ZTV21QGstreamerBufferProbe@Base 6.2.1
 _ZTV21QGstreamerMediaPlayer@Base 6.2.1
 _ZTV21QGstreamerVideoOutput@Base 6.2.1
 _ZTV21QPlatformAudioDecoder@Base 6.2.1
 _ZTV21QPlatformImageCapture@Base 6.2.1
 _ZTV21QPlatformMediaDevices@Base 6.2.1
 _ZTV22QGstreamerVideoOverlay@Base 6.2.1
 _ZTV22QPlatformMediaRecorder@Base 6.2.1
 _ZTV24QPlatformMediaFormatInfo@Base 6.2.1
 _ZTV25QPlatformMediaIntegration@Base 6.2.1
 _ZTV28QPlatformMediaCaptureSession@Base 6.2.1
 _ZTV30QVideoOutputOrientationHandler@Base 6.2.1
 _ZTV7QCamera@Base 6.2.1
 _ZTV7QSample@Base 6.2.1
 (optional=templinst)_ZZN9QMetaType21registerConverterImplI5QListI12QAudioDeviceE9QIterableI13QMetaSequenceEEEbSt8functionIFbPKvPvEES_S_E10unregister@Base 6.2.1
 (optional=templinst)_ZZN9QMetaType21registerConverterImplI5QListI13QCameraDeviceE9QIterableI13QMetaSequenceEEEbSt8functionIFbPKvPvEES_S_E10unregister@Base 6.2.1
 (optional=templinst)_ZZN9QMetaType21registerConverterImplI5QListI13QCameraFormatE9QIterableI13QMetaSequenceEEEbSt8functionIFbPKvPvEES_S_E10unregister@Base 6.2.1
 (optional=templinst)_ZZN9QMetaType21registerConverterImplI5QListI14QMediaMetaDataE9QIterableI13QMetaSequenceEEEbSt8functionIFbPKvPvEES_S_E10unregister@Base 6.2.1
 (optional=templinst)_ZZN9QMetaType21registerConverterImplI5QListIN12QMediaFormat10AudioCodecEE9QIterableI13QMetaSequenceEEEbSt8functionIFbPKvPvEES_S_E10unregister@Base 6.2.1
 (optional=templinst)_ZZN9QMetaType21registerConverterImplI5QListIN12QMediaFormat10FileFormatEE9QIterableI13QMetaSequenceEEEbSt8functionIFbPKvPvEES_S_E10unregister@Base 6.2.1
 (optional=templinst)_ZZN9QMetaType21registerConverterImplI5QListIN12QMediaFormat10VideoCodecEE9QIterableI13QMetaSequenceEEEbSt8functionIFbPKvPvEES_S_E10unregister@Base 6.2.1
 (optional=templinst)_ZZN9QMetaType21registerConverterImplI5QListIN14QMediaMetaData3KeyEE9QIterableI13QMetaSequenceEEEbSt8functionIFbPKvPvEES_S_E10unregister@Base 6.2.1
 (optional=templinst)_ZZN9QMetaType23registerMutableViewImplI5QListI12QAudioDeviceE9QIterableI13QMetaSequenceEEEbSt8functionIFbPvS8_EES_S_E10unregister@Base 6.2.1
 (optional=templinst)_ZZN9QMetaType23registerMutableViewImplI5QListI13QCameraDeviceE9QIterableI13QMetaSequenceEEEbSt8functionIFbPvS8_EES_S_E10unregister@Base 6.2.1
 (optional=templinst)_ZZN9QMetaType23registerMutableViewImplI5QListI13QCameraFormatE9QIterableI13QMetaSequenceEEEbSt8functionIFbPvS8_EES_S_E10unregister@Base 6.2.1
 (optional=templinst)_ZZN9QMetaType23registerMutableViewImplI5QListI14QMediaMetaDataE9QIterableI13QMetaSequenceEEEbSt8functionIFbPvS8_EES_S_E10unregister@Base 6.2.1
 (optional=templinst)_ZZN9QMetaType23registerMutableViewImplI5QListIN12QMediaFormat10AudioCodecEE9QIterableI13QMetaSequenceEEEbSt8functionIFbPvS9_EES_S_E10unregister@Base 6.2.1
 (optional=templinst)_ZZN9QMetaType23registerMutableViewImplI5QListIN12QMediaFormat10FileFormatEE9QIterableI13QMetaSequenceEEEbSt8functionIFbPvS9_EES_S_E10unregister@Base 6.2.1
 (optional=templinst)_ZZN9QMetaType23registerMutableViewImplI5QListIN12QMediaFormat10VideoCodecEE9QIterableI13QMetaSequenceEEEbSt8functionIFbPvS9_EES_S_E10unregister@Base 6.2.1
 (optional=templinst)_ZZN9QMetaType23registerMutableViewImplI5QListIN14QMediaMetaData3KeyEE9QIterableI13QMetaSequenceEEEbSt8functionIFbPvS9_EES_S_E10unregister@Base 6.2.1
 (optional=templinst)_ZZN9QtPrivate16QMetaTypeForTypeI10QByteArrayE10getCopyCtrEvENUlPKNS_18QMetaTypeInterfaceEPvPKvE_4_FUNES5_S6_S8_@Base 6.2.1
 (optional=templinst)_ZZN9QtPrivate16QMetaTypeForTypeI10QByteArrayE10getMoveCtrEvENUlPKNS_18QMetaTypeInterfaceEPvS6_E_4_FUNES5_S6_S6_@Base 6.2.1
 (optional=templinst)_ZZN9QtPrivate16QMetaTypeForTypeI10QByteArrayE13getDefaultCtrEvENUlPKNS_18QMetaTypeInterfaceEPvE_4_FUNES5_S6_@Base 6.2.1
 (optional=templinst)_ZZN9QtPrivate16QMetaTypeForTypeI10QByteArrayE7getDtorEvENUlPKNS_18QMetaTypeInterfaceEPvE_4_FUNES5_S6_@Base 6.2.1
 (optional=templinst)_ZZN9QtPrivate16QMetaTypeForTypeI4QUrlE10getCopyCtrEvENUlPKNS_18QMetaTypeInterfaceEPvPKvE_4_FUNES5_S6_S8_@Base 6.2.1
 (optional=templinst)_ZZN9QtPrivate16QMetaTypeForTypeI4QUrlE10getMoveCtrEvENUlPKNS_18QMetaTypeInterfaceEPvS6_E_4_FUNES5_S6_S6_@Base 6.2.1
 (optional=templinst)_ZZN9QtPrivate16QMetaTypeForTypeI4QUrlE13getDefaultCtrEvENUlPKNS_18QMetaTypeInterfaceEPvE_4_FUNES5_S6_@Base 6.2.1
 (optional=templinst)_ZZN9QtPrivate16QMetaTypeForTypeI4QUrlE7getDtorEvENUlPKNS_18QMetaTypeInterfaceEPvE_4_FUNES5_S6_@Base 6.2.1
 (optional=templinst)_ZZN9QtPrivate16QMetaTypeForTypeI5QSizeE10getCopyCtrEvENUlPKNS_18QMetaTypeInterfaceEPvPKvE_4_FUNES5_S6_S8_@Base 6.2.1
 (optional=templinst)_ZZN9QtPrivate16QMetaTypeForTypeI5QSizeE10getMoveCtrEvENUlPKNS_18QMetaTypeInterfaceEPvS6_E_4_FUNES5_S6_S6_@Base 6.2.1
 (optional=templinst)_ZZN9QtPrivate16QMetaTypeForTypeI5QSizeE13getDefaultCtrEvENUlPKNS_18QMetaTypeInterfaceEPvE_4_FUNES5_S6_@Base 6.2.1
 (optional=templinst)_ZZN9QtPrivate16QMetaTypeForTypeI7QPointFE10getCopyCtrEvENUlPKNS_18QMetaTypeInterfaceEPvPKvE_4_FUNES5_S6_S8_@Base 6.2.1
 (optional=templinst)_ZZN9QtPrivate16QMetaTypeForTypeI7QPointFE10getMoveCtrEvENUlPKNS_18QMetaTypeInterfaceEPvS6_E_4_FUNES5_S6_S6_@Base 6.2.1
 (optional=templinst)_ZZN9QtPrivate16QMetaTypeForTypeI7QPointFE13getDefaultCtrEvENUlPKNS_18QMetaTypeInterfaceEPvE_4_FUNES5_S6_@Base 6.2.1
 (optional=templinst)_ZZN9QtPrivate16QMetaTypeForTypeI7QStringE10getCopyCtrEvENUlPKNS_18QMetaTypeInterfaceEPvPKvE_4_FUNES5_S6_S8_@Base 6.2.1
 (optional=templinst)_ZZN9QtPrivate16QMetaTypeForTypeI7QStringE10getMoveCtrEvENUlPKNS_18QMetaTypeInterfaceEPvS6_E_4_FUNES5_S6_S6_@Base 6.2.1
 (optional=templinst)_ZZN9QtPrivate16QMetaTypeForTypeI7QStringE13getDefaultCtrEvENUlPKNS_18QMetaTypeInterfaceEPvE_4_FUNES5_S6_@Base 6.2.1
 (optional=templinst)_ZZN9QtPrivate16QMetaTypeForTypeI7QStringE7getDtorEvENUlPKNS_18QMetaTypeInterfaceEPvE_4_FUNES5_S6_@Base 6.2.1
 (optional=templinst)_ZZN9QtPrivate16QMetaTypeForTypeI8QVariantE10getCopyCtrEvENUlPKNS_18QMetaTypeInterfaceEPvPKvE_4_FUNES5_S6_S8_@Base 6.2.1
 (optional=templinst)_ZZN9QtPrivate16QMetaTypeForTypeI8QVariantE10getMoveCtrEvENUlPKNS_18QMetaTypeInterfaceEPvS6_E_4_FUNES5_S6_S6_@Base 6.2.1
 (optional=templinst)_ZZN9QtPrivate16QMetaTypeForTypeI8QVariantE13getDefaultCtrEvENUlPKNS_18QMetaTypeInterfaceEPvE_4_FUNES5_S6_@Base 6.2.1
 (optional=templinst)_ZZN9QtPrivate16QMetaTypeForTypeI8QVariantE7getDtorEvENUlPKNS_18QMetaTypeInterfaceEPvE_4_FUNES5_S6_@Base 6.2.1
 (optional=templinst)_ZZN9QtPrivate16QMetaTypeForTypeIP7QObjectE10getCopyCtrEvENUlPKNS_18QMetaTypeInterfaceEPvPKvE_4_FUNES6_S7_S9_@Base 6.2.1
 (optional=templinst)_ZZN9QtPrivate16QMetaTypeForTypeIP7QObjectE10getMoveCtrEvENUlPKNS_18QMetaTypeInterfaceEPvS7_E_4_FUNES6_S7_S7_@Base 6.2.1
 (optional=templinst)_ZZN9QtPrivate16QMetaTypeForTypeIP7QObjectE13getDefaultCtrEvENUlPKNS_18QMetaTypeInterfaceEPvE_4_FUNES6_S7_@Base 6.2.1
 (optional=templinst)_ZZN9QtPrivate16QMetaTypeForTypeIbE10getCopyCtrEvENUlPKNS_18QMetaTypeInterfaceEPvPKvE_4_FUNES4_S5_S7_@Base 6.2.1
 (optional=templinst)_ZZN9QtPrivate16QMetaTypeForTypeIbE10getMoveCtrEvENUlPKNS_18QMetaTypeInterfaceEPvS5_E_4_FUNES4_S5_S5_@Base 6.2.1
 (optional=templinst)_ZZN9QtPrivate16QMetaTypeForTypeIbE13getDefaultCtrEvENUlPKNS_18QMetaTypeInterfaceEPvE_4_FUNES4_S5_@Base 6.2.1
 (optional=templinst)_ZZN9QtPrivate16QMetaTypeForTypeIdE10getCopyCtrEvENUlPKNS_18QMetaTypeInterfaceEPvPKvE_4_FUNES4_S5_S7_@Base 6.2.1
 (optional=templinst)_ZZN9QtPrivate16QMetaTypeForTypeIdE10getMoveCtrEvENUlPKNS_18QMetaTypeInterfaceEPvS5_E_4_FUNES4_S5_S5_@Base 6.2.1
 (optional=templinst)_ZZN9QtPrivate16QMetaTypeForTypeIdE13getDefaultCtrEvENUlPKNS_18QMetaTypeInterfaceEPvE_4_FUNES4_S5_@Base 6.2.1
 (optional=templinst)_ZZN9QtPrivate16QMetaTypeForTypeIfE10getCopyCtrEvENUlPKNS_18QMetaTypeInterfaceEPvPKvE_4_FUNES4_S5_S7_@Base 6.2.1
 (optional=templinst)_ZZN9QtPrivate16QMetaTypeForTypeIfE10getMoveCtrEvENUlPKNS_18QMetaTypeInterfaceEPvS5_E_4_FUNES4_S5_S5_@Base 6.2.1
 (optional=templinst)_ZZN9QtPrivate16QMetaTypeForTypeIfE13getDefaultCtrEvENUlPKNS_18QMetaTypeInterfaceEPvE_4_FUNES4_S5_@Base 6.2.1
 (optional=templinst)_ZZN9QtPrivate16QMetaTypeForTypeIiE10getCopyCtrEvENUlPKNS_18QMetaTypeInterfaceEPvPKvE_4_FUNES4_S5_S7_@Base 6.2.1
 (optional=templinst)_ZZN9QtPrivate16QMetaTypeForTypeIiE10getMoveCtrEvENUlPKNS_18QMetaTypeInterfaceEPvS5_E_4_FUNES4_S5_S5_@Base 6.2.1
 (optional=templinst)_ZZN9QtPrivate16QMetaTypeForTypeIiE13getDefaultCtrEvENUlPKNS_18QMetaTypeInterfaceEPvE_4_FUNES4_S5_@Base 6.2.1
 (optional=templinst)_ZZN9QtPrivate16QMetaTypeForTypeIxE10getCopyCtrEvENUlPKNS_18QMetaTypeInterfaceEPvPKvE_4_FUNES4_S5_S7_@Base 6.2.1
 (optional=templinst)_ZZN9QtPrivate16QMetaTypeForTypeIxE10getMoveCtrEvENUlPKNS_18QMetaTypeInterfaceEPvS5_E_4_FUNES4_S5_S5_@Base 6.2.1
 (optional=templinst)_ZZN9QtPrivate16QMetaTypeForTypeIxE13getDefaultCtrEvENUlPKNS_18QMetaTypeInterfaceEPvE_4_FUNES4_S5_@Base 6.2.1
 _Zls6QDebugN11QVideoFrame10HandleTypeE@Base 6.2.1
 _Zls6QDebugN11QVideoFrame7MapModeE@Base 6.2.1
 _Zls6QDebugN12QAudioDevice4ModeE@Base 6.2.1
 _Zls6QDebugN12QAudioFormat12SampleFormatE@Base 6.2.1
 _Zls6QDebugN17QVideoFrameFormat11PixelFormatE@Base 6.2.1
 _Zls6QDebugN17QVideoFrameFormat15YCbCrColorSpaceE@Base 6.2.1
 _Zls6QDebugN17QVideoFrameFormat9DirectionE@Base 6.2.1
 _Zls6QDebugN6QAudio11VolumeScaleE@Base 6.2.1
 _Zls6QDebugN6QAudio5ErrorE@Base 6.2.1
 _Zls6QDebugN6QAudio5StateE@Base 6.2.1
 _Zls6QDebugRK11QVideoFrame@Base 6.2.1
 _Zls6QDebugRK12QAudioFormat@Base 6.2.1
 _Zls6QDebugRK13QCameraDevice@Base 6.2.1
 _Zls6QDebugRK15QMediaTimeRange@Base 6.2.1
 _Zls6QDebugRK17QVideoFrameFormat@Base 6.2.1
 _Zls6QDebugRKN15QMediaTimeRange8IntervalE@Base 6.2.1
 (c++)"non-virtual thunk to QGstreamerAudioInput::setAudioDevice(QAudioDevice const&)@Base" 6.2.1
 (c++)"non-virtual thunk to QGstreamerAudioInput::setMuted(bool)@Base" 6.2.1
 (c++)"non-virtual thunk to QGstreamerAudioInput::setVolume(float)@Base" 6.2.1
 (c++)"non-virtual thunk to QGstreamerAudioInput::~QGstreamerAudioInput()@Base" 6.2.1
 (c++)"non-virtual thunk to QGstreamerAudioOutput::setAudioDevice(QAudioDevice const&)@Base" 6.2.1
 (c++)"non-virtual thunk to QGstreamerAudioOutput::setMuted(bool)@Base" 6.2.1
 (c++)"non-virtual thunk to QGstreamerAudioOutput::setVolume(float)@Base" 6.2.1
 (c++)"non-virtual thunk to QGstreamerAudioOutput::~QGstreamerAudioOutput()@Base" 6.2.1
 (c++)"non-virtual thunk to QGstreamerMediaPlayer::activeTrack(QPlatformMediaPlayer::TrackType)@Base" 6.2.1
 (c++)"non-virtual thunk to QGstreamerMediaPlayer::availablePlaybackRanges() const@Base" 6.2.1
 (c++)"non-virtual thunk to QGstreamerMediaPlayer::bufferProgress() const@Base" 6.2.1
 (c++)"non-virtual thunk to QGstreamerMediaPlayer::duration() const@Base" 6.2.1
 (c++)"non-virtual thunk to QGstreamerMediaPlayer::media() const@Base" 6.2.1
 (c++)"non-virtual thunk to QGstreamerMediaPlayer::mediaStream() const@Base" 6.2.1
 (c++)"non-virtual thunk to QGstreamerMediaPlayer::metaData() const@Base" 6.2.1
 (c++)"non-virtual thunk to QGstreamerMediaPlayer::pause()@Base" 6.2.1
 (c++)"non-virtual thunk to QGstreamerMediaPlayer::play()@Base" 6.2.1
 (c++)"non-virtual thunk to QGstreamerMediaPlayer::playbackRate() const@Base" 6.2.1
 (c++)"non-virtual thunk to QGstreamerMediaPlayer::position() const@Base" 6.2.1
 (c++)"non-virtual thunk to QGstreamerMediaPlayer::processBusMessage(QGstreamerMessage const&)@Base" 6.2.1
 (c++)"non-virtual thunk to QGstreamerMediaPlayer::processSyncMessage(QGstreamerMessage const&)@Base" 6.2.1
 (c++)"non-virtual thunk to QGstreamerMediaPlayer::setActiveTrack(QPlatformMediaPlayer::TrackType, int)@Base" 6.2.1
 (c++)"non-virtual thunk to QGstreamerMediaPlayer::setAudioOutput(QPlatformAudioOutput*)@Base" 6.2.1
 (c++)"non-virtual thunk to QGstreamerMediaPlayer::setMedia(QUrl const&, QIODevice*)@Base" 6.2.1
 (c++)"non-virtual thunk to QGstreamerMediaPlayer::setPlaybackRate(double)@Base" 6.2.1
 (c++)"non-virtual thunk to QGstreamerMediaPlayer::setPosition(long long)@Base" 6.2.1
 (c++)"non-virtual thunk to QGstreamerMediaPlayer::setVideoSink(QVideoSink*)@Base" 6.2.1
 (c++)"non-virtual thunk to QGstreamerMediaPlayer::stop()@Base" 6.2.1
 (c++)"non-virtual thunk to QGstreamerMediaPlayer::trackCount(QPlatformMediaPlayer::TrackType)@Base" 6.2.1
 (c++)"non-virtual thunk to QGstreamerMediaPlayer::trackMetaData(QPlatformMediaPlayer::TrackType, int)@Base" 6.2.1
 (c++)"non-virtual thunk to QGstreamerMediaPlayer::~QGstreamerMediaPlayer()@Base" 6.2.1
 (c++)"non-virtual thunk to QGstreamerVideoOverlay::probeCaps(_GstCaps*)@Base" 6.2.1
 (c++)"non-virtual thunk to QGstreamerVideoOverlay::processSyncMessage(QGstreamerMessage const&)@Base" 6.2.1
 (c++)"non-virtual thunk to QGstreamerVideoOverlay::~QGstreamerVideoOverlay()@Base" 6.2.1
 (c++)"non-virtual thunk to QVideoWindow::~QVideoWindow()@Base" 6.2.1
