# SymbolsHelper-Confirmed: 6.2.1 amd64
libQt6MultimediaQuick.so.6 libqt6multimediaquick6 #MINVER#
* Build-Depends-Package: qt6-multimedia-dev
 _Z31qml_register_types_QtMultimediav@Base 6.2.1
 _ZN15QSGVideoTexture13setRhiTextureEP11QRhiTexture@Base 6.2.1
 _ZN15QSGVideoTexture15setNativeObjectEyRK5QSizeN11QRhiTexture6FormatE@Base 6.2.1
 _ZN15QSGVideoTexture23commitTextureOperationsEP4QRhiP23QRhiResourceUpdateBatch@Base 6.2.1
 _ZN15QSGVideoTexture7setDataEN11QRhiTexture6FormatERK5QSizePKhi@Base 6.2.1
 _ZN15QSGVideoTextureC1Ev@Base 6.2.1
 _ZN15QSGVideoTextureC2Ev@Base 6.2.1
 _ZN15QSGVideoTextureD0Ev@Base 6.2.1
 _ZN15QSGVideoTextureD1Ev@Base 6.2.1
 _ZN15QSGVideoTextureD2Ev@Base 6.2.1
 _ZN17QQuickVideoOutput10itemChangeEN10QQuickItem10ItemChangeERKNS0_14ItemChangeDataE@Base 6.2.1
 _ZN17QQuickVideoOutput11_q_newFrameERK11QVideoFrame@Base 6.2.1
 _ZN17QQuickVideoOutput11qt_metacallEN11QMetaObject4CallEiPPv@Base 6.2.1
 _ZN17QQuickVideoOutput11qt_metacastEPKc@Base 6.2.1
 _ZN17QQuickVideoOutput11setFillModeENS_8FillModeE@Base 6.2.1
 _ZN17QQuickVideoOutput13sourceChangedEv@Base 6.2.1
 _ZN17QQuickVideoOutput14geometryChangeERK6QRectFS2_@Base 6.2.1
 _ZN17QQuickVideoOutput14initRhiForSinkEv@Base 6.2.1
 _ZN17QQuickVideoOutput14setOrientationEi@Base 6.2.1
 _ZN17QQuickVideoOutput14updateGeometryEv@Base 6.2.1
 _ZN17QQuickVideoOutput15fillModeChangedENS_8FillModeE@Base 6.2.1
 _ZN17QQuickVideoOutput15updatePaintNodeEP7QSGNodePN10QQuickItem19UpdatePaintNodeDataE@Base 6.2.1
 _ZN17QQuickVideoOutput16releaseResourcesEv@Base 6.2.1
 _ZN17QQuickVideoOutput16staticMetaObjectE@Base 6.2.1
 _ZN17QQuickVideoOutput17_q_updateGeometryEv@Base 6.2.1
 _ZN17QQuickVideoOutput17sourceRectChangedEv@Base 6.2.1
 _ZN17QQuickVideoOutput18contentRectChangedEv@Base 6.2.1
 _ZN17QQuickVideoOutput18orientationChangedEv@Base 6.2.1
 _ZN17QQuickVideoOutput20invalidateSceneGraphEv@Base 6.2.1
 _ZN17QQuickVideoOutput23_q_invalidateSceneGraphEv@Base 6.2.1
 _ZN17QQuickVideoOutput24_q_sceneGraphInitializedEv@Base 6.2.1
 _ZN17QQuickVideoOutput4stopEv@Base 6.2.1
 _ZN17QQuickVideoOutput7presentERK11QVideoFrame@Base 6.2.1
 _ZN17QQuickVideoOutputC1EP10QQuickItem@Base 6.2.1
 _ZN17QQuickVideoOutputC2EP10QQuickItem@Base 6.2.1
 _ZN17QQuickVideoOutputD0Ev@Base 6.2.1
 _ZN17QQuickVideoOutputD1Ev@Base 6.2.1
 _ZN17QQuickVideoOutputD2Ev@Base 6.2.1
 _ZN26QQuickImagePreviewProvider12requestImageERK7QStringP5QSizeRKS3_@Base 6.2.1
 _ZN26QQuickImagePreviewProvider15registerPreviewERK7QStringRK6QImage@Base 6.2.1
 _ZN26QQuickImagePreviewProviderC1Ev@Base 6.2.1
 _ZN26QQuickImagePreviewProviderC2Ev@Base 6.2.1
 _ZN26QQuickImagePreviewProviderD0Ev@Base 6.2.1
 _ZN26QQuickImagePreviewProviderD1Ev@Base 6.2.1
 _ZN26QQuickImagePreviewProviderD2Ev@Base 6.2.1
 _ZNK15QSGVideoTexture10hasMipmapsEv@Base 6.2.1
 _ZNK15QSGVideoTexture10rhiTextureEv@Base 6.2.1
 _ZNK15QSGVideoTexture11textureSizeEv@Base 6.2.1
 _ZNK15QSGVideoTexture13comparisonKeyEv@Base 6.2.1
 _ZNK15QSGVideoTexture15hasAlphaChannelEv@Base 6.2.1
 _ZNK17QQuickVideoOutput10metaObjectEv@Base 6.2.1
 _ZNK17QQuickVideoOutput10nativeSizeEv@Base 6.2.1
 _ZNK17QQuickVideoOutput10sourceRectEv@Base 6.2.1
 _ZNK17QQuickVideoOutput11contentRectEv@Base 6.2.1
 _ZNK17QQuickVideoOutput11orientationEv@Base 6.2.1
 _ZNK17QQuickVideoOutput16adjustedViewportEv@Base 6.2.1
 _ZNK17QQuickVideoOutput8fillModeEv@Base 6.2.1
 _ZNK17QQuickVideoOutput9videoSinkEv@Base 6.2.1
 _ZTI15QSGVideoTexture@Base 6.2.1
 _ZTI17QQuickVideoOutput@Base 6.2.1
 _ZTI26QQuickImagePreviewProvider@Base 6.2.1
 _ZTS15QSGVideoTexture@Base 6.2.1
 _ZTS17QQuickVideoOutput@Base 6.2.1
 _ZTS26QQuickImagePreviewProvider@Base 6.2.1
 _ZTV15QSGVideoTexture@Base 6.2.1
 _ZTV17QQuickVideoOutput@Base 6.2.1
 _ZTV26QQuickImagePreviewProvider@Base 6.2.1
 (optional=templinst)_ZZN9QtPrivate16QMetaTypeForTypeI4QUrlE10getCopyCtrEvENUlPKNS_18QMetaTypeInterfaceEPvPKvE_4_FUNES5_S6_S8_@Base 6.2.1
 (optional=templinst)_ZZN9QtPrivate16QMetaTypeForTypeI4QUrlE10getMoveCtrEvENUlPKNS_18QMetaTypeInterfaceEPvS6_E_4_FUNES5_S6_S6_@Base 6.2.1
 (optional=templinst)_ZZN9QtPrivate16QMetaTypeForTypeI4QUrlE13getDefaultCtrEvENUlPKNS_18QMetaTypeInterfaceEPvE_4_FUNES5_S6_@Base 6.2.1
 (optional=templinst)_ZZN9QtPrivate16QMetaTypeForTypeI4QUrlE7getDtorEvENUlPKNS_18QMetaTypeInterfaceEPvE_4_FUNES5_S6_@Base 6.2.1
 (optional=templinst)_ZZN9QtPrivate16QMetaTypeForTypeI6QRectFE10getCopyCtrEvENUlPKNS_18QMetaTypeInterfaceEPvPKvE_4_FUNES5_S6_S8_@Base 6.2.1
 (optional=templinst)_ZZN9QtPrivate16QMetaTypeForTypeI6QRectFE10getMoveCtrEvENUlPKNS_18QMetaTypeInterfaceEPvS6_E_4_FUNES5_S6_S6_@Base 6.2.1
 (optional=templinst)_ZZN9QtPrivate16QMetaTypeForTypeI6QRectFE13getDefaultCtrEvENUlPKNS_18QMetaTypeInterfaceEPvE_4_FUNES5_S6_@Base 6.2.1
 (optional=templinst)_ZZN9QtPrivate16QMetaTypeForTypeI7QStringE10getCopyCtrEvENUlPKNS_18QMetaTypeInterfaceEPvPKvE_4_FUNES5_S6_S8_@Base 6.2.1
 (optional=templinst)_ZZN9QtPrivate16QMetaTypeForTypeI7QStringE10getMoveCtrEvENUlPKNS_18QMetaTypeInterfaceEPvS6_E_4_FUNES5_S6_S6_@Base 6.2.1
 (optional=templinst)_ZZN9QtPrivate16QMetaTypeForTypeI7QStringE13getDefaultCtrEvENUlPKNS_18QMetaTypeInterfaceEPvE_4_FUNES5_S6_@Base 6.2.1
 (optional=templinst)_ZZN9QtPrivate16QMetaTypeForTypeI7QStringE7getDtorEvENUlPKNS_18QMetaTypeInterfaceEPvE_4_FUNES5_S6_@Base 6.2.1
 (optional=templinst)_ZZN9QtPrivate16QMetaTypeForTypeIiE10getCopyCtrEvENUlPKNS_18QMetaTypeInterfaceEPvPKvE_4_FUNES4_S5_S7_@Base 6.2.1
 (optional=templinst)_ZZN9QtPrivate16QMetaTypeForTypeIiE10getMoveCtrEvENUlPKNS_18QMetaTypeInterfaceEPvS5_E_4_FUNES4_S5_S5_@Base 6.2.1
 (optional=templinst)_ZZN9QtPrivate16QMetaTypeForTypeIiE13getDefaultCtrEvENUlPKNS_18QMetaTypeInterfaceEPvE_4_FUNES4_S5_@Base 6.2.1
 (c++)"non-virtual thunk to QQuickVideoOutput::~QQuickVideoOutput()@Base" 6.2.1
