# SymbolsHelper-Confirmed: 6.2.2 amd64 armel armhf i386
libQt6Core5Compat.so.6 libqt6core5compat6 #MINVER#
* Build-Depends-Package: libqt6core5compat6-dev
 _Z21qt_regexp_toCanonicalRK7QStringN7QRegExp13PatternSyntaxE@Base 6.2.1
 (subst)_Z5qHashRK7QRegExp{size_t}@Base 6.2.1
 (subst)_ZN10QStringRef14compare_helperEPK5QChar{qptrdiff}13QLatin1StringN2Qt15CaseSensitivityE@Base 6.2.1
 (subst)_ZN10QStringRef14compare_helperEPK5QChar{qptrdiff}PKc{qptrdiff}N2Qt15CaseSensitivityE@Base 6.2.1
 (subst)_ZN10QStringRef14compare_helperEPK5QChar{qptrdiff}S2_{qptrdiff}N2Qt15CaseSensitivityE@Base 6.2.1
 _ZN10QTextCodec11codecForMibEi@Base 6.2.1
 _ZN10QTextCodec12codecForHtmlERK10QByteArray@Base 6.2.1
 _ZN10QTextCodec12codecForHtmlERK10QByteArrayPS_@Base 6.2.1
 _ZN10QTextCodec12codecForNameERK10QByteArray@Base 6.2.1
 _ZN10QTextCodec13availableMibsEv@Base 6.2.1
 _ZN10QTextCodec14codecForLocaleEv@Base 6.2.1
 _ZN10QTextCodec15availableCodecsEv@Base 6.2.1
 _ZN10QTextCodec15codecForUtfTextERK10QByteArray@Base 6.2.1
 _ZN10QTextCodec15codecForUtfTextERK10QByteArrayPS_@Base 6.2.1
 _ZN10QTextCodec17setCodecForLocaleEPS_@Base 6.2.1
 _ZN10QTextCodecC1Ev@Base 6.2.1
 _ZN10QTextCodecC2Ev@Base 6.2.1
 _ZN10QTextCodecD0Ev@Base 6.2.1
 _ZN10QTextCodecD1Ev@Base 6.2.1
 _ZN10QTextCodecD2Ev@Base 6.2.1
 _ZN11QBinaryJson11fromRawDataEPKciNS_14DataValidationE@Base 6.2.1
 _ZN11QBinaryJson12toBinaryDataERK13QJsonDocument@Base 6.2.1
 _ZN11QBinaryJson14fromBinaryDataERK10QByteArrayNS_14DataValidationE@Base 6.2.1
 _ZN11QBinaryJson9toRawDataERK13QJsonDocumentPi@Base 6.2.1
 _ZN11QXmlLocatorC1Ev@Base 6.2.1
 _ZN11QXmlLocatorC2Ev@Base 6.2.1
 _ZN11QXmlLocatorD0Ev@Base 6.2.1
 _ZN11QXmlLocatorD1Ev@Base 6.2.1
 _ZN11QXmlLocatorD2Ev@Base 6.2.1
 _ZN12QTextDecoder9toUnicodeEP7QStringPKci@Base 6.2.1
 _ZN12QTextDecoder9toUnicodeEPKci@Base 6.2.1
 _ZN12QTextDecoder9toUnicodeERK10QByteArray@Base 6.2.1
 _ZN12QTextDecoderC1EPK10QTextCodec6QFlagsIN20QStringConverterBase4FlagEE@Base 6.2.1
 _ZN12QTextDecoderC2EPK10QTextCodec6QFlagsIN20QStringConverterBase4FlagEE@Base 6.2.1
 _ZN12QTextDecoderD1Ev@Base 6.2.1
 _ZN12QTextDecoderD2Ev@Base 6.2.1
 _ZN12QTextEncoder11fromUnicodeE11QStringView@Base 6.2.1
 _ZN12QTextEncoder11fromUnicodeEPK5QChari@Base 6.2.1
 _ZN12QTextEncoder11fromUnicodeERK7QString@Base 6.2.1
 _ZN12QTextEncoderC1EPK10QTextCodec6QFlagsIN20QStringConverterBase4FlagEE@Base 6.2.1
 _ZN12QTextEncoderC2EPK10QTextCodec6QFlagsIN20QStringConverterBase4FlagEE@Base 6.2.1
 _ZN12QTextEncoderD1Ev@Base 6.2.1
 _ZN12QTextEncoderD2Ev@Base 6.2.1
 _ZN14QXmlAttributes5clearEv@Base 6.2.1
 _ZN14QXmlAttributes6appendERK7QStringS2_S2_S2_@Base 6.2.1
 _ZN14QXmlAttributesC1Ev@Base 6.2.1
 _ZN14QXmlAttributesC2Ev@Base 6.2.1
 _ZN14QXmlAttributesD0Ev@Base 6.2.1
 _ZN14QXmlAttributesD1Ev@Base 6.2.1
 _ZN14QXmlAttributesD2Ev@Base 6.2.1
 _ZN15QLinkedListData11shared_nullE@Base 6.2.1
 _ZN15QXmlInputSource11fromRawDataERK10QByteArrayb@Base 6.2.1
 _ZN15QXmlInputSource13EndOfDocumentE@Base 6.2.1
 _ZN15QXmlInputSource4initEv@Base 6.2.1
 _ZN15QXmlInputSource4nextEv@Base 6.2.1
 _ZN15QXmlInputSource5resetEv@Base 6.2.1
 _ZN15QXmlInputSource7setDataERK10QByteArray@Base 6.2.1
 _ZN15QXmlInputSource7setDataERK7QString@Base 6.2.1
 _ZN15QXmlInputSource9EndOfDataE@Base 6.2.1
 _ZN15QXmlInputSource9fetchDataEv@Base 6.2.1
 _ZN15QXmlInputSourceC1EP9QIODevice@Base 6.2.1
 _ZN15QXmlInputSourceC1Ev@Base 6.2.1
 _ZN15QXmlInputSourceC2EP9QIODevice@Base 6.2.1
 _ZN15QXmlInputSourceC2Ev@Base 6.2.1
 _ZN15QXmlInputSourceD0Ev@Base 6.2.1
 _ZN15QXmlInputSourceD1Ev@Base 6.2.1
 _ZN15QXmlInputSourceD2Ev@Base 6.2.1
 _ZN16QBinaryJsonValue13fromJsonValueERK10QJsonValue@Base 6.2.1
 _ZN16QBinaryJsonValue6detachEv@Base 6.2.1
 _ZN16QBinaryJsonValueC1E7QString@Base 6.2.1
 _ZN16QBinaryJsonValueC1EPN18QBinaryJsonPrivate11MutableDataEPNS0_4BaseERKNS0_5ValueE@Base 6.2.1
 _ZN16QBinaryJsonValueC1ERK16QBinaryJsonArray@Base 6.2.1
 _ZN16QBinaryJsonValueC1ERK17QBinaryJsonObject@Base 6.2.1
 _ZN16QBinaryJsonValueC2E7QString@Base 6.2.1
 _ZN16QBinaryJsonValueC2EPN18QBinaryJsonPrivate11MutableDataEPNS0_4BaseERKNS0_5ValueE@Base 6.2.1
 _ZN16QBinaryJsonValueC2ERK16QBinaryJsonArray@Base 6.2.1
 _ZN16QBinaryJsonValueC2ERK17QBinaryJsonObject@Base 6.2.1
 _ZN16QBinaryJsonValueD1Ev@Base 6.2.1
 _ZN16QBinaryJsonValueD2Ev@Base 6.2.1
 _ZN16QXmlSimpleReader10setFeatureERK7QStringb@Base 6.2.1
 _ZN16QXmlSimpleReader11setPropertyERK7QStringPv@Base 6.2.1
 _ZN16QXmlSimpleReader13parseContinueEv@Base 6.2.1
 _ZN16QXmlSimpleReader13setDTDHandlerEP14QXmlDTDHandler@Base 6.2.1
 _ZN16QXmlSimpleReader14setDeclHandlerEP15QXmlDeclHandler@Base 6.2.1
 _ZN16QXmlSimpleReader15setErrorHandlerEP16QXmlErrorHandler@Base 6.2.1
 _ZN16QXmlSimpleReader17setContentHandlerEP18QXmlContentHandler@Base 6.2.1
 _ZN16QXmlSimpleReader17setEntityResolverEP18QXmlEntityResolver@Base 6.2.1
 _ZN16QXmlSimpleReader17setLexicalHandlerEP18QXmlLexicalHandler@Base 6.2.1
 _ZN16QXmlSimpleReader5parseEPK15QXmlInputSource@Base 6.2.1
 _ZN16QXmlSimpleReader5parseEPK15QXmlInputSourceb@Base 6.2.1
 _ZN16QXmlSimpleReader5parseERK15QXmlInputSource@Base 6.2.1
 _ZN16QXmlSimpleReaderC1Ev@Base 6.2.1
 _ZN16QXmlSimpleReaderC2Ev@Base 6.2.1
 _ZN16QXmlSimpleReaderD0Ev@Base 6.2.1
 _ZN16QXmlSimpleReaderD1Ev@Base 6.2.1
 _ZN16QXmlSimpleReaderD2Ev@Base 6.2.1
 _ZN18QXmlDefaultHandler10charactersERK7QString@Base 6.2.1
 _ZN18QXmlDefaultHandler10endElementERK7QStringS2_S2_@Base 6.2.1
 _ZN18QXmlDefaultHandler10fatalErrorERK18QXmlParseException@Base 6.2.1
 _ZN18QXmlDefaultHandler10startCDATAEv@Base 6.2.1
 _ZN18QXmlDefaultHandler11endDocumentEv@Base 6.2.1
 _ZN18QXmlDefaultHandler11startEntityERK7QString@Base 6.2.1
 _ZN18QXmlDefaultHandler12notationDeclERK7QStringS2_S2_@Base 6.2.1
 _ZN18QXmlDefaultHandler12startElementERK7QStringS2_S2_RK14QXmlAttributes@Base 6.2.1
 _ZN18QXmlDefaultHandler13attributeDeclERK7QStringS2_S2_S2_S2_@Base 6.2.1
 _ZN18QXmlDefaultHandler13resolveEntityERK7QStringS2_RP15QXmlInputSource@Base 6.2.1
 _ZN18QXmlDefaultHandler13skippedEntityERK7QString@Base 6.2.1
 _ZN18QXmlDefaultHandler13startDocumentEv@Base 6.2.1
 _ZN18QXmlDefaultHandler16endPrefixMappingERK7QString@Base 6.2.1
 _ZN18QXmlDefaultHandler18externalEntityDeclERK7QStringS2_S2_@Base 6.2.1
 _ZN18QXmlDefaultHandler18internalEntityDeclERK7QStringS2_@Base 6.2.1
 _ZN18QXmlDefaultHandler18setDocumentLocatorEP11QXmlLocator@Base 6.2.1
 _ZN18QXmlDefaultHandler18startPrefixMappingERK7QStringS2_@Base 6.2.1
 _ZN18QXmlDefaultHandler18unparsedEntityDeclERK7QStringS2_S2_S2_@Base 6.2.1
 _ZN18QXmlDefaultHandler19ignorableWhitespaceERK7QString@Base 6.2.1
 _ZN18QXmlDefaultHandler21processingInstructionERK7QStringS2_@Base 6.2.1
 _ZN18QXmlDefaultHandler5errorERK18QXmlParseException@Base 6.2.1
 _ZN18QXmlDefaultHandler6endDTDEv@Base 6.2.1
 _ZN18QXmlDefaultHandler7commentERK7QString@Base 6.2.1
 _ZN18QXmlDefaultHandler7warningERK18QXmlParseException@Base 6.2.1
 _ZN18QXmlDefaultHandler8endCDATAEv@Base 6.2.1
 _ZN18QXmlDefaultHandler8startDTDERK7QStringS2_S2_@Base 6.2.1
 _ZN18QXmlDefaultHandler9endEntityERK7QString@Base 6.2.1
 _ZN18QXmlDefaultHandlerC1Ev@Base 6.2.1
 _ZN18QXmlDefaultHandlerC2Ev@Base 6.2.1
 _ZN18QXmlDefaultHandlerD0Ev@Base 6.2.1
 _ZN18QXmlDefaultHandlerD1Ev@Base 6.2.1
 _ZN18QXmlDefaultHandlerD2Ev@Base 6.2.1
 _ZN18QXmlParseExceptionC1ERK7QStringiiS2_S2_@Base 6.2.1
 _ZN18QXmlParseExceptionC1ERKS_@Base 6.2.1
 _ZN18QXmlParseExceptionC2ERK7QStringiiS2_S2_@Base 6.2.1
 _ZN18QXmlParseExceptionC2ERKS_@Base 6.2.1
 _ZN18QXmlParseExceptionD1Ev@Base 6.2.1
 _ZN18QXmlParseExceptionD2Ev@Base 6.2.1
 _ZN20QXmlNamespaceSupport10popContextEv@Base 6.2.1
 _ZN20QXmlNamespaceSupport11pushContextEv@Base 6.2.1
 _ZN20QXmlNamespaceSupport5resetEv@Base 6.2.1
 _ZN20QXmlNamespaceSupport9setPrefixERK7QStringS2_@Base 6.2.1
 _ZN20QXmlNamespaceSupportC1Ev@Base 6.2.1
 _ZN20QXmlNamespaceSupportC2Ev@Base 6.2.1
 _ZN20QXmlNamespaceSupportD1Ev@Base 6.2.1
 _ZN20QXmlNamespaceSupportD2Ev@Base 6.2.1
 _ZN2Qt12codecForHtmlERK10QByteArray@Base 6.2.1
 _ZN7QRegExp10setMinimalEb@Base 6.2.1
 _ZN7QRegExp10setPatternERK7QString@Base 6.2.1
 _ZN7QRegExp11errorStringEv@Base 6.2.1
 _ZN7QRegExp13capturedTextsEv@Base 6.2.1
 _ZN7QRegExp16setPatternSyntaxENS_13PatternSyntaxE@Base 6.2.1
 _ZN7QRegExp18setCaseSensitivityEN2Qt15CaseSensitivityE@Base 6.2.1
 _ZN7QRegExp3capEi@Base 6.2.1
 _ZN7QRegExp3posEi@Base 6.2.1
 _ZN7QRegExp6escapeERK7QString@Base 6.2.1
 _ZN7QRegExpC1ERK7QStringN2Qt15CaseSensitivityENS_13PatternSyntaxE@Base 6.2.1
 _ZN7QRegExpC1ERKS_@Base 6.2.1
 _ZN7QRegExpC1Ev@Base 6.2.1
 _ZN7QRegExpC2ERK7QStringN2Qt15CaseSensitivityENS_13PatternSyntaxE@Base 6.2.1
 _ZN7QRegExpC2ERKS_@Base 6.2.1
 _ZN7QRegExpC2Ev@Base 6.2.1
 _ZN7QRegExpD1Ev@Base 6.2.1
 _ZN7QRegExpD2Ev@Base 6.2.1
 _ZN7QRegExpaSERKS_@Base 6.2.1
 _ZN7QString5clearEv@Base 6.2.1
 _ZNK10QStringRef10startsWithE13QLatin1StringN2Qt15CaseSensitivityE@Base 6.2.1
 _ZNK10QStringRef10startsWithE5QCharN2Qt15CaseSensitivityE@Base 6.2.1
 _ZNK10QStringRef10startsWithERK7QStringN2Qt15CaseSensitivityE@Base 6.2.1
 _ZNK10QStringRef10startsWithERKS_N2Qt15CaseSensitivityE@Base 6.2.1
 _ZNK10QStringRef10toLongLongEPbi@Base 6.2.1
 _ZNK10QStringRef11lastIndexOfE13QLatin1StringiN2Qt15CaseSensitivityE@Base 6.2.1
 _ZNK10QStringRef11lastIndexOfE5QChariN2Qt15CaseSensitivityE@Base 6.2.1
 _ZNK10QStringRef11lastIndexOfERK7QStringiN2Qt15CaseSensitivityE@Base 6.2.1
 _ZNK10QStringRef11lastIndexOfERKS_iN2Qt15CaseSensitivityE@Base 6.2.1
 _ZNK10QStringRef11toLocal8BitEv@Base 6.2.1
 _ZNK10QStringRef11toULongLongEPbi@Base 6.2.1
 _ZNK10QStringRef13isRightToLeftEv@Base 6.2.1
 _ZNK10QStringRef3midEii@Base 6.2.1
 _ZNK10QStringRef4leftEi@Base 6.2.1
 _ZNK10QStringRef5countE5QCharN2Qt15CaseSensitivityE@Base 6.2.1
 _ZNK10QStringRef5countERK7QStringN2Qt15CaseSensitivityE@Base 6.2.1
 _ZNK10QStringRef5countERKS_N2Qt15CaseSensitivityE@Base 6.2.1
 _ZNK10QStringRef5rightEi@Base 6.2.1
 _ZNK10QStringRef5splitE5QChar6QFlagsIN2Qt18SplitBehaviorFlagsEENS2_15CaseSensitivityE@Base 6.2.1
 _ZNK10QStringRef5splitERK7QString6QFlagsIN2Qt18SplitBehaviorFlagsEENS4_15CaseSensitivityE@Base 6.2.1
 _ZNK10QStringRef5toIntEPbi@Base 6.2.1
 _ZNK10QStringRef6toLongEPbi@Base 6.2.1
 _ZNK10QStringRef6toUIntEPbi@Base 6.2.1
 _ZNK10QStringRef6toUcs4Ev@Base 6.2.1
 _ZNK10QStringRef6toUtf8Ev@Base 6.2.1
 _ZNK10QStringRef7indexOfE13QLatin1StringiN2Qt15CaseSensitivityE@Base 6.2.1
 _ZNK10QStringRef7indexOfE5QChariN2Qt15CaseSensitivityE@Base 6.2.1
 _ZNK10QStringRef7indexOfERK7QStringiN2Qt15CaseSensitivityE@Base 6.2.1
 _ZNK10QStringRef7indexOfERKS_iN2Qt15CaseSensitivityE@Base 6.2.1
 _ZNK10QStringRef7toFloatEPb@Base 6.2.1
 _ZNK10QStringRef7toShortEPbi@Base 6.2.1
 _ZNK10QStringRef7toULongEPbi@Base 6.2.1
 _ZNK10QStringRef7trimmedEv@Base 6.2.1
 _ZNK10QStringRef8appendToEP7QString@Base 6.2.1
 _ZNK10QStringRef8endsWithE13QLatin1StringN2Qt15CaseSensitivityE@Base 6.2.1
 _ZNK10QStringRef8endsWithE5QCharN2Qt15CaseSensitivityE@Base 6.2.1
 _ZNK10QStringRef8endsWithERK7QStringN2Qt15CaseSensitivityE@Base 6.2.1
 _ZNK10QStringRef8endsWithERKS_N2Qt15CaseSensitivityE@Base 6.2.1
 _ZNK10QStringRef8toDoubleEPb@Base 6.2.1
 _ZNK10QStringRef8toLatin1Ev@Base 6.2.1
 _ZNK10QStringRef8toStringEv@Base 6.2.1
 _ZNK10QStringRef8toUShortEPbi@Base 6.2.1
 _ZNK10QTextCodec11fromUnicodeE11QStringView@Base 6.2.1
 _ZNK10QTextCodec11fromUnicodeERK7QString@Base 6.2.1
 _ZNK10QTextCodec11makeDecoderE6QFlagsIN20QStringConverterBase4FlagEE@Base 6.2.1
 _ZNK10QTextCodec11makeEncoderE6QFlagsIN20QStringConverterBase4FlagEE@Base 6.2.1
 _ZNK10QTextCodec7aliasesEv@Base 6.2.1
 _ZNK10QTextCodec9canEncodeE11QStringView@Base 6.2.1
 _ZNK10QTextCodec9canEncodeE5QChar@Base 6.2.1
 _ZNK10QTextCodec9canEncodeERK7QString@Base 6.2.1
 _ZNK10QTextCodec9toUnicodeEPKc@Base 6.2.1
 _ZNK10QTextCodec9toUnicodeERK10QByteArray@Base 6.2.1
 _ZNK12QTextDecoder10hasFailureEv@Base 6.2.1
 _ZNK12QTextDecoder13needsMoreDataEv@Base 6.2.1
 _ZNK12QTextEncoder10hasFailureEv@Base 6.2.1
 _ZNK14QXmlAttributes3uriEi@Base 6.2.1
 _ZNK14QXmlAttributes4typeERK7QString@Base 6.2.1
 _ZNK14QXmlAttributes4typeERK7QStringS2_@Base 6.2.1
 _ZNK14QXmlAttributes4typeEi@Base 6.2.1
 _ZNK14QXmlAttributes5indexE13QLatin1String@Base 6.2.1
 _ZNK14QXmlAttributes5indexERK7QString@Base 6.2.1
 _ZNK14QXmlAttributes5indexERK7QStringS2_@Base 6.2.1
 _ZNK14QXmlAttributes5qNameEi@Base 6.2.1
 _ZNK14QXmlAttributes5valueE13QLatin1String@Base 6.2.1
 _ZNK14QXmlAttributes5valueERK7QString@Base 6.2.1
 _ZNK14QXmlAttributes5valueERK7QStringS2_@Base 6.2.1
 _ZNK14QXmlAttributes5valueEi@Base 6.2.1
 _ZNK14QXmlAttributes6lengthEv@Base 6.2.1
 _ZNK14QXmlAttributes9localNameEi@Base 6.2.1
 _ZNK15QXmlInputSource4dataEv@Base 6.2.1
 _ZNK16QBinaryJsonValue8toStringEv@Base 6.2.1
 _ZNK16QXmlSimpleReader10DTDHandlerEv@Base 6.2.1
 _ZNK16QXmlSimpleReader10hasFeatureERK7QString@Base 6.2.1
 _ZNK16QXmlSimpleReader11declHandlerEv@Base 6.2.1
 _ZNK16QXmlSimpleReader11hasPropertyERK7QString@Base 6.2.1
 _ZNK16QXmlSimpleReader12errorHandlerEv@Base 6.2.1
 _ZNK16QXmlSimpleReader14contentHandlerEv@Base 6.2.1
 _ZNK16QXmlSimpleReader14entityResolverEv@Base 6.2.1
 _ZNK16QXmlSimpleReader14lexicalHandlerEv@Base 6.2.1
 _ZNK16QXmlSimpleReader7featureERK7QStringPb@Base 6.2.1
 _ZNK16QXmlSimpleReader8propertyERK7QStringPb@Base 6.2.1
 _ZNK18QXmlDefaultHandler11errorStringEv@Base 6.2.1
 _ZNK18QXmlParseException10lineNumberEv@Base 6.2.1
 _ZNK18QXmlParseException12columnNumberEv@Base 6.2.1
 _ZNK18QXmlParseException7messageEv@Base 6.2.1
 _ZNK18QXmlParseException8publicIdEv@Base 6.2.1
 _ZNK18QXmlParseException8systemIdEv@Base 6.2.1
 _ZNK20QXmlNamespaceSupport11processNameERK7QStringbRS0_S3_@Base 6.2.1
 _ZNK20QXmlNamespaceSupport3uriERK7QString@Base 6.2.1
 _ZNK20QXmlNamespaceSupport6prefixERK7QString@Base 6.2.1
 _ZNK20QXmlNamespaceSupport8prefixesERK7QString@Base 6.2.1
 _ZNK20QXmlNamespaceSupport8prefixesEv@Base 6.2.1
 _ZNK20QXmlNamespaceSupport9splitNameERK7QStringRS0_S3_@Base 6.2.1
 _ZNK7QRegExp10exactMatchERK7QString@Base 6.2.1
 _ZNK7QRegExp10filterListERK5QListI7QStringE@Base 6.2.1
 _ZNK7QRegExp11errorStringEv@Base 6.2.1
 _ZNK7QRegExp11lastIndexInERK5QListI7QStringEi@Base 6.2.1
 _ZNK7QRegExp11lastIndexInERK7QStringiNS_9CaretModeE@Base 6.2.1
 _ZNK7QRegExp11splitStringERK7QString6QFlagsIN2Qt18SplitBehaviorFlagsEE@Base 6.2.1
 _ZNK7QRegExp12captureCountEv@Base 6.2.1
 _ZNK7QRegExp13capturedTextsEv@Base 6.2.1
 _ZNK7QRegExp13matchedLengthEv@Base 6.2.1
 _ZNK7QRegExp13patternSyntaxEv@Base 6.2.1
 _ZNK7QRegExp15caseSensitivityEv@Base 6.2.1
 _ZNK7QRegExp3capEi@Base 6.2.1
 _ZNK7QRegExp3posEi@Base 6.2.1
 _ZNK7QRegExp7countInERK7QString@Base 6.2.1
 _ZNK7QRegExp7indexInERK5QListI7QStringEi@Base 6.2.1
 _ZNK7QRegExp7indexInERK7QStringiNS_9CaretModeE@Base 6.2.1
 _ZNK7QRegExp7isEmptyEv@Base 6.2.1
 _ZNK7QRegExp7isValidEv@Base 6.2.1
 _ZNK7QRegExp7patternEv@Base 6.2.1
 _ZNK7QRegExp9isMinimalEv@Base 6.2.1
 _ZNK7QRegExp9replaceInERK5QListI7QStringERKS1_@Base 6.2.1
 _ZNK7QRegExp9replaceInERK7QStringS2_@Base 6.2.1
 _ZNK7QRegExpcv8QVariantEv@Base 6.2.1
 _ZNK7QRegExpeqERKS_@Base 6.2.1
 (optional=templinst)_ZNKSt8_Rb_treeI7QStringSt4pairIKS0_S0_ESt10_Select1stIS3_ESt4lessIS0_ESaIS3_EE4findERS2_@Base 6.2.1
 (optional=templinst|arch=amd64 i386)_ZNSt8_Rb_treeI7QStringSt4pairIKS0_S0_ESt10_Select1stIS3_ESt4lessIS0_ESaIS3_EE16_M_insert_uniqueIS3_EES1_ISt17_Rb_tree_iteratorIS3_EbEOT_@Base 6.2.1
 (optional=templinst)_ZNSt8_Rb_treeI7QStringSt4pairIKS0_S0_ESt10_Select1stIS3_ESt4lessIS0_ESaIS3_EE24_M_get_insert_unique_posERS2_@Base 6.2.1
 (optional=templinst|arch=amd64)_ZNSt8_Rb_treeI7QStringSt4pairIKS0_S0_ESt10_Select1stIS3_ESt4lessIS0_ESaIS3_EE29_M_get_insert_hint_unique_posESt23_Rb_tree_const_iteratorIS3_ERS2_@Base 6.2.2
 (optional=templinst)_ZNSt8_Rb_treeI7QStringSt4pairIKS0_S0_ESt10_Select1stIS3_ESt4lessIS0_ESaIS3_EE4findERS2_@Base 6.2.1
 (optional=templinst)_ZNSt8_Rb_treeIiSt4pairIKiiESt10_Select1stIS2_ESt4lessIiESaIS2_EE24_M_get_insert_unique_posERS1_@Base 6.2.1
 (optional=templinst)_ZNSt8_Rb_treeIiSt4pairIKiiESt10_Select1stIS2_ESt4lessIiESaIS2_EE29_M_get_insert_hint_unique_posESt23_Rb_tree_const_iteratorIS2_ERS1_@Base 6.2.1
 _ZTI10QTextCodec@Base 6.2.1
 _ZTI10QXmlReader@Base 6.2.1
 _ZTI11QXmlLocator@Base 6.2.1
 _ZTI14QXmlAttributes@Base 6.2.1
 _ZTI14QXmlDTDHandler@Base 6.2.1
 _ZTI15QXmlDeclHandler@Base 6.2.1
 _ZTI15QXmlInputSource@Base 6.2.1
 _ZTI16QXmlErrorHandler@Base 6.2.1
 _ZTI16QXmlSimpleReader@Base 6.2.1
 _ZTI18QXmlContentHandler@Base 6.2.1
 _ZTI18QXmlDefaultHandler@Base 6.2.1
 _ZTI18QXmlEntityResolver@Base 6.2.1
 _ZTI18QXmlLexicalHandler@Base 6.2.1
 _ZTS10QTextCodec@Base 6.2.1
 _ZTS10QXmlReader@Base 6.2.1
 _ZTS11QXmlLocator@Base 6.2.1
 _ZTS14QXmlAttributes@Base 6.2.1
 _ZTS14QXmlDTDHandler@Base 6.2.1
 _ZTS15QXmlDeclHandler@Base 6.2.1
 _ZTS15QXmlInputSource@Base 6.2.1
 _ZTS16QXmlErrorHandler@Base 6.2.1
 _ZTS16QXmlSimpleReader@Base 6.2.1
 _ZTS18QXmlContentHandler@Base 6.2.1
 _ZTS18QXmlDefaultHandler@Base 6.2.1
 _ZTS18QXmlEntityResolver@Base 6.2.1
 _ZTS18QXmlLexicalHandler@Base 6.2.1
 _ZTV10QTextCodec@Base 6.2.1
 _ZTV11QXmlLocator@Base 6.2.1
 _ZTV14QXmlAttributes@Base 6.2.1
 _ZTV15QXmlInputSource@Base 6.2.1
 _ZTV16QXmlSimpleReader@Base 6.2.1
 _ZTV18QXmlDefaultHandler@Base 6.2.1
 _ZZNK10QStringRef7unicodeEvE6_empty@Base 6.2.1
 _Zeq13QLatin1StringRK10QStringRef@Base 6.2.1
 _ZeqRK10QStringRefS1_@Base 6.2.1
 _ZeqRK7QStringRK10QStringRef@Base 6.2.1
 _Zls6QDebugRK7QRegExp@Base 6.2.1
 _ZlsR11QDataStreamRK7QRegExp@Base 6.2.1
 _ZltRK10QStringRefS1_@Base 6.2.1
 _ZrsR11QDataStreamR7QRegExp@Base 6.2.1
 (c++)"non-virtual thunk to QXmlDefaultHandler::attributeDecl(QString const&, QString const&, QString const&, QString const&, QString const&)@Base" 6.2.1
 (c++)"non-virtual thunk to QXmlDefaultHandler::comment(QString const&)@Base" 6.2.1
 (c++)"non-virtual thunk to QXmlDefaultHandler::endCDATA()@Base" 6.2.1
 (c++)"non-virtual thunk to QXmlDefaultHandler::endDTD()@Base" 6.2.1
 (c++)"non-virtual thunk to QXmlDefaultHandler::endEntity(QString const&)@Base" 6.2.1
 (c++)"non-virtual thunk to QXmlDefaultHandler::error(QXmlParseException const&)@Base" 6.2.1
 (c++)"non-virtual thunk to QXmlDefaultHandler::errorString() const@Base" 6.2.1
 (c++)"non-virtual thunk to QXmlDefaultHandler::externalEntityDecl(QString const&, QString const&, QString const&)@Base" 6.2.1
 (c++)"non-virtual thunk to QXmlDefaultHandler::fatalError(QXmlParseException const&)@Base" 6.2.1
 (c++)"non-virtual thunk to QXmlDefaultHandler::internalEntityDecl(QString const&, QString const&)@Base" 6.2.1
 (c++)"non-virtual thunk to QXmlDefaultHandler::notationDecl(QString const&, QString const&, QString const&)@Base" 6.2.1
 (c++)"non-virtual thunk to QXmlDefaultHandler::resolveEntity(QString const&, QString const&, QXmlInputSource*&)@Base" 6.2.1
 (c++)"non-virtual thunk to QXmlDefaultHandler::startCDATA()@Base" 6.2.1
 (c++)"non-virtual thunk to QXmlDefaultHandler::startDTD(QString const&, QString const&, QString const&)@Base" 6.2.1
 (c++)"non-virtual thunk to QXmlDefaultHandler::startEntity(QString const&)@Base" 6.2.1
 (c++)"non-virtual thunk to QXmlDefaultHandler::unparsedEntityDecl(QString const&, QString const&, QString const&, QString const&)@Base" 6.2.1
 (c++)"non-virtual thunk to QXmlDefaultHandler::warning(QXmlParseException const&)@Base" 6.2.1
 (c++)"non-virtual thunk to QXmlDefaultHandler::~QXmlDefaultHandler()@Base" 6.2.1
