# SymbolsHelper-Confirmed: 6.2.1 amd64
libQt6Sensors.so.6 libqt6sensors6 #MINVER#
* Build-Depends-Package: libqt6sensors6-dev
 _ZGVZN9QMetaType21registerConverterImplI5QListISt4pairIiiEE9QIterableI13QMetaSequenceEEEbSt8functionIFbPKvPvEES_S_E10unregister@Base 6.2.1
 _ZGVZN9QMetaType21registerConverterImplISt4pairIiiEN17QtMetaTypePrivate25QPairVariantInterfaceImplEEEbSt8functionIFbPKvPvEES_S_E10unregister@Base 6.2.1
 _ZGVZN9QMetaType23registerMutableViewImplI5QListISt4pairIiiEE9QIterableI13QMetaSequenceEEEbSt8functionIFbPvS9_EES_S_E10unregister@Base 6.2.1
 _ZN10QGyroscope10sensorTypeE@Base 6.2.1
 _ZN10QGyroscope11qt_metacallEN11QMetaObject4CallEiPPv@Base 6.2.1
 _ZN10QGyroscope11qt_metacastEPKc@Base 6.2.1
 _ZN10QGyroscope16staticMetaObjectE@Base 6.2.1
 _ZN10QGyroscopeC1EP7QObject@Base 6.2.1
 _ZN10QGyroscopeC2EP7QObject@Base 6.2.1
 _ZN10QGyroscopeD0Ev@Base 6.2.1
 _ZN10QGyroscopeD1Ev@Base 6.2.1
 _ZN10QGyroscopeD2Ev@Base 6.2.1
 _ZN10QLidFilter6filterEP14QSensorReading@Base 6.2.1
 _ZN10QLidSensor10sensorTypeE@Base 6.2.1
 _ZN10QLidSensor11qt_metacallEN11QMetaObject4CallEiPPv@Base 6.2.1
 _ZN10QLidSensor11qt_metacastEPKc@Base 6.2.1
 _ZN10QLidSensor16staticMetaObjectE@Base 6.2.1
 _ZN10QLidSensorC1EP7QObject@Base 6.2.1
 _ZN10QLidSensorC2EP7QObject@Base 6.2.1
 _ZN10QLidSensorD0Ev@Base 6.2.1
 _ZN10QLidSensorD1Ev@Base 6.2.1
 _ZN10QLidSensorD2Ev@Base 6.2.1
 _ZN10QTapFilter6filterEP14QSensorReading@Base 6.2.1
 _ZN10QTapSensor10sensorTypeE@Base 6.2.1
 _ZN10QTapSensor11qt_metacallEN11QMetaObject4CallEiPPv@Base 6.2.1
 _ZN10QTapSensor11qt_metacastEPKc@Base 6.2.1
 _ZN10QTapSensor16staticMetaObjectE@Base 6.2.1
 _ZN10QTapSensor24setReturnDoubleTapEventsEb@Base 6.2.1
 _ZN10QTapSensor28returnDoubleTapEventsChangedEb@Base 6.2.1
 _ZN10QTapSensorC1EP7QObject@Base 6.2.1
 _ZN10QTapSensorC2EP7QObject@Base 6.2.1
 _ZN10QTapSensorD0Ev@Base 6.2.1
 _ZN10QTapSensorD1Ev@Base 6.2.1
 _ZN10QTapSensorD2Ev@Base 6.2.1
 _ZN11QLidReading11qt_metacallEN11QMetaObject4CallEiPPv@Base 6.2.1
 _ZN11QLidReading11qt_metacastEPKc@Base 6.2.1
 _ZN11QLidReading14backLidChangedEb@Base 6.2.1
 _ZN11QLidReading14copyValuesFromEP14QSensorReading@Base 6.2.1
 _ZN11QLidReading15frontLidChangedEb@Base 6.2.1
 _ZN11QLidReading16setBackLidClosedEb@Base 6.2.1
 _ZN11QLidReading16staticMetaObjectE@Base 6.2.1
 _ZN11QLidReading17setFrontLidClosedEb@Base 6.2.1
 _ZN11QLidReadingC1EP7QObject@Base 6.2.1
 _ZN11QLidReadingC2EP7QObject@Base 6.2.1
 _ZN11QLidReadingD0Ev@Base 6.2.1
 _ZN11QLidReadingD1Ev@Base 6.2.1
 _ZN11QLidReadingD2Ev@Base 6.2.1
 _ZN11QTapReading11qt_metacallEN11QMetaObject4CallEiPPv@Base 6.2.1
 _ZN11QTapReading11qt_metacastEPKc@Base 6.2.1
 _ZN11QTapReading12setDoubleTapEb@Base 6.2.1
 _ZN11QTapReading14copyValuesFromEP14QSensorReading@Base 6.2.1
 _ZN11QTapReading15setTapDirectionENS_12TapDirectionE@Base 6.2.1
 _ZN11QTapReading16staticMetaObjectE@Base 6.2.1
 _ZN11QTapReadingC1EP7QObject@Base 6.2.1
 _ZN11QTapReadingC2EP7QObject@Base 6.2.1
 _ZN11QTapReadingD0Ev@Base 6.2.1
 _ZN11QTapReadingD1Ev@Base 6.2.1
 _ZN11QTapReadingD2Ev@Base 6.2.1
 _ZN11QTiltFilter6filterEP14QSensorReading@Base 6.2.1
 _ZN11QTiltSensor10sensorTypeE@Base 6.2.1
 _ZN11QTiltSensor11qt_metacallEN11QMetaObject4CallEiPPv@Base 6.2.1
 _ZN11QTiltSensor11qt_metacastEPKc@Base 6.2.1
 _ZN11QTiltSensor16staticMetaObjectE@Base 6.2.1
 _ZN11QTiltSensor9calibrateEv@Base 6.2.1
 _ZN11QTiltSensorC1EP7QObject@Base 6.2.1
 _ZN11QTiltSensorC2EP7QObject@Base 6.2.1
 _ZN11QTiltSensorD0Ev@Base 6.2.1
 _ZN11QTiltSensorD1Ev@Base 6.2.1
 _ZN11QTiltSensorD2Ev@Base 6.2.1
 _ZN12QLightFilter6filterEP14QSensorReading@Base 6.2.1
 _ZN12QLightSensor10sensorTypeE@Base 6.2.1
 _ZN12QLightSensor11qt_metacallEN11QMetaObject4CallEiPPv@Base 6.2.1
 _ZN12QLightSensor11qt_metacastEPKc@Base 6.2.1
 _ZN12QLightSensor14setFieldOfViewEd@Base 6.2.1
 _ZN12QLightSensor16staticMetaObjectE@Base 6.2.1
 _ZN12QLightSensor18fieldOfViewChangedEd@Base 6.2.1
 _ZN12QLightSensorC1EP7QObject@Base 6.2.1
 _ZN12QLightSensorC2EP7QObject@Base 6.2.1
 _ZN12QLightSensorD0Ev@Base 6.2.1
 _ZN12QLightSensorD1Ev@Base 6.2.1
 _ZN12QLightSensorD2Ev@Base 6.2.1
 _ZN12QTiltReading11qt_metacallEN11QMetaObject4CallEiPPv@Base 6.2.1
 _ZN12QTiltReading11qt_metacastEPKc@Base 6.2.1
 _ZN12QTiltReading12setXRotationEd@Base 6.2.1
 _ZN12QTiltReading12setYRotationEd@Base 6.2.1
 _ZN12QTiltReading14copyValuesFromEP14QSensorReading@Base 6.2.1
 _ZN12QTiltReading16staticMetaObjectE@Base 6.2.1
 _ZN12QTiltReadingC1EP7QObject@Base 6.2.1
 _ZN12QTiltReadingC2EP7QObject@Base 6.2.1
 _ZN12QTiltReadingD0Ev@Base 6.2.1
 _ZN12QTiltReadingD1Ev@Base 6.2.1
 _ZN12QTiltReadingD2Ev@Base 6.2.1
 _ZN13QLightReading11qt_metacallEN11QMetaObject4CallEiPPv@Base 6.2.1
 _ZN13QLightReading11qt_metacastEPKc@Base 6.2.1
 _ZN13QLightReading14copyValuesFromEP14QSensorReading@Base 6.2.1
 _ZN13QLightReading16staticMetaObjectE@Base 6.2.1
 _ZN13QLightReading6setLuxEd@Base 6.2.1
 _ZN13QLightReadingC1EP7QObject@Base 6.2.1
 _ZN13QLightReadingC2EP7QObject@Base 6.2.1
 _ZN13QLightReadingD0Ev@Base 6.2.1
 _ZN13QLightReadingD1Ev@Base 6.2.1
 _ZN13QLightReadingD2Ev@Base 6.2.1
 _ZN13QMagnetometer10sensorTypeE@Base 6.2.1
 _ZN13QMagnetometer11qt_metacallEN11QMetaObject4CallEiPPv@Base 6.2.1
 _ZN13QMagnetometer11qt_metacastEPKc@Base 6.2.1
 _ZN13QMagnetometer16staticMetaObjectE@Base 6.2.1
 _ZN13QMagnetometer18setReturnGeoValuesEb@Base 6.2.1
 _ZN13QMagnetometer22returnGeoValuesChangedEb@Base 6.2.1
 _ZN13QMagnetometerC1EP7QObject@Base 6.2.1
 _ZN13QMagnetometerC2EP7QObject@Base 6.2.1
 _ZN13QMagnetometerD0Ev@Base 6.2.1
 _ZN13QMagnetometerD1Ev@Base 6.2.1
 _ZN13QMagnetometerD2Ev@Base 6.2.1
 _ZN13QMetaSequence12MetaSequenceI5QListISt4pairIiiEEE5valueE@Base 6.2.1
 _ZN13QSensorFilter9setSensorEP7QSensor@Base 6.2.1
 _ZN13QSensorFilterC1Ev@Base 6.2.1
 _ZN13QSensorFilterC2Ev@Base 6.2.1
 _ZN13QSensorFilterD0Ev@Base 6.2.1
 _ZN13QSensorFilterD1Ev@Base 6.2.1
 _ZN13QSensorFilterD2Ev@Base 6.2.1
 _ZN14QAccelerometer10sensorTypeE@Base 6.2.1
 _ZN14QAccelerometer11qt_metacallEN11QMetaObject4CallEiPPv@Base 6.2.1
 _ZN14QAccelerometer11qt_metacastEPKc@Base 6.2.1
 _ZN14QAccelerometer16staticMetaObjectE@Base 6.2.1
 _ZN14QAccelerometer19setAccelerationModeENS_16AccelerationModeE@Base 6.2.1
 _ZN14QAccelerometer23accelerationModeChangedENS_16AccelerationModeE@Base 6.2.1
 _ZN14QAccelerometerC1EP7QObject@Base 6.2.1
 _ZN14QAccelerometerC2EP7QObject@Base 6.2.1
 _ZN14QAccelerometerD0Ev@Base 6.2.1
 _ZN14QAccelerometerD1Ev@Base 6.2.1
 _ZN14QAccelerometerD2Ev@Base 6.2.1
 _ZN14QCompassFilter6filterEP14QSensorReading@Base 6.2.1
 _ZN14QSensorBackend10sensorBusyEb@Base 6.2.1
 _ZN14QSensorBackend11addDataRateEdd@Base 6.2.1
 _ZN14QSensorBackend11qt_metacallEN11QMetaObject4CallEiPPv@Base 6.2.1
 _ZN14QSensorBackend11qt_metacastEPKc@Base 6.2.1
 _ZN14QSensorBackend11sensorErrorEi@Base 6.2.1
 _ZN14QSensorBackend11setReadingsEP14QSensorReadingS1_S1_@Base 6.2.1
 _ZN14QSensorBackend12setDataRatesEPK7QSensor@Base 6.2.1
 _ZN14QSensorBackend13sensorStoppedEv@Base 6.2.1
 _ZN14QSensorBackend14addOutputRangeEddd@Base 6.2.1
 _ZN14QSensorBackend14setDescriptionERK7QString@Base 6.2.1
 _ZN14QSensorBackend16staticMetaObjectE@Base 6.2.1
 _ZN14QSensorBackend19newReadingAvailableEv@Base 6.2.1
 _ZN14QSensorBackendC1EP7QSensorP7QObject@Base 6.2.1
 _ZN14QSensorBackendC2EP7QSensorP7QObject@Base 6.2.1
 _ZN14QSensorBackendD0Ev@Base 6.2.1
 _ZN14QSensorBackendD1Ev@Base 6.2.1
 _ZN14QSensorBackendD2Ev@Base 6.2.1
 _ZN14QSensorManager13createBackendEP7QSensor@Base 6.2.1
 _ZN14QSensorManager15registerBackendERK10QByteArrayS2_P21QSensorBackendFactory@Base 6.2.1
 _ZN14QSensorManager17setDefaultBackendERK10QByteArrayS2_@Base 6.2.1
 _ZN14QSensorManager17unregisterBackendERK10QByteArrayS2_@Base 6.2.1
 _ZN14QSensorManager19isBackendRegisteredERK10QByteArrayS2_@Base 6.2.1
 _ZN14QSensorReading11qt_metacallEN11QMetaObject4CallEiPPv@Base 6.2.1
 _ZN14QSensorReading11qt_metacastEPKc@Base 6.2.1
 _ZN14QSensorReading12setTimestampEy@Base 6.2.1
 _ZN14QSensorReading14copyValuesFromEPS_@Base 6.2.1
 _ZN14QSensorReading16staticMetaObjectE@Base 6.2.1
 _ZN14QSensorReadingC1EP7QObjectP21QSensorReadingPrivate@Base 6.2.1
 _ZN14QSensorReadingC2EP7QObjectP21QSensorReadingPrivate@Base 6.2.1
 _ZN14QSensorReadingD0Ev@Base 6.2.1
 _ZN14QSensorReadingD1Ev@Base 6.2.1
 _ZN14QSensorReadingD2Ev@Base 6.2.1
 _ZN15QCompassReading10setAzimuthEd@Base 6.2.1
 _ZN15QCompassReading11qt_metacallEN11QMetaObject4CallEiPPv@Base 6.2.1
 _ZN15QCompassReading11qt_metacastEPKc@Base 6.2.1
 _ZN15QCompassReading14copyValuesFromEP14QSensorReading@Base 6.2.1
 _ZN15QCompassReading16staticMetaObjectE@Base 6.2.1
 _ZN15QCompassReading19setCalibrationLevelEd@Base 6.2.1
 _ZN15QCompassReadingC1EP7QObject@Base 6.2.1
 _ZN15QCompassReadingC2EP7QObject@Base 6.2.1
 _ZN15QCompassReadingD0Ev@Base 6.2.1
 _ZN15QCompassReadingD1Ev@Base 6.2.1
 _ZN15QCompassReadingD2Ev@Base 6.2.1
 _ZN15QHumidityFilter6filterEP14QSensorReading@Base 6.2.1
 _ZN15QHumiditySensor10sensorTypeE@Base 6.2.1
 _ZN15QHumiditySensor11qt_metacallEN11QMetaObject4CallEiPPv@Base 6.2.1
 _ZN15QHumiditySensor11qt_metacastEPKc@Base 6.2.1
 _ZN15QHumiditySensor16staticMetaObjectE@Base 6.2.1
 _ZN15QHumiditySensorC1EP7QObject@Base 6.2.1
 _ZN15QHumiditySensorC2EP7QObject@Base 6.2.1
 _ZN15QHumiditySensorD0Ev@Base 6.2.1
 _ZN15QHumiditySensorD1Ev@Base 6.2.1
 _ZN15QHumiditySensorD2Ev@Base 6.2.1
 _ZN15QPressureFilter6filterEP14QSensorReading@Base 6.2.1
 _ZN15QPressureSensor10sensorTypeE@Base 6.2.1
 _ZN15QPressureSensor11qt_metacallEN11QMetaObject4CallEiPPv@Base 6.2.1
 _ZN15QPressureSensor11qt_metacastEPKc@Base 6.2.1
 _ZN15QPressureSensor16staticMetaObjectE@Base 6.2.1
 _ZN15QPressureSensorC1EP7QObject@Base 6.2.1
 _ZN15QPressureSensorC2EP7QObject@Base 6.2.1
 _ZN15QPressureSensorD0Ev@Base 6.2.1
 _ZN15QPressureSensorD1Ev@Base 6.2.1
 _ZN15QPressureSensorD2Ev@Base 6.2.1
 _ZN15QRotationFilter6filterEP14QSensorReading@Base 6.2.1
 _ZN15QRotationSensor10sensorTypeE@Base 6.2.1
 _ZN15QRotationSensor11hasZChangedEb@Base 6.2.1
 _ZN15QRotationSensor11qt_metacallEN11QMetaObject4CallEiPPv@Base 6.2.1
 _ZN15QRotationSensor11qt_metacastEPKc@Base 6.2.1
 _ZN15QRotationSensor16staticMetaObjectE@Base 6.2.1
 _ZN15QRotationSensor7setHasZEb@Base 6.2.1
 _ZN15QRotationSensorC1EP7QObject@Base 6.2.1
 _ZN15QRotationSensorC2EP7QObject@Base 6.2.1
 _ZN15QRotationSensorD0Ev@Base 6.2.1
 _ZN15QRotationSensorD1Ev@Base 6.2.1
 _ZN15QRotationSensorD2Ev@Base 6.2.1
 _ZN16QGyroscopeFilter6filterEP14QSensorReading@Base 6.2.1
 _ZN16QHumidityReading11qt_metacallEN11QMetaObject4CallEiPPv@Base 6.2.1
 _ZN16QHumidityReading11qt_metacastEPKc@Base 6.2.1
 _ZN16QHumidityReading14copyValuesFromEP14QSensorReading@Base 6.2.1
 _ZN16QHumidityReading16staticMetaObjectE@Base 6.2.1
 _ZN16QHumidityReading19setAbsoluteHumidityEd@Base 6.2.1
 _ZN16QHumidityReading19setRelativeHumidityEd@Base 6.2.1
 _ZN16QHumidityReadingC1EP7QObject@Base 6.2.1
 _ZN16QHumidityReadingC2EP7QObject@Base 6.2.1
 _ZN16QHumidityReadingD0Ev@Base 6.2.1
 _ZN16QHumidityReadingD1Ev@Base 6.2.1
 _ZN16QHumidityReadingD2Ev@Base 6.2.1
 _ZN16QPressureReading11qt_metacallEN11QMetaObject4CallEiPPv@Base 6.2.1
 _ZN16QPressureReading11qt_metacastEPKc@Base 6.2.1
 _ZN16QPressureReading11setPressureEd@Base 6.2.1
 _ZN16QPressureReading14copyValuesFromEP14QSensorReading@Base 6.2.1
 _ZN16QPressureReading14setTemperatureEd@Base 6.2.1
 _ZN16QPressureReading16staticMetaObjectE@Base 6.2.1
 _ZN16QPressureReadingC1EP7QObject@Base 6.2.1
 _ZN16QPressureReadingC2EP7QObject@Base 6.2.1
 _ZN16QPressureReadingD0Ev@Base 6.2.1
 _ZN16QPressureReadingD1Ev@Base 6.2.1
 _ZN16QPressureReadingD2Ev@Base 6.2.1
 _ZN16QProximityFilter6filterEP14QSensorReading@Base 6.2.1
 _ZN16QProximitySensor10sensorTypeE@Base 6.2.1
 _ZN16QProximitySensor11qt_metacallEN11QMetaObject4CallEiPPv@Base 6.2.1
 _ZN16QProximitySensor11qt_metacastEPKc@Base 6.2.1
 _ZN16QProximitySensor16staticMetaObjectE@Base 6.2.1
 _ZN16QProximitySensorC1EP7QObject@Base 6.2.1
 _ZN16QProximitySensorC2EP7QObject@Base 6.2.1
 _ZN16QProximitySensorD0Ev@Base 6.2.1
 _ZN16QProximitySensorD1Ev@Base 6.2.1
 _ZN16QProximitySensorD2Ev@Base 6.2.1
 _ZN16QRotationReading11qt_metacallEN11QMetaObject4CallEiPPv@Base 6.2.1
 _ZN16QRotationReading11qt_metacastEPKc@Base 6.2.1
 _ZN16QRotationReading12setFromEulerEddd@Base 6.2.1
 _ZN16QRotationReading14copyValuesFromEP14QSensorReading@Base 6.2.1
 _ZN16QRotationReading16staticMetaObjectE@Base 6.2.1
 _ZN16QRotationReadingC1EP7QObject@Base 6.2.1
 _ZN16QRotationReadingC2EP7QObject@Base 6.2.1
 _ZN16QRotationReadingD0Ev@Base 6.2.1
 _ZN16QRotationReadingD1Ev@Base 6.2.1
 _ZN16QRotationReadingD2Ev@Base 6.2.1
 _ZN17QGyroscopeReading11qt_metacallEN11QMetaObject4CallEiPPv@Base 6.2.1
 _ZN17QGyroscopeReading11qt_metacastEPKc@Base 6.2.1
 _ZN17QGyroscopeReading14copyValuesFromEP14QSensorReading@Base 6.2.1
 _ZN17QGyroscopeReading16staticMetaObjectE@Base 6.2.1
 _ZN17QGyroscopeReading4setXEd@Base 6.2.1
 _ZN17QGyroscopeReading4setYEd@Base 6.2.1
 _ZN17QGyroscopeReading4setZEd@Base 6.2.1
 _ZN17QGyroscopeReadingC1EP7QObject@Base 6.2.1
 _ZN17QGyroscopeReadingC2EP7QObject@Base 6.2.1
 _ZN17QGyroscopeReadingD0Ev@Base 6.2.1
 _ZN17QGyroscopeReadingD1Ev@Base 6.2.1
 _ZN17QGyroscopeReadingD2Ev@Base 6.2.1
 _ZN17QProximityReading11qt_metacallEN11QMetaObject4CallEiPPv@Base 6.2.1
 _ZN17QProximityReading11qt_metacastEPKc@Base 6.2.1
 _ZN17QProximityReading14copyValuesFromEP14QSensorReading@Base 6.2.1
 _ZN17QProximityReading16staticMetaObjectE@Base 6.2.1
 _ZN17QProximityReading8setCloseEb@Base 6.2.1
 _ZN17QProximityReadingC1EP7QObject@Base 6.2.1
 _ZN17QProximityReadingC2EP7QObject@Base 6.2.1
 _ZN17QProximityReadingD0Ev@Base 6.2.1
 _ZN17QProximityReadingD1Ev@Base 6.2.1
 _ZN17QProximityReadingD2Ev@Base 6.2.1
 _ZN18QIRProximityFilter6filterEP14QSensorReading@Base 6.2.1
 _ZN18QIRProximitySensor10sensorTypeE@Base 6.2.1
 _ZN18QIRProximitySensor11qt_metacallEN11QMetaObject4CallEiPPv@Base 6.2.1
 _ZN18QIRProximitySensor11qt_metacastEPKc@Base 6.2.1
 _ZN18QIRProximitySensor16staticMetaObjectE@Base 6.2.1
 _ZN18QIRProximitySensorC1EP7QObject@Base 6.2.1
 _ZN18QIRProximitySensorC2EP7QObject@Base 6.2.1
 _ZN18QIRProximitySensorD0Ev@Base 6.2.1
 _ZN18QIRProximitySensorD1Ev@Base 6.2.1
 _ZN18QIRProximitySensorD2Ev@Base 6.2.1
 _ZN18QOrientationFilter6filterEP14QSensorReading@Base 6.2.1
 _ZN18QOrientationSensor10sensorTypeE@Base 6.2.1
 _ZN18QOrientationSensor11qt_metacallEN11QMetaObject4CallEiPPv@Base 6.2.1
 _ZN18QOrientationSensor11qt_metacastEPKc@Base 6.2.1
 _ZN18QOrientationSensor16staticMetaObjectE@Base 6.2.1
 _ZN18QOrientationSensorC1EP7QObject@Base 6.2.1
 _ZN18QOrientationSensorC2EP7QObject@Base 6.2.1
 _ZN18QOrientationSensorD0Ev@Base 6.2.1
 _ZN18QOrientationSensorD1Ev@Base 6.2.1
 _ZN18QOrientationSensorD2Ev@Base 6.2.1
 _ZN19QAmbientLightFilter6filterEP14QSensorReading@Base 6.2.1
 _ZN19QAmbientLightSensor10sensorTypeE@Base 6.2.1
 _ZN19QAmbientLightSensor11qt_metacallEN11QMetaObject4CallEiPPv@Base 6.2.1
 _ZN19QAmbientLightSensor11qt_metacastEPKc@Base 6.2.1
 _ZN19QAmbientLightSensor16staticMetaObjectE@Base 6.2.1
 _ZN19QAmbientLightSensorC1EP7QObject@Base 6.2.1
 _ZN19QAmbientLightSensorC2EP7QObject@Base 6.2.1
 _ZN19QAmbientLightSensorD0Ev@Base 6.2.1
 _ZN19QAmbientLightSensorD1Ev@Base 6.2.1
 _ZN19QAmbientLightSensorD2Ev@Base 6.2.1
 _ZN19QIRProximityReading11qt_metacallEN11QMetaObject4CallEiPPv@Base 6.2.1
 _ZN19QIRProximityReading11qt_metacastEPKc@Base 6.2.1
 _ZN19QIRProximityReading14copyValuesFromEP14QSensorReading@Base 6.2.1
 _ZN19QIRProximityReading14setReflectanceEd@Base 6.2.1
 _ZN19QIRProximityReading16staticMetaObjectE@Base 6.2.1
 _ZN19QIRProximityReadingC1EP7QObject@Base 6.2.1
 _ZN19QIRProximityReadingC2EP7QObject@Base 6.2.1
 _ZN19QIRProximityReadingD0Ev@Base 6.2.1
 _ZN19QIRProximityReadingD1Ev@Base 6.2.1
 _ZN19QIRProximityReadingD2Ev@Base 6.2.1
 _ZN19QMagnetometerFilter6filterEP14QSensorReading@Base 6.2.1
 _ZN19QOrientationReading11qt_metacallEN11QMetaObject4CallEiPPv@Base 6.2.1
 _ZN19QOrientationReading11qt_metacastEPKc@Base 6.2.1
 _ZN19QOrientationReading14copyValuesFromEP14QSensorReading@Base 6.2.1
 _ZN19QOrientationReading14setOrientationENS_11OrientationE@Base 6.2.1
 _ZN19QOrientationReading16staticMetaObjectE@Base 6.2.1
 _ZN19QOrientationReadingC1EP7QObject@Base 6.2.1
 _ZN19QOrientationReadingC2EP7QObject@Base 6.2.1
 _ZN19QOrientationReadingD0Ev@Base 6.2.1
 _ZN19QOrientationReadingD1Ev@Base 6.2.1
 _ZN19QOrientationReadingD2Ev@Base 6.2.1
 _ZN20QAccelerometerFilter6filterEP14QSensorReading@Base 6.2.1
 _ZN20QAmbientLightReading11qt_metacallEN11QMetaObject4CallEiPPv@Base 6.2.1
 _ZN20QAmbientLightReading11qt_metacastEPKc@Base 6.2.1
 _ZN20QAmbientLightReading13setLightLevelENS_10LightLevelE@Base 6.2.1
 _ZN20QAmbientLightReading14copyValuesFromEP14QSensorReading@Base 6.2.1
 _ZN20QAmbientLightReading16staticMetaObjectE@Base 6.2.1
 _ZN20QAmbientLightReadingC1EP7QObject@Base 6.2.1
 _ZN20QAmbientLightReadingC2EP7QObject@Base 6.2.1
 _ZN20QAmbientLightReadingD0Ev@Base 6.2.1
 _ZN20QAmbientLightReadingD1Ev@Base 6.2.1
 _ZN20QAmbientLightReadingD2Ev@Base 6.2.1
 _ZN20QMagnetometerReading11qt_metacallEN11QMetaObject4CallEiPPv@Base 6.2.1
 _ZN20QMagnetometerReading11qt_metacastEPKc@Base 6.2.1
 _ZN20QMagnetometerReading14copyValuesFromEP14QSensorReading@Base 6.2.1
 _ZN20QMagnetometerReading16staticMetaObjectE@Base 6.2.1
 _ZN20QMagnetometerReading19setCalibrationLevelEd@Base 6.2.1
 _ZN20QMagnetometerReading4setXEd@Base 6.2.1
 _ZN20QMagnetometerReading4setYEd@Base 6.2.1
 _ZN20QMagnetometerReading4setZEd@Base 6.2.1
 _ZN20QMagnetometerReadingC1EP7QObject@Base 6.2.1
 _ZN20QMagnetometerReadingC2EP7QObject@Base 6.2.1
 _ZN20QMagnetometerReadingD0Ev@Base 6.2.1
 _ZN20QMagnetometerReadingD1Ev@Base 6.2.1
 _ZN20QMagnetometerReadingD2Ev@Base 6.2.1
 _ZN21QAccelerometerReading11qt_metacallEN11QMetaObject4CallEiPPv@Base 6.2.1
 _ZN21QAccelerometerReading11qt_metacastEPKc@Base 6.2.1
 _ZN21QAccelerometerReading14copyValuesFromEP14QSensorReading@Base 6.2.1
 _ZN21QAccelerometerReading16staticMetaObjectE@Base 6.2.1
 _ZN21QAccelerometerReading4setXEd@Base 6.2.1
 _ZN21QAccelerometerReading4setYEd@Base 6.2.1
 _ZN21QAccelerometerReading4setZEd@Base 6.2.1
 _ZN21QAccelerometerReadingC1EP7QObject@Base 6.2.1
 _ZN21QAccelerometerReadingC2EP7QObject@Base 6.2.1
 _ZN21QAccelerometerReadingD0Ev@Base 6.2.1
 _ZN21QAccelerometerReadingD1Ev@Base 6.2.1
 _ZN21QAccelerometerReadingD2Ev@Base 6.2.1
 _ZN21QSensorBackendFactoryD0Ev@Base 6.2.1
 _ZN21QSensorBackendFactoryD1Ev@Base 6.2.1
 _ZN21QSensorBackendFactoryD2Ev@Base 6.2.1
 _ZN22QSensorPluginInterfaceD0Ev@Base 6.2.1
 _ZN22QSensorPluginInterfaceD1Ev@Base 6.2.1
 _ZN22QSensorPluginInterfaceD2Ev@Base 6.2.1
 _ZN23QSensorChangesInterfaceD0Ev@Base 6.2.1
 _ZN23QSensorChangesInterfaceD1Ev@Base 6.2.1
 _ZN23QSensorChangesInterfaceD2Ev@Base 6.2.1
 _ZN25QAmbientTemperatureFilter6filterEP14QSensorReading@Base 6.2.1
 _ZN25QAmbientTemperatureSensor10sensorTypeE@Base 6.2.1
 _ZN25QAmbientTemperatureSensor11qt_metacallEN11QMetaObject4CallEiPPv@Base 6.2.1
 _ZN25QAmbientTemperatureSensor11qt_metacastEPKc@Base 6.2.1
 _ZN25QAmbientTemperatureSensor16staticMetaObjectE@Base 6.2.1
 _ZN25QAmbientTemperatureSensorC1EP7QObject@Base 6.2.1
 _ZN25QAmbientTemperatureSensorC2EP7QObject@Base 6.2.1
 _ZN25QAmbientTemperatureSensorD0Ev@Base 6.2.1
 _ZN25QAmbientTemperatureSensorD1Ev@Base 6.2.1
 _ZN25QAmbientTemperatureSensorD2Ev@Base 6.2.1
 _ZN26QAmbientTemperatureReading11qt_metacallEN11QMetaObject4CallEiPPv@Base 6.2.1
 _ZN26QAmbientTemperatureReading11qt_metacastEPKc@Base 6.2.1
 _ZN26QAmbientTemperatureReading14copyValuesFromEP14QSensorReading@Base 6.2.1
 _ZN26QAmbientTemperatureReading14setTemperatureEd@Base 6.2.1
 _ZN26QAmbientTemperatureReading16staticMetaObjectE@Base 6.2.1
 _ZN26QAmbientTemperatureReadingC1EP7QObject@Base 6.2.1
 _ZN26QAmbientTemperatureReadingC2EP7QObject@Base 6.2.1
 _ZN26QAmbientTemperatureReadingD0Ev@Base 6.2.1
 _ZN26QAmbientTemperatureReadingD1Ev@Base 6.2.1
 _ZN26QAmbientTemperatureReadingD2Ev@Base 6.2.1
 _ZN7QSensor11busyChangedEv@Base 6.2.1
 _ZN7QSensor11qt_metacallEN11QMetaObject4CallEiPPv@Base 6.2.1
 _ZN7QSensor11qt_metacastEPKc@Base 6.2.1
 _ZN7QSensor11sensorErrorEi@Base 6.2.1
 _ZN7QSensor11sensorTypesEv@Base 6.2.1
 _ZN7QSensor11setAlwaysOnEb@Base 6.2.1
 _ZN7QSensor11setDataRateEi@Base 6.2.1
 _ZN7QSensor12removeFilterEP13QSensorFilter@Base 6.2.1
 _ZN7QSensor13activeChangedEv@Base 6.2.1
 _ZN7QSensor13setBufferSizeEi@Base 6.2.1
 _ZN7QSensor13setIdentifierERK10QByteArray@Base 6.2.1
 _ZN7QSensor14readingChangedEv@Base 6.2.1
 _ZN7QSensor14sensorsForTypeERK10QByteArray@Base 6.2.1
 _ZN7QSensor14setOutputRangeEi@Base 6.2.1
 _ZN7QSensor15alwaysOnChangedEv@Base 6.2.1
 _ZN7QSensor15dataRateChangedEv@Base 6.2.1
 _ZN7QSensor16connectToBackendEv@Base 6.2.1
 _ZN7QSensor16registerInstanceEv@Base 6.2.1
 _ZN7QSensor16setMaxBufferSizeEi@Base 6.2.1
 _ZN7QSensor16staticMetaObjectE@Base 6.2.1
 _ZN7QSensor17bufferSizeChangedEi@Base 6.2.1
 _ZN7QSensor17identifierChangedEv@Base 6.2.1
 _ZN7QSensor17setSkipDuplicatesEb@Base 6.2.1
 _ZN7QSensor18setUserOrientationEi@Base 6.2.1
 _ZN7QSensor20defaultSensorForTypeERK10QByteArray@Base 6.2.1
 _ZN7QSensor20maxBufferSizeChangedEi@Base 6.2.1
 _ZN7QSensor21setCurrentOrientationEi@Base 6.2.1
 _ZN7QSensor21skipDuplicatesChangedEb@Base 6.2.1
 _ZN7QSensor22setAxesOrientationModeENS_19AxesOrientationModeE@Base 6.2.1
 _ZN7QSensor22setEfficientBufferSizeEi@Base 6.2.1
 _ZN7QSensor22userOrientationChangedEi@Base 6.2.1
 _ZN7QSensor23availableSensorsChangedEv@Base 6.2.1
 _ZN7QSensor25currentOrientationChangedEi@Base 6.2.1
 _ZN7QSensor26axesOrientationModeChangedENS_19AxesOrientationModeE@Base 6.2.1
 _ZN7QSensor26efficientBufferSizeChangedEi@Base 6.2.1
 _ZN7QSensor4stopEv@Base 6.2.1
 _ZN7QSensor5startEv@Base 6.2.1
 _ZN7QSensor9addFilterEP13QSensorFilter@Base 6.2.1
 _ZN7QSensor9setActiveEb@Base 6.2.1
 _ZN7QSensorC1ERK10QByteArrayP7QObject@Base 6.2.1
 _ZN7QSensorC1ERK10QByteArrayR14QSensorPrivateP7QObject@Base 6.2.1
 _ZN7QSensorC2ERK10QByteArrayP7QObject@Base 6.2.1
 _ZN7QSensorC2ERK10QByteArrayR14QSensorPrivateP7QObject@Base 6.2.1
 _ZN7QSensorD0Ev@Base 6.2.1
 _ZN7QSensorD1Ev@Base 6.2.1
 _ZN7QSensorD2Ev@Base 6.2.1
 _ZN8QCompass10sensorTypeE@Base 6.2.1
 _ZN8QCompass11qt_metacallEN11QMetaObject4CallEiPPv@Base 6.2.1
 _ZN8QCompass11qt_metacastEPKc@Base 6.2.1
 _ZN8QCompass16staticMetaObjectE@Base 6.2.1
 _ZN8QCompassC1EP7QObject@Base 6.2.1
 _ZN8QCompassC2EP7QObject@Base 6.2.1
 _ZN8QCompassD0Ev@Base 6.2.1
 _ZN8QCompassD1Ev@Base 6.2.1
 _ZN8QCompassD2Ev@Base 6.2.1
 _ZNK10QGyroscope10metaObjectEv@Base 6.2.1
 _ZNK10QGyroscope7readingEv@Base 6.2.1
 _ZNK10QLidSensor10metaObjectEv@Base 6.2.1
 _ZNK10QLidSensor7readingEv@Base 6.2.1
 _ZNK10QTapSensor10metaObjectEv@Base 6.2.1
 _ZNK10QTapSensor21returnDoubleTapEventsEv@Base 6.2.1
 _ZNK10QTapSensor7readingEv@Base 6.2.1
 _ZNK11QLidReading10metaObjectEv@Base 6.2.1
 _ZNK11QLidReading13backLidClosedEv@Base 6.2.1
 _ZNK11QLidReading14frontLidClosedEv@Base 6.2.1
 _ZNK11QTapReading10metaObjectEv@Base 6.2.1
 _ZNK11QTapReading11isDoubleTapEv@Base 6.2.1
 _ZNK11QTapReading12tapDirectionEv@Base 6.2.1
 _ZNK11QTiltSensor10metaObjectEv@Base 6.2.1
 _ZNK11QTiltSensor7readingEv@Base 6.2.1
 _ZNK12QLightSensor10metaObjectEv@Base 6.2.1
 _ZNK12QLightSensor11fieldOfViewEv@Base 6.2.1
 _ZNK12QLightSensor7readingEv@Base 6.2.1
 _ZNK12QTiltReading10metaObjectEv@Base 6.2.1
 _ZNK12QTiltReading9xRotationEv@Base 6.2.1
 _ZNK12QTiltReading9yRotationEv@Base 6.2.1
 _ZNK13QLightReading10metaObjectEv@Base 6.2.1
 _ZNK13QLightReading3luxEv@Base 6.2.1
 _ZNK13QMagnetometer10metaObjectEv@Base 6.2.1
 _ZNK13QMagnetometer15returnGeoValuesEv@Base 6.2.1
 _ZNK13QMagnetometer7readingEv@Base 6.2.1
 _ZNK14QAccelerometer10metaObjectEv@Base 6.2.1
 _ZNK14QAccelerometer16accelerationModeEv@Base 6.2.1
 _ZNK14QAccelerometer7readingEv@Base 6.2.1
 _ZNK14QSensorBackend10metaObjectEv@Base 6.2.1
 _ZNK14QSensorBackend18isFeatureSupportedEN7QSensor7FeatureE@Base 6.2.1
 _ZNK14QSensorBackend6sensorEv@Base 6.2.1
 _ZNK14QSensorBackend7readingEv@Base 6.2.1
 _ZNK14QSensorReading10metaObjectEv@Base 6.2.1
 _ZNK14QSensorReading10valueCountEv@Base 6.2.1
 _ZNK14QSensorReading5valueEi@Base 6.2.1
 _ZNK14QSensorReading9timestampEv@Base 6.2.1
 _ZNK15QCompassReading10metaObjectEv@Base 6.2.1
 _ZNK15QCompassReading16calibrationLevelEv@Base 6.2.1
 _ZNK15QCompassReading7azimuthEv@Base 6.2.1
 _ZNK15QHumiditySensor10metaObjectEv@Base 6.2.1
 _ZNK15QHumiditySensor7readingEv@Base 6.2.1
 _ZNK15QPressureSensor10metaObjectEv@Base 6.2.1
 _ZNK15QPressureSensor7readingEv@Base 6.2.1
 _ZNK15QRotationSensor10metaObjectEv@Base 6.2.1
 _ZNK15QRotationSensor4hasZEv@Base 6.2.1
 _ZNK15QRotationSensor7readingEv@Base 6.2.1
 _ZNK16QHumidityReading10metaObjectEv@Base 6.2.1
 _ZNK16QHumidityReading16absoluteHumidityEv@Base 6.2.1
 _ZNK16QHumidityReading16relativeHumidityEv@Base 6.2.1
 _ZNK16QPressureReading10metaObjectEv@Base 6.2.1
 _ZNK16QPressureReading11temperatureEv@Base 6.2.1
 _ZNK16QPressureReading8pressureEv@Base 6.2.1
 _ZNK16QProximitySensor10metaObjectEv@Base 6.2.1
 _ZNK16QProximitySensor7readingEv@Base 6.2.1
 _ZNK16QRotationReading10metaObjectEv@Base 6.2.1
 _ZNK16QRotationReading1xEv@Base 6.2.1
 _ZNK16QRotationReading1yEv@Base 6.2.1
 _ZNK16QRotationReading1zEv@Base 6.2.1
 _ZNK17QGyroscopeReading10metaObjectEv@Base 6.2.1
 _ZNK17QGyroscopeReading1xEv@Base 6.2.1
 _ZNK17QGyroscopeReading1yEv@Base 6.2.1
 _ZNK17QGyroscopeReading1zEv@Base 6.2.1
 _ZNK17QProximityReading10metaObjectEv@Base 6.2.1
 _ZNK17QProximityReading5closeEv@Base 6.2.1
 _ZNK18QIRProximitySensor10metaObjectEv@Base 6.2.1
 _ZNK18QIRProximitySensor7readingEv@Base 6.2.1
 _ZNK18QOrientationSensor10metaObjectEv@Base 6.2.1
 _ZNK18QOrientationSensor7readingEv@Base 6.2.1
 _ZNK19QAmbientLightSensor10metaObjectEv@Base 6.2.1
 _ZNK19QAmbientLightSensor7readingEv@Base 6.2.1
 _ZNK19QIRProximityReading10metaObjectEv@Base 6.2.1
 _ZNK19QIRProximityReading11reflectanceEv@Base 6.2.1
 _ZNK19QOrientationReading10metaObjectEv@Base 6.2.1
 _ZNK19QOrientationReading11orientationEv@Base 6.2.1
 _ZNK20QAmbientLightReading10lightLevelEv@Base 6.2.1
 _ZNK20QAmbientLightReading10metaObjectEv@Base 6.2.1
 _ZNK20QMagnetometerReading10metaObjectEv@Base 6.2.1
 _ZNK20QMagnetometerReading16calibrationLevelEv@Base 6.2.1
 _ZNK20QMagnetometerReading1xEv@Base 6.2.1
 _ZNK20QMagnetometerReading1yEv@Base 6.2.1
 _ZNK20QMagnetometerReading1zEv@Base 6.2.1
 _ZNK21QAccelerometerReading10metaObjectEv@Base 6.2.1
 _ZNK21QAccelerometerReading1xEv@Base 6.2.1
 _ZNK21QAccelerometerReading1yEv@Base 6.2.1
 _ZNK21QAccelerometerReading1zEv@Base 6.2.1
 _ZNK25QAmbientTemperatureSensor10metaObjectEv@Base 6.2.1
 _ZNK25QAmbientTemperatureSensor7readingEv@Base 6.2.1
 _ZNK26QAmbientTemperatureReading10metaObjectEv@Base 6.2.1
 _ZNK26QAmbientTemperatureReading11temperatureEv@Base 6.2.1
 _ZNK7QSensor10bufferSizeEv@Base 6.2.1
 _ZNK7QSensor10identifierEv@Base 6.2.1
 _ZNK7QSensor10isAlwaysOnEv@Base 6.2.1
 _ZNK7QSensor10metaObjectEv@Base 6.2.1
 _ZNK7QSensor11descriptionEv@Base 6.2.1
 _ZNK7QSensor11outputRangeEv@Base 6.2.1
 _ZNK7QSensor12outputRangesEv@Base 6.2.1
 _ZNK7QSensor13maxBufferSizeEv@Base 6.2.1
 _ZNK7QSensor14skipDuplicatesEv@Base 6.2.1
 _ZNK7QSensor15userOrientationEv@Base 6.2.1
 _ZNK7QSensor18availableDataRatesEv@Base 6.2.1
 _ZNK7QSensor18currentOrientationEv@Base 6.2.1
 _ZNK7QSensor18isFeatureSupportedENS_7FeatureE@Base 6.2.1
 _ZNK7QSensor19axesOrientationModeEv@Base 6.2.1
 _ZNK7QSensor19efficientBufferSizeEv@Base 6.2.1
 _ZNK7QSensor20isConnectedToBackendEv@Base 6.2.1
 _ZNK7QSensor4typeEv@Base 6.2.1
 _ZNK7QSensor5errorEv@Base 6.2.1
 _ZNK7QSensor6isBusyEv@Base 6.2.1
 _ZNK7QSensor7backendEv@Base 6.2.1
 _ZNK7QSensor7filtersEv@Base 6.2.1
 _ZNK7QSensor7readingEv@Base 6.2.1
 _ZNK7QSensor8dataRateEv@Base 6.2.1
 _ZNK7QSensor8isActiveEv@Base 6.2.1
 _ZNK8QCompass10metaObjectEv@Base 6.2.1
 _ZNK8QCompass7readingEv@Base 6.2.1
 _ZTI10QGyroscope@Base 6.2.1
 _ZTI10QLidFilter@Base 6.2.1
 _ZTI10QLidSensor@Base 6.2.1
 _ZTI10QTapFilter@Base 6.2.1
 _ZTI10QTapSensor@Base 6.2.1
 _ZTI11QLidReading@Base 6.2.1
 _ZTI11QTapReading@Base 6.2.1
 _ZTI11QTiltFilter@Base 6.2.1
 _ZTI11QTiltSensor@Base 6.2.1
 _ZTI12QLightFilter@Base 6.2.1
 _ZTI12QLightSensor@Base 6.2.1
 _ZTI12QTiltReading@Base 6.2.1
 _ZTI13QLightReading@Base 6.2.1
 _ZTI13QMagnetometer@Base 6.2.1
 _ZTI13QSensorFilter@Base 6.2.1
 _ZTI14QAccelerometer@Base 6.2.1
 _ZTI14QCompassFilter@Base 6.2.1
 _ZTI14QSensorBackend@Base 6.2.1
 _ZTI14QSensorReading@Base 6.2.1
 _ZTI15QCompassReading@Base 6.2.1
 _ZTI15QHumidityFilter@Base 6.2.1
 _ZTI15QHumiditySensor@Base 6.2.1
 _ZTI15QPressureFilter@Base 6.2.1
 _ZTI15QPressureSensor@Base 6.2.1
 _ZTI15QRotationFilter@Base 6.2.1
 _ZTI15QRotationSensor@Base 6.2.1
 _ZTI16QGyroscopeFilter@Base 6.2.1
 _ZTI16QHumidityReading@Base 6.2.1
 _ZTI16QPressureReading@Base 6.2.1
 _ZTI16QProximityFilter@Base 6.2.1
 _ZTI16QProximitySensor@Base 6.2.1
 _ZTI16QRotationReading@Base 6.2.1
 _ZTI17QGyroscopeReading@Base 6.2.1
 _ZTI17QProximityReading@Base 6.2.1
 _ZTI18QIRProximityFilter@Base 6.2.1
 _ZTI18QIRProximitySensor@Base 6.2.1
 _ZTI18QOrientationFilter@Base 6.2.1
 _ZTI18QOrientationSensor@Base 6.2.1
 _ZTI19QAmbientLightFilter@Base 6.2.1
 _ZTI19QAmbientLightSensor@Base 6.2.1
 _ZTI19QIRProximityReading@Base 6.2.1
 _ZTI19QMagnetometerFilter@Base 6.2.1
 _ZTI19QOrientationReading@Base 6.2.1
 _ZTI20QAccelerometerFilter@Base 6.2.1
 _ZTI20QAmbientLightReading@Base 6.2.1
 _ZTI20QMagnetometerReading@Base 6.2.1
 _ZTI21QAccelerometerReading@Base 6.2.1
 _ZTI21QSensorBackendFactory@Base 6.2.1
 _ZTI22QSensorPluginInterface@Base 6.2.1
 _ZTI23QSensorChangesInterface@Base 6.2.1
 _ZTI25QAmbientTemperatureFilter@Base 6.2.1
 _ZTI25QAmbientTemperatureSensor@Base 6.2.1
 _ZTI26QAmbientTemperatureReading@Base 6.2.1
 _ZTI7QSensor@Base 6.2.1
 _ZTI8QCompass@Base 6.2.1
 _ZTIZN9QMetaType17registerConverterI5QListISt4pairIiiEE9QIterableI13QMetaSequenceEN9QtPrivate33QSequentialIterableConvertFunctorIS4_EEEEbT1_EUlPKvPvE_@Base 6.2.1
 _ZTIZN9QMetaType17registerConverterISt4pairIiiEN17QtMetaTypePrivate25QPairVariantInterfaceImplENS3_35QPairVariantInterfaceConvertFunctorIS2_EEEEbT1_EUlPKvPvE_@Base 6.2.1
 _ZTIZN9QMetaType19registerMutableViewI5QListISt4pairIiiEE9QIterableI13QMetaSequenceEN9QtPrivate37QSequentialIterableMutableViewFunctorIS4_EEEEbT1_EUlPvSC_E_@Base 6.2.1
 _ZTS10QGyroscope@Base 6.2.1
 _ZTS10QLidFilter@Base 6.2.1
 _ZTS10QLidSensor@Base 6.2.1
 _ZTS10QTapFilter@Base 6.2.1
 _ZTS10QTapSensor@Base 6.2.1
 _ZTS11QLidReading@Base 6.2.1
 _ZTS11QTapReading@Base 6.2.1
 _ZTS11QTiltFilter@Base 6.2.1
 _ZTS11QTiltSensor@Base 6.2.1
 _ZTS12QLightFilter@Base 6.2.1
 _ZTS12QLightSensor@Base 6.2.1
 _ZTS12QTiltReading@Base 6.2.1
 _ZTS13QLightReading@Base 6.2.1
 _ZTS13QMagnetometer@Base 6.2.1
 _ZTS13QSensorFilter@Base 6.2.1
 _ZTS14QAccelerometer@Base 6.2.1
 _ZTS14QCompassFilter@Base 6.2.1
 _ZTS14QSensorBackend@Base 6.2.1
 _ZTS14QSensorReading@Base 6.2.1
 _ZTS15QCompassReading@Base 6.2.1
 _ZTS15QHumidityFilter@Base 6.2.1
 _ZTS15QHumiditySensor@Base 6.2.1
 _ZTS15QPressureFilter@Base 6.2.1
 _ZTS15QPressureSensor@Base 6.2.1
 _ZTS15QRotationFilter@Base 6.2.1
 _ZTS15QRotationSensor@Base 6.2.1
 _ZTS16QGyroscopeFilter@Base 6.2.1
 _ZTS16QHumidityReading@Base 6.2.1
 _ZTS16QPressureReading@Base 6.2.1
 _ZTS16QProximityFilter@Base 6.2.1
 _ZTS16QProximitySensor@Base 6.2.1
 _ZTS16QRotationReading@Base 6.2.1
 _ZTS17QGyroscopeReading@Base 6.2.1
 _ZTS17QProximityReading@Base 6.2.1
 _ZTS18QIRProximityFilter@Base 6.2.1
 _ZTS18QIRProximitySensor@Base 6.2.1
 _ZTS18QOrientationFilter@Base 6.2.1
 _ZTS18QOrientationSensor@Base 6.2.1
 _ZTS19QAmbientLightFilter@Base 6.2.1
 _ZTS19QAmbientLightSensor@Base 6.2.1
 _ZTS19QIRProximityReading@Base 6.2.1
 _ZTS19QMagnetometerFilter@Base 6.2.1
 _ZTS19QOrientationReading@Base 6.2.1
 _ZTS20QAccelerometerFilter@Base 6.2.1
 _ZTS20QAmbientLightReading@Base 6.2.1
 _ZTS20QMagnetometerReading@Base 6.2.1
 _ZTS21QAccelerometerReading@Base 6.2.1
 _ZTS21QSensorBackendFactory@Base 6.2.1
 _ZTS22QSensorPluginInterface@Base 6.2.1
 _ZTS23QSensorChangesInterface@Base 6.2.1
 _ZTS25QAmbientTemperatureFilter@Base 6.2.1
 _ZTS25QAmbientTemperatureSensor@Base 6.2.1
 _ZTS26QAmbientTemperatureReading@Base 6.2.1
 _ZTS7QSensor@Base 6.2.1
 _ZTS8QCompass@Base 6.2.1
 _ZTSZN9QMetaType17registerConverterI5QListISt4pairIiiEE9QIterableI13QMetaSequenceEN9QtPrivate33QSequentialIterableConvertFunctorIS4_EEEEbT1_EUlPKvPvE_@Base 6.2.1
 _ZTSZN9QMetaType17registerConverterISt4pairIiiEN17QtMetaTypePrivate25QPairVariantInterfaceImplENS3_35QPairVariantInterfaceConvertFunctorIS2_EEEEbT1_EUlPKvPvE_@Base 6.2.1
 _ZTSZN9QMetaType19registerMutableViewI5QListISt4pairIiiEE9QIterableI13QMetaSequenceEN9QtPrivate37QSequentialIterableMutableViewFunctorIS4_EEEEbT1_EUlPvSC_E_@Base 6.2.1
 _ZTV10QGyroscope@Base 6.2.1
 _ZTV10QLidFilter@Base 6.2.1
 _ZTV10QLidSensor@Base 6.2.1
 _ZTV10QTapFilter@Base 6.2.1
 _ZTV10QTapSensor@Base 6.2.1
 _ZTV11QLidReading@Base 6.2.1
 _ZTV11QTapReading@Base 6.2.1
 _ZTV11QTiltFilter@Base 6.2.1
 _ZTV11QTiltSensor@Base 6.2.1
 _ZTV12QLightFilter@Base 6.2.1
 _ZTV12QLightSensor@Base 6.2.1
 _ZTV12QTiltReading@Base 6.2.1
 _ZTV13QLightReading@Base 6.2.1
 _ZTV13QMagnetometer@Base 6.2.1
 _ZTV13QSensorFilter@Base 6.2.1
 _ZTV14QAccelerometer@Base 6.2.1
 _ZTV14QCompassFilter@Base 6.2.1
 _ZTV14QSensorBackend@Base 6.2.1
 _ZTV14QSensorReading@Base 6.2.1
 _ZTV15QCompassReading@Base 6.2.1
 _ZTV15QHumidityFilter@Base 6.2.1
 _ZTV15QHumiditySensor@Base 6.2.1
 _ZTV15QPressureFilter@Base 6.2.1
 _ZTV15QPressureSensor@Base 6.2.1
 _ZTV15QRotationFilter@Base 6.2.1
 _ZTV15QRotationSensor@Base 6.2.1
 _ZTV16QGyroscopeFilter@Base 6.2.1
 _ZTV16QHumidityReading@Base 6.2.1
 _ZTV16QPressureReading@Base 6.2.1
 _ZTV16QProximityFilter@Base 6.2.1
 _ZTV16QProximitySensor@Base 6.2.1
 _ZTV16QRotationReading@Base 6.2.1
 _ZTV17QGyroscopeReading@Base 6.2.1
 _ZTV17QProximityReading@Base 6.2.1
 _ZTV18QIRProximityFilter@Base 6.2.1
 _ZTV18QIRProximitySensor@Base 6.2.1
 _ZTV18QOrientationFilter@Base 6.2.1
 _ZTV18QOrientationSensor@Base 6.2.1
 _ZTV19QAmbientLightFilter@Base 6.2.1
 _ZTV19QAmbientLightSensor@Base 6.2.1
 _ZTV19QIRProximityReading@Base 6.2.1
 _ZTV19QMagnetometerFilter@Base 6.2.1
 _ZTV19QOrientationReading@Base 6.2.1
 _ZTV20QAccelerometerFilter@Base 6.2.1
 _ZTV20QAmbientLightReading@Base 6.2.1
 _ZTV20QMagnetometerReading@Base 6.2.1
 _ZTV21QAccelerometerReading@Base 6.2.1
 _ZTV21QSensorBackendFactory@Base 6.2.1
 _ZTV22QSensorPluginInterface@Base 6.2.1
 _ZTV23QSensorChangesInterface@Base 6.2.1
 _ZTV25QAmbientTemperatureFilter@Base 6.2.1
 _ZTV25QAmbientTemperatureSensor@Base 6.2.1
 _ZTV26QAmbientTemperatureReading@Base 6.2.1
 _ZTV7QSensor@Base 6.2.1
 _ZTV8QCompass@Base 6.2.1
 (optional=templinst)_ZZN9QMetaType21registerConverterImplI5QListISt4pairIiiEE9QIterableI13QMetaSequenceEEEbSt8functionIFbPKvPvEES_S_E10unregister@Base 6.2.1
 (optional=templinst)_ZZN9QMetaType21registerConverterImplISt4pairIiiEN17QtMetaTypePrivate25QPairVariantInterfaceImplEEEbSt8functionIFbPKvPvEES_S_E10unregister@Base 6.2.1
 (optional=templinst)_ZZN9QMetaType23registerMutableViewImplI5QListISt4pairIiiEE9QIterableI13QMetaSequenceEEEbSt8functionIFbPvS9_EES_S_E10unregister@Base 6.2.1
 (optional=templinst)_ZZN9QtPrivate16QMetaTypeForTypeI10QByteArrayE10getCopyCtrEvENUlPKNS_18QMetaTypeInterfaceEPvPKvE_4_FUNES5_S6_S8_@Base 6.2.1
 (optional=templinst)_ZZN9QtPrivate16QMetaTypeForTypeI10QByteArrayE10getMoveCtrEvENUlPKNS_18QMetaTypeInterfaceEPvS6_E_4_FUNES5_S6_S6_@Base 6.2.1
 (optional=templinst)_ZZN9QtPrivate16QMetaTypeForTypeI10QByteArrayE13getDefaultCtrEvENUlPKNS_18QMetaTypeInterfaceEPvE_4_FUNES5_S6_@Base 6.2.1
 (optional=templinst)_ZZN9QtPrivate16QMetaTypeForTypeI10QByteArrayE7getDtorEvENUlPKNS_18QMetaTypeInterfaceEPvE_4_FUNES5_S6_@Base 6.2.1
 (optional=templinst)_ZZN9QtPrivate16QMetaTypeForTypeI7QStringE10getCopyCtrEvENUlPKNS_18QMetaTypeInterfaceEPvPKvE_4_FUNES5_S6_S8_@Base 6.2.1
 (optional=templinst)_ZZN9QtPrivate16QMetaTypeForTypeI7QStringE10getMoveCtrEvENUlPKNS_18QMetaTypeInterfaceEPvS6_E_4_FUNES5_S6_S6_@Base 6.2.1
 (optional=templinst)_ZZN9QtPrivate16QMetaTypeForTypeI7QStringE13getDefaultCtrEvENUlPKNS_18QMetaTypeInterfaceEPvE_4_FUNES5_S6_@Base 6.2.1
 (optional=templinst)_ZZN9QtPrivate16QMetaTypeForTypeI7QStringE7getDtorEvENUlPKNS_18QMetaTypeInterfaceEPvE_4_FUNES5_S6_@Base 6.2.1
 (optional=templinst)_ZZN9QtPrivate16QMetaTypeForTypeIbE10getCopyCtrEvENUlPKNS_18QMetaTypeInterfaceEPvPKvE_4_FUNES4_S5_S7_@Base 6.2.1
 (optional=templinst)_ZZN9QtPrivate16QMetaTypeForTypeIbE10getMoveCtrEvENUlPKNS_18QMetaTypeInterfaceEPvS5_E_4_FUNES4_S5_S5_@Base 6.2.1
 (optional=templinst)_ZZN9QtPrivate16QMetaTypeForTypeIbE13getDefaultCtrEvENUlPKNS_18QMetaTypeInterfaceEPvE_4_FUNES4_S5_@Base 6.2.1
 (optional=templinst)_ZZN9QtPrivate16QMetaTypeForTypeIdE10getCopyCtrEvENUlPKNS_18QMetaTypeInterfaceEPvPKvE_4_FUNES4_S5_S7_@Base 6.2.1
 (optional=templinst)_ZZN9QtPrivate16QMetaTypeForTypeIdE10getMoveCtrEvENUlPKNS_18QMetaTypeInterfaceEPvS5_E_4_FUNES4_S5_S5_@Base 6.2.1
 (optional=templinst)_ZZN9QtPrivate16QMetaTypeForTypeIdE13getDefaultCtrEvENUlPKNS_18QMetaTypeInterfaceEPvE_4_FUNES4_S5_@Base 6.2.1
 (optional=templinst)_ZZN9QtPrivate16QMetaTypeForTypeIiE10getCopyCtrEvENUlPKNS_18QMetaTypeInterfaceEPvPKvE_4_FUNES4_S5_S7_@Base 6.2.1
 (optional=templinst)_ZZN9QtPrivate16QMetaTypeForTypeIiE10getMoveCtrEvENUlPKNS_18QMetaTypeInterfaceEPvS5_E_4_FUNES4_S5_S5_@Base 6.2.1
 (optional=templinst)_ZZN9QtPrivate16QMetaTypeForTypeIiE13getDefaultCtrEvENUlPKNS_18QMetaTypeInterfaceEPvE_4_FUNES4_S5_@Base 6.2.1
 (optional=templinst)_ZZN9QtPrivate16QMetaTypeForTypeIyE10getCopyCtrEvENUlPKNS_18QMetaTypeInterfaceEPvPKvE_4_FUNES4_S5_S7_@Base 6.2.1
 (optional=templinst)_ZZN9QtPrivate16QMetaTypeForTypeIyE10getMoveCtrEvENUlPKNS_18QMetaTypeInterfaceEPvS5_E_4_FUNES4_S5_S5_@Base 6.2.1
 (optional=templinst)_ZZN9QtPrivate16QMetaTypeForTypeIyE13getDefaultCtrEvENUlPKNS_18QMetaTypeInterfaceEPvE_4_FUNES4_S5_@Base 6.2.1
