# SymbolsHelper-Confirmed: 6.2.1 amd64
libQt6SensorsQuick.so.6 libqt6sensorsquick6 #MINVER#
* Build-Depends-Package: libqt6sensors6-dev
 _Z28qml_register_types_QtSensorsv@Base 6.2.1
 _ZN10QmlCompass11qt_metacallEN11QMetaObject4CallEiPPv@Base 6.2.1
 _ZN10QmlCompass11qt_metacastEPKc@Base 6.2.1
 _ZN10QmlCompass16staticMetaObjectE@Base 6.2.1
 _ZN10QmlCompassC1EP7QObject@Base 6.2.1
 _ZN10QmlCompassC2EP7QObject@Base 6.2.1
 _ZN10QmlCompassD0Ev@Base 6.2.1
 _ZN10QmlCompassD1Ev@Base 6.2.1
 _ZN10QmlCompassD2Ev@Base 6.2.1
 _ZN12QmlGyroscope11qt_metacallEN11QMetaObject4CallEiPPv@Base 6.2.1
 _ZN12QmlGyroscope11qt_metacastEPKc@Base 6.2.1
 _ZN12QmlGyroscope16staticMetaObjectE@Base 6.2.1
 _ZN12QmlGyroscopeC1EP7QObject@Base 6.2.1
 _ZN12QmlGyroscopeC2EP7QObject@Base 6.2.1
 _ZN12QmlGyroscopeD0Ev@Base 6.2.1
 _ZN12QmlGyroscopeD1Ev@Base 6.2.1
 _ZN12QmlGyroscopeD2Ev@Base 6.2.1
 _ZN12QmlLidSensor11qt_metacallEN11QMetaObject4CallEiPPv@Base 6.2.1
 _ZN12QmlLidSensor11qt_metacastEPKc@Base 6.2.1
 _ZN12QmlLidSensor16staticMetaObjectE@Base 6.2.1
 _ZN12QmlLidSensorC1EP7QObject@Base 6.2.1
 _ZN12QmlLidSensorC2EP7QObject@Base 6.2.1
 _ZN12QmlLidSensorD0Ev@Base 6.2.1
 _ZN12QmlLidSensorD1Ev@Base 6.2.1
 _ZN12QmlLidSensorD2Ev@Base 6.2.1
 _ZN12QmlTapSensor11qt_metacallEN11QMetaObject4CallEiPPv@Base 6.2.1
 _ZN12QmlTapSensor11qt_metacastEPKc@Base 6.2.1
 _ZN12QmlTapSensor16staticMetaObjectE@Base 6.2.1
 _ZN12QmlTapSensor24setReturnDoubleTapEventsEb@Base 6.2.1
 _ZN12QmlTapSensor28returnDoubleTapEventsChangedEb@Base 6.2.1
 _ZN12QmlTapSensorC1EP7QObject@Base 6.2.1
 _ZN12QmlTapSensorC2EP7QObject@Base 6.2.1
 _ZN12QmlTapSensorD0Ev@Base 6.2.1
 _ZN12QmlTapSensorD1Ev@Base 6.2.1
 _ZN12QmlTapSensorD2Ev@Base 6.2.1
 _ZN13QmlLidReading11qt_metacallEN11QMetaObject4CallEiPPv@Base 6.2.1
 _ZN13QmlLidReading11qt_metacastEPKc@Base 6.2.1
 _ZN13QmlLidReading13readingUpdateEv@Base 6.2.1
 _ZN13QmlLidReading14backLidChangedEb@Base 6.2.1
 _ZN13QmlLidReading15frontLidChangedEb@Base 6.2.1
 _ZN13QmlLidReading16staticMetaObjectE@Base 6.2.1
 _ZN13QmlLidReadingC1EP10QLidSensor@Base 6.2.1
 _ZN13QmlLidReadingC2EP10QLidSensor@Base 6.2.1
 _ZN13QmlLidReadingD0Ev@Base 6.2.1
 _ZN13QmlLidReadingD1Ev@Base 6.2.1
 _ZN13QmlLidReadingD2Ev@Base 6.2.1
 _ZN13QmlTiltSensor11qt_metacallEN11QMetaObject4CallEiPPv@Base 6.2.1
 _ZN13QmlTiltSensor11qt_metacastEPKc@Base 6.2.1
 _ZN13QmlTiltSensor16staticMetaObjectE@Base 6.2.1
 _ZN13QmlTiltSensor9calibrateEv@Base 6.2.1
 _ZN13QmlTiltSensorC1EP7QObject@Base 6.2.1
 _ZN13QmlTiltSensorC2EP7QObject@Base 6.2.1
 _ZN13QmlTiltSensorD0Ev@Base 6.2.1
 _ZN13QmlTiltSensorD1Ev@Base 6.2.1
 _ZN13QmlTiltSensorD2Ev@Base 6.2.1
 _ZN14QmlLightSensor11qt_metacallEN11QMetaObject4CallEiPPv@Base 6.2.1
 _ZN14QmlLightSensor11qt_metacastEPKc@Base 6.2.1
 _ZN14QmlLightSensor16staticMetaObjectE@Base 6.2.1
 _ZN14QmlLightSensor18fieldOfViewChangedEd@Base 6.2.1
 _ZN14QmlLightSensorC1EP7QObject@Base 6.2.1
 _ZN14QmlLightSensorC2EP7QObject@Base 6.2.1
 _ZN14QmlLightSensorD0Ev@Base 6.2.1
 _ZN14QmlLightSensorD1Ev@Base 6.2.1
 _ZN14QmlLightSensorD2Ev@Base 6.2.1
 _ZN14QmlSensorRange11qt_metacallEN11QMetaObject4CallEiPPv@Base 6.2.1
 _ZN14QmlSensorRange11qt_metacastEPKc@Base 6.2.1
 _ZN14QmlSensorRange16staticMetaObjectE@Base 6.2.1
 _ZN14QmlSensorRangeC1EP7QObject@Base 6.2.1
 _ZN14QmlSensorRangeC2EP7QObject@Base 6.2.1
 _ZN14QmlSensorRangeD0Ev@Base 6.2.1
 _ZN14QmlSensorRangeD1Ev@Base 6.2.1
 _ZN14QmlSensorRangeD2Ev@Base 6.2.1
 _ZN15QmlMagnetometer11qt_metacallEN11QMetaObject4CallEiPPv@Base 6.2.1
 _ZN15QmlMagnetometer11qt_metacastEPKc@Base 6.2.1
 _ZN15QmlMagnetometer16staticMetaObjectE@Base 6.2.1
 _ZN15QmlMagnetometer18setReturnGeoValuesEb@Base 6.2.1
 _ZN15QmlMagnetometer22returnGeoValuesChangedEb@Base 6.2.1
 _ZN15QmlMagnetometerC1EP7QObject@Base 6.2.1
 _ZN15QmlMagnetometerC2EP7QObject@Base 6.2.1
 _ZN15QmlMagnetometerD0Ev@Base 6.2.1
 _ZN15QmlMagnetometerD1Ev@Base 6.2.1
 _ZN15QmlMagnetometerD2Ev@Base 6.2.1
 _ZN15QmlSensorGlobal11qt_metacallEN11QMetaObject4CallEiPPv@Base 6.2.1
 _ZN15QmlSensorGlobal11qt_metacastEPKc@Base 6.2.1
 _ZN15QmlSensorGlobal16staticMetaObjectE@Base 6.2.1
 _ZN15QmlSensorGlobal23availableSensorsChangedEv@Base 6.2.1
 _ZN15QmlSensorGlobalC1EP7QObject@Base 6.2.1
 _ZN15QmlSensorGlobalC2EP7QObject@Base 6.2.1
 _ZN15QmlSensorGlobalD0Ev@Base 6.2.1
 _ZN15QmlSensorGlobalD1Ev@Base 6.2.1
 _ZN15QmlSensorGlobalD2Ev@Base 6.2.1
 _ZN16QmlAccelerometer11qt_metacallEN11QMetaObject4CallEiPPv@Base 6.2.1
 _ZN16QmlAccelerometer11qt_metacastEPKc@Base 6.2.1
 _ZN16QmlAccelerometer16staticMetaObjectE@Base 6.2.1
 _ZN16QmlAccelerometer19setAccelerationModeENS_16AccelerationModeE@Base 6.2.1
 _ZN16QmlAccelerometer23accelerationModeChangedENS_16AccelerationModeE@Base 6.2.1
 _ZN16QmlAccelerometerC1EP7QObject@Base 6.2.1
 _ZN16QmlAccelerometerC2EP7QObject@Base 6.2.1
 _ZN16QmlAccelerometerD0Ev@Base 6.2.1
 _ZN16QmlAccelerometerD1Ev@Base 6.2.1
 _ZN16QmlAccelerometerD2Ev@Base 6.2.1
 _ZN16QmlSensorReading11qt_metacallEN11QMetaObject4CallEiPPv@Base 6.2.1
 _ZN16QmlSensorReading11qt_metacastEPKc@Base 6.2.1
 _ZN16QmlSensorReading16staticMetaObjectE@Base 6.2.1
 _ZN16QmlSensorReading16timestampChangedEv@Base 6.2.1
 _ZN16QmlSensorReading6updateEv@Base 6.2.1
 _ZN17QmlCompassReading11qt_metacallEN11QMetaObject4CallEiPPv@Base 6.2.1
 _ZN17QmlCompassReading11qt_metacastEPKc@Base 6.2.1
 _ZN17QmlCompassReading13readingUpdateEv@Base 6.2.1
 _ZN17QmlCompassReading14azimuthChangedEv@Base 6.2.1
 _ZN17QmlCompassReading16staticMetaObjectE@Base 6.2.1
 _ZN17QmlCompassReading23calibrationLevelChangedEv@Base 6.2.1
 _ZN17QmlCompassReadingC1EP8QCompass@Base 6.2.1
 _ZN17QmlCompassReadingC2EP8QCompass@Base 6.2.1
 _ZN17QmlCompassReadingD0Ev@Base 6.2.1
 _ZN17QmlCompassReadingD1Ev@Base 6.2.1
 _ZN17QmlCompassReadingD2Ev@Base 6.2.1
 _ZN17QmlHumiditySensor11qt_metacallEN11QMetaObject4CallEiPPv@Base 6.2.1
 _ZN17QmlHumiditySensor11qt_metacastEPKc@Base 6.2.1
 _ZN17QmlHumiditySensor16staticMetaObjectE@Base 6.2.1
 _ZN17QmlHumiditySensorC1EP7QObject@Base 6.2.1
 _ZN17QmlHumiditySensorC2EP7QObject@Base 6.2.1
 _ZN17QmlHumiditySensorD0Ev@Base 6.2.1
 _ZN17QmlHumiditySensorD1Ev@Base 6.2.1
 _ZN17QmlHumiditySensorD2Ev@Base 6.2.1
 _ZN17QmlPressureSensor11qt_metacallEN11QMetaObject4CallEiPPv@Base 6.2.1
 _ZN17QmlPressureSensor11qt_metacastEPKc@Base 6.2.1
 _ZN17QmlPressureSensor16staticMetaObjectE@Base 6.2.1
 _ZN17QmlPressureSensorC1EP7QObject@Base 6.2.1
 _ZN17QmlPressureSensorC2EP7QObject@Base 6.2.1
 _ZN17QmlPressureSensorD0Ev@Base 6.2.1
 _ZN17QmlPressureSensorD1Ev@Base 6.2.1
 _ZN17QmlPressureSensorD2Ev@Base 6.2.1
 _ZN17QmlRotationSensor11hasZChangedEb@Base 6.2.1
 _ZN17QmlRotationSensor11qt_metacallEN11QMetaObject4CallEiPPv@Base 6.2.1
 _ZN17QmlRotationSensor11qt_metacastEPKc@Base 6.2.1
 _ZN17QmlRotationSensor16staticMetaObjectE@Base 6.2.1
 _ZN17QmlRotationSensorC1EP7QObject@Base 6.2.1
 _ZN17QmlRotationSensorC2EP7QObject@Base 6.2.1
 _ZN17QmlRotationSensorD0Ev@Base 6.2.1
 _ZN17QmlRotationSensorD1Ev@Base 6.2.1
 _ZN17QmlRotationSensorD2Ev@Base 6.2.1
 _ZN18QmlHumidityReading11qt_metacallEN11QMetaObject4CallEiPPv@Base 6.2.1
 _ZN18QmlHumidityReading11qt_metacastEPKc@Base 6.2.1
 _ZN18QmlHumidityReading13readingUpdateEv@Base 6.2.1
 _ZN18QmlHumidityReading16staticMetaObjectE@Base 6.2.1
 _ZN18QmlHumidityReading23absoluteHumidityChangedEv@Base 6.2.1
 _ZN18QmlHumidityReading23relativeHumidityChangedEv@Base 6.2.1
 _ZN18QmlHumidityReadingC1EP15QHumiditySensor@Base 6.2.1
 _ZN18QmlHumidityReadingC2EP15QHumiditySensor@Base 6.2.1
 _ZN18QmlHumidityReadingD0Ev@Base 6.2.1
 _ZN18QmlHumidityReadingD1Ev@Base 6.2.1
 _ZN18QmlHumidityReadingD2Ev@Base 6.2.1
 _ZN18QmlPressureReading11qt_metacallEN11QMetaObject4CallEiPPv@Base 6.2.1
 _ZN18QmlPressureReading11qt_metacastEPKc@Base 6.2.1
 _ZN18QmlPressureReading13readingUpdateEv@Base 6.2.1
 _ZN18QmlPressureReading15pressureChangedEv@Base 6.2.1
 _ZN18QmlPressureReading16staticMetaObjectE@Base 6.2.1
 _ZN18QmlPressureReading18temperatureChangedEv@Base 6.2.1
 _ZN18QmlPressureReadingC1EP15QPressureSensor@Base 6.2.1
 _ZN18QmlPressureReadingC2EP15QPressureSensor@Base 6.2.1
 _ZN18QmlPressureReadingD0Ev@Base 6.2.1
 _ZN18QmlPressureReadingD1Ev@Base 6.2.1
 _ZN18QmlPressureReadingD2Ev@Base 6.2.1
 _ZN18QmlProximitySensor11qt_metacallEN11QMetaObject4CallEiPPv@Base 6.2.1
 _ZN18QmlProximitySensor11qt_metacastEPKc@Base 6.2.1
 _ZN18QmlProximitySensor16staticMetaObjectE@Base 6.2.1
 _ZN18QmlProximitySensorC1EP7QObject@Base 6.2.1
 _ZN18QmlProximitySensorC2EP7QObject@Base 6.2.1
 _ZN18QmlProximitySensorD0Ev@Base 6.2.1
 _ZN18QmlProximitySensorD1Ev@Base 6.2.1
 _ZN18QmlProximitySensorD2Ev@Base 6.2.1
 _ZN19QmlGyroscopeReading11qt_metacallEN11QMetaObject4CallEiPPv@Base 6.2.1
 _ZN19QmlGyroscopeReading11qt_metacastEPKc@Base 6.2.1
 _ZN19QmlGyroscopeReading13readingUpdateEv@Base 6.2.1
 _ZN19QmlGyroscopeReading16staticMetaObjectE@Base 6.2.1
 _ZN19QmlGyroscopeReading8xChangedEv@Base 6.2.1
 _ZN19QmlGyroscopeReading8yChangedEv@Base 6.2.1
 _ZN19QmlGyroscopeReading8zChangedEv@Base 6.2.1
 _ZN19QmlGyroscopeReadingC1EP10QGyroscope@Base 6.2.1
 _ZN19QmlGyroscopeReadingC2EP10QGyroscope@Base 6.2.1
 _ZN19QmlGyroscopeReadingD0Ev@Base 6.2.1
 _ZN19QmlGyroscopeReadingD1Ev@Base 6.2.1
 _ZN19QmlGyroscopeReadingD2Ev@Base 6.2.1
 _ZN19QmlTapSensorReading11qt_metacallEN11QMetaObject4CallEiPPv@Base 6.2.1
 _ZN19QmlTapSensorReading11qt_metacastEPKc@Base 6.2.1
 _ZN19QmlTapSensorReading13readingUpdateEv@Base 6.2.1
 _ZN19QmlTapSensorReading16staticMetaObjectE@Base 6.2.1
 _ZN19QmlTapSensorReading18isDoubleTapChangedEv@Base 6.2.1
 _ZN19QmlTapSensorReading19tapDirectionChangedEv@Base 6.2.1
 _ZN19QmlTapSensorReadingC1EP10QTapSensor@Base 6.2.1
 _ZN19QmlTapSensorReadingC2EP10QTapSensor@Base 6.2.1
 _ZN19QmlTapSensorReadingD0Ev@Base 6.2.1
 _ZN19QmlTapSensorReadingD1Ev@Base 6.2.1
 _ZN19QmlTapSensorReadingD2Ev@Base 6.2.1
 _ZN20QmlIRProximitySensor11qt_metacallEN11QMetaObject4CallEiPPv@Base 6.2.1
 _ZN20QmlIRProximitySensor11qt_metacastEPKc@Base 6.2.1
 _ZN20QmlIRProximitySensor16staticMetaObjectE@Base 6.2.1
 _ZN20QmlIRProximitySensorC1EP7QObject@Base 6.2.1
 _ZN20QmlIRProximitySensorC2EP7QObject@Base 6.2.1
 _ZN20QmlIRProximitySensorD0Ev@Base 6.2.1
 _ZN20QmlIRProximitySensorD1Ev@Base 6.2.1
 _ZN20QmlIRProximitySensorD2Ev@Base 6.2.1
 _ZN20QmlOrientationSensor11qt_metacallEN11QMetaObject4CallEiPPv@Base 6.2.1
 _ZN20QmlOrientationSensor11qt_metacastEPKc@Base 6.2.1
 _ZN20QmlOrientationSensor16staticMetaObjectE@Base 6.2.1
 _ZN20QmlOrientationSensorC1EP7QObject@Base 6.2.1
 _ZN20QmlOrientationSensorC2EP7QObject@Base 6.2.1
 _ZN20QmlOrientationSensorD0Ev@Base 6.2.1
 _ZN20QmlOrientationSensorD1Ev@Base 6.2.1
 _ZN20QmlOrientationSensorD2Ev@Base 6.2.1
 _ZN20QmlSensorOutputRange11qt_metacallEN11QMetaObject4CallEiPPv@Base 6.2.1
 _ZN20QmlSensorOutputRange11qt_metacastEPKc@Base 6.2.1
 _ZN20QmlSensorOutputRange16staticMetaObjectE@Base 6.2.1
 _ZN20QmlSensorOutputRangeC1EP7QObject@Base 6.2.1
 _ZN20QmlSensorOutputRangeC2EP7QObject@Base 6.2.1
 _ZN20QmlSensorOutputRangeD0Ev@Base 6.2.1
 _ZN20QmlSensorOutputRangeD1Ev@Base 6.2.1
 _ZN20QmlSensorOutputRangeD2Ev@Base 6.2.1
 _ZN20QmlTiltSensorReading11qt_metacallEN11QMetaObject4CallEiPPv@Base 6.2.1
 _ZN20QmlTiltSensorReading11qt_metacastEPKc@Base 6.2.1
 _ZN20QmlTiltSensorReading13readingUpdateEv@Base 6.2.1
 _ZN20QmlTiltSensorReading16staticMetaObjectE@Base 6.2.1
 _ZN20QmlTiltSensorReading16xRotationChangedEv@Base 6.2.1
 _ZN20QmlTiltSensorReading16yRotationChangedEv@Base 6.2.1
 _ZN20QmlTiltSensorReadingC1EP11QTiltSensor@Base 6.2.1
 _ZN20QmlTiltSensorReadingC2EP11QTiltSensor@Base 6.2.1
 _ZN20QmlTiltSensorReadingD0Ev@Base 6.2.1
 _ZN20QmlTiltSensorReadingD1Ev@Base 6.2.1
 _ZN20QmlTiltSensorReadingD2Ev@Base 6.2.1
 _ZN21QmlAmbientLightSensor11qt_metacallEN11QMetaObject4CallEiPPv@Base 6.2.1
 _ZN21QmlAmbientLightSensor11qt_metacastEPKc@Base 6.2.1
 _ZN21QmlAmbientLightSensor16staticMetaObjectE@Base 6.2.1
 _ZN21QmlAmbientLightSensorC1EP7QObject@Base 6.2.1
 _ZN21QmlAmbientLightSensorC2EP7QObject@Base 6.2.1
 _ZN21QmlAmbientLightSensorD0Ev@Base 6.2.1
 _ZN21QmlAmbientLightSensorD1Ev@Base 6.2.1
 _ZN21QmlAmbientLightSensorD2Ev@Base 6.2.1
 _ZN21QmlLightSensorReading11qt_metacallEN11QMetaObject4CallEiPPv@Base 6.2.1
 _ZN21QmlLightSensorReading11qt_metacastEPKc@Base 6.2.1
 _ZN21QmlLightSensorReading13readingUpdateEv@Base 6.2.1
 _ZN21QmlLightSensorReading16staticMetaObjectE@Base 6.2.1
 _ZN21QmlLightSensorReading18illuminanceChangedEv@Base 6.2.1
 _ZN21QmlLightSensorReadingC1EP12QLightSensor@Base 6.2.1
 _ZN21QmlLightSensorReadingC2EP12QLightSensor@Base 6.2.1
 _ZN21QmlLightSensorReadingD0Ev@Base 6.2.1
 _ZN21QmlLightSensorReadingD1Ev@Base 6.2.1
 _ZN21QmlLightSensorReadingD2Ev@Base 6.2.1
 _ZN22QmlMagnetometerReading11qt_metacallEN11QMetaObject4CallEiPPv@Base 6.2.1
 _ZN22QmlMagnetometerReading11qt_metacastEPKc@Base 6.2.1
 _ZN22QmlMagnetometerReading13readingUpdateEv@Base 6.2.1
 _ZN22QmlMagnetometerReading16staticMetaObjectE@Base 6.2.1
 _ZN22QmlMagnetometerReading23calibrationLevelChangedEv@Base 6.2.1
 _ZN22QmlMagnetometerReading8xChangedEv@Base 6.2.1
 _ZN22QmlMagnetometerReading8yChangedEv@Base 6.2.1
 _ZN22QmlMagnetometerReading8zChangedEv@Base 6.2.1
 _ZN22QmlMagnetometerReadingC1EP13QMagnetometer@Base 6.2.1
 _ZN22QmlMagnetometerReadingC2EP13QMagnetometer@Base 6.2.1
 _ZN22QmlMagnetometerReadingD0Ev@Base 6.2.1
 _ZN22QmlMagnetometerReadingD1Ev@Base 6.2.1
 _ZN22QmlMagnetometerReadingD2Ev@Base 6.2.1
 _ZN23QmlAccelerometerReading11qt_metacallEN11QMetaObject4CallEiPPv@Base 6.2.1
 _ZN23QmlAccelerometerReading11qt_metacastEPKc@Base 6.2.1
 _ZN23QmlAccelerometerReading13readingUpdateEv@Base 6.2.1
 _ZN23QmlAccelerometerReading16staticMetaObjectE@Base 6.2.1
 _ZN23QmlAccelerometerReading8xChangedEv@Base 6.2.1
 _ZN23QmlAccelerometerReading8yChangedEv@Base 6.2.1
 _ZN23QmlAccelerometerReading8zChangedEv@Base 6.2.1
 _ZN23QmlAccelerometerReadingC1EP14QAccelerometer@Base 6.2.1
 _ZN23QmlAccelerometerReadingC2EP14QAccelerometer@Base 6.2.1
 _ZN23QmlAccelerometerReadingD0Ev@Base 6.2.1
 _ZN23QmlAccelerometerReadingD1Ev@Base 6.2.1
 _ZN23QmlAccelerometerReadingD2Ev@Base 6.2.1
 _ZN24QmlRotationSensorReading11qt_metacallEN11QMetaObject4CallEiPPv@Base 6.2.1
 _ZN24QmlRotationSensorReading11qt_metacastEPKc@Base 6.2.1
 _ZN24QmlRotationSensorReading13readingUpdateEv@Base 6.2.1
 _ZN24QmlRotationSensorReading16staticMetaObjectE@Base 6.2.1
 _ZN24QmlRotationSensorReading8xChangedEv@Base 6.2.1
 _ZN24QmlRotationSensorReading8yChangedEv@Base 6.2.1
 _ZN24QmlRotationSensorReading8zChangedEv@Base 6.2.1
 _ZN24QmlRotationSensorReadingC1EP15QRotationSensor@Base 6.2.1
 _ZN24QmlRotationSensorReadingC2EP15QRotationSensor@Base 6.2.1
 _ZN24QmlRotationSensorReadingD0Ev@Base 6.2.1
 _ZN24QmlRotationSensorReadingD1Ev@Base 6.2.1
 _ZN24QmlRotationSensorReadingD2Ev@Base 6.2.1
 _ZN25QmlProximitySensorReading11nearChangedEv@Base 6.2.1
 _ZN25QmlProximitySensorReading11qt_metacallEN11QMetaObject4CallEiPPv@Base 6.2.1
 _ZN25QmlProximitySensorReading11qt_metacastEPKc@Base 6.2.1
 _ZN25QmlProximitySensorReading13readingUpdateEv@Base 6.2.1
 _ZN25QmlProximitySensorReading16staticMetaObjectE@Base 6.2.1
 _ZN25QmlProximitySensorReadingC1EP16QProximitySensor@Base 6.2.1
 _ZN25QmlProximitySensorReadingC2EP16QProximitySensor@Base 6.2.1
 _ZN25QmlProximitySensorReadingD0Ev@Base 6.2.1
 _ZN25QmlProximitySensorReadingD1Ev@Base 6.2.1
 _ZN25QmlProximitySensorReadingD2Ev@Base 6.2.1
 _ZN27QmlAmbientTemperatureSensor11qt_metacallEN11QMetaObject4CallEiPPv@Base 6.2.1
 _ZN27QmlAmbientTemperatureSensor11qt_metacastEPKc@Base 6.2.1
 _ZN27QmlAmbientTemperatureSensor16staticMetaObjectE@Base 6.2.1
 _ZN27QmlAmbientTemperatureSensorC1EP7QObject@Base 6.2.1
 _ZN27QmlAmbientTemperatureSensorC2EP7QObject@Base 6.2.1
 _ZN27QmlAmbientTemperatureSensorD0Ev@Base 6.2.1
 _ZN27QmlAmbientTemperatureSensorD1Ev@Base 6.2.1
 _ZN27QmlAmbientTemperatureSensorD2Ev@Base 6.2.1
 _ZN27QmlIRProximitySensorReading11qt_metacallEN11QMetaObject4CallEiPPv@Base 6.2.1
 _ZN27QmlIRProximitySensorReading11qt_metacastEPKc@Base 6.2.1
 _ZN27QmlIRProximitySensorReading13readingUpdateEv@Base 6.2.1
 _ZN27QmlIRProximitySensorReading16staticMetaObjectE@Base 6.2.1
 _ZN27QmlIRProximitySensorReading18reflectanceChangedEv@Base 6.2.1
 _ZN27QmlIRProximitySensorReadingC1EP18QIRProximitySensor@Base 6.2.1
 _ZN27QmlIRProximitySensorReadingC2EP18QIRProximitySensor@Base 6.2.1
 _ZN27QmlIRProximitySensorReadingD0Ev@Base 6.2.1
 _ZN27QmlIRProximitySensorReadingD1Ev@Base 6.2.1
 _ZN27QmlIRProximitySensorReadingD2Ev@Base 6.2.1
 _ZN27QmlOrientationSensorReading11qt_metacallEN11QMetaObject4CallEiPPv@Base 6.2.1
 _ZN27QmlOrientationSensorReading11qt_metacastEPKc@Base 6.2.1
 _ZN27QmlOrientationSensorReading13readingUpdateEv@Base 6.2.1
 _ZN27QmlOrientationSensorReading16staticMetaObjectE@Base 6.2.1
 _ZN27QmlOrientationSensorReading18orientationChangedEv@Base 6.2.1
 _ZN27QmlOrientationSensorReadingC1EP18QOrientationSensor@Base 6.2.1
 _ZN27QmlOrientationSensorReadingC2EP18QOrientationSensor@Base 6.2.1
 _ZN27QmlOrientationSensorReadingD0Ev@Base 6.2.1
 _ZN27QmlOrientationSensorReadingD1Ev@Base 6.2.1
 _ZN27QmlOrientationSensorReadingD2Ev@Base 6.2.1
 _ZN28QmlAmbientLightSensorReading11qt_metacallEN11QMetaObject4CallEiPPv@Base 6.2.1
 _ZN28QmlAmbientLightSensorReading11qt_metacastEPKc@Base 6.2.1
 _ZN28QmlAmbientLightSensorReading13readingUpdateEv@Base 6.2.1
 _ZN28QmlAmbientLightSensorReading16staticMetaObjectE@Base 6.2.1
 _ZN28QmlAmbientLightSensorReading17lightLevelChangedEv@Base 6.2.1
 _ZN28QmlAmbientLightSensorReadingC1EP19QAmbientLightSensor@Base 6.2.1
 _ZN28QmlAmbientLightSensorReadingC2EP19QAmbientLightSensor@Base 6.2.1
 _ZN28QmlAmbientLightSensorReadingD0Ev@Base 6.2.1
 _ZN28QmlAmbientLightSensorReadingD1Ev@Base 6.2.1
 _ZN28QmlAmbientLightSensorReadingD2Ev@Base 6.2.1
 _ZN28QmlAmbientTemperatureReading11qt_metacallEN11QMetaObject4CallEiPPv@Base 6.2.1
 _ZN28QmlAmbientTemperatureReading11qt_metacastEPKc@Base 6.2.1
 _ZN28QmlAmbientTemperatureReading13readingUpdateEv@Base 6.2.1
 _ZN28QmlAmbientTemperatureReading16staticMetaObjectE@Base 6.2.1
 _ZN28QmlAmbientTemperatureReading18temperatureChangedEv@Base 6.2.1
 _ZN28QmlAmbientTemperatureReadingC1EP25QAmbientTemperatureSensor@Base 6.2.1
 _ZN28QmlAmbientTemperatureReadingC2EP25QAmbientTemperatureSensor@Base 6.2.1
 _ZN28QmlAmbientTemperatureReadingD0Ev@Base 6.2.1
 _ZN28QmlAmbientTemperatureReadingD1Ev@Base 6.2.1
 _ZN28QmlAmbientTemperatureReadingD2Ev@Base 6.2.1
 _ZN9QmlSensor10classBeginEv@Base 6.2.1
 _ZN9QmlSensor11busyChangedEv@Base 6.2.1
 _ZN9QmlSensor11qt_metacallEN11QMetaObject4CallEiPPv@Base 6.2.1
 _ZN9QmlSensor11qt_metacastEPKc@Base 6.2.1
 _ZN9QmlSensor11setAlwaysOnEb@Base 6.2.1
 _ZN9QmlSensor11setDataRateEi@Base 6.2.1
 _ZN9QmlSensor12errorChangedEv@Base 6.2.1
 _ZN9QmlSensor13activeChangedEv@Base 6.2.1
 _ZN9QmlSensor13setBufferSizeEi@Base 6.2.1
 _ZN9QmlSensor13setIdentifierERK10QByteArray@Base 6.2.1
 _ZN9QmlSensor13updateReadingEv@Base 6.2.1
 _ZN9QmlSensor14readingChangedEv@Base 6.2.1
 _ZN9QmlSensor14setOutputRangeEi@Base 6.2.1
 _ZN9QmlSensor15alwaysOnChangedEv@Base 6.2.1
 _ZN9QmlSensor15dataRateChangedEv@Base 6.2.1
 _ZN9QmlSensor16staticMetaObjectE@Base 6.2.1
 _ZN9QmlSensor17bufferSizeChangedEi@Base 6.2.1
 _ZN9QmlSensor17componentCompleteEv@Base 6.2.1
 _ZN9QmlSensor17identifierChangedEv@Base 6.2.1
 _ZN9QmlSensor17setSkipDuplicatesEb@Base 6.2.1
 _ZN9QmlSensor18descriptionChangedEv@Base 6.2.1
 _ZN9QmlSensor18outputRangeChangedEv@Base 6.2.1
 _ZN9QmlSensor18setUserOrientationEi@Base 6.2.1
 _ZN9QmlSensor19outputRangesChangedEv@Base 6.2.1
 _ZN9QmlSensor20maxBufferSizeChangedEi@Base 6.2.1
 _ZN9QmlSensor21skipDuplicatesChangedEb@Base 6.2.1
 _ZN9QmlSensor22setAxesOrientationModeENS_19AxesOrientationModeE@Base 6.2.1
 _ZN9QmlSensor22userOrientationChangedEi@Base 6.2.1
 _ZN9QmlSensor25availableDataRatesChangedEv@Base 6.2.1
 _ZN9QmlSensor25connectedToBackendChangedEv@Base 6.2.1
 _ZN9QmlSensor25currentOrientationChangedEi@Base 6.2.1
 _ZN9QmlSensor26axesOrientationModeChangedENS_19AxesOrientationModeE@Base 6.2.1
 _ZN9QmlSensor26efficientBufferSizeChangedEi@Base 6.2.1
 _ZN9QmlSensor4stopEv@Base 6.2.1
 _ZN9QmlSensor5startEv@Base 6.2.1
 _ZN9QmlSensor9setActiveEb@Base 6.2.1
 _ZN9QmlSensorC1EP7QObject@Base 6.2.1
 _ZN9QmlSensorC2EP7QObject@Base 6.2.1
 _ZN9QmlSensorD0Ev@Base 6.2.1
 _ZN9QmlSensorD1Ev@Base 6.2.1
 _ZN9QmlSensorD2Ev@Base 6.2.1
 _ZNK10QmlCompass10metaObjectEv@Base 6.2.1
 _ZNK10QmlCompass13createReadingEv@Base 6.2.1
 _ZNK10QmlCompass6sensorEv@Base 6.2.1
 _ZNK12QmlGyroscope10metaObjectEv@Base 6.2.1
 _ZNK12QmlGyroscope13createReadingEv@Base 6.2.1
 _ZNK12QmlGyroscope6sensorEv@Base 6.2.1
 _ZNK12QmlLidSensor10metaObjectEv@Base 6.2.1
 _ZNK12QmlLidSensor13createReadingEv@Base 6.2.1
 _ZNK12QmlLidSensor6sensorEv@Base 6.2.1
 _ZNK12QmlTapSensor10metaObjectEv@Base 6.2.1
 _ZNK12QmlTapSensor13createReadingEv@Base 6.2.1
 _ZNK12QmlTapSensor21returnDoubleTapEventsEv@Base 6.2.1
 _ZNK12QmlTapSensor6sensorEv@Base 6.2.1
 _ZNK13QmlLidReading10metaObjectEv@Base 6.2.1
 _ZNK13QmlLidReading13backLidClosedEv@Base 6.2.1
 _ZNK13QmlLidReading14frontLidClosedEv@Base 6.2.1
 _ZNK13QmlLidReading21bindableBackLidClosedEv@Base 6.2.1
 _ZNK13QmlLidReading22bindableFrontLidClosedEv@Base 6.2.1
 _ZNK13QmlLidReading7readingEv@Base 6.2.1
 _ZNK13QmlTiltSensor10metaObjectEv@Base 6.2.1
 _ZNK13QmlTiltSensor13createReadingEv@Base 6.2.1
 _ZNK13QmlTiltSensor6sensorEv@Base 6.2.1
 _ZNK14QmlLightSensor10metaObjectEv@Base 6.2.1
 _ZNK14QmlLightSensor11fieldOfViewEv@Base 6.2.1
 _ZNK14QmlLightSensor13createReadingEv@Base 6.2.1
 _ZNK14QmlLightSensor6sensorEv@Base 6.2.1
 _ZNK14QmlSensorRange10metaObjectEv@Base 6.2.1
 _ZNK14QmlSensorRange7maximumEv@Base 6.2.1
 _ZNK14QmlSensorRange7minimumEv@Base 6.2.1
 _ZNK15QmlMagnetometer10metaObjectEv@Base 6.2.1
 _ZNK15QmlMagnetometer13createReadingEv@Base 6.2.1
 _ZNK15QmlMagnetometer15returnGeoValuesEv@Base 6.2.1
 _ZNK15QmlMagnetometer6sensorEv@Base 6.2.1
 _ZNK15QmlSensorGlobal10metaObjectEv@Base 6.2.1
 _ZNK15QmlSensorGlobal11sensorTypesEv@Base 6.2.1
 _ZNK15QmlSensorGlobal14sensorsForTypeERK7QString@Base 6.2.1
 _ZNK15QmlSensorGlobal20defaultSensorForTypeERK7QString@Base 6.2.1
 _ZNK16QmlAccelerometer10metaObjectEv@Base 6.2.1
 _ZNK16QmlAccelerometer13createReadingEv@Base 6.2.1
 _ZNK16QmlAccelerometer16accelerationModeEv@Base 6.2.1
 _ZNK16QmlAccelerometer6sensorEv@Base 6.2.1
 _ZNK16QmlSensorReading10metaObjectEv@Base 6.2.1
 _ZNK16QmlSensorReading17bindableTimestampEv@Base 6.2.1
 _ZNK16QmlSensorReading9timestampEv@Base 6.2.1
 _ZNK17QmlCompassReading10metaObjectEv@Base 6.2.1
 _ZNK17QmlCompassReading15bindableAzimuthEv@Base 6.2.1
 _ZNK17QmlCompassReading16calibrationLevelEv@Base 6.2.1
 _ZNK17QmlCompassReading24bindableCalibrationLevelEv@Base 6.2.1
 _ZNK17QmlCompassReading7azimuthEv@Base 6.2.1
 _ZNK17QmlCompassReading7readingEv@Base 6.2.1
 _ZNK17QmlHumiditySensor10metaObjectEv@Base 6.2.1
 _ZNK17QmlHumiditySensor13createReadingEv@Base 6.2.1
 _ZNK17QmlHumiditySensor6sensorEv@Base 6.2.1
 _ZNK17QmlPressureSensor10metaObjectEv@Base 6.2.1
 _ZNK17QmlPressureSensor13createReadingEv@Base 6.2.1
 _ZNK17QmlPressureSensor6sensorEv@Base 6.2.1
 _ZNK17QmlRotationSensor10metaObjectEv@Base 6.2.1
 _ZNK17QmlRotationSensor13createReadingEv@Base 6.2.1
 _ZNK17QmlRotationSensor4hasZEv@Base 6.2.1
 _ZNK17QmlRotationSensor6sensorEv@Base 6.2.1
 _ZNK18QmlHumidityReading10metaObjectEv@Base 6.2.1
 _ZNK18QmlHumidityReading16absoluteHumidityEv@Base 6.2.1
 _ZNK18QmlHumidityReading16relativeHumidityEv@Base 6.2.1
 _ZNK18QmlHumidityReading24bindableAbsoluteHumidityEv@Base 6.2.1
 _ZNK18QmlHumidityReading24bindableRelativeHumidityEv@Base 6.2.1
 _ZNK18QmlHumidityReading7readingEv@Base 6.2.1
 _ZNK18QmlPressureReading10metaObjectEv@Base 6.2.1
 _ZNK18QmlPressureReading11temperatureEv@Base 6.2.1
 _ZNK18QmlPressureReading16bindablePressureEv@Base 6.2.1
 _ZNK18QmlPressureReading19bindableTemperatureEv@Base 6.2.1
 _ZNK18QmlPressureReading7readingEv@Base 6.2.1
 _ZNK18QmlPressureReading8pressureEv@Base 6.2.1
 _ZNK18QmlProximitySensor10metaObjectEv@Base 6.2.1
 _ZNK18QmlProximitySensor13createReadingEv@Base 6.2.1
 _ZNK18QmlProximitySensor6sensorEv@Base 6.2.1
 _ZNK19QmlGyroscopeReading10metaObjectEv@Base 6.2.1
 _ZNK19QmlGyroscopeReading1xEv@Base 6.2.1
 _ZNK19QmlGyroscopeReading1yEv@Base 6.2.1
 _ZNK19QmlGyroscopeReading1zEv@Base 6.2.1
 _ZNK19QmlGyroscopeReading7readingEv@Base 6.2.1
 _ZNK19QmlGyroscopeReading9bindableXEv@Base 6.2.1
 _ZNK19QmlGyroscopeReading9bindableYEv@Base 6.2.1
 _ZNK19QmlGyroscopeReading9bindableZEv@Base 6.2.1
 _ZNK19QmlTapSensorReading10metaObjectEv@Base 6.2.1
 _ZNK19QmlTapSensorReading11isDoubleTapEv@Base 6.2.1
 _ZNK19QmlTapSensorReading12tapDirectionEv@Base 6.2.1
 _ZNK19QmlTapSensorReading17bindableDoubleTapEv@Base 6.2.1
 _ZNK19QmlTapSensorReading20bindableTapDirectionEv@Base 6.2.1
 _ZNK19QmlTapSensorReading7readingEv@Base 6.2.1
 _ZNK20QmlIRProximitySensor10metaObjectEv@Base 6.2.1
 _ZNK20QmlIRProximitySensor13createReadingEv@Base 6.2.1
 _ZNK20QmlIRProximitySensor6sensorEv@Base 6.2.1
 _ZNK20QmlOrientationSensor10metaObjectEv@Base 6.2.1
 _ZNK20QmlOrientationSensor13createReadingEv@Base 6.2.1
 _ZNK20QmlOrientationSensor6sensorEv@Base 6.2.1
 _ZNK20QmlSensorOutputRange10metaObjectEv@Base 6.2.1
 _ZNK20QmlSensorOutputRange7maximumEv@Base 6.2.1
 _ZNK20QmlSensorOutputRange7minimumEv@Base 6.2.1
 _ZNK20QmlSensorOutputRange8accuracyEv@Base 6.2.1
 _ZNK20QmlTiltSensorReading10metaObjectEv@Base 6.2.1
 _ZNK20QmlTiltSensorReading17bindableXRotationEv@Base 6.2.1
 _ZNK20QmlTiltSensorReading17bindableYRotationEv@Base 6.2.1
 _ZNK20QmlTiltSensorReading7readingEv@Base 6.2.1
 _ZNK20QmlTiltSensorReading9xRotationEv@Base 6.2.1
 _ZNK20QmlTiltSensorReading9yRotationEv@Base 6.2.1
 _ZNK21QmlAmbientLightSensor10metaObjectEv@Base 6.2.1
 _ZNK21QmlAmbientLightSensor13createReadingEv@Base 6.2.1
 _ZNK21QmlAmbientLightSensor6sensorEv@Base 6.2.1
 _ZNK21QmlLightSensorReading10metaObjectEv@Base 6.2.1
 _ZNK21QmlLightSensorReading11illuminanceEv@Base 6.2.1
 _ZNK21QmlLightSensorReading19bindableIlluminanceEv@Base 6.2.1
 _ZNK21QmlLightSensorReading7readingEv@Base 6.2.1
 _ZNK22QmlMagnetometerReading10metaObjectEv@Base 6.2.1
 _ZNK22QmlMagnetometerReading16calibrationLevelEv@Base 6.2.1
 _ZNK22QmlMagnetometerReading1xEv@Base 6.2.1
 _ZNK22QmlMagnetometerReading1yEv@Base 6.2.1
 _ZNK22QmlMagnetometerReading1zEv@Base 6.2.1
 _ZNK22QmlMagnetometerReading24bindableCalibrationLevelEv@Base 6.2.1
 _ZNK22QmlMagnetometerReading7readingEv@Base 6.2.1
 _ZNK22QmlMagnetometerReading9bindableXEv@Base 6.2.1
 _ZNK22QmlMagnetometerReading9bindableYEv@Base 6.2.1
 _ZNK22QmlMagnetometerReading9bindableZEv@Base 6.2.1
 _ZNK23QmlAccelerometerReading10metaObjectEv@Base 6.2.1
 _ZNK23QmlAccelerometerReading1xEv@Base 6.2.1
 _ZNK23QmlAccelerometerReading1yEv@Base 6.2.1
 _ZNK23QmlAccelerometerReading1zEv@Base 6.2.1
 _ZNK23QmlAccelerometerReading7readingEv@Base 6.2.1
 _ZNK23QmlAccelerometerReading9bindableXEv@Base 6.2.1
 _ZNK23QmlAccelerometerReading9bindableYEv@Base 6.2.1
 _ZNK23QmlAccelerometerReading9bindableZEv@Base 6.2.1
 _ZNK24QmlRotationSensorReading10metaObjectEv@Base 6.2.1
 _ZNK24QmlRotationSensorReading1xEv@Base 6.2.1
 _ZNK24QmlRotationSensorReading1yEv@Base 6.2.1
 _ZNK24QmlRotationSensorReading1zEv@Base 6.2.1
 _ZNK24QmlRotationSensorReading7readingEv@Base 6.2.1
 _ZNK24QmlRotationSensorReading9bindableXEv@Base 6.2.1
 _ZNK24QmlRotationSensorReading9bindableYEv@Base 6.2.1
 _ZNK24QmlRotationSensorReading9bindableZEv@Base 6.2.1
 _ZNK25QmlProximitySensorReading10metaObjectEv@Base 6.2.1
 _ZNK25QmlProximitySensorReading12bindableNearEv@Base 6.2.1
 _ZNK25QmlProximitySensorReading4nearEv@Base 6.2.1
 _ZNK25QmlProximitySensorReading7readingEv@Base 6.2.1
 _ZNK27QmlAmbientTemperatureSensor10metaObjectEv@Base 6.2.1
 _ZNK27QmlAmbientTemperatureSensor13createReadingEv@Base 6.2.1
 _ZNK27QmlAmbientTemperatureSensor6sensorEv@Base 6.2.1
 _ZNK27QmlIRProximitySensorReading10metaObjectEv@Base 6.2.1
 _ZNK27QmlIRProximitySensorReading11reflectanceEv@Base 6.2.1
 _ZNK27QmlIRProximitySensorReading19bindableReflectanceEv@Base 6.2.1
 _ZNK27QmlIRProximitySensorReading7readingEv@Base 6.2.1
 _ZNK27QmlOrientationSensorReading10metaObjectEv@Base 6.2.1
 _ZNK27QmlOrientationSensorReading11orientationEv@Base 6.2.1
 _ZNK27QmlOrientationSensorReading19bindableOrientationEv@Base 6.2.1
 _ZNK27QmlOrientationSensorReading7readingEv@Base 6.2.1
 _ZNK28QmlAmbientLightSensorReading10lightLevelEv@Base 6.2.1
 _ZNK28QmlAmbientLightSensorReading10metaObjectEv@Base 6.2.1
 _ZNK28QmlAmbientLightSensorReading18bindableLightLevelEv@Base 6.2.1
 _ZNK28QmlAmbientLightSensorReading7readingEv@Base 6.2.1
 _ZNK28QmlAmbientTemperatureReading10metaObjectEv@Base 6.2.1
 _ZNK28QmlAmbientTemperatureReading11temperatureEv@Base 6.2.1
 _ZNK28QmlAmbientTemperatureReading19bindableTemperatureEv@Base 6.2.1
 _ZNK28QmlAmbientTemperatureReading7readingEv@Base 6.2.1
 _ZNK9QmlSensor10bufferSizeEv@Base 6.2.1
 _ZNK9QmlSensor10identifierEv@Base 6.2.1
 _ZNK9QmlSensor10isAlwaysOnEv@Base 6.2.1
 _ZNK9QmlSensor10metaObjectEv@Base 6.2.1
 _ZNK9QmlSensor11descriptionEv@Base 6.2.1
 _ZNK9QmlSensor11outputRangeEv@Base 6.2.1
 _ZNK9QmlSensor12outputRangesEv@Base 6.2.1
 _ZNK9QmlSensor13maxBufferSizeEv@Base 6.2.1
 _ZNK9QmlSensor14skipDuplicatesEv@Base 6.2.1
 _ZNK9QmlSensor15bindableReadingEv@Base 6.2.1
 _ZNK9QmlSensor15userOrientationEv@Base 6.2.1
 _ZNK9QmlSensor18availableDataRatesEv@Base 6.2.1
 _ZNK9QmlSensor18currentOrientationEv@Base 6.2.1
 _ZNK9QmlSensor19axesOrientationModeEv@Base 6.2.1
 _ZNK9QmlSensor19efficientBufferSizeEv@Base 6.2.1
 _ZNK9QmlSensor20isConnectedToBackendEv@Base 6.2.1
 _ZNK9QmlSensor4typeEv@Base 6.2.1
 _ZNK9QmlSensor5errorEv@Base 6.2.1
 _ZNK9QmlSensor6isBusyEv@Base 6.2.1
 _ZNK9QmlSensor7readingEv@Base 6.2.1
 _ZNK9QmlSensor8dataRateEv@Base 6.2.1
 _ZNK9QmlSensor8isActiveEv@Base 6.2.1
 _ZTI10QmlCompass@Base 6.2.1
 _ZTI12QmlGyroscope@Base 6.2.1
 _ZTI12QmlLidSensor@Base 6.2.1
 _ZTI12QmlTapSensor@Base 6.2.1
 _ZTI13QmlLidReading@Base 6.2.1
 _ZTI13QmlTiltSensor@Base 6.2.1
 _ZTI14QmlLightSensor@Base 6.2.1
 _ZTI14QmlSensorRange@Base 6.2.1
 _ZTI15QmlMagnetometer@Base 6.2.1
 _ZTI15QmlSensorGlobal@Base 6.2.1
 _ZTI16QmlAccelerometer@Base 6.2.1
 _ZTI16QmlSensorReading@Base 6.2.1
 _ZTI17QmlCompassReading@Base 6.2.1
 _ZTI17QmlHumiditySensor@Base 6.2.1
 _ZTI17QmlPressureSensor@Base 6.2.1
 _ZTI17QmlRotationSensor@Base 6.2.1
 _ZTI18QmlHumidityReading@Base 6.2.1
 _ZTI18QmlPressureReading@Base 6.2.1
 _ZTI18QmlProximitySensor@Base 6.2.1
 _ZTI19QmlGyroscopeReading@Base 6.2.1
 _ZTI19QmlTapSensorReading@Base 6.2.1
 _ZTI20QmlIRProximitySensor@Base 6.2.1
 _ZTI20QmlOrientationSensor@Base 6.2.1
 _ZTI20QmlSensorOutputRange@Base 6.2.1
 _ZTI20QmlTiltSensorReading@Base 6.2.1
 _ZTI21QmlAmbientLightSensor@Base 6.2.1
 _ZTI21QmlLightSensorReading@Base 6.2.1
 _ZTI22QmlMagnetometerReading@Base 6.2.1
 _ZTI23QmlAccelerometerReading@Base 6.2.1
 _ZTI24QmlRotationSensorReading@Base 6.2.1
 _ZTI25QmlProximitySensorReading@Base 6.2.1
 _ZTI27QmlAmbientTemperatureSensor@Base 6.2.1
 _ZTI27QmlIRProximitySensorReading@Base 6.2.1
 _ZTI27QmlOrientationSensorReading@Base 6.2.1
 _ZTI28QmlAmbientLightSensorReading@Base 6.2.1
 _ZTI28QmlAmbientTemperatureReading@Base 6.2.1
 _ZTI9QmlSensor@Base 6.2.1
 _ZTS10QmlCompass@Base 6.2.1
 _ZTS12QmlGyroscope@Base 6.2.1
 _ZTS12QmlLidSensor@Base 6.2.1
 _ZTS12QmlTapSensor@Base 6.2.1
 _ZTS13QmlLidReading@Base 6.2.1
 _ZTS13QmlTiltSensor@Base 6.2.1
 _ZTS14QmlLightSensor@Base 6.2.1
 _ZTS14QmlSensorRange@Base 6.2.1
 _ZTS15QmlMagnetometer@Base 6.2.1
 _ZTS15QmlSensorGlobal@Base 6.2.1
 _ZTS16QmlAccelerometer@Base 6.2.1
 _ZTS16QmlSensorReading@Base 6.2.1
 _ZTS17QmlCompassReading@Base 6.2.1
 _ZTS17QmlHumiditySensor@Base 6.2.1
 _ZTS17QmlPressureSensor@Base 6.2.1
 _ZTS17QmlRotationSensor@Base 6.2.1
 _ZTS18QmlHumidityReading@Base 6.2.1
 _ZTS18QmlPressureReading@Base 6.2.1
 _ZTS18QmlProximitySensor@Base 6.2.1
 _ZTS19QmlGyroscopeReading@Base 6.2.1
 _ZTS19QmlTapSensorReading@Base 6.2.1
 _ZTS20QmlIRProximitySensor@Base 6.2.1
 _ZTS20QmlOrientationSensor@Base 6.2.1
 _ZTS20QmlSensorOutputRange@Base 6.2.1
 _ZTS20QmlTiltSensorReading@Base 6.2.1
 _ZTS21QmlAmbientLightSensor@Base 6.2.1
 _ZTS21QmlLightSensorReading@Base 6.2.1
 _ZTS22QmlMagnetometerReading@Base 6.2.1
 _ZTS23QmlAccelerometerReading@Base 6.2.1
 _ZTS24QmlRotationSensorReading@Base 6.2.1
 _ZTS25QmlProximitySensorReading@Base 6.2.1
 _ZTS27QmlAmbientTemperatureSensor@Base 6.2.1
 _ZTS27QmlIRProximitySensorReading@Base 6.2.1
 _ZTS27QmlOrientationSensorReading@Base 6.2.1
 _ZTS28QmlAmbientLightSensorReading@Base 6.2.1
 _ZTS28QmlAmbientTemperatureReading@Base 6.2.1
 _ZTS9QmlSensor@Base 6.2.1
 _ZTV10QmlCompass@Base 6.2.1
 _ZTV12QmlGyroscope@Base 6.2.1
 _ZTV12QmlLidSensor@Base 6.2.1
 _ZTV12QmlTapSensor@Base 6.2.1
 _ZTV13QmlLidReading@Base 6.2.1
 _ZTV13QmlTiltSensor@Base 6.2.1
 _ZTV14QmlLightSensor@Base 6.2.1
 _ZTV14QmlSensorRange@Base 6.2.1
 _ZTV15QmlMagnetometer@Base 6.2.1
 _ZTV15QmlSensorGlobal@Base 6.2.1
 _ZTV16QmlAccelerometer@Base 6.2.1
 _ZTV16QmlSensorReading@Base 6.2.1
 _ZTV17QmlCompassReading@Base 6.2.1
 _ZTV17QmlHumiditySensor@Base 6.2.1
 _ZTV17QmlPressureSensor@Base 6.2.1
 _ZTV17QmlRotationSensor@Base 6.2.1
 _ZTV18QmlHumidityReading@Base 6.2.1
 _ZTV18QmlPressureReading@Base 6.2.1
 _ZTV18QmlProximitySensor@Base 6.2.1
 _ZTV19QmlGyroscopeReading@Base 6.2.1
 _ZTV19QmlTapSensorReading@Base 6.2.1
 _ZTV20QmlIRProximitySensor@Base 6.2.1
 _ZTV20QmlOrientationSensor@Base 6.2.1
 _ZTV20QmlSensorOutputRange@Base 6.2.1
 _ZTV20QmlTiltSensorReading@Base 6.2.1
 _ZTV21QmlAmbientLightSensor@Base 6.2.1
 _ZTV21QmlLightSensorReading@Base 6.2.1
 _ZTV22QmlMagnetometerReading@Base 6.2.1
 _ZTV23QmlAccelerometerReading@Base 6.2.1
 _ZTV24QmlRotationSensorReading@Base 6.2.1
 _ZTV25QmlProximitySensorReading@Base 6.2.1
 _ZTV27QmlAmbientTemperatureSensor@Base 6.2.1
 _ZTV27QmlIRProximitySensorReading@Base 6.2.1
 _ZTV27QmlOrientationSensorReading@Base 6.2.1
 _ZTV28QmlAmbientLightSensorReading@Base 6.2.1
 _ZTV28QmlAmbientTemperatureReading@Base 6.2.1
 _ZTV9QmlSensor@Base 6.2.1
 (optional=templinst)_ZZN9QtPrivate16QMetaTypeForTypeI10QByteArrayE10getCopyCtrEvENUlPKNS_18QMetaTypeInterfaceEPvPKvE_4_FUNES5_S6_S8_@Base 6.2.1
 (optional=templinst)_ZZN9QtPrivate16QMetaTypeForTypeI10QByteArrayE10getMoveCtrEvENUlPKNS_18QMetaTypeInterfaceEPvS6_E_4_FUNES5_S6_S6_@Base 6.2.1
 (optional=templinst)_ZZN9QtPrivate16QMetaTypeForTypeI10QByteArrayE13getDefaultCtrEvENUlPKNS_18QMetaTypeInterfaceEPvE_4_FUNES5_S6_@Base 6.2.1
 (optional=templinst)_ZZN9QtPrivate16QMetaTypeForTypeI10QByteArrayE7getDtorEvENUlPKNS_18QMetaTypeInterfaceEPvE_4_FUNES5_S6_@Base 6.2.1
 (optional=templinst)_ZZN9QtPrivate16QMetaTypeForTypeI5QListI7QStringEE10getCopyCtrEvENUlPKNS_18QMetaTypeInterfaceEPvPKvE_4_FUNES7_S8_SA_@Base 6.2.1
 (optional=templinst)_ZZN9QtPrivate16QMetaTypeForTypeI5QListI7QStringEE10getMoveCtrEvENUlPKNS_18QMetaTypeInterfaceEPvS8_E_4_FUNES7_S8_S8_@Base 6.2.1
 (optional=templinst)_ZZN9QtPrivate16QMetaTypeForTypeI5QListI7QStringEE13getDefaultCtrEvENUlPKNS_18QMetaTypeInterfaceEPvE_4_FUNES7_S8_@Base 6.2.1
 (optional=templinst)_ZZN9QtPrivate16QMetaTypeForTypeI5QListI7QStringEE7getDtorEvENUlPKNS_18QMetaTypeInterfaceEPvE_4_FUNES7_S8_@Base 6.2.1
 (optional=templinst)_ZZN9QtPrivate16QMetaTypeForTypeI7QStringE10getCopyCtrEvENUlPKNS_18QMetaTypeInterfaceEPvPKvE_4_FUNES5_S6_S8_@Base 6.2.1
 (optional=templinst)_ZZN9QtPrivate16QMetaTypeForTypeI7QStringE10getMoveCtrEvENUlPKNS_18QMetaTypeInterfaceEPvS6_E_4_FUNES5_S6_S6_@Base 6.2.1
 (optional=templinst)_ZZN9QtPrivate16QMetaTypeForTypeI7QStringE13getDefaultCtrEvENUlPKNS_18QMetaTypeInterfaceEPvE_4_FUNES5_S6_@Base 6.2.1
 (optional=templinst)_ZZN9QtPrivate16QMetaTypeForTypeI7QStringE7getDtorEvENUlPKNS_18QMetaTypeInterfaceEPvE_4_FUNES5_S6_@Base 6.2.1
 (optional=templinst)_ZZN9QtPrivate16QMetaTypeForTypeIbE10getCopyCtrEvENUlPKNS_18QMetaTypeInterfaceEPvPKvE_4_FUNES4_S5_S7_@Base 6.2.1
 (optional=templinst)_ZZN9QtPrivate16QMetaTypeForTypeIbE10getMoveCtrEvENUlPKNS_18QMetaTypeInterfaceEPvS5_E_4_FUNES4_S5_S5_@Base 6.2.1
 (optional=templinst)_ZZN9QtPrivate16QMetaTypeForTypeIbE13getDefaultCtrEvENUlPKNS_18QMetaTypeInterfaceEPvE_4_FUNES4_S5_@Base 6.2.1
 (optional=templinst)_ZZN9QtPrivate16QMetaTypeForTypeIdE10getCopyCtrEvENUlPKNS_18QMetaTypeInterfaceEPvPKvE_4_FUNES4_S5_S7_@Base 6.2.1
 (optional=templinst)_ZZN9QtPrivate16QMetaTypeForTypeIdE10getMoveCtrEvENUlPKNS_18QMetaTypeInterfaceEPvS5_E_4_FUNES4_S5_S5_@Base 6.2.1
 (optional=templinst)_ZZN9QtPrivate16QMetaTypeForTypeIdE13getDefaultCtrEvENUlPKNS_18QMetaTypeInterfaceEPvE_4_FUNES4_S5_@Base 6.2.1
 (optional=templinst)_ZZN9QtPrivate16QMetaTypeForTypeIiE10getCopyCtrEvENUlPKNS_18QMetaTypeInterfaceEPvPKvE_4_FUNES4_S5_S7_@Base 6.2.1
 (optional=templinst)_ZZN9QtPrivate16QMetaTypeForTypeIiE10getMoveCtrEvENUlPKNS_18QMetaTypeInterfaceEPvS5_E_4_FUNES4_S5_S5_@Base 6.2.1
 (optional=templinst)_ZZN9QtPrivate16QMetaTypeForTypeIiE13getDefaultCtrEvENUlPKNS_18QMetaTypeInterfaceEPvE_4_FUNES4_S5_@Base 6.2.1
 (optional=templinst)_ZZN9QtPrivate16QMetaTypeForTypeIyE10getCopyCtrEvENUlPKNS_18QMetaTypeInterfaceEPvPKvE_4_FUNES4_S5_S7_@Base 6.2.1
 (optional=templinst)_ZZN9QtPrivate16QMetaTypeForTypeIyE10getMoveCtrEvENUlPKNS_18QMetaTypeInterfaceEPvS5_E_4_FUNES4_S5_S5_@Base 6.2.1
 (optional=templinst)_ZZN9QtPrivate16QMetaTypeForTypeIyE13getDefaultCtrEvENUlPKNS_18QMetaTypeInterfaceEPvE_4_FUNES4_S5_@Base 6.2.1
 (c++)"non-virtual thunk to QmlAccelerometer::~QmlAccelerometer()@Base" 6.2.1
 (c++)"non-virtual thunk to QmlAmbientLightSensor::~QmlAmbientLightSensor()@Base" 6.2.1
 (c++)"non-virtual thunk to QmlAmbientTemperatureSensor::~QmlAmbientTemperatureSensor()@Base" 6.2.1
 (c++)"non-virtual thunk to QmlCompass::~QmlCompass()@Base" 6.2.1
 (c++)"non-virtual thunk to QmlGyroscope::~QmlGyroscope()@Base" 6.2.1
 (c++)"non-virtual thunk to QmlHumiditySensor::~QmlHumiditySensor()@Base" 6.2.1
 (c++)"non-virtual thunk to QmlIRProximitySensor::~QmlIRProximitySensor()@Base" 6.2.1
 (c++)"non-virtual thunk to QmlLidSensor::~QmlLidSensor()@Base" 6.2.1
 (c++)"non-virtual thunk to QmlLightSensor::~QmlLightSensor()@Base" 6.2.1
 (c++)"non-virtual thunk to QmlMagnetometer::~QmlMagnetometer()@Base" 6.2.1
 (c++)"non-virtual thunk to QmlOrientationSensor::~QmlOrientationSensor()@Base" 6.2.1
 (c++)"non-virtual thunk to QmlPressureSensor::~QmlPressureSensor()@Base" 6.2.1
 (c++)"non-virtual thunk to QmlProximitySensor::~QmlProximitySensor()@Base" 6.2.1
 (c++)"non-virtual thunk to QmlRotationSensor::~QmlRotationSensor()@Base" 6.2.1
 (c++)"non-virtual thunk to QmlSensor::classBegin()@Base" 6.2.1
 (c++)"non-virtual thunk to QmlSensor::componentComplete()@Base" 6.2.1
 (c++)"non-virtual thunk to QmlSensor::~QmlSensor()@Base" 6.2.1
 (c++)"non-virtual thunk to QmlTapSensor::~QmlTapSensor()@Base" 6.2.1
 (c++)"non-virtual thunk to QmlTiltSensor::~QmlTiltSensor()@Base" 6.2.1
