# SymbolsHelper-Confirmed: 6.2.0 amd64
libQt6LabsFolderListModel.so.6 libqt6labsfolderlistmodel6 #MINVER#
| libqt6labsfolderlistmodel6 #MINVER#, qt6-declarative-abi (= 6.2.2)
* Build-Depends-Packages: qt6-declarative-dev, qt6-declarative-private-dev
 _Z42qml_register_types_Qt_labs_folderlistmodelv@Base 6.2.0
 _ZN21QQuickFolderListModel10classBeginEv@Base 6.2.0
 _ZN21QQuickFolderListModel11qt_metacallEN11QMetaObject4CallEiPPv@Base 6.2.0
 _ZN21QQuickFolderListModel11qt_metacastEPKc@Base 6.2.0
 _ZN21QQuickFolderListModel11setShowDirsEb@Base 6.2.0
 _ZN21QQuickFolderListModel12setShowFilesEb@Base 6.2.0
 _ZN21QQuickFolderListModel12setSortFieldENS_9SortFieldE@Base 6.2.0
 _ZN21QQuickFolderListModel13folderChangedEv@Base 6.2.0
 _ZN21QQuickFolderListModel13setRootFolderERK4QUrl@Base 6.2.0
 _ZN21QQuickFolderListModel13setShowHiddenEb@Base 6.2.0
 _ZN21QQuickFolderListModel13statusChangedEv@Base 6.2.0
 _ZN21QQuickFolderListModel14setNameFiltersERK5QListI7QStringE@Base 6.2.0
 _ZN21QQuickFolderListModel15setSortReversedEb@Base 6.2.0
 _ZN21QQuickFolderListModel16setCaseSensitiveEb@Base 6.2.0
 _ZN21QQuickFolderListModel16setShowDirsFirstEb@Base 6.2.0
 _ZN21QQuickFolderListModel16staticMetaObjectE@Base 6.2.0
 _ZN21QQuickFolderListModel17componentCompleteEv@Base 6.2.0
 _ZN21QQuickFolderListModel19setShowDotAndDotDotEb@Base 6.2.0
 _ZN21QQuickFolderListModel19setShowOnlyReadableEb@Base 6.2.0
 _ZN21QQuickFolderListModel20setSortCaseSensitiveEb@Base 6.2.0
 _ZN21QQuickFolderListModel9setFolderERK4QUrl@Base 6.2.0
 _ZN21QQuickFolderListModelC1EP7QObject@Base 6.2.0
 _ZN21QQuickFolderListModelC2EP7QObject@Base 6.2.0
 _ZN21QQuickFolderListModelD0Ev@Base 6.2.0
 _ZN21QQuickFolderListModelD1Ev@Base 6.2.0
 _ZN21QQuickFolderListModelD2Ev@Base 6.2.0
 _ZNK21QQuickFolderListModel10metaObjectEv@Base 6.2.0
 _ZNK21QQuickFolderListModel10rootFolderEv@Base 6.2.0
 _ZNK21QQuickFolderListModel10showHiddenEv@Base 6.2.0
 _ZNK21QQuickFolderListModel11nameFiltersEv@Base 6.2.0
 _ZNK21QQuickFolderListModel12countChangedEv@Base 6.2.0
 _ZNK21QQuickFolderListModel12parentFolderEv@Base 6.2.0
 _ZNK21QQuickFolderListModel12sortReversedEv@Base 6.2.0
 _ZNK21QQuickFolderListModel13caseSensitiveEv@Base 6.2.0
 _ZNK21QQuickFolderListModel13showDirsFirstEv@Base 6.2.0
 _ZNK21QQuickFolderListModel14roleFromStringERK7QString@Base 6.2.0
 _ZNK21QQuickFolderListModel15rowCountChangedEv@Base 6.2.0
 _ZNK21QQuickFolderListModel16showDotAndDotDotEv@Base 6.2.0
 _ZNK21QQuickFolderListModel16showOnlyReadableEv@Base 6.2.0
 _ZNK21QQuickFolderListModel17sortCaseSensitiveEv@Base 6.2.0
 _ZNK21QQuickFolderListModel3getEiRK7QString@Base 6.2.0
 _ZNK21QQuickFolderListModel4dataERK11QModelIndexi@Base 6.2.0
 _ZNK21QQuickFolderListModel5indexEiiRK11QModelIndex@Base 6.2.0
 _ZNK21QQuickFolderListModel6folderEv@Base 6.2.0
 _ZNK21QQuickFolderListModel6statusEv@Base 6.2.0
 _ZNK21QQuickFolderListModel7indexOfERK4QUrl@Base 6.2.0
 _ZNK21QQuickFolderListModel8isFolderEi@Base 6.2.0
 _ZNK21QQuickFolderListModel8rowCountERK11QModelIndex@Base 6.2.0
 _ZNK21QQuickFolderListModel8showDirsEv@Base 6.2.0
 _ZNK21QQuickFolderListModel9roleNamesEv@Base 6.2.0
 _ZNK21QQuickFolderListModel9showFilesEv@Base 6.2.0
 _ZNK21QQuickFolderListModel9sortFieldEv@Base 6.2.0
 _ZTI21QQuickFolderListModel@Base 6.2.0
 _ZTS21QQuickFolderListModel@Base 6.2.0
 _ZTV21QQuickFolderListModel@Base 6.2.0
 (optional=templinst)_ZZN9QtPrivate16QMetaTypeForTypeI4QUrlE10getCopyCtrEvENUlPKNS_18QMetaTypeInterfaceEPvPKvE_4_FUNES5_S6_S8_@Base 6.2.0
 (optional=templinst)_ZZN9QtPrivate16QMetaTypeForTypeI4QUrlE10getMoveCtrEvENUlPKNS_18QMetaTypeInterfaceEPvS6_E_4_FUNES5_S6_S6_@Base 6.2.0
 (optional=templinst)_ZZN9QtPrivate16QMetaTypeForTypeI4QUrlE13getDefaultCtrEvENUlPKNS_18QMetaTypeInterfaceEPvE_4_FUNES5_S6_@Base 6.2.0
 (optional=templinst)_ZZN9QtPrivate16QMetaTypeForTypeI4QUrlE7getDtorEvENUlPKNS_18QMetaTypeInterfaceEPvE_4_FUNES5_S6_@Base 6.2.0
 (optional=templinst)_ZZN9QtPrivate16QMetaTypeForTypeI5QListI7QStringEE10getCopyCtrEvENUlPKNS_18QMetaTypeInterfaceEPvPKvE_4_FUNES7_S8_SA_@Base 6.2.0
 (optional=templinst)_ZZN9QtPrivate16QMetaTypeForTypeI5QListI7QStringEE10getMoveCtrEvENUlPKNS_18QMetaTypeInterfaceEPvS8_E_4_FUNES7_S8_S8_@Base 6.2.0
 (optional=templinst)_ZZN9QtPrivate16QMetaTypeForTypeI5QListI7QStringEE13getDefaultCtrEvENUlPKNS_18QMetaTypeInterfaceEPvE_4_FUNES7_S8_@Base 6.2.0
 (optional=templinst)_ZZN9QtPrivate16QMetaTypeForTypeI5QListI7QStringEE7getDtorEvENUlPKNS_18QMetaTypeInterfaceEPvE_4_FUNES7_S8_@Base 6.2.0
 (optional=templinst)_ZZN9QtPrivate16QMetaTypeForTypeI7QStringE10getCopyCtrEvENUlPKNS_18QMetaTypeInterfaceEPvPKvE_4_FUNES5_S6_S8_@Base 6.2.0
 (optional=templinst)_ZZN9QtPrivate16QMetaTypeForTypeI7QStringE10getMoveCtrEvENUlPKNS_18QMetaTypeInterfaceEPvS6_E_4_FUNES5_S6_S6_@Base 6.2.0
 (optional=templinst)_ZZN9QtPrivate16QMetaTypeForTypeI7QStringE13getDefaultCtrEvENUlPKNS_18QMetaTypeInterfaceEPvE_4_FUNES5_S6_@Base 6.2.0
 (optional=templinst)_ZZN9QtPrivate16QMetaTypeForTypeI7QStringE7getDtorEvENUlPKNS_18QMetaTypeInterfaceEPvE_4_FUNES5_S6_@Base 6.2.0
 (optional=templinst)_ZZN9QtPrivate16QMetaTypeForTypeI8QVariantE10getCopyCtrEvENUlPKNS_18QMetaTypeInterfaceEPvPKvE_4_FUNES5_S6_S8_@Base 6.2.0
 (optional=templinst)_ZZN9QtPrivate16QMetaTypeForTypeI8QVariantE10getMoveCtrEvENUlPKNS_18QMetaTypeInterfaceEPvS6_E_4_FUNES5_S6_S6_@Base 6.2.0
 (optional=templinst)_ZZN9QtPrivate16QMetaTypeForTypeI8QVariantE13getDefaultCtrEvENUlPKNS_18QMetaTypeInterfaceEPvE_4_FUNES5_S6_@Base 6.2.0
 (optional=templinst)_ZZN9QtPrivate16QMetaTypeForTypeI8QVariantE7getDtorEvENUlPKNS_18QMetaTypeInterfaceEPvE_4_FUNES5_S6_@Base 6.2.0
 (optional=templinst)_ZZN9QtPrivate16QMetaTypeForTypeIbE10getCopyCtrEvENUlPKNS_18QMetaTypeInterfaceEPvPKvE_4_FUNES4_S5_S7_@Base 6.2.0
 (optional=templinst)_ZZN9QtPrivate16QMetaTypeForTypeIbE10getMoveCtrEvENUlPKNS_18QMetaTypeInterfaceEPvS5_E_4_FUNES4_S5_S5_@Base 6.2.0
 (optional=templinst)_ZZN9QtPrivate16QMetaTypeForTypeIbE13getDefaultCtrEvENUlPKNS_18QMetaTypeInterfaceEPvE_4_FUNES4_S5_@Base 6.2.0
 (optional=templinst)_ZZN9QtPrivate16QMetaTypeForTypeIiE10getCopyCtrEvENUlPKNS_18QMetaTypeInterfaceEPvPKvE_4_FUNES4_S5_S7_@Base 6.2.0
 (optional=templinst)_ZZN9QtPrivate16QMetaTypeForTypeIiE10getMoveCtrEvENUlPKNS_18QMetaTypeInterfaceEPvS5_E_4_FUNES4_S5_S5_@Base 6.2.0
 (optional=templinst)_ZZN9QtPrivate16QMetaTypeForTypeIiE13getDefaultCtrEvENUlPKNS_18QMetaTypeInterfaceEPvE_4_FUNES4_S5_@Base 6.2.0
 (c++)"non-virtual thunk to QQuickFolderListModel::classBegin()@Base" 6.2.0
 (c++)"non-virtual thunk to QQuickFolderListModel::componentComplete()@Base" 6.2.0
 (c++)"non-virtual thunk to QQuickFolderListModel::~QQuickFolderListModel()@Base" 6.2.0
