# SymbolsHelper-Confirmed: 6.2.0 amd64
libQt6QuickControls2Impl.so.6 libqt6quickcontrols2impl6 #MINVER#
| libqt6quickcontrols2impl6 #MINVER#, qt6-declarative-abi (= 6.2.2)
* Build-Depends-Packages: qt6-declarative-dev, qt6-declarative-private-dev
 _Z40qml_register_types_QtQuick_Controls_implv@Base 6.2.0
 _ZN11QQuickColor11qt_metacallEN11QMetaObject4CallEiPPv@Base 6.2.0
 _ZN11QQuickColor11qt_metacastEPKc@Base 6.2.0
 _ZN11QQuickColor16staticMetaObjectE@Base 6.2.0
 _ZN11QQuickColorC1EP7QObject@Base 6.2.0
 _ZN11QQuickColorC2EP7QObject@Base 6.2.0
 _ZN15QQuickIconImage10itemChangeEN10QQuickItem10ItemChangeERKNS0_14ItemChangeDataE@Base 6.2.0
 _ZN15QQuickIconImage11nameChangedEv@Base 6.2.0
 _ZN15QQuickIconImage11qt_metacallEN11QMetaObject4CallEiPPv@Base 6.2.0
 _ZN15QQuickIconImage11qt_metacastEPKc@Base 6.2.0
 _ZN15QQuickIconImage12colorChangedEv@Base 6.2.0
 _ZN15QQuickIconImage12pixmapChangeEv@Base 6.2.0
 _ZN15QQuickIconImage14geometryChangeERK6QRectFS2_@Base 6.2.0
 _ZN15QQuickIconImage16staticMetaObjectE@Base 6.2.0
 _ZN15QQuickIconImage17componentCompleteEv@Base 6.2.0
 _ZN15QQuickIconImage7setNameERK7QString@Base 6.2.0
 _ZN15QQuickIconImage8setColorERK6QColor@Base 6.2.0
 _ZN15QQuickIconImage9setSourceERK4QUrl@Base 6.2.0
 _ZN15QQuickIconImageC1EP10QQuickItem@Base 6.2.0
 _ZN15QQuickIconImageC2EP10QQuickItem@Base 6.2.0
 _ZN15QQuickIconLabel10setDisplayENS_7DisplayE@Base 6.2.0
 _ZN15QQuickIconLabel10setSpacingEd@Base 6.2.0
 _ZN15QQuickIconLabel11qt_metacallEN11QMetaObject4CallEiPPv@Base 6.2.0
 _ZN15QQuickIconLabel11qt_metacastEPKc@Base 6.2.0
 _ZN15QQuickIconLabel11setMirroredEb@Base 6.2.0
 _ZN15QQuickIconLabel12setAlignmentE6QFlagsIN2Qt13AlignmentFlagEE@Base 6.2.0
 _ZN15QQuickIconLabel13setTopPaddingEd@Base 6.2.0
 _ZN15QQuickIconLabel14geometryChangeERK6QRectFS2_@Base 6.2.0
 _ZN15QQuickIconLabel14setLeftPaddingEd@Base 6.2.0
 _ZN15QQuickIconLabel15resetTopPaddingEv@Base 6.2.0
 _ZN15QQuickIconLabel15setRightPaddingEd@Base 6.2.0
 _ZN15QQuickIconLabel16resetLeftPaddingEv@Base 6.2.0
 _ZN15QQuickIconLabel16setBottomPaddingEd@Base 6.2.0
 _ZN15QQuickIconLabel16staticMetaObjectE@Base 6.2.0
 _ZN15QQuickIconLabel17componentCompleteEv@Base 6.2.0
 _ZN15QQuickIconLabel17resetRightPaddingEv@Base 6.2.0
 _ZN15QQuickIconLabel18resetBottomPaddingEv@Base 6.2.0
 _ZN15QQuickIconLabel7setFontERK5QFont@Base 6.2.0
 _ZN15QQuickIconLabel7setIconERK10QQuickIcon@Base 6.2.0
 _ZN15QQuickIconLabel7setTextERK7QString@Base 6.2.0
 _ZN15QQuickIconLabel8setColorERK6QColor@Base 6.2.0
 _ZN15QQuickIconLabelC1EP10QQuickItem@Base 6.2.0
 _ZN15QQuickIconLabelC2EP10QQuickItem@Base 6.2.0
 _ZN15QQuickIconLabelD0Ev@Base 6.2.0
 _ZN15QQuickIconLabelD1Ev@Base 6.2.0
 _ZN15QQuickIconLabelD2Ev@Base 6.2.0
 _ZN15QQuickItemGroup10itemChangeEN10QQuickItem10ItemChangeERKNS0_14ItemChangeDataE@Base 6.2.0
 _ZN15QQuickItemGroup11qt_metacallEN11QMetaObject4CallEiPPv@Base 6.2.0
 _ZN15QQuickItemGroup11qt_metacastEPKc@Base 6.2.0
 _ZN15QQuickItemGroup14geometryChangeERK6QRectFS2_@Base 6.2.0
 _ZN15QQuickItemGroup16staticMetaObjectE@Base 6.2.0
 _ZN15QQuickItemGroup18updateImplicitSizeEv@Base 6.2.0
 _ZN15QQuickItemGroup24itemImplicitWidthChangedEP10QQuickItem@Base 6.2.0
 _ZN15QQuickItemGroup25itemImplicitHeightChangedEP10QQuickItem@Base 6.2.0
 _ZN15QQuickItemGroup5watchEP10QQuickItem@Base 6.2.0
 _ZN15QQuickItemGroup7unwatchEP10QQuickItem@Base 6.2.0
 _ZN15QQuickItemGroupC1EP10QQuickItem@Base 6.2.0
 _ZN15QQuickItemGroupC2EP10QQuickItem@Base 6.2.0
 _ZN15QQuickItemGroupD0Ev@Base 6.2.0
 _ZN15QQuickItemGroupD1Ev@Base 6.2.0
 _ZN15QQuickItemGroupD2Ev@Base 6.2.0
 _ZN16QQuickCheckLabel11qt_metacallEN11QMetaObject4CallEiPPv@Base 6.2.0
 _ZN16QQuickCheckLabel11qt_metacastEPKc@Base 6.2.0
 _ZN16QQuickCheckLabel16staticMetaObjectE@Base 6.2.0
 _ZN16QQuickCheckLabelC1EP10QQuickItem@Base 6.2.0
 _ZN16QQuickCheckLabelC2EP10QQuickItem@Base 6.2.0
 _ZN16QQuickColorImage10resetColorEv@Base 6.2.0
 _ZN16QQuickColorImage11qt_metacallEN11QMetaObject4CallEiPPv@Base 6.2.0
 _ZN16QQuickColorImage11qt_metacastEPKc@Base 6.2.0
 _ZN16QQuickColorImage12colorChangedEv@Base 6.2.0
 _ZN16QQuickColorImage12pixmapChangeEv@Base 6.2.0
 _ZN16QQuickColorImage15setDefaultColorERK6QColor@Base 6.2.0
 _ZN16QQuickColorImage16staticMetaObjectE@Base 6.2.0
 _ZN16QQuickColorImage17resetDefaultColorEv@Base 6.2.0
 _ZN16QQuickColorImage19defaultColorChangedEv@Base 6.2.0
 _ZN16QQuickColorImage8setColorERK6QColor@Base 6.2.0
 _ZN16QQuickColorImageC1EP10QQuickItem@Base 6.2.0
 _ZN16QQuickColorImageC2EP10QQuickItem@Base 6.2.0
 _ZN17QQuickClippedText11qt_metacallEN11QMetaObject4CallEiPPv@Base 6.2.0
 _ZN17QQuickClippedText11qt_metacastEPKc@Base 6.2.0
 _ZN17QQuickClippedText12setClipWidthEd@Base 6.2.0
 _ZN17QQuickClippedText13markClipDirtyEv@Base 6.2.0
 _ZN17QQuickClippedText13setClipHeightEd@Base 6.2.0
 _ZN17QQuickClippedText16staticMetaObjectE@Base 6.2.0
 _ZN17QQuickClippedText8setClipXEd@Base 6.2.0
 _ZN17QQuickClippedText8setClipYEd@Base 6.2.0
 _ZN17QQuickClippedTextC1EP10QQuickItem@Base 6.2.0
 _ZN17QQuickClippedTextC2EP10QQuickItem@Base 6.2.0
 _ZN17QQuickTumblerView10createViewEv@Base 6.2.0
 _ZN17QQuickTumblerView10itemChangeEN10QQuickItem10ItemChangeERKNS0_14ItemChangeDataE@Base 6.2.0
 _ZN17QQuickTumblerView10updateViewEv@Base 6.2.0
 _ZN17QQuickTumblerView11pathChangedEv@Base 6.2.0
 _ZN17QQuickTumblerView11qt_metacallEN11QMetaObject4CallEiPPv@Base 6.2.0
 _ZN17QQuickTumblerView11qt_metacastEPKc@Base 6.2.0
 _ZN17QQuickTumblerView11setDelegateEP13QQmlComponent@Base 6.2.0
 _ZN17QQuickTumblerView11updateModelEv@Base 6.2.0
 _ZN17QQuickTumblerView12modelChangedEv@Base 6.2.0
 _ZN17QQuickTumblerView14geometryChangeERK6QRectFS2_@Base 6.2.0
 _ZN17QQuickTumblerView15delegateChangedEv@Base 6.2.0
 _ZN17QQuickTumblerView16staticMetaObjectE@Base 6.2.0
 _ZN17QQuickTumblerView17componentCompleteEv@Base 6.2.0
 _ZN17QQuickTumblerView4viewEv@Base 6.2.0
 _ZN17QQuickTumblerView7setPathEP10QQuickPath@Base 6.2.0
 _ZN17QQuickTumblerView8setModelERK8QVariant@Base 6.2.0
 _ZN17QQuickTumblerViewC1EP10QQuickItem@Base 6.2.0
 _ZN17QQuickTumblerViewC2EP10QQuickItem@Base 6.2.0
 _ZN18QQuickAnimatedNode11qt_metacallEN11QMetaObject4CallEiPPv@Base 6.2.0
 _ZN18QQuickAnimatedNode11qt_metacastEPKc@Base 6.2.0
 _ZN18QQuickAnimatedNode11setDurationEi@Base 6.2.0
 _ZN18QQuickAnimatedNode12setLoopCountEi@Base 6.2.0
 _ZN18QQuickAnimatedNode14setCurrentTimeEi@Base 6.2.0
 _ZN18QQuickAnimatedNode16staticMetaObjectE@Base 6.2.0
 _ZN18QQuickAnimatedNode17updateCurrentTimeEi@Base 6.2.0
 _ZN18QQuickAnimatedNode4stopEv@Base 6.2.0
 _ZN18QQuickAnimatedNode4syncEP10QQuickItem@Base 6.2.0
 _ZN18QQuickAnimatedNode5startEi@Base 6.2.0
 _ZN18QQuickAnimatedNode6updateEv@Base 6.2.0
 _ZN18QQuickAnimatedNode7advanceEv@Base 6.2.0
 _ZN18QQuickAnimatedNode7restartEv@Base 6.2.0
 _ZN18QQuickAnimatedNode7startedEv@Base 6.2.0
 _ZN18QQuickAnimatedNode7stoppedEv@Base 6.2.0
 _ZN18QQuickAnimatedNodeC1EP10QQuickItem@Base 6.2.0
 _ZN18QQuickAnimatedNodeC2EP10QQuickItem@Base 6.2.0
 _ZN19QQuickMnemonicLabel11qt_metacallEN11QMetaObject4CallEiPPv@Base 6.2.0
 _ZN19QQuickMnemonicLabel11qt_metacastEPKc@Base 6.2.0
 _ZN19QQuickMnemonicLabel14updateMnemonicEv@Base 6.2.0
 _ZN19QQuickMnemonicLabel16staticMetaObjectE@Base 6.2.0
 _ZN19QQuickMnemonicLabel18setMnemonicVisibleEb@Base 6.2.0
 _ZN19QQuickMnemonicLabel7setTextERK7QString@Base 6.2.0
 _ZN19QQuickMnemonicLabelC1EP10QQuickItem@Base 6.2.0
 _ZN19QQuickMnemonicLabelC2EP10QQuickItem@Base 6.2.0
 _ZN20QQuickAttachedObject11qt_metacallEN11QMetaObject4CallEiPPv@Base 6.2.0
 _ZN20QQuickAttachedObject11qt_metacastEPKc@Base 6.2.0
 _ZN20QQuickAttachedObject16staticMetaObjectE@Base 6.2.0
 _ZN20QQuickAttachedObject17setAttachedParentEPS_@Base 6.2.0
 _ZN20QQuickAttachedObject20attachedParentChangeEPS_S0_@Base 6.2.0
 _ZN20QQuickAttachedObject4initEv@Base 6.2.0
 _ZN20QQuickAttachedObjectC1EP7QObject@Base 6.2.0
 _ZN20QQuickAttachedObjectC2EP7QObject@Base 6.2.0
 _ZN20QQuickAttachedObjectD0Ev@Base 6.2.0
 _ZN20QQuickAttachedObjectD1Ev@Base 6.2.0
 _ZN20QQuickAttachedObjectD2Ev@Base 6.2.0
 _ZN21QQuickPaddedRectangle10setPaddingEd@Base 6.2.0
 _ZN21QQuickPaddedRectangle11qt_metacallEN11QMetaObject4CallEiPPv@Base 6.2.0
 _ZN21QQuickPaddedRectangle11qt_metacastEPKc@Base 6.2.0
 _ZN21QQuickPaddedRectangle12resetPaddingEv@Base 6.2.0
 _ZN21QQuickPaddedRectangle13setTopPaddingEd@Base 6.2.0
 _ZN21QQuickPaddedRectangle13setTopPaddingEdb@Base 6.2.0
 _ZN21QQuickPaddedRectangle14paddingChangedEv@Base 6.2.0
 _ZN21QQuickPaddedRectangle14setLeftPaddingEd@Base 6.2.0
 _ZN21QQuickPaddedRectangle14setLeftPaddingEdb@Base 6.2.0
 _ZN21QQuickPaddedRectangle15resetTopPaddingEv@Base 6.2.0
 _ZN21QQuickPaddedRectangle15setRightPaddingEd@Base 6.2.0
 _ZN21QQuickPaddedRectangle15setRightPaddingEdb@Base 6.2.0
 _ZN21QQuickPaddedRectangle15updatePaintNodeEP7QSGNodePN10QQuickItem19UpdatePaintNodeDataE@Base 6.2.0
 _ZN21QQuickPaddedRectangle16resetLeftPaddingEv@Base 6.2.0
 _ZN21QQuickPaddedRectangle16setBottomPaddingEd@Base 6.2.0
 _ZN21QQuickPaddedRectangle16setBottomPaddingEdb@Base 6.2.0
 _ZN21QQuickPaddedRectangle16staticMetaObjectE@Base 6.2.0
 _ZN21QQuickPaddedRectangle17resetRightPaddingEv@Base 6.2.0
 _ZN21QQuickPaddedRectangle17topPaddingChangedEv@Base 6.2.0
 _ZN21QQuickPaddedRectangle18leftPaddingChangedEv@Base 6.2.0
 _ZN21QQuickPaddedRectangle18resetBottomPaddingEv@Base 6.2.0
 _ZN21QQuickPaddedRectangle19rightPaddingChangedEv@Base 6.2.0
 _ZN21QQuickPaddedRectangle20bottomPaddingChangedEv@Base 6.2.0
 _ZN21QQuickPaddedRectangleC1EP10QQuickItem@Base 6.2.0
 _ZN21QQuickPaddedRectangleC2EP10QQuickItem@Base 6.2.0
 _ZN21QQuickPlaceholderText11qt_metacallEN11QMetaObject4CallEiPPv@Base 6.2.0
 _ZN21QQuickPlaceholderText11qt_metacastEPKc@Base 6.2.0
 _ZN21QQuickPlaceholderText15updateAlignmentEv@Base 6.2.0
 _ZN21QQuickPlaceholderText16staticMetaObjectE@Base 6.2.0
 _ZN21QQuickPlaceholderText17componentCompleteEv@Base 6.2.0
 _ZN21QQuickPlaceholderTextC1EP10QQuickItem@Base 6.2.0
 _ZN21QQuickPlaceholderTextC2EP10QQuickItem@Base 6.2.0
 _ZN22QQuickIconImagePrivate10updateIconEv@Base 6.2.0
 _ZN22QQuickIconImagePrivate14updateFillModeEv@Base 6.2.0
 _ZN22QQuickIconImagePrivate22updateDevicePixelRatioEd@Base 6.2.0
 _ZN22QQuickIconImagePrivateD0Ev@Base 6.2.0
 _ZN22QQuickIconImagePrivateD1Ev@Base 6.2.0
 _ZN22QQuickIconImagePrivateD2Ev@Base 6.2.0
 _ZNK11QQuickColor10metaObjectEv@Base 6.2.0
 _ZNK11QQuickColor11transparentERK6QColord@Base 6.2.0
 _ZNK11QQuickColor5blendERK6QColorS2_d@Base 6.2.0
 _ZNK15QQuickIconImage10metaObjectEv@Base 6.2.0
 _ZNK15QQuickIconImage4nameEv@Base 6.2.0
 _ZNK15QQuickIconImage5colorEv@Base 6.2.0
 _ZNK15QQuickIconLabel10isMirroredEv@Base 6.2.0
 _ZNK15QQuickIconLabel10metaObjectEv@Base 6.2.0
 _ZNK15QQuickIconLabel10topPaddingEv@Base 6.2.0
 _ZNK15QQuickIconLabel11leftPaddingEv@Base 6.2.0
 _ZNK15QQuickIconLabel12rightPaddingEv@Base 6.2.0
 _ZNK15QQuickIconLabel13bottomPaddingEv@Base 6.2.0
 _ZNK15QQuickIconLabel4fontEv@Base 6.2.0
 _ZNK15QQuickIconLabel4iconEv@Base 6.2.0
 _ZNK15QQuickIconLabel4textEv@Base 6.2.0
 _ZNK15QQuickIconLabel5colorEv@Base 6.2.0
 _ZNK15QQuickIconLabel7displayEv@Base 6.2.0
 _ZNK15QQuickIconLabel7spacingEv@Base 6.2.0
 _ZNK15QQuickIconLabel9alignmentEv@Base 6.2.0
 _ZNK15QQuickItemGroup10metaObjectEv@Base 6.2.0
 _ZNK15QQuickItemGroup21calculateImplicitSizeEv@Base 6.2.0
 _ZNK16QQuickCheckLabel10metaObjectEv@Base 6.2.0
 _ZNK16QQuickColorImage10metaObjectEv@Base 6.2.0
 _ZNK16QQuickColorImage12defaultColorEv@Base 6.2.0
 _ZNK16QQuickColorImage5colorEv@Base 6.2.0
 _ZNK17QQuickClippedText10clipHeightEv@Base 6.2.0
 _ZNK17QQuickClippedText10metaObjectEv@Base 6.2.0
 _ZNK17QQuickClippedText5clipXEv@Base 6.2.0
 _ZNK17QQuickClippedText5clipYEv@Base 6.2.0
 _ZNK17QQuickClippedText8clipRectEv@Base 6.2.0
 _ZNK17QQuickClippedText9clipWidthEv@Base 6.2.0
 _ZNK17QQuickTumblerView10metaObjectEv@Base 6.2.0
 _ZNK17QQuickTumblerView4pathEv@Base 6.2.0
 _ZNK17QQuickTumblerView5modelEv@Base 6.2.0
 _ZNK17QQuickTumblerView8delegateEv@Base 6.2.0
 _ZNK18QQuickAnimatedNode10metaObjectEv@Base 6.2.0
 _ZNK18QQuickAnimatedNode11currentTimeEv@Base 6.2.0
 _ZNK18QQuickAnimatedNode6windowEv@Base 6.2.0
 _ZNK18QQuickAnimatedNode8durationEv@Base 6.2.0
 _ZNK18QQuickAnimatedNode9isRunningEv@Base 6.2.0
 _ZNK18QQuickAnimatedNode9loopCountEv@Base 6.2.0
 _ZNK19QQuickMnemonicLabel10metaObjectEv@Base 6.2.0
 _ZNK19QQuickMnemonicLabel17isMnemonicVisibleEv@Base 6.2.0
 _ZNK19QQuickMnemonicLabel4textEv@Base 6.2.0
 _ZNK20QQuickAttachedObject10metaObjectEv@Base 6.2.0
 _ZNK20QQuickAttachedObject14attachedParentEv@Base 6.2.0
 _ZNK20QQuickAttachedObject16attachedChildrenEv@Base 6.2.0
 _ZNK21QQuickPaddedRectangle10metaObjectEv@Base 6.2.0
 _ZNK21QQuickPaddedRectangle10topPaddingEv@Base 6.2.0
 _ZNK21QQuickPaddedRectangle11leftPaddingEv@Base 6.2.0
 _ZNK21QQuickPaddedRectangle12rightPaddingEv@Base 6.2.0
 _ZNK21QQuickPaddedRectangle13bottomPaddingEv@Base 6.2.0
 _ZNK21QQuickPaddedRectangle7paddingEv@Base 6.2.0
 _ZNK21QQuickPlaceholderText10metaObjectEv@Base 6.2.0
 _ZNK22QQuickIconImagePrivate25calculateDevicePixelRatioEv@Base 6.2.0
 _ZTI11QQuickColor@Base 6.2.0
 _ZTI15QQuickIconImage@Base 6.2.0
 _ZTI15QQuickIconLabel@Base 6.2.0
 _ZTI15QQuickItemGroup@Base 6.2.0
 _ZTI16QQuickCheckLabel@Base 6.2.0
 _ZTI16QQuickColorImage@Base 6.2.0
 _ZTI17QQuickClippedText@Base 6.2.0
 _ZTI17QQuickTumblerView@Base 6.2.0
 _ZTI18QQuickAnimatedNode@Base 6.2.0
 _ZTI18QQuickImagePrivate@Base 6.2.0
 _ZTI19QQuickMnemonicLabel@Base 6.2.0
 _ZTI20QQuickAttachedObject@Base 6.2.0
 _ZTI21QQuickPaddedRectangle@Base 6.2.0
 _ZTI21QQuickPlaceholderText@Base 6.2.0
 _ZTI22QQuickIconImagePrivate@Base 6.2.0
 _ZTI29QQuickImplicitSizeItemPrivate@Base 6.2.0
 _ZTIFP7QObjectP10QQmlEngineP9QJSEngineE@Base 6.2.0
 _ZTIPFP7QObjectP10QQmlEngineP9QJSEngineE@Base 6.2.0
 _ZTS11QQuickColor@Base 6.2.0
 _ZTS15QQuickIconImage@Base 6.2.0
 _ZTS15QQuickIconLabel@Base 6.2.0
 _ZTS15QQuickItemGroup@Base 6.2.0
 _ZTS16QQuickCheckLabel@Base 6.2.0
 _ZTS16QQuickColorImage@Base 6.2.0
 _ZTS17QQuickClippedText@Base 6.2.0
 _ZTS17QQuickTumblerView@Base 6.2.0
 _ZTS18QQuickAnimatedNode@Base 6.2.0
 _ZTS18QQuickImagePrivate@Base 6.2.0
 _ZTS19QQuickMnemonicLabel@Base 6.2.0
 _ZTS20QQuickAttachedObject@Base 6.2.0
 _ZTS21QQuickPaddedRectangle@Base 6.2.0
 _ZTS21QQuickPlaceholderText@Base 6.2.0
 _ZTS22QQuickIconImagePrivate@Base 6.2.0
 _ZTS29QQuickImplicitSizeItemPrivate@Base 6.2.0
 _ZTSFP7QObjectP10QQmlEngineP9QJSEngineE@Base 6.2.0
 _ZTSPFP7QObjectP10QQmlEngineP9QJSEngineE@Base 6.2.0
 _ZTV11QQuickColor@Base 6.2.0
 _ZTV15QQuickIconImage@Base 6.2.0
 _ZTV15QQuickIconLabel@Base 6.2.0
 _ZTV15QQuickItemGroup@Base 6.2.0
 _ZTV16QQuickCheckLabel@Base 6.2.0
 _ZTV16QQuickColorImage@Base 6.2.0
 _ZTV17QQuickClippedText@Base 6.2.0
 _ZTV17QQuickTumblerView@Base 6.2.0
 _ZTV18QQuickAnimatedNode@Base 6.2.0
 _ZTV19QQuickMnemonicLabel@Base 6.2.0
 _ZTV20QQuickAttachedObject@Base 6.2.0
 _ZTV21QQuickPaddedRectangle@Base 6.2.0
 _ZTV21QQuickPlaceholderText@Base 6.2.0
 _ZTV22QQuickIconImagePrivate@Base 6.2.0
 _ZTV29QQuickImplicitSizeItemPrivate@Base 6.2.0
 (optional=templinst)_ZZN9QtPrivate16QMetaTypeForTypeI7QStringE10getCopyCtrEvENUlPKNS_18QMetaTypeInterfaceEPvPKvE_4_FUNES5_S6_S8_@Base 6.2.0
 (optional=templinst)_ZZN9QtPrivate16QMetaTypeForTypeI7QStringE10getMoveCtrEvENUlPKNS_18QMetaTypeInterfaceEPvS6_E_4_FUNES5_S6_S6_@Base 6.2.0
 (optional=templinst)_ZZN9QtPrivate16QMetaTypeForTypeI7QStringE13getDefaultCtrEvENUlPKNS_18QMetaTypeInterfaceEPvE_4_FUNES5_S6_@Base 6.2.0
 (optional=templinst)_ZZN9QtPrivate16QMetaTypeForTypeI7QStringE7getDtorEvENUlPKNS_18QMetaTypeInterfaceEPvE_4_FUNES5_S6_@Base 6.2.0
 (optional=templinst)_ZZN9QtPrivate16QMetaTypeForTypeI8QVariantE10getCopyCtrEvENUlPKNS_18QMetaTypeInterfaceEPvPKvE_4_FUNES5_S6_S8_@Base 6.2.0
 (optional=templinst)_ZZN9QtPrivate16QMetaTypeForTypeI8QVariantE10getMoveCtrEvENUlPKNS_18QMetaTypeInterfaceEPvS6_E_4_FUNES5_S6_S6_@Base 6.2.0
 (optional=templinst)_ZZN9QtPrivate16QMetaTypeForTypeI8QVariantE13getDefaultCtrEvENUlPKNS_18QMetaTypeInterfaceEPvE_4_FUNES5_S6_@Base 6.2.0
 (optional=templinst)_ZZN9QtPrivate16QMetaTypeForTypeI8QVariantE7getDtorEvENUlPKNS_18QMetaTypeInterfaceEPvE_4_FUNES5_S6_@Base 6.2.0
 (optional=templinst)_ZZN9QtPrivate16QMetaTypeForTypeIbE10getCopyCtrEvENUlPKNS_18QMetaTypeInterfaceEPvPKvE_4_FUNES4_S5_S7_@Base 6.2.0
 (optional=templinst)_ZZN9QtPrivate16QMetaTypeForTypeIbE10getMoveCtrEvENUlPKNS_18QMetaTypeInterfaceEPvS5_E_4_FUNES4_S5_S5_@Base 6.2.0
 (optional=templinst)_ZZN9QtPrivate16QMetaTypeForTypeIbE13getDefaultCtrEvENUlPKNS_18QMetaTypeInterfaceEPvE_4_FUNES4_S5_@Base 6.2.0
 (optional=templinst)_ZZN9QtPrivate16QMetaTypeForTypeIdE10getCopyCtrEvENUlPKNS_18QMetaTypeInterfaceEPvPKvE_4_FUNES4_S5_S7_@Base 6.2.0
 (optional=templinst)_ZZN9QtPrivate16QMetaTypeForTypeIdE10getMoveCtrEvENUlPKNS_18QMetaTypeInterfaceEPvS5_E_4_FUNES4_S5_S5_@Base 6.2.0
 (optional=templinst)_ZZN9QtPrivate16QMetaTypeForTypeIdE13getDefaultCtrEvENUlPKNS_18QMetaTypeInterfaceEPvE_4_FUNES4_S5_@Base 6.2.0
 (c++)"non-virtual thunk to QQuickIconImage::componentComplete()@Base" 6.2.0
 (c++)"non-virtual thunk to QQuickIconImagePrivate::~QQuickIconImagePrivate()@Base" 6.2.0
 (c++)"non-virtual thunk to QQuickIconLabel::componentComplete()@Base" 6.2.0
 (c++)"non-virtual thunk to QQuickIconLabel::~QQuickIconLabel()@Base" 6.2.0
 (c++)"non-virtual thunk to QQuickItemGroup::itemImplicitHeightChanged(QQuickItem*)@Base" 6.2.0
 (c++)"non-virtual thunk to QQuickItemGroup::itemImplicitWidthChanged(QQuickItem*)@Base" 6.2.0
 (c++)"non-virtual thunk to QQuickItemGroup::~QQuickItemGroup()@Base" 6.2.0
 (c++)"non-virtual thunk to QQuickPlaceholderText::componentComplete()@Base" 6.2.0
 (c++)"non-virtual thunk to QQuickTumblerView::componentComplete()@Base" 6.2.0
