# SymbolsHelper-Confirmed: 6.2.0 amd64
libQt6LabsWavefrontMesh.so.6 libqt6labswavefrontmesh6 #MINVER#
| libqt6labswavefrontmesh6 #MINVER#, qt6-declarative-abi (= 6.2.2)
* Build-Depends-Packages: qt6-declarative-dev, qt6-declarative-private-dev
 _Z40qml_register_types_Qt_labs_wavefrontmeshv@Base 6.2.0
 _ZN14QWavefrontMesh11qt_metacallEN11QMetaObject4CallEiPPv@Base 6.2.0
 _ZN14QWavefrontMesh11qt_metacastEPKc@Base 6.2.0
 _ZN14QWavefrontMesh12setLastErrorENS_5ErrorE@Base 6.2.0
 _ZN14QWavefrontMesh13sourceChangedEv@Base 6.2.0
 _ZN14QWavefrontMesh14updateGeometryEP11QSGGeometryiiRK6QRectFS4_@Base 6.2.0
 _ZN14QWavefrontMesh16lastErrorChangedEv@Base 6.2.0
 _ZN14QWavefrontMesh16staticMetaObjectE@Base 6.2.0
 _ZN14QWavefrontMesh18validateAttributesERK5QListI10QByteArrayEPi@Base 6.2.0
 _ZN14QWavefrontMesh19setProjectionPlaneVERK9QVector3D@Base 6.2.0
 _ZN14QWavefrontMesh19setProjectionPlaneWERK9QVector3D@Base 6.2.0
 _ZN14QWavefrontMesh23projectionPlaneVChangedEv@Base 6.2.0
 _ZN14QWavefrontMesh23projectionPlaneWChangedEv@Base 6.2.0
 _ZN14QWavefrontMesh8readDataEv@Base 6.2.0
 _ZN14QWavefrontMesh9setSourceERK4QUrl@Base 6.2.0
 _ZN14QWavefrontMeshC1EP7QObject@Base 6.2.0
 _ZN14QWavefrontMeshC2EP7QObject@Base 6.2.0
 _ZN14QWavefrontMeshD0Ev@Base 6.2.0
 _ZN14QWavefrontMeshD1Ev@Base 6.2.0
 _ZN14QWavefrontMeshD2Ev@Base 6.2.0
 _ZNK14QWavefrontMesh10metaObjectEv@Base 6.2.0
 _ZNK14QWavefrontMesh16projectionPlaneVEv@Base 6.2.0
 _ZNK14QWavefrontMesh16projectionPlaneWEv@Base 6.2.0
 _ZNK14QWavefrontMesh3logEv@Base 6.2.0
 _ZNK14QWavefrontMesh6sourceEv@Base 6.2.0
 _ZNK14QWavefrontMesh9lastErrorEv@Base 6.2.0
 _ZTI14QWavefrontMesh@Base 6.2.0
 _ZTS14QWavefrontMesh@Base 6.2.0
 _ZTV14QWavefrontMesh@Base 6.2.0
 (optional=templinst)_ZZN9QtPrivate16QMetaTypeForTypeI4QUrlE10getCopyCtrEvENUlPKNS_18QMetaTypeInterfaceEPvPKvE_4_FUNES5_S6_S8_@Base 6.2.0
 (optional=templinst)_ZZN9QtPrivate16QMetaTypeForTypeI4QUrlE10getMoveCtrEvENUlPKNS_18QMetaTypeInterfaceEPvS6_E_4_FUNES5_S6_S6_@Base 6.2.0
 (optional=templinst)_ZZN9QtPrivate16QMetaTypeForTypeI4QUrlE13getDefaultCtrEvENUlPKNS_18QMetaTypeInterfaceEPvE_4_FUNES5_S6_@Base 6.2.0
 (optional=templinst)_ZZN9QtPrivate16QMetaTypeForTypeI4QUrlE7getDtorEvENUlPKNS_18QMetaTypeInterfaceEPvE_4_FUNES5_S6_@Base 6.2.0
