# SymbolsHelper-Confirmed: 6.2.1 armel armhf i386
libQt6QuickParticles.so.6 libqt6quickparticles6 #MINVER#
| libqt6quickparticles6 #MINVER#, qt6-declarative-abi (= 6.2.2)
* Build-Depends-Packages: qt6-declarative-dev, qt6-declarative-private-dev
 _Z36qml_register_types_QtQuick_Particlesv@Base 6.2.0
 _ZN18QQuickParticleData10extendLifeEfP20QQuickParticleSystem@Base 6.2.0
 _ZN18QQuickParticleData5cloneERKS_@Base 6.2.0
 _ZN18QQuickParticleData7v4ValueEP20QQuickParticleSystem@Base 6.2.0
 _ZN18QQuickParticleDataC1ERKS_@Base 6.2.0
 _ZN18QQuickParticleDataC1Ev@Base 6.2.0
 _ZN18QQuickParticleDataC2ERKS_@Base 6.2.0
 _ZN18QQuickParticleDataC2Ev@Base 6.2.0
 _ZN18QQuickParticleDataD1Ev@Base 6.2.0
 _ZN18QQuickParticleDataD2Ev@Base 6.2.0
 _ZN18QQuickParticleDataaSERKS_@Base 6.2.0
 _ZN20QQuickParticleSystem10initGroupsEv@Base 6.2.0
 _ZN20QQuickParticleSystem10moveGroupsEP18QQuickParticleDatai@Base 6.2.0
 _ZN20QQuickParticleSystem10setRunningEb@Base 6.2.0
 _ZN20QQuickParticleSystem10systemSyncEP21QQuickParticlePainter@Base 6.2.0
 _ZN20QQuickParticleSystem11loadPainterEP21QQuickParticlePainter@Base 6.2.0
 _ZN20QQuickParticleSystem11qt_metacallEN11QMetaObject4CallEiPPv@Base 6.2.0
 _ZN20QQuickParticleSystem11qt_metacastEPKc@Base 6.2.0
 _ZN20QQuickParticleSystem12createEngineEv@Base 6.2.0
 _ZN20QQuickParticleSystem12emitParticleEP18QQuickParticleDataP21QQuickParticleEmitter@Base 6.2.0
 _ZN20QQuickParticleSystem12emptyChangedEb@Base 6.2.0
 _ZN20QQuickParticleSystem13pausedChangedEb@Base 6.2.0
 _ZN20QQuickParticleSystem13stateRedirectEP19QQuickParticleGroupPS_P7QObject@Base 6.2.0
 _ZN20QQuickParticleSystem14finishNewDatumEP18QQuickParticleData@Base 6.2.0
 _ZN20QQuickParticleSystem14runningChangedEb@Base 6.2.0
 _ZN20QQuickParticleSystem15emittersChangedEv@Base 6.2.0
 _ZN20QQuickParticleSystem15nextSystemIndexEv@Base 6.2.0
 _ZN20QQuickParticleSystem16staticMetaObjectE@Base 6.2.0
 _ZN20QQuickParticleSystem17componentCompleteEv@Base 6.2.0
 _ZN20QQuickParticleSystem17systemInitializedEv@Base 6.2.0
 _ZN20QQuickParticleSystem17updateCurrentTimeEi@Base 6.2.0
 _ZN20QQuickParticleSystem19particleStateChangeEi@Base 6.2.0
 _ZN20QQuickParticleSystem21registerParticleGroupEP19QQuickParticleGroup@Base 6.2.0
 _ZN20QQuickParticleSystem21searchNextFreeGroupIdEv@Base 6.2.0
 _ZN20QQuickParticleSystem21statePropertyRedirectEP16QQmlListPropertyI7QObjectEPS1_@Base 6.2.0
 _ZN20QQuickParticleSystem23registerParticleEmitterEP21QQuickParticleEmitter@Base 6.2.0
 _ZN20QQuickParticleSystem23registerParticlePainterEP21QQuickParticlePainter@Base 6.2.0
 _ZN20QQuickParticleSystem24registerParticleAffectorEP22QQuickParticleAffector@Base 6.2.0
 _ZN20QQuickParticleSystem25registerParticleGroupDataERK7QStringP23QQuickParticleGroupData@Base 6.2.0
 _ZN20QQuickParticleSystem32finishRegisteringParticleEmitterEP21QQuickParticleEmitter@Base 6.2.0
 _ZN20QQuickParticleSystem5resetEv@Base 6.2.0
 _ZN20QQuickParticleSystem8newDatumEibi@Base 6.2.0
 _ZN20QQuickParticleSystem9setPausedEb@Base 6.2.0
 _ZN20QQuickParticleSystemC1EP10QQuickItem@Base 6.2.0
 _ZN20QQuickParticleSystemC2EP10QQuickItem@Base 6.2.0
 _ZN20QQuickParticleSystemD0Ev@Base 6.2.0
 _ZN20QQuickParticleSystemD1Ev@Base 6.2.0
 _ZN20QQuickParticleSystemD2Ev@Base 6.2.0
 _ZN21QQuickParticleEmitter10emitWindowEi@Base 6.2.0
 _ZN21QQuickParticleEmitter10setEnabledEb@Base 6.2.0
 _ZN21QQuickParticleEmitter11qt_metacallEN11QMetaObject4CallEiPPv@Base 6.2.0
 _ZN21QQuickParticleEmitter11qt_metacastEPKc@Base 6.2.0
 _ZN21QQuickParticleEmitter12groupChangedERK7QString@Base 6.2.0
 _ZN21QQuickParticleEmitter13emitParticlesERK8QJSValue@Base 6.2.0
 _ZN21QQuickParticleEmitter13systemChangedEP20QQuickParticleSystem@Base 6.2.0
 _ZN21QQuickParticleEmitter14enabledChangedEb@Base 6.2.0
 _ZN21QQuickParticleEmitter15extruderChangedEP22QQuickParticleExtruder@Base 6.2.0
 _ZN21QQuickParticleEmitter15isEmitConnectedEv@Base 6.2.0
 _ZN21QQuickParticleEmitter15velocityChangedEP15QQuickDirection@Base 6.2.0
 _ZN21QQuickParticleEmitter16startTimeChangedEi@Base 6.2.0
 _ZN21QQuickParticleEmitter16staticMetaObjectE@Base 6.2.0
 _ZN21QQuickParticleEmitter17componentCompleteEv@Base 6.2.0
 _ZN21QQuickParticleEmitter17effectiveExtruderEv@Base 6.2.0
 _ZN21QQuickParticleEmitter19accelerationChangedEP15QQuickDirection@Base 6.2.0
 _ZN21QQuickParticleEmitter19particleSizeChangedEd@Base 6.2.0
 _ZN21QQuickParticleEmitter19setMaxParticleCountEi@Base 6.2.0
 _ZN21QQuickParticleEmitter20particleCountChangedEv@Base 6.2.0
 _ZN21QQuickParticleEmitter21maximumEmittedChangedEi@Base 6.2.0
 _ZN21QQuickParticleEmitter22particleEndSizeChangedEd@Base 6.2.0
 _ZN21QQuickParticleEmitter23particleDurationChangedEi@Base 6.2.0
 _ZN21QQuickParticleEmitter23setVelocityFromMovementEd@Base 6.2.0
 _ZN21QQuickParticleEmitter25particlesPerSecondChangedEd@Base 6.2.0
 _ZN21QQuickParticleEmitter27velocityFromMovementChangedEv@Base 6.2.0
 _ZN21QQuickParticleEmitter28particleSizeVariationChangedEd@Base 6.2.0
 _ZN21QQuickParticleEmitter32particleDurationVariationChangedEi@Base 6.2.0
 _ZN21QQuickParticleEmitter5burstEi@Base 6.2.0
 _ZN21QQuickParticleEmitter5burstEidd@Base 6.2.0
 _ZN21QQuickParticleEmitter5pulseEi@Base 6.2.0
 _ZN21QQuickParticleEmitter5resetEv@Base 6.2.0
 _ZN21QQuickParticleEmitterC1EP10QQuickItem@Base 6.2.0
 _ZN21QQuickParticleEmitterC2EP10QQuickItem@Base 6.2.0
 _ZN21QQuickParticleEmitterD0Ev@Base 6.2.0
 _ZN21QQuickParticleEmitterD1Ev@Base 6.2.0
 _ZN21QQuickParticleEmitterD2Ev@Base 6.2.0
 _ZN22QQuickParticleAffector10postAffectEP18QQuickParticleData@Base 6.2.0
 _ZN22QQuickParticleAffector11activeGroupEi@Base 6.2.0
 _ZN22QQuickParticleAffector11onceChangedEb@Base 6.2.0
 _ZN22QQuickParticleAffector11qt_metacallEN11QMetaObject4CallEiPPv@Base 6.2.0
 _ZN22QQuickParticleAffector11qt_metacastEPKc@Base 6.2.0
 _ZN22QQuickParticleAffector12affectSystemEd@Base 6.2.0
 _ZN22QQuickParticleAffector12shapeChangedEP22QQuickParticleExtruder@Base 6.2.0
 _ZN22QQuickParticleAffector12shouldAffectEP18QQuickParticleData@Base 6.2.0
 _ZN22QQuickParticleAffector13groupsChangedERK5QListI7QStringE@Base 6.2.0
 _ZN22QQuickParticleAffector13systemChangedEP20QQuickParticleSystem@Base 6.2.0
 _ZN22QQuickParticleAffector13updateOffsetsEv@Base 6.2.0
 _ZN22QQuickParticleAffector14affectParticleEP18QQuickParticleDatad@Base 6.2.0
 _ZN22QQuickParticleAffector14enabledChangedEb@Base 6.2.0
 _ZN22QQuickParticleAffector15simulationDeltaE@Base 6.2.0
 _ZN22QQuickParticleAffector16simulationCutoffE@Base 6.2.0
 _ZN22QQuickParticleAffector16staticMetaObjectE@Base 6.2.0
 _ZN22QQuickParticleAffector17componentCompleteEv@Base 6.2.0
 _ZN22QQuickParticleAffector19isAffectedConnectedEv@Base 6.2.0
 _ZN22QQuickParticleAffector24whenCollidingWithChangedERK5QListI7QStringE@Base 6.2.0
 _ZN22QQuickParticleAffector5resetEP18QQuickParticleData@Base 6.2.0
 _ZN22QQuickParticleAffector8affectedEdd@Base 6.2.0
 _ZN22QQuickParticleAffectorC1EP10QQuickItem@Base 6.2.0
 _ZN22QQuickParticleAffectorC2EP10QQuickItem@Base 6.2.0
 _ZN22QQuickParticleDataHeap10bubbleDownEi@Base 6.2.0
 _ZN22QQuickParticleDataHeap11insertTimedEP18QQuickParticleDatai@Base 6.2.0
 _ZN22QQuickParticleDataHeap3popEv@Base 6.2.0
 _ZN22QQuickParticleDataHeap3topEv@Base 6.2.0
 _ZN22QQuickParticleDataHeap4growEv@Base 6.2.0
 _ZN22QQuickParticleDataHeap4swapEii@Base 6.2.0
 _ZN22QQuickParticleDataHeap5clearEv@Base 6.2.0
 _ZN22QQuickParticleDataHeap6insertEP18QQuickParticleData@Base 6.2.0
 _ZN22QQuickParticleDataHeap8bubbleUpEi@Base 6.2.0
 _ZN22QQuickParticleDataHeap8containsEP18QQuickParticleData@Base 6.2.0
 _ZN22QQuickParticleDataHeapC1Ev@Base 6.2.0
 _ZN22QQuickParticleDataHeapC2Ev@Base 6.2.0
 _ZN23QQuickParticleGroupData15prepareRecyclerEP18QQuickParticleData@Base 6.2.0
 _ZN23QQuickParticleGroupData4killEP18QQuickParticleData@Base 6.2.0
 _ZN23QQuickParticleGroupData7recycleEv@Base 6.2.0
 _ZN23QQuickParticleGroupData7setSizeEi@Base 6.2.0
 _ZN23QQuickParticleGroupData8initListEv@Base 6.2.0
 _ZN23QQuickParticleGroupData8newDatumEb@Base 6.2.0
 _ZN23QQuickParticleGroupDataC1ERK7QStringP20QQuickParticleSystem@Base 6.2.0
 _ZN23QQuickParticleGroupDataC2ERK7QStringP20QQuickParticleSystem@Base 6.2.0
 _ZN23QQuickParticleGroupDataD1Ev@Base 6.2.0
 _ZN23QQuickParticleGroupDataD2Ev@Base 6.2.0
 _ZNK18QQuickParticleData9debugDumpEP20QQuickParticleSystem@Base 6.2.0
 _ZNK20QQuickParticleSystem10metaObjectEv@Base 6.2.0
 _ZNK21QQuickParticleEmitter10metaObjectEv@Base 6.2.0
 _ZNK21QQuickParticleEmitter18reclaculateGroupIdEv@Base 6.2.0
 _ZNK22QQuickParticleAffector10metaObjectEv@Base 6.2.0
 _ZNK22QQuickParticleAffector11isCollidingEP18QQuickParticleData@Base 6.2.0
 _ZNK23QQuickParticleGroupData4nameEv@Base 6.2.0
 (optional=templinst|subst)_ZNSt6vectorIbSaIbEE14_M_fill_insertESt13_Bit_iterator{size_t}b@Base 6.2.0
 _ZTI20QQuickParticleSystem@Base 6.2.0
 _ZTI21QQuickParticleEmitter@Base 6.2.0
 _ZTI22QQuickParticleAffector@Base 6.2.0
 _ZTIN3QV415ExecutionEngine9DeletableE@Base 6.2.0
 _ZTS20QQuickParticleSystem@Base 6.2.0
 _ZTS21QQuickParticleEmitter@Base 6.2.0
 _ZTS22QQuickParticleAffector@Base 6.2.0
 _ZTSN3QV415ExecutionEngine9DeletableE@Base 6.2.0
 _ZTV20QQuickParticleSystem@Base 6.2.0
 _ZTV21QQuickParticleEmitter@Base 6.2.0
 _ZTV22QQuickParticleAffector@Base 6.2.0
 (optional=templinst)_ZZN9QtPrivate16QMetaTypeForTypeI4QUrlE10getCopyCtrEvENUlPKNS_18QMetaTypeInterfaceEPvPKvE_4_FUNES5_S6_S8_@Base 6.2.0
 (optional=templinst)_ZZN9QtPrivate16QMetaTypeForTypeI4QUrlE10getMoveCtrEvENUlPKNS_18QMetaTypeInterfaceEPvS6_E_4_FUNES5_S6_S6_@Base 6.2.0
 (optional=templinst)_ZZN9QtPrivate16QMetaTypeForTypeI4QUrlE13getDefaultCtrEvENUlPKNS_18QMetaTypeInterfaceEPvE_4_FUNES5_S6_@Base 6.2.0
 (optional=templinst)_ZZN9QtPrivate16QMetaTypeForTypeI4QUrlE7getDtorEvENUlPKNS_18QMetaTypeInterfaceEPvE_4_FUNES5_S6_@Base 6.2.0
 (optional=templinst)_ZZN9QtPrivate16QMetaTypeForTypeI5QListI7QStringEE10getCopyCtrEvENUlPKNS_18QMetaTypeInterfaceEPvPKvE_4_FUNES7_S8_SA_@Base 6.2.0
 (optional=templinst)_ZZN9QtPrivate16QMetaTypeForTypeI5QListI7QStringEE10getMoveCtrEvENUlPKNS_18QMetaTypeInterfaceEPvS8_E_4_FUNES7_S8_S8_@Base 6.2.0
 (optional=templinst)_ZZN9QtPrivate16QMetaTypeForTypeI5QListI7QStringEE13getDefaultCtrEvENUlPKNS_18QMetaTypeInterfaceEPvE_4_FUNES7_S8_@Base 6.2.0
 (optional=templinst)_ZZN9QtPrivate16QMetaTypeForTypeI5QListI7QStringEE7getDtorEvENUlPKNS_18QMetaTypeInterfaceEPvE_4_FUNES7_S8_@Base 6.2.0
 (optional=templinst)_ZZN9QtPrivate16QMetaTypeForTypeI7QStringE10getCopyCtrEvENUlPKNS_18QMetaTypeInterfaceEPvPKvE_4_FUNES5_S6_S8_@Base 6.2.0
 (optional=templinst)_ZZN9QtPrivate16QMetaTypeForTypeI7QStringE10getMoveCtrEvENUlPKNS_18QMetaTypeInterfaceEPvS6_E_4_FUNES5_S6_S6_@Base 6.2.0
 (optional=templinst)_ZZN9QtPrivate16QMetaTypeForTypeI7QStringE13getDefaultCtrEvENUlPKNS_18QMetaTypeInterfaceEPvE_4_FUNES5_S6_@Base 6.2.0
 (optional=templinst)_ZZN9QtPrivate16QMetaTypeForTypeI7QStringE7getDtorEvENUlPKNS_18QMetaTypeInterfaceEPvE_4_FUNES5_S6_@Base 6.2.0
 (optional=templinst)_ZZN9QtPrivate16QMetaTypeForTypeIP7QObjectE10getCopyCtrEvENUlPKNS_18QMetaTypeInterfaceEPvPKvE_4_FUNES6_S7_S9_@Base 6.2.0
 (optional=templinst)_ZZN9QtPrivate16QMetaTypeForTypeIP7QObjectE10getMoveCtrEvENUlPKNS_18QMetaTypeInterfaceEPvS7_E_4_FUNES6_S7_S7_@Base 6.2.0
 (optional=templinst)_ZZN9QtPrivate16QMetaTypeForTypeIP7QObjectE13getDefaultCtrEvENUlPKNS_18QMetaTypeInterfaceEPvE_4_FUNES6_S7_@Base 6.2.0
 (optional=templinst)_ZZN9QtPrivate16QMetaTypeForTypeIbE10getCopyCtrEvENUlPKNS_18QMetaTypeInterfaceEPvPKvE_4_FUNES4_S5_S7_@Base 6.2.0
 (optional=templinst)_ZZN9QtPrivate16QMetaTypeForTypeIbE10getMoveCtrEvENUlPKNS_18QMetaTypeInterfaceEPvS5_E_4_FUNES4_S5_S5_@Base 6.2.0
 (optional=templinst)_ZZN9QtPrivate16QMetaTypeForTypeIbE13getDefaultCtrEvENUlPKNS_18QMetaTypeInterfaceEPvE_4_FUNES4_S5_@Base 6.2.0
 (optional=templinst)_ZZN9QtPrivate16QMetaTypeForTypeIdE10getCopyCtrEvENUlPKNS_18QMetaTypeInterfaceEPvPKvE_4_FUNES4_S5_S7_@Base 6.2.0
 (optional=templinst)_ZZN9QtPrivate16QMetaTypeForTypeIdE10getMoveCtrEvENUlPKNS_18QMetaTypeInterfaceEPvS5_E_4_FUNES4_S5_S5_@Base 6.2.0
 (optional=templinst)_ZZN9QtPrivate16QMetaTypeForTypeIdE13getDefaultCtrEvENUlPKNS_18QMetaTypeInterfaceEPvE_4_FUNES4_S5_@Base 6.2.0
 (optional=templinst)_ZZN9QtPrivate16QMetaTypeForTypeIiE10getCopyCtrEvENUlPKNS_18QMetaTypeInterfaceEPvPKvE_4_FUNES4_S5_S7_@Base 6.2.0
 (optional=templinst)_ZZN9QtPrivate16QMetaTypeForTypeIiE10getMoveCtrEvENUlPKNS_18QMetaTypeInterfaceEPvS5_E_4_FUNES4_S5_S5_@Base 6.2.0
 (optional=templinst)_ZZN9QtPrivate16QMetaTypeForTypeIiE13getDefaultCtrEvENUlPKNS_18QMetaTypeInterfaceEPvE_4_FUNES4_S5_@Base 6.2.0
 (c++)"non-virtual thunk to QQuickParticleAffector::componentComplete()@Base" 6.2.0
 (c++)"non-virtual thunk to QQuickParticleEmitter::componentComplete()@Base" 6.2.0
 (c++)"non-virtual thunk to QQuickParticleEmitter::~QQuickParticleEmitter()@Base" 6.2.0
 (c++)"non-virtual thunk to QQuickParticleSystem::componentComplete()@Base" 6.2.0
 (c++)"non-virtual thunk to QQuickParticleSystem::~QQuickParticleSystem()@Base" 6.2.0
