# SymbolsHelper-Confirmed: 6.2.1 armel armhf i386
libQt6LabsQmlModels.so.6 libqt6labsqmlmodels6 #MINVER#
| libqt6labsqmlmodels6 #MINVER#, qt6-declarative-abi (= 6.2.2)
* Build-Depends-Packages: qt6-declarative-dev, qt6-declarative-private-dev
 _Z36qml_register_types_Qt_labs_qmlmodelsv@Base 6.2.0
 _ZN14QQmlTableModel10classBeginEv@Base 6.2.0
 (subst)_ZN14QQmlTableModel10columns_atEP16QQmlListPropertyI20QQmlTableModelColumnE{qptrdiff}@Base 6.2.0
 _ZN14QQmlTableModel11qt_metacallEN11QMetaObject4CallEiPPv@Base 6.2.0
 _ZN14QQmlTableModel11qt_metacastEPKc@Base 6.2.0
 _ZN14QQmlTableModel11rowsChangedEv@Base 6.2.0
 _ZN14QQmlTableModel13columns_clearEP16QQmlListPropertyI20QQmlTableModelColumnE@Base 6.2.0
 _ZN14QQmlTableModel13columns_countEP16QQmlListPropertyI20QQmlTableModelColumnE@Base 6.2.0
 _ZN14QQmlTableModel14columns_appendEP16QQmlListPropertyI20QQmlTableModelColumnEPS1_@Base 6.2.0
 (subst)_ZN14QQmlTableModel15columns_replaceEP16QQmlListPropertyI20QQmlTableModelColumnE{qptrdiff}PS1_@Base 6.2.0
 _ZN14QQmlTableModel15rowCountChangedEv@Base 6.2.0
 _ZN14QQmlTableModel16staticMetaObjectE@Base 6.2.0
 _ZN14QQmlTableModel17componentCompleteEv@Base 6.2.0
 _ZN14QQmlTableModel18ColumnRoleMetadataC1EbRK7QStringiS3_@Base 6.2.0
 _ZN14QQmlTableModel18ColumnRoleMetadataC1Ev@Base 6.2.0
 _ZN14QQmlTableModel18ColumnRoleMetadataC2EbRK7QStringiS3_@Base 6.2.0
 _ZN14QQmlTableModel18ColumnRoleMetadataC2Ev@Base 6.2.0
 _ZN14QQmlTableModel18columnCountChangedEv@Base 6.2.0
 _ZN14QQmlTableModel18columns_removeLastEP16QQmlListPropertyI20QQmlTableModelColumnE@Base 6.2.0
 _ZN14QQmlTableModel19fetchColumnMetadataEv@Base 6.2.0
 _ZN14QQmlTableModel5clearEv@Base 6.2.0
 _ZN14QQmlTableModel6getRowEi@Base 6.2.0
 _ZN14QQmlTableModel6setRowEiRK8QVariant@Base 6.2.0
 _ZN14QQmlTableModel7columnsEv@Base 6.2.0
 _ZN14QQmlTableModel7moveRowEiii@Base 6.2.0
 _ZN14QQmlTableModel7setDataERK11QModelIndexRK7QStringRK8QVariant@Base 6.2.0
 _ZN14QQmlTableModel7setDataERK11QModelIndexRK8QVarianti@Base 6.2.0
 _ZN14QQmlTableModel7setRowsERK8QVariant@Base 6.2.0
 _ZN14QQmlTableModel8doInsertEiRK8QVariant@Base 6.2.0
 _ZN14QQmlTableModel9appendRowERK8QVariant@Base 6.2.0
 _ZN14QQmlTableModel9doSetRowsERK5QListI8QVariantE@Base 6.2.0
 _ZN14QQmlTableModel9insertRowEiRK8QVariant@Base 6.2.0
 _ZN14QQmlTableModel9removeRowEii@Base 6.2.0
 _ZN14QQmlTableModelC1EP7QObject@Base 6.2.0
 _ZN14QQmlTableModelC2EP7QObject@Base 6.2.0
 _ZN14QQmlTableModelD0Ev@Base 6.2.0
 _ZN14QQmlTableModelD1Ev@Base 6.2.0
 _ZN14QQmlTableModelD2Ev@Base 6.2.0
 _ZN18QQmlDelegateChoice10rowChangedEv@Base 6.2.0
 _ZN18QQmlDelegateChoice11qt_metacallEN11QMetaObject4CallEiPPv@Base 6.2.0
 _ZN18QQmlDelegateChoice11qt_metacastEPKc@Base 6.2.0
 _ZN18QQmlDelegateChoice11setDelegateEP13QQmlComponent@Base 6.2.0
 _ZN18QQmlDelegateChoice12indexChangedEv@Base 6.2.0
 _ZN18QQmlDelegateChoice12setRoleValueERK8QVariant@Base 6.2.0
 _ZN18QQmlDelegateChoice13columnChangedEv@Base 6.2.0
 _ZN18QQmlDelegateChoice15delegateChangedEv@Base 6.2.0
 _ZN18QQmlDelegateChoice16roleValueChangedEv@Base 6.2.0
 _ZN18QQmlDelegateChoice16staticMetaObjectE@Base 6.2.0
 _ZN18QQmlDelegateChoice6setRowEi@Base 6.2.0
 _ZN18QQmlDelegateChoice7changedEv@Base 6.2.0
 _ZN18QQmlDelegateChoice9setColumnEi@Base 6.2.0
 (subst)_ZN19QQmlDelegateChooser10choices_atEP16QQmlListPropertyI18QQmlDelegateChoiceE{qptrdiff}@Base 6.2.0
 _ZN19QQmlDelegateChooser11qt_metacallEN11QMetaObject4CallEiPPv@Base 6.2.0
 _ZN19QQmlDelegateChooser11qt_metacastEPKc@Base 6.2.0
 _ZN19QQmlDelegateChooser11roleChangedEv@Base 6.2.0
 _ZN19QQmlDelegateChooser13choices_clearEP16QQmlListPropertyI18QQmlDelegateChoiceE@Base 6.2.0
 _ZN19QQmlDelegateChooser13choices_countEP16QQmlListPropertyI18QQmlDelegateChoiceE@Base 6.2.0
 _ZN19QQmlDelegateChooser14choices_appendEP16QQmlListPropertyI18QQmlDelegateChoiceEPS1_@Base 6.2.0
 (subst)_ZN19QQmlDelegateChooser15choices_replaceEP16QQmlListPropertyI18QQmlDelegateChoiceE{qptrdiff}PS1_@Base 6.2.0
 _ZN19QQmlDelegateChooser16staticMetaObjectE@Base 6.2.0
 _ZN19QQmlDelegateChooser18choices_removeLastEP16QQmlListPropertyI18QQmlDelegateChoiceE@Base 6.2.0
 _ZN19QQmlDelegateChooser7choicesEv@Base 6.2.0
 _ZN19QQmlDelegateChooser7setRoleERK7QString@Base 6.2.0
 _ZN20QQmlTableModelColumn10setDisplayERK8QJSValue@Base 6.2.0
 _ZN20QQmlTableModelColumn10setSetEditERK8QJSValue@Base 6.2.0
 _ZN20QQmlTableModelColumn10setSetFontERK8QJSValue@Base 6.2.0
 _ZN20QQmlTableModelColumn10setToolTipERK8QJSValue@Base 6.2.0
 _ZN20QQmlTableModelColumn11editChangedEv@Base 6.2.0
 _ZN20QQmlTableModelColumn11fontChangedEv@Base 6.2.0
 _ZN20QQmlTableModelColumn11qt_metacallEN11QMetaObject4CallEiPPv@Base 6.2.0
 _ZN20QQmlTableModelColumn11qt_metacastEPKc@Base 6.2.0
 _ZN20QQmlTableModelColumn11setSizeHintERK8QJSValue@Base 6.2.0
 _ZN20QQmlTableModelColumn12getterAtRoleERK7QString@Base 6.2.0
 _ZN20QQmlTableModelColumn12indexChangedEv@Base 6.2.0
 _ZN20QQmlTableModelColumn12setStatusTipERK8QJSValue@Base 6.2.0
 _ZN20QQmlTableModelColumn12setWhatsThisERK8QJSValue@Base 6.2.0
 _ZN20QQmlTableModelColumn12setterAtRoleERK7QString@Base 6.2.0
 _ZN20QQmlTableModelColumn13setBackgroundERK8QJSValue@Base 6.2.0
 _ZN20QQmlTableModelColumn13setCheckStateERK8QJSValue@Base 6.2.0
 _ZN20QQmlTableModelColumn13setDecorationERK8QJSValue@Base 6.2.0
 _ZN20QQmlTableModelColumn13setForegroundERK8QJSValue@Base 6.2.0
 _ZN20QQmlTableModelColumn13setSetDisplayERK8QJSValue@Base 6.2.0
 _ZN20QQmlTableModelColumn13setSetToolTipERK8QJSValue@Base 6.2.0
 _ZN20QQmlTableModelColumn14displayChangedEv@Base 6.2.0
 _ZN20QQmlTableModelColumn14setEditChangedEv@Base 6.2.0
 _ZN20QQmlTableModelColumn14setFontChangedEv@Base 6.2.0
 _ZN20QQmlTableModelColumn14setSetSizeHintERK8QJSValue@Base 6.2.0
 _ZN20QQmlTableModelColumn14toolTipChangedEv@Base 6.2.0
 _ZN20QQmlTableModelColumn15setSetStatusTipERK8QJSValue@Base 6.2.0
 _ZN20QQmlTableModelColumn15setSetWhatsThisERK8QJSValue@Base 6.2.0
 _ZN20QQmlTableModelColumn15sizeHintChangedEv@Base 6.2.0
 _ZN20QQmlTableModelColumn16setSetBackgroundERK8QJSValue@Base 6.2.0
 _ZN20QQmlTableModelColumn16setSetCheckStateERK8QJSValue@Base 6.2.0
 _ZN20QQmlTableModelColumn16setSetDecorationERK8QJSValue@Base 6.2.0
 _ZN20QQmlTableModelColumn16setSetForegroundERK8QJSValue@Base 6.2.0
 _ZN20QQmlTableModelColumn16setTextAlignmentERK8QJSValue@Base 6.2.0
 _ZN20QQmlTableModelColumn16staticMetaObjectE@Base 6.2.0
 _ZN20QQmlTableModelColumn16statusTipChangedEv@Base 6.2.0
 _ZN20QQmlTableModelColumn16whatsThisChangedEv@Base 6.2.0
 _ZN20QQmlTableModelColumn17backgroundChangedEv@Base 6.2.0
 _ZN20QQmlTableModelColumn17checkStateChangedEv@Base 6.2.0
 _ZN20QQmlTableModelColumn17decorationChangedEv@Base 6.2.0
 _ZN20QQmlTableModelColumn17foregroundChangedEv@Base 6.2.0
 _ZN20QQmlTableModelColumn17setAccessibleTextERK8QJSValue@Base 6.2.0
 _ZN20QQmlTableModelColumn17setDisplayChangedEv@Base 6.2.0
 _ZN20QQmlTableModelColumn17setToolTipChangedEv@Base 6.2.0
 _ZN20QQmlTableModelColumn18setSizeHintChangedEv@Base 6.2.0
 _ZN20QQmlTableModelColumn18supportedRoleNamesEv@Base 6.2.0
 _ZN20QQmlTableModelColumn19setSetTextAlignmentERK8QJSValue@Base 6.2.0
 _ZN20QQmlTableModelColumn19setStatusTipChangedEv@Base 6.2.0
 _ZN20QQmlTableModelColumn19setWhatsThisChangedEv@Base 6.2.0
 _ZN20QQmlTableModelColumn20setBackgroundChangedEv@Base 6.2.0
 _ZN20QQmlTableModelColumn20setCheckStateChangedEv@Base 6.2.0
 _ZN20QQmlTableModelColumn20setDecorationChangedEv@Base 6.2.0
 _ZN20QQmlTableModelColumn20setForegroundChangedEv@Base 6.2.0
 _ZN20QQmlTableModelColumn20setSetAccessibleTextERK8QJSValue@Base 6.2.0
 _ZN20QQmlTableModelColumn20textAlignmentChangedEv@Base 6.2.0
 _ZN20QQmlTableModelColumn21accessibleTextChangedEv@Base 6.2.0
 _ZN20QQmlTableModelColumn23setTextAlignmentChangedEv@Base 6.2.0
 _ZN20QQmlTableModelColumn24setAccessibleDescriptionERK8QJSValue@Base 6.2.0
 _ZN20QQmlTableModelColumn24setAccessibleTextChangedEv@Base 6.2.0
 _ZN20QQmlTableModelColumn27setSetAccessibleDescriptionERK8QJSValue@Base 6.2.0
 _ZN20QQmlTableModelColumn28accessibleDescriptionChangedEv@Base 6.2.0
 _ZN20QQmlTableModelColumn31setAccessibleDescriptionChangedEv@Base 6.2.0
 _ZN20QQmlTableModelColumn7setEditERK8QJSValue@Base 6.2.0
 _ZN20QQmlTableModelColumn7setFontERK8QJSValue@Base 6.2.0
 _ZN20QQmlTableModelColumnC1EP7QObject@Base 6.2.0
 _ZN20QQmlTableModelColumnC2EP7QObject@Base 6.2.0
 _ZN20QQmlTableModelColumnD0Ev@Base 6.2.0
 _ZN20QQmlTableModelColumnD1Ev@Base 6.2.0
 _ZN20QQmlTableModelColumnD2Ev@Base 6.2.0
 _ZNK14QQmlTableModel10metaObjectEv@Base 6.2.0
 _ZNK14QQmlTableModel11columnCountERK11QModelIndex@Base 6.2.0
 _ZNK14QQmlTableModel14validateNewRowEPKcRK8QVariantiNS_19NewRowOperationFlagE@Base 6.2.0
 _ZNK14QQmlTableModel15validateRowTypeEPKcRK8QVariant@Base 6.2.0
 _ZNK14QQmlTableModel16validateRowIndexEPKcS1_i@Base 6.2.0
 _ZNK14QQmlTableModel18ColumnRoleMetadata7isValidEv@Base 6.2.0
 _ZNK14QQmlTableModel19fetchColumnRoleDataERK7QStringP20QQmlTableModelColumni@Base 6.2.0
 _ZNK14QQmlTableModel4dataERK11QModelIndexRK7QString@Base 6.2.0
 _ZNK14QQmlTableModel4dataERK11QModelIndexi@Base 6.2.0
 _ZNK14QQmlTableModel4rowsEv@Base 6.2.0
 _ZNK14QQmlTableModel5indexEiiRK11QModelIndex@Base 6.2.0
 _ZNK14QQmlTableModel8rowCountERK11QModelIndex@Base 6.2.0
 _ZNK14QQmlTableModel9roleNamesEv@Base 6.2.0
 _ZNK18QQmlDelegateChoice10metaObjectEv@Base 6.2.0
 _ZNK18QQmlDelegateChoice3rowEv@Base 6.2.0
 _ZNK18QQmlDelegateChoice5matchEiiRK8QVariant@Base 6.2.0
 _ZNK18QQmlDelegateChoice6columnEv@Base 6.2.0
 _ZNK18QQmlDelegateChoice8delegateEv@Base 6.2.0
 _ZNK18QQmlDelegateChoice9roleValueEv@Base 6.2.0
 _ZNK19QQmlDelegateChooser10metaObjectEv@Base 6.2.0
 _ZNK19QQmlDelegateChooser8delegateEP16QQmlAdaptorModelii@Base 6.2.0
 _ZNK20QQmlTableModelColumn10backgroundEv@Base 6.2.0
 _ZNK20QQmlTableModelColumn10checkStateEv@Base 6.2.0
 _ZNK20QQmlTableModelColumn10decorationEv@Base 6.2.0
 _ZNK20QQmlTableModelColumn10foregroundEv@Base 6.2.0
 _ZNK20QQmlTableModelColumn10getSetEditEv@Base 6.2.0
 _ZNK20QQmlTableModelColumn10getSetFontEv@Base 6.2.0
 _ZNK20QQmlTableModelColumn10metaObjectEv@Base 6.2.0
 _ZNK20QQmlTableModelColumn13getSetDisplayEv@Base 6.2.0
 _ZNK20QQmlTableModelColumn13getSetToolTipEv@Base 6.2.0
 _ZNK20QQmlTableModelColumn13textAlignmentEv@Base 6.2.0
 _ZNK20QQmlTableModelColumn14accessibleTextEv@Base 6.2.0
 _ZNK20QQmlTableModelColumn14getSetSizeHintEv@Base 6.2.0
 _ZNK20QQmlTableModelColumn15getSetStatusTipEv@Base 6.2.0
 _ZNK20QQmlTableModelColumn15getSetWhatsThisEv@Base 6.2.0
 _ZNK20QQmlTableModelColumn16getSetBackgroundEv@Base 6.2.0
 _ZNK20QQmlTableModelColumn16getSetCheckStateEv@Base 6.2.0
 _ZNK20QQmlTableModelColumn16getSetDecorationEv@Base 6.2.0
 _ZNK20QQmlTableModelColumn16getSetForegroundEv@Base 6.2.0
 _ZNK20QQmlTableModelColumn19getSetTextAlignmentEv@Base 6.2.0
 _ZNK20QQmlTableModelColumn20getSetAccessibleTextEv@Base 6.2.0
 _ZNK20QQmlTableModelColumn21accessibleDescriptionEv@Base 6.2.0
 _ZNK20QQmlTableModelColumn27getSetAccessibleDescriptionEv@Base 6.2.0
 _ZNK20QQmlTableModelColumn4editEv@Base 6.2.0
 _ZNK20QQmlTableModelColumn4fontEv@Base 6.2.0
 _ZNK20QQmlTableModelColumn7displayEv@Base 6.2.0
 _ZNK20QQmlTableModelColumn7gettersEv@Base 6.2.0
 _ZNK20QQmlTableModelColumn7toolTipEv@Base 6.2.0
 _ZNK20QQmlTableModelColumn8sizeHintEv@Base 6.2.0
 _ZNK20QQmlTableModelColumn9statusTipEv@Base 6.2.0
 _ZNK20QQmlTableModelColumn9whatsThisEv@Base 6.2.0
 (optional=templinst)_ZNKSt8_Rb_treeI7QStringSt4pairIKS0_8QVariantESt10_Select1stIS4_ESt4lessIS0_ESaIS4_EE4findERS2_@Base 6.2.0
 (optional=templinst)_ZNSt8_Rb_treeI7QStringSt4pairIKS0_8QVariantESt10_Select1stIS4_ESt4lessIS0_ESaIS4_EE16_M_insert_uniqueIS4_EES1_ISt17_Rb_tree_iteratorIS4_EbEOT_@Base 6.2.0
 _ZTI14QQmlTableModel@Base 6.2.0
 _ZTI18QQmlDelegateChoice@Base 6.2.0
 _ZTI19QQmlDelegateChooser@Base 6.2.0
 _ZTI20QQmlTableModelColumn@Base 6.2.0
 _ZTS14QQmlTableModel@Base 6.2.0
 _ZTS18QQmlDelegateChoice@Base 6.2.0
 _ZTS19QQmlDelegateChooser@Base 6.2.0
 _ZTS20QQmlTableModelColumn@Base 6.2.0
 _ZTV14QQmlTableModel@Base 6.2.0
 _ZTV18QQmlDelegateChoice@Base 6.2.0
 _ZTV19QQmlDelegateChooser@Base 6.2.0
 _ZTV20QQmlTableModelColumn@Base 6.2.0
 (optional=templinst)_ZZN9QtPrivate16QMetaTypeForTypeI11QModelIndexE10getCopyCtrEvENUlPKNS_18QMetaTypeInterfaceEPvPKvE_4_FUNES5_S6_S8_@Base 6.2.0
 (optional=templinst)_ZZN9QtPrivate16QMetaTypeForTypeI11QModelIndexE10getMoveCtrEvENUlPKNS_18QMetaTypeInterfaceEPvS6_E_4_FUNES5_S6_S6_@Base 6.2.0
 (optional=templinst)_ZZN9QtPrivate16QMetaTypeForTypeI11QModelIndexE13getDefaultCtrEvENUlPKNS_18QMetaTypeInterfaceEPvE_4_FUNES5_S6_@Base 6.2.0
 (optional=templinst)_ZZN9QtPrivate16QMetaTypeForTypeI7QStringE10getCopyCtrEvENUlPKNS_18QMetaTypeInterfaceEPvPKvE_4_FUNES5_S6_S8_@Base 6.2.0
 (optional=templinst)_ZZN9QtPrivate16QMetaTypeForTypeI7QStringE10getMoveCtrEvENUlPKNS_18QMetaTypeInterfaceEPvS6_E_4_FUNES5_S6_S6_@Base 6.2.0
 (optional=templinst)_ZZN9QtPrivate16QMetaTypeForTypeI7QStringE13getDefaultCtrEvENUlPKNS_18QMetaTypeInterfaceEPvE_4_FUNES5_S6_@Base 6.2.0
 (optional=templinst)_ZZN9QtPrivate16QMetaTypeForTypeI7QStringE7getDtorEvENUlPKNS_18QMetaTypeInterfaceEPvE_4_FUNES5_S6_@Base 6.2.0
 (optional=templinst)_ZZN9QtPrivate16QMetaTypeForTypeI8QVariantE10getCopyCtrEvENUlPKNS_18QMetaTypeInterfaceEPvPKvE_4_FUNES5_S6_S8_@Base 6.2.0
 (optional=templinst)_ZZN9QtPrivate16QMetaTypeForTypeI8QVariantE10getMoveCtrEvENUlPKNS_18QMetaTypeInterfaceEPvS6_E_4_FUNES5_S6_S6_@Base 6.2.0
 (optional=templinst)_ZZN9QtPrivate16QMetaTypeForTypeI8QVariantE13getDefaultCtrEvENUlPKNS_18QMetaTypeInterfaceEPvE_4_FUNES5_S6_@Base 6.2.0
 (optional=templinst)_ZZN9QtPrivate16QMetaTypeForTypeI8QVariantE7getDtorEvENUlPKNS_18QMetaTypeInterfaceEPvE_4_FUNES5_S6_@Base 6.2.0
 (optional=templinst)_ZZN9QtPrivate16QMetaTypeForTypeIP7QObjectE10getCopyCtrEvENUlPKNS_18QMetaTypeInterfaceEPvPKvE_4_FUNES6_S7_S9_@Base 6.2.0
 (optional=templinst)_ZZN9QtPrivate16QMetaTypeForTypeIP7QObjectE10getMoveCtrEvENUlPKNS_18QMetaTypeInterfaceEPvS7_E_4_FUNES6_S7_S7_@Base 6.2.0
 (optional=templinst)_ZZN9QtPrivate16QMetaTypeForTypeIP7QObjectE13getDefaultCtrEvENUlPKNS_18QMetaTypeInterfaceEPvE_4_FUNES6_S7_@Base 6.2.0
 (optional=templinst)_ZZN9QtPrivate16QMetaTypeForTypeIbE10getCopyCtrEvENUlPKNS_18QMetaTypeInterfaceEPvPKvE_4_FUNES4_S5_S7_@Base 6.2.0
 (optional=templinst)_ZZN9QtPrivate16QMetaTypeForTypeIbE10getMoveCtrEvENUlPKNS_18QMetaTypeInterfaceEPvS5_E_4_FUNES4_S5_S5_@Base 6.2.0
 (optional=templinst)_ZZN9QtPrivate16QMetaTypeForTypeIbE13getDefaultCtrEvENUlPKNS_18QMetaTypeInterfaceEPvE_4_FUNES4_S5_@Base 6.2.0
 (optional=templinst)_ZZN9QtPrivate16QMetaTypeForTypeIiE10getCopyCtrEvENUlPKNS_18QMetaTypeInterfaceEPvPKvE_4_FUNES4_S5_S7_@Base 6.2.0
 (optional=templinst)_ZZN9QtPrivate16QMetaTypeForTypeIiE10getMoveCtrEvENUlPKNS_18QMetaTypeInterfaceEPvS5_E_4_FUNES4_S5_S5_@Base 6.2.0
 (optional=templinst)_ZZN9QtPrivate16QMetaTypeForTypeIiE13getDefaultCtrEvENUlPKNS_18QMetaTypeInterfaceEPvE_4_FUNES4_S5_@Base 6.2.0
 (c++)"non-virtual thunk to QQmlTableModel::classBegin()@Base" 6.2.0
 (c++)"non-virtual thunk to QQmlTableModel::componentComplete()@Base" 6.2.0
 (c++)"non-virtual thunk to QQmlTableModel::~QQmlTableModel()@Base" 6.2.0
