# SymbolsHelper-Confirmed: 6.2.2 amd64 hurd-i386 mipsel
libQt6QuickDialogs2QuickImpl.so.6 libqt6quickdialogs2quickimpl6 #MINVER#
| libqt6quickdialogs2quickimpl6 #MINVER#, qt6-declarative-abi (= 6.2.2)
* Build-Depends-Packages: qt6-declarative-dev, qt6-declarative-private-dev
 _Z44qml_register_types_QtQuick_Dialogs_quickimplv@Base 6.2.0
 _ZN20QQuickFileDialogImpl10itemChangeEN10QQuickItem10ItemChangeERKNS0_14ItemChangeDataE@Base 6.2.0
 _ZN20QQuickFileDialogImpl10setOptionsERK14QSharedPointerI18QFileDialogOptionsE@Base 6.2.0
 _ZN20QQuickFileDialogImpl11qt_metacallEN11QMetaObject4CallEiPPv@Base 6.2.0
 _ZN20QQuickFileDialogImpl11qt_metacastEPKc@Base 6.2.0
 _ZN20QQuickFileDialogImpl12fileSelectedERK4QUrl@Base 6.2.0
 _ZN20QQuickFileDialogImpl14filterSelectedERK7QString@Base 6.2.0
 _ZN20QQuickFileDialogImpl14setAcceptLabelERK7QString@Base 6.2.0
 _ZN20QQuickFileDialogImpl14setCurrentFileERK4QUrl@Base 6.2.0
 _ZN20QQuickFileDialogImpl14setRejectLabelERK7QString@Base 6.2.0
 _ZN20QQuickFileDialogImpl15setSelectedFileERK4QUrl@Base 6.2.0
 _ZN20QQuickFileDialogImpl16resetNameFiltersEv@Base 6.2.0
 _ZN20QQuickFileDialogImpl16selectNameFilterERK7QString@Base 6.2.0
 _ZN20QQuickFileDialogImpl16setCurrentFolderERK4QUrl@Base 6.2.0
 _ZN20QQuickFileDialogImpl16staticMetaObjectE@Base 6.2.0
 _ZN20QQuickFileDialogImpl17componentCompleteEv@Base 6.2.0
 _ZN20QQuickFileDialogImpl18currentFileChangedERK4QUrl@Base 6.2.0
 _ZN20QQuickFileDialogImpl18nameFiltersChangedEv@Base 6.2.0
 _ZN20QQuickFileDialogImpl19selectedFileChangedEv@Base 6.2.0
 _ZN20QQuickFileDialogImpl20currentFolderChangedERK4QUrl@Base 6.2.0
 _ZN20QQuickFileDialogImpl21qmlAttachedPropertiesEP7QObject@Base 6.2.0
 _ZN20QQuickFileDialogImplC1EP7QObject@Base 6.2.0
 _ZN20QQuickFileDialogImplC2EP7QObject@Base 6.2.0
 _ZN20QQuickFontDialogImpl10setOptionsERK14QSharedPointerI18QFontDialogOptionsE@Base 6.2.0
 _ZN20QQuickFontDialogImpl11qt_metacallEN11QMetaObject4CallEiPPv@Base 6.2.0
 _ZN20QQuickFontDialogImpl11qt_metacastEPKc@Base 6.2.0
 _ZN20QQuickFontDialogImpl12fontSelectedERK5QFont@Base 6.2.0
 _ZN20QQuickFontDialogImpl13focusOutEventEP11QFocusEvent@Base 6.2.0
 _ZN20QQuickFontDialogImpl14optionsChangedEv@Base 6.2.0
 _ZN20QQuickFontDialogImpl14setCurrentFontERK5QFontb@Base 6.2.2
 _ZN20QQuickFontDialogImpl15keyReleaseEventEP9QKeyEvent@Base 6.2.0
 _ZN20QQuickFontDialogImpl16staticMetaObjectE@Base 6.2.0
 _ZN20QQuickFontDialogImpl18currentFontChangedERK5QFont@Base 6.2.0
 _ZN20QQuickFontDialogImpl21qmlAttachedPropertiesEP7QObject@Base 6.2.0
 _ZN20QQuickFontDialogImpl4initEv@Base 6.2.2
 _ZN20QQuickFontDialogImplC1EP7QObject@Base 6.2.0
 _ZN20QQuickFontDialogImplC2EP7QObject@Base 6.2.0
 _ZN23QQuickDialogImplFactory26createPlatformDialogHelperEN14QPlatformTheme10DialogTypeEP7QObject@Base 6.2.0
 _ZN24QQuickFileDialogDelegate11fileChangedEv@Base 6.2.0
 _ZN24QQuickFileDialogDelegate11qt_metacallEN11QMetaObject4CallEiPPv@Base 6.2.0
 _ZN24QQuickFileDialogDelegate11qt_metacastEPKc@Base 6.2.0
 _ZN24QQuickFileDialogDelegate13setFileDialogEP20QQuickFileDialogImpl@Base 6.2.0
 _ZN24QQuickFileDialogDelegate15keyReleaseEventEP9QKeyEvent@Base 6.2.0
 _ZN24QQuickFileDialogDelegate16staticMetaObjectE@Base 6.2.0
 _ZN24QQuickFileDialogDelegate17fileDialogChangedEv@Base 6.2.0
 _ZN24QQuickFileDialogDelegate7setFileERK4QUrl@Base 6.2.0
 _ZN24QQuickFileDialogDelegateC1EP10QQuickItem@Base 6.2.0
 _ZN24QQuickFileDialogDelegateC2EP10QQuickItem@Base 6.2.0
 _ZN24QQuickPlatformFileDialog10selectFileERK4QUrl@Base 6.2.0
 _ZN24QQuickPlatformFileDialog11qt_metacallEN11QMetaObject4CallEiPPv@Base 6.2.0
 _ZN24QQuickPlatformFileDialog11qt_metacastEPKc@Base 6.2.0
 _ZN24QQuickPlatformFileDialog12setDirectoryERK4QUrl@Base 6.2.0
 _ZN24QQuickPlatformFileDialog16selectNameFilterERK7QString@Base 6.2.0
 _ZN24QQuickPlatformFileDialog16staticMetaObjectE@Base 6.2.0
 _ZN24QQuickPlatformFileDialog4execEv@Base 6.2.0
 _ZN24QQuickPlatformFileDialog4hideEv@Base 6.2.0
 _ZN24QQuickPlatformFileDialog4showE6QFlagsIN2Qt10WindowTypeEENS1_14WindowModalityEP7QWindow@Base 6.2.0
 _ZN24QQuickPlatformFileDialog9setFilterEv@Base 6.2.0
 _ZN24QQuickPlatformFileDialogC1EP7QObject@Base 6.2.0
 _ZN24QQuickPlatformFileDialogC2EP7QObject@Base 6.2.0
 _ZN24QQuickPlatformFontDialog11qt_metacallEN11QMetaObject4CallEiPPv@Base 6.2.0
 _ZN24QQuickPlatformFontDialog11qt_metacastEPKc@Base 6.2.0
 _ZN24QQuickPlatformFontDialog14setCurrentFontERK5QFont@Base 6.2.0
 _ZN24QQuickPlatformFontDialog16staticMetaObjectE@Base 6.2.0
 _ZN24QQuickPlatformFontDialog4execEv@Base 6.2.0
 _ZN24QQuickPlatformFontDialog4hideEv@Base 6.2.0
 _ZN24QQuickPlatformFontDialog4showE6QFlagsIN2Qt10WindowTypeEENS1_14WindowModalityEP7QWindow@Base 6.2.0
 _ZN24QQuickPlatformFontDialogC1EP7QObject@Base 6.2.0
 _ZN24QQuickPlatformFontDialogC2EP7QObject@Base 6.2.0
 _ZN25QQuickFolderBreadcrumbBar10itemChangeEN10QQuickItem10ItemChangeERKNS0_14ItemChangeDataE@Base 6.2.0
 _ZN25QQuickFolderBreadcrumbBar11qt_metacallEN11QMetaObject4CallEiPPv@Base 6.2.0
 _ZN25QQuickFolderBreadcrumbBar11qt_metacastEPKc@Base 6.2.0
 _ZN25QQuickFolderBreadcrumbBar11setUpButtonEP20QQuickAbstractButton@Base 6.2.0
 _ZN25QQuickFolderBreadcrumbBar12setTextFieldEP15QQuickTextField@Base 6.2.0
 _ZN25QQuickFolderBreadcrumbBar13setFileDialogEP20QQuickFileDialogImpl@Base 6.2.0
 _ZN25QQuickFolderBreadcrumbBar14buttonDelegateEv@Base 6.2.0
 _ZN25QQuickFolderBreadcrumbBar15upButtonChangedEv@Base 6.2.0
 _ZN25QQuickFolderBreadcrumbBar16staticMetaObjectE@Base 6.2.0
 _ZN25QQuickFolderBreadcrumbBar16textFieldChangedEv@Base 6.2.0
 _ZN25QQuickFolderBreadcrumbBar17componentCompleteEv@Base 6.2.0
 _ZN25QQuickFolderBreadcrumbBar17fileDialogChangedEv@Base 6.2.0
 _ZN25QQuickFolderBreadcrumbBar17separatorDelegateEv@Base 6.2.0
 _ZN25QQuickFolderBreadcrumbBar17setButtonDelegateEP13QQmlComponent@Base 6.2.0
 _ZN25QQuickFolderBreadcrumbBar18setUpButtonSpacingEi@Base 6.2.0
 _ZN25QQuickFolderBreadcrumbBar20setSeparatorDelegateEP13QQmlComponent@Base 6.2.0
 _ZN25QQuickFolderBreadcrumbBar21buttonDelegateChangedEv@Base 6.2.0
 _ZN25QQuickFolderBreadcrumbBar22upButtonSpacingChangedEv@Base 6.2.0
 _ZN25QQuickFolderBreadcrumbBar24separatorDelegateChangedEv@Base 6.2.0
 _ZN25QQuickFolderBreadcrumbBar5eventEP6QEvent@Base 6.2.0
 _ZN25QQuickFolderBreadcrumbBar8upButtonEv@Base 6.2.0
 _ZN25QQuickFolderBreadcrumbBar9textFieldEv@Base 6.2.0
 _ZN25QQuickFolderBreadcrumbBarC1EP10QQuickItem@Base 6.2.0
 _ZN25QQuickFolderBreadcrumbBarC2EP10QQuickItem@Base 6.2.0
 _ZN28QQuickFileDialogImplAttached11qt_metacallEN11QMetaObject4CallEiPPv@Base 6.2.0
 _ZN28QQuickFileDialogImplAttached11qt_metacastEPKc@Base 6.2.0
 _ZN28QQuickFileDialogImplAttached12setButtonBoxEP21QQuickDialogButtonBox@Base 6.2.0
 _ZN28QQuickFileDialogImplAttached16buttonBoxChangedEv@Base 6.2.0
 _ZN28QQuickFileDialogImplAttached16selectNameFilterERK7QString@Base 6.2.0
 _ZN28QQuickFileDialogImplAttached16setBreadcrumbBarEP25QQuickFolderBreadcrumbBar@Base 6.2.0
 _ZN28QQuickFileDialogImplAttached16staticMetaObjectE@Base 6.2.0
 _ZN28QQuickFileDialogImplAttached20breadcrumbBarChangedEv@Base 6.2.0
 _ZN28QQuickFileDialogImplAttached21setFileDialogListViewEP14QQuickListView@Base 6.2.0
 _ZN28QQuickFileDialogImplAttached22setNameFiltersComboBoxEP14QQuickComboBox@Base 6.2.0
 _ZN28QQuickFileDialogImplAttached25fileDialogListViewChangedEv@Base 6.2.0
 _ZN28QQuickFileDialogImplAttached26nameFiltersComboBoxChangedEv@Base 6.2.0
 _ZN28QQuickFileDialogImplAttachedC1EP7QObject@Base 6.2.0
 _ZN28QQuickFileDialogImplAttachedC2EP7QObject@Base 6.2.0
 _ZN28QQuickFontDialogImplAttached11clearSearchEv@Base 6.2.0
 _ZN28QQuickFontDialogImplAttached11qt_metacallEN11QMetaObject4CallEiPPv@Base 6.2.0
 _ZN28QQuickFontDialogImplAttached11qt_metacastEPKc@Base 6.2.0
 _ZN28QQuickFontDialogImplAttached11setSizeEditEP15QQuickTextField@Base 6.2.0
 _ZN28QQuickFontDialogImplAttached11updateSizesEv@Base 6.2.0
 _ZN28QQuickFontDialogImplAttached12setButtonBoxEP21QQuickDialogButtonBox@Base 6.2.0
 _ZN28QQuickFontDialogImplAttached12setStyleEditEP15QQuickTextField@Base 6.2.0
 _ZN28QQuickFontDialogImplAttached12updateStylesEv@Base 6.2.0
 _ZN28QQuickFontDialogImplAttached13_q_sizeEditedEv@Base 6.2.0
 _ZN28QQuickFontDialogImplAttached13setFamilyEditEP15QQuickTextField@Base 6.2.0
 _ZN28QQuickFontDialogImplAttached13setSampleEditEP14QQuickTextEdit@Base 6.2.0
 _ZN28QQuickFontDialogImplAttached14_q_sizeChangedEv@Base 6.2.0
 _ZN28QQuickFontDialogImplAttached14searchListViewERK7QStringP14QQuickListView@Base 6.2.0
 _ZN28QQuickFontDialogImplAttached14updateFamiliesEv@Base 6.2.0
 _ZN28QQuickFontDialogImplAttached15_q_styleChangedEv@Base 6.2.0
 _ZN28QQuickFontDialogImplAttached15_q_updateSampleEv@Base 6.2.0
 _ZN28QQuickFontDialogImplAttached15setSizeListViewEP14QQuickListView@Base 6.2.0
 _ZN28QQuickFontDialogImplAttached15sizeEditChangedEv@Base 6.2.0
 _ZN28QQuickFontDialogImplAttached16_q_familyChangedEv@Base 6.2.0
 _ZN28QQuickFontDialogImplAttached16buttonBoxChangedEv@Base 6.2.0
 _ZN28QQuickFontDialogImplAttached16setStyleListViewEP14QQuickListView@Base 6.2.0
 _ZN28QQuickFontDialogImplAttached16staticMetaObjectE@Base 6.2.0
 _ZN28QQuickFontDialogImplAttached16styleEditChangedEv@Base 6.2.0
 _ZN28QQuickFontDialogImplAttached17familyEditChangedEv@Base 6.2.0
 _ZN28QQuickFontDialogImplAttached17sampleEditChangedEv@Base 6.2.0
 _ZN28QQuickFontDialogImplAttached17setFamilyListViewEP14QQuickListView@Base 6.2.0
 _ZN28QQuickFontDialogImplAttached19sizeListViewChangedEv@Base 6.2.0
 _ZN28QQuickFontDialogImplAttached20setStrikeoutCheckBoxEP14QQuickCheckBox@Base 6.2.0
 _ZN28QQuickFontDialogImplAttached20setUnderlineCheckBoxEP14QQuickCheckBox@Base 6.2.0
 _ZN28QQuickFontDialogImplAttached20styleListViewChangedEv@Base 6.2.0
 _ZN28QQuickFontDialogImplAttached21familyListViewChangedEv@Base 6.2.0
 _ZN28QQuickFontDialogImplAttached21selectFontInListViewsERK5QFont@Base 6.2.2
 _ZN28QQuickFontDialogImplAttached23_q_writingSystemChangedEi@Base 6.2.0
 _ZN28QQuickFontDialogImplAttached24setWritingSystemComboBoxEP14QQuickComboBox@Base 6.2.0
 _ZN28QQuickFontDialogImplAttached24strikeoutCheckBoxChangedEv@Base 6.2.0
 _ZN28QQuickFontDialogImplAttached24underlineCheckBoxChangedEv@Base 6.2.0
 _ZN28QQuickFontDialogImplAttached28writingSystemComboBoxChangedEv@Base 6.2.0
 _ZN28QQuickFontDialogImplAttachedC1EP7QObject@Base 6.2.0
 _ZN28QQuickFontDialogImplAttachedC2EP7QObject@Base 6.2.0
 _ZN32QQuickFolderBreadcrumbBarPrivate10repopulateEv@Base 6.2.0
 _ZN32QQuickFolderBreadcrumbBarPrivate12crumbClickedEv@Base 6.2.0
 _ZN32QQuickFolderBreadcrumbBarPrivate13folderChangedEv@Base 6.2.0
 _ZN32QQuickFolderBreadcrumbBarPrivate13resizeContentEv@Base 6.2.0
 _ZN32QQuickFolderBreadcrumbBarPrivate14cancelUpButtonEv@Base 6.2.0
 _ZN32QQuickFolderBreadcrumbBarPrivate14folderBaseNameERK7QString@Base 6.2.0
 _ZN32QQuickFolderBreadcrumbBarPrivate15cancelTextFieldEv@Base 6.2.0
 _ZN32QQuickFolderBreadcrumbBarPrivate15executeUpButtonEb@Base 6.2.0
 _ZN32QQuickFolderBreadcrumbBarPrivate16executeTextFieldEb@Base 6.2.0
 _ZN32QQuickFolderBreadcrumbBarPrivate17textFieldAcceptedEv@Base 6.2.0
 _ZN32QQuickFolderBreadcrumbBarPrivate18createDelegateItemEP13QQmlComponentRK4QMapI7QString8QVariantE@Base 6.2.0
 _ZN32QQuickFolderBreadcrumbBarPrivate19crumbPathsForFolderERK4QUrl@Base 6.2.0
 _ZN32QQuickFolderBreadcrumbBarPrivate19itemGeometryChangedEP10QQuickItem20QQuickGeometryChangeRK6QRectF@Base 6.2.0
 _ZN32QQuickFolderBreadcrumbBarPrivate20handleTextFieldShownEv@Base 6.2.0
 _ZN32QQuickFolderBreadcrumbBarPrivate21handleTextFieldHiddenEv@Base 6.2.0
 _ZN32QQuickFolderBreadcrumbBarPrivate23textFieldVisibleChangedEv@Base 6.2.0
 _ZN32QQuickFolderBreadcrumbBarPrivate23ungrabEditPathShortcutsEv@Base 6.2.0
 _ZN32QQuickFolderBreadcrumbBarPrivate24itemImplicitWidthChangedEP10QQuickItem@Base 6.2.0
 _ZN32QQuickFolderBreadcrumbBarPrivate25itemImplicitHeightChangedEP10QQuickItem@Base 6.2.0
 _ZN32QQuickFolderBreadcrumbBarPrivate25toggleTextFieldVisibilityEv@Base 6.2.0
 _ZN32QQuickFolderBreadcrumbBarPrivate27textFieldActiveFocusChangedEv@Base 6.2.0
 _ZN32QQuickFolderBreadcrumbBarPrivate4goUpEv@Base 6.2.0
 _ZNK20QQuickFileDialogImpl10metaObjectEv@Base 6.2.0
 _ZNK20QQuickFileDialogImpl11currentFileEv@Base 6.2.0
 _ZNK20QQuickFileDialogImpl11nameFiltersEv@Base 6.2.0
 _ZNK20QQuickFileDialogImpl12selectedFileEv@Base 6.2.0
 _ZNK20QQuickFileDialogImpl13currentFolderEv@Base 6.2.0
 _ZNK20QQuickFileDialogImpl18selectedNameFilterEv@Base 6.2.0
 _ZNK20QQuickFileDialogImpl7optionsEv@Base 6.2.0
 _ZNK20QQuickFontDialogImpl10metaObjectEv@Base 6.2.0
 _ZNK20QQuickFontDialogImpl11currentFontEv@Base 6.2.0
 _ZNK20QQuickFontDialogImpl7optionsEv@Base 6.2.0
 _ZNK24QQuickFileDialogDelegate10fileDialogEv@Base 6.2.0
 _ZNK24QQuickFileDialogDelegate10metaObjectEv@Base 6.2.0
 _ZNK24QQuickFileDialogDelegate4fileEv@Base 6.2.0
 _ZNK24QQuickPlatformFileDialog10metaObjectEv@Base 6.2.0
 _ZNK24QQuickPlatformFileDialog13selectedFilesEv@Base 6.2.0
 _ZNK24QQuickPlatformFileDialog18selectedNameFilterEv@Base 6.2.0
 _ZNK24QQuickPlatformFileDialog25defaultNameFilterDisablesEv@Base 6.2.0
 _ZNK24QQuickPlatformFileDialog6dialogEv@Base 6.2.0
 _ZNK24QQuickPlatformFileDialog7isValidEv@Base 6.2.0
 _ZNK24QQuickPlatformFileDialog9directoryEv@Base 6.2.0
 _ZNK24QQuickPlatformFontDialog10metaObjectEv@Base 6.2.0
 _ZNK24QQuickPlatformFontDialog11currentFontEv@Base 6.2.0
 _ZNK24QQuickPlatformFontDialog6dialogEv@Base 6.2.0
 _ZNK24QQuickPlatformFontDialog7isValidEv@Base 6.2.0
 _ZNK25QQuickFolderBreadcrumbBar10fileDialogEv@Base 6.2.0
 _ZNK25QQuickFolderBreadcrumbBar10metaObjectEv@Base 6.2.0
 _ZNK25QQuickFolderBreadcrumbBar11defaultFontEv@Base 6.2.0
 _ZNK25QQuickFolderBreadcrumbBar14accessibleRoleEv@Base 6.2.0
 _ZNK25QQuickFolderBreadcrumbBar15upButtonSpacingEv@Base 6.2.0
 _ZNK25QQuickFolderBreadcrumbBar9isContentEP10QQuickItem@Base 6.2.0
 _ZNK28QQuickFileDialogImplAttached10metaObjectEv@Base 6.2.0
 _ZNK28QQuickFileDialogImplAttached13breadcrumbBarEv@Base 6.2.0
 _ZNK28QQuickFileDialogImplAttached18fileDialogListViewEv@Base 6.2.0
 _ZNK28QQuickFileDialogImplAttached18selectedNameFilterEv@Base 6.2.0
 _ZNK28QQuickFileDialogImplAttached19nameFiltersComboBoxEv@Base 6.2.0
 _ZNK28QQuickFileDialogImplAttached9buttonBoxEv@Base 6.2.0
 _ZNK28QQuickFontDialogImplAttached10familyEditEv@Base 6.2.0
 _ZNK28QQuickFontDialogImplAttached10metaObjectEv@Base 6.2.0
 _ZNK28QQuickFontDialogImplAttached10sampleEditEv@Base 6.2.0
 _ZNK28QQuickFontDialogImplAttached12sizeListViewEv@Base 6.2.0
 _ZNK28QQuickFontDialogImplAttached13styleListViewEv@Base 6.2.0
 _ZNK28QQuickFontDialogImplAttached14familyListViewEv@Base 6.2.0
 _ZNK28QQuickFontDialogImplAttached17strikeoutCheckBoxEv@Base 6.2.0
 _ZNK28QQuickFontDialogImplAttached17underlineCheckBoxEv@Base 6.2.0
 _ZNK28QQuickFontDialogImplAttached21writingSystemComboBoxEv@Base 6.2.0
 _ZNK28QQuickFontDialogImplAttached8sizeEditEv@Base 6.2.0
 _ZNK28QQuickFontDialogImplAttached9buttonBoxEv@Base 6.2.0
 _ZNK28QQuickFontDialogImplAttached9styleEditEv@Base 6.2.0
 _ZNK32QQuickFolderBreadcrumbBarPrivate15getContentWidthEv@Base 6.2.0
 _ZNK32QQuickFolderBreadcrumbBarPrivate16getContentHeightEv@Base 6.2.0
 (optional=templinst)_ZNSt8_Rb_treeI7QStringSt4pairIKS0_8QVariantESt10_Select1stIS4_ESt4lessIS0_ESaIS4_EE24_M_get_insert_unique_posERS2_@Base 6.2.0
 (optional=templinst|arch=!armel !armhf !hurd-i386 !i386 !mipsel)_ZNSt8_Rb_treeI7QStringSt4pairIKS0_8QVariantESt10_Select1stIS4_ESt4lessIS0_ESaIS4_EE29_M_get_insert_hint_unique_posESt23_Rb_tree_const_iteratorIS4_ERS2_@Base 6.2.0
 _ZTI20QQuickFileDialogImpl@Base 6.2.0
 _ZTI20QQuickFontDialogImpl@Base 6.2.0
 _ZTI24QQuickFileDialogDelegate@Base 6.2.0
 _ZTI24QQuickPlatformFileDialog@Base 6.2.0
 _ZTI24QQuickPlatformFontDialog@Base 6.2.0
 _ZTI25QQuickFolderBreadcrumbBar@Base 6.2.0
 _ZTI28QQuickFileDialogImplAttached@Base 6.2.0
 _ZTI28QQuickFontDialogImplAttached@Base 6.2.0
 _ZTI32QQuickFolderBreadcrumbBarPrivate@Base 6.2.0
 _ZTS20QQuickFileDialogImpl@Base 6.2.0
 _ZTS20QQuickFontDialogImpl@Base 6.2.0
 _ZTS24QQuickFileDialogDelegate@Base 6.2.0
 _ZTS24QQuickPlatformFileDialog@Base 6.2.0
 _ZTS24QQuickPlatformFontDialog@Base 6.2.0
 _ZTS25QQuickFolderBreadcrumbBar@Base 6.2.0
 _ZTS28QQuickFileDialogImplAttached@Base 6.2.0
 _ZTS28QQuickFontDialogImplAttached@Base 6.2.0
 _ZTS32QQuickFolderBreadcrumbBarPrivate@Base 6.2.0
 _ZTV20QQuickFileDialogImpl@Base 6.2.0
 _ZTV20QQuickFontDialogImpl@Base 6.2.0
 _ZTV24QQuickFileDialogDelegate@Base 6.2.0
 _ZTV24QQuickPlatformFileDialog@Base 6.2.0
 _ZTV24QQuickPlatformFontDialog@Base 6.2.0
 _ZTV25QQuickFolderBreadcrumbBar@Base 6.2.0
 _ZTV28QQuickFileDialogImplAttached@Base 6.2.0
 _ZTV28QQuickFontDialogImplAttached@Base 6.2.0
 _ZTV32QQuickFolderBreadcrumbBarPrivate@Base 6.2.0
 (optional=templinst)_ZZN9QtPrivate16QMetaTypeForTypeI4QUrlE10getCopyCtrEvENUlPKNS_18QMetaTypeInterfaceEPvPKvE_4_FUNES5_S6_S8_@Base 6.2.0
 (optional=templinst)_ZZN9QtPrivate16QMetaTypeForTypeI4QUrlE10getMoveCtrEvENUlPKNS_18QMetaTypeInterfaceEPvS6_E_4_FUNES5_S6_S6_@Base 6.2.0
 (optional=templinst)_ZZN9QtPrivate16QMetaTypeForTypeI4QUrlE13getDefaultCtrEvENUlPKNS_18QMetaTypeInterfaceEPvE_4_FUNES5_S6_@Base 6.2.0
 (optional=templinst)_ZZN9QtPrivate16QMetaTypeForTypeI4QUrlE7getDtorEvENUlPKNS_18QMetaTypeInterfaceEPvE_4_FUNES5_S6_@Base 6.2.0
 (optional=templinst)_ZZN9QtPrivate16QMetaTypeForTypeI5QListI7QStringEE10getCopyCtrEvENUlPKNS_18QMetaTypeInterfaceEPvPKvE_4_FUNES7_S8_SA_@Base 6.2.0
 (optional=templinst)_ZZN9QtPrivate16QMetaTypeForTypeI5QListI7QStringEE10getMoveCtrEvENUlPKNS_18QMetaTypeInterfaceEPvS8_E_4_FUNES7_S8_S8_@Base 6.2.0
 (optional=templinst)_ZZN9QtPrivate16QMetaTypeForTypeI5QListI7QStringEE13getDefaultCtrEvENUlPKNS_18QMetaTypeInterfaceEPvE_4_FUNES7_S8_@Base 6.2.0
 (optional=templinst)_ZZN9QtPrivate16QMetaTypeForTypeI5QListI7QStringEE7getDtorEvENUlPKNS_18QMetaTypeInterfaceEPvE_4_FUNES7_S8_@Base 6.2.0
 (optional=templinst)_ZZN9QtPrivate16QMetaTypeForTypeI7QStringE10getCopyCtrEvENUlPKNS_18QMetaTypeInterfaceEPvPKvE_4_FUNES5_S6_S8_@Base 6.2.0
 (optional=templinst)_ZZN9QtPrivate16QMetaTypeForTypeI7QStringE10getMoveCtrEvENUlPKNS_18QMetaTypeInterfaceEPvS6_E_4_FUNES5_S6_S6_@Base 6.2.0
 (optional=templinst)_ZZN9QtPrivate16QMetaTypeForTypeI7QStringE13getDefaultCtrEvENUlPKNS_18QMetaTypeInterfaceEPvE_4_FUNES5_S6_@Base 6.2.0
 (optional=templinst)_ZZN9QtPrivate16QMetaTypeForTypeI7QStringE7getDtorEvENUlPKNS_18QMetaTypeInterfaceEPvE_4_FUNES5_S6_@Base 6.2.0
 (optional=templinst)_ZZN9QtPrivate16QMetaTypeForTypeIiE10getCopyCtrEvENUlPKNS_18QMetaTypeInterfaceEPvPKvE_4_FUNES4_S5_S7_@Base 6.2.0
 (optional=templinst)_ZZN9QtPrivate16QMetaTypeForTypeIiE10getMoveCtrEvENUlPKNS_18QMetaTypeInterfaceEPvS5_E_4_FUNES4_S5_S5_@Base 6.2.0
 (optional=templinst)_ZZN9QtPrivate16QMetaTypeForTypeIiE13getDefaultCtrEvENUlPKNS_18QMetaTypeInterfaceEPvE_4_FUNES4_S5_@Base 6.2.0
 (c++)"non-virtual thunk to QQuickFileDialogImpl::componentComplete()@Base" 6.2.0
 (c++)"non-virtual thunk to QQuickFolderBreadcrumbBar::componentComplete()@Base" 6.2.0
 (c++)"non-virtual thunk to QQuickFolderBreadcrumbBarPrivate::itemGeometryChanged(QQuickItem*, QQuickGeometryChange, QRectF const&)@Base" 6.2.0
 (c++)"non-virtual thunk to QQuickFolderBreadcrumbBarPrivate::itemImplicitHeightChanged(QQuickItem*)@Base" 6.2.0
 (c++)"non-virtual thunk to QQuickFolderBreadcrumbBarPrivate::itemImplicitWidthChanged(QQuickItem*)@Base" 6.2.0
