# SymbolsHelper-Confirmed: 6.2.0 amd64
libQt6QuickLayouts.so.6 libqt6quicklayouts6 #MINVER#
| libqt6quicklayouts6 #MINVER#, qt6-declarative-abi (= 6.2.2)
* Build-Depends-Packages: qt6-declarative-dev, qt6-declarative-private-dev
 _Z34qml_register_types_QtQuick_Layoutsv@Base 6.2.0
 _ZN12QQuickLayout10invalidateEP10QQuickItem@Base 6.2.0
 _ZN12QQuickLayout10itemChangeEN10QQuickItem10ItemChangeERKNS0_14ItemChangeDataE@Base 6.2.0
 _ZN12QQuickLayout11qt_metacallEN11QMetaObject4CallEiPPv@Base 6.2.0
 _ZN12QQuickLayout11qt_metacastEPKc@Base 6.2.0
 _ZN12QQuickLayout12updatePolishEv@Base 6.2.0
 _ZN12QQuickLayout13itemDestroyedEP10QQuickItem@Base 6.2.0
 _ZN12QQuickLayout14geometryChangeERK6QRectFS2_@Base 6.2.0
 _ZN12QQuickLayout15deactivateRecurEv@Base 6.2.0
 _ZN12QQuickLayout16staticMetaObjectE@Base 6.2.0
 _ZN12QQuickLayout17componentCompleteEv@Base 6.2.0
 _ZN12QQuickLayout20invalidateSenderItemEv@Base 6.2.0
 _ZN12QQuickLayout21itemVisibilityChangedEP10QQuickItem@Base 6.2.0
 _ZN12QQuickLayout21qmlAttachedPropertiesEP7QObject@Base 6.2.0
 _ZN12QQuickLayout23itemSiblingOrderChangedEP10QQuickItem@Base 6.2.0
 _ZN12QQuickLayout24itemImplicitWidthChangedEP10QQuickItem@Base 6.2.0
 _ZN12QQuickLayout25effectiveSizeHints_helperEP10QQuickItemP6QSizeFPP20QQuickLayoutAttachedb@Base 6.2.0
 _ZN12QQuickLayout25itemImplicitHeightChangedEP10QQuickItem@Base 6.2.0
 _ZN12QQuickLayout26effectiveSizePolicy_helperEP10QQuickItemN2Qt11OrientationEP20QQuickLayoutAttached@Base 6.2.0
 _ZN12QQuickLayout9rearrangeERK6QSizeF@Base 6.2.0
 _ZN12QQuickLayoutC1ER19QQuickLayoutPrivateP10QQuickItem@Base 6.2.0
 _ZN12QQuickLayoutC2ER19QQuickLayoutPrivateP10QQuickItem@Base 6.2.0
 _ZN12QQuickLayoutD0Ev@Base 6.2.0
 _ZN12QQuickLayoutD1Ev@Base 6.2.0
 _ZN12QQuickLayoutD2Ev@Base 6.2.0
 _ZN15QQuickRowLayout11qt_metacallEN11QMetaObject4CallEiPPv@Base 6.2.0
 _ZN15QQuickRowLayout11qt_metacastEPKc@Base 6.2.0
 _ZN15QQuickRowLayout16staticMetaObjectE@Base 6.2.0
 _ZN16QQuickGridLayout10setColumnsEi@Base 6.2.0
 _ZN16QQuickGridLayout11flowChangedEv@Base 6.2.0
 _ZN16QQuickGridLayout11qt_metacallEN11QMetaObject4CallEiPPv@Base 6.2.0
 _ZN16QQuickGridLayout11qt_metacastEPKc@Base 6.2.0
 _ZN16QQuickGridLayout11rowsChangedEv@Base 6.2.0
 _ZN16QQuickGridLayout13setRowSpacingEd@Base 6.2.0
 _ZN16QQuickGridLayout14columnsChangedEv@Base 6.2.0
 _ZN16QQuickGridLayout16setColumnSpacingEd@Base 6.2.0
 _ZN16QQuickGridLayout16staticMetaObjectE@Base 6.2.0
 _ZN16QQuickGridLayout17insertLayoutItemsEv@Base 6.2.0
 _ZN16QQuickGridLayout17rowSpacingChangedEv@Base 6.2.0
 _ZN16QQuickGridLayout20columnSpacingChangedEv@Base 6.2.0
 _ZN16QQuickGridLayout7setFlowENS_4FlowE@Base 6.2.0
 _ZN16QQuickGridLayout7setRowsEi@Base 6.2.0
 _ZN16QQuickGridLayoutC1EP10QQuickItem@Base 6.2.0
 _ZN16QQuickGridLayoutC2EP10QQuickItem@Base 6.2.0
 _ZN17QQuickStackLayout10invalidateEP10QQuickItem@Base 6.2.0
 _ZN17QQuickStackLayout10itemChangeEN10QQuickItem10ItemChangeERKNS0_14ItemChangeDataE@Base 6.2.0
 _ZN17QQuickStackLayout11qt_metacallEN11QMetaObject4CallEiPPv@Base 6.2.0
 _ZN17QQuickStackLayout11qt_metacastEPKc@Base 6.2.0
 _ZN17QQuickStackLayout12countChangedEv@Base 6.2.0
 _ZN17QQuickStackLayout12setAlignmentEP10QQuickItem6QFlagsIN2Qt13AlignmentFlagEE@Base 6.2.0
 _ZN17QQuickStackLayout15setCurrentIndexEi@Base 6.2.0
 _ZN17QQuickStackLayout16staticMetaObjectE@Base 6.2.0
 _ZN17QQuickStackLayout17componentCompleteEv@Base 6.2.0
 _ZN17QQuickStackLayout17updateLayoutItemsEv@Base 6.2.0
 _ZN17QQuickStackLayout19currentIndexChangedEv@Base 6.2.0
 _ZN17QQuickStackLayout20collectItemSizeHintsEP10QQuickItemP6QSizeF@Base 6.2.0
 _ZN17QQuickStackLayout21qmlAttachedPropertiesEP7QObject@Base 6.2.0
 _ZN17QQuickStackLayout9rearrangeERK6QSizeF@Base 6.2.0
 _ZN17QQuickStackLayoutC1EP10QQuickItem@Base 6.2.0
 _ZN17QQuickStackLayoutC2EP10QQuickItem@Base 6.2.0
 _ZN18QQuickColumnLayout11qt_metacallEN11QMetaObject4CallEiPPv@Base 6.2.0
 _ZN18QQuickColumnLayout11qt_metacastEPKc@Base 6.2.0
 _ZN18QQuickColumnLayout16staticMetaObjectE@Base 6.2.0
 _ZN20QQuickGridLayoutBase10invalidateEP10QQuickItem@Base 6.2.0
 _ZN20QQuickGridLayoutBase11qt_metacallEN11QMetaObject4CallEiPPv@Base 6.2.0
 _ZN20QQuickGridLayoutBase11qt_metacastEPKc@Base 6.2.0
 _ZN20QQuickGridLayoutBase12setAlignmentEP10QQuickItem6QFlagsIN2Qt13AlignmentFlagEE@Base 6.2.0
 _ZN20QQuickGridLayoutBase13itemDestroyedEP10QQuickItem@Base 6.2.0
 _ZN20QQuickGridLayoutBase14removeGridItemEP15QGridLayoutItem@Base 6.2.0
 _ZN20QQuickGridLayoutBase14setOrientationEN2Qt11OrientationE@Base 6.2.0
 _ZN20QQuickGridLayoutBase16staticMetaObjectE@Base 6.2.0
 _ZN20QQuickGridLayoutBase17componentCompleteEv@Base 6.2.0
 _ZN20QQuickGridLayoutBase17updateLayoutItemsEv@Base 6.2.0
 _ZN20QQuickGridLayoutBase18setLayoutDirectionEN2Qt15LayoutDirectionE@Base 6.2.0
 _ZN20QQuickGridLayoutBase21itemVisibilityChangedEP10QQuickItem@Base 6.2.0
 _ZN20QQuickGridLayoutBase22layoutDirectionChangedEv@Base 6.2.0
 _ZN20QQuickGridLayoutBase9rearrangeERK6QSizeF@Base 6.2.0
 _ZN20QQuickGridLayoutBaseC1ER27QQuickGridLayoutBasePrivateN2Qt11OrientationEP10QQuickItem@Base 6.2.0
 _ZN20QQuickGridLayoutBaseC1Ev@Base 6.2.0
 _ZN20QQuickGridLayoutBaseC2ER27QQuickGridLayoutBasePrivateN2Qt11OrientationEP10QQuickItem@Base 6.2.0
 _ZN20QQuickGridLayoutBaseC2Ev@Base 6.2.0
 _ZN20QQuickGridLayoutBaseD0Ev@Base 6.2.0
 _ZN20QQuickGridLayoutBaseD1Ev@Base 6.2.0
 _ZN20QQuickGridLayoutBaseD2Ev@Base 6.2.0
 _ZN20QQuickLayoutAttached10rowChangedEv@Base 6.2.0
 _ZN20QQuickLayoutAttached10setMarginsEd@Base 6.2.0
 _ZN20QQuickLayoutAttached10setRowSpanEi@Base 6.2.0
 _ZN20QQuickLayoutAttached11qt_metacallEN11QMetaObject4CallEiPPv@Base 6.2.0
 _ZN20QQuickLayoutAttached11qt_metacastEPKc@Base 6.2.0
 _ZN20QQuickLayoutAttached12setAlignmentE6QFlagsIN2Qt13AlignmentFlagEE@Base 6.2.0
 _ZN20QQuickLayoutAttached12setFillWidthEb@Base 6.2.0
 _ZN20QQuickLayoutAttached12setTopMarginEd@Base 6.2.0
 _ZN20QQuickLayoutAttached13columnChangedEv@Base 6.2.0
 _ZN20QQuickLayoutAttached13setColumnSpanEi@Base 6.2.0
 _ZN20QQuickLayoutAttached13setFillHeightEb@Base 6.2.0
 _ZN20QQuickLayoutAttached13setLeftMarginEd@Base 6.2.0
 _ZN20QQuickLayoutAttached14invalidateItemEv@Base 6.2.0
 _ZN20QQuickLayoutAttached14marginsChangedEv@Base 6.2.0
 _ZN20QQuickLayoutAttached14resetTopMarginEv@Base 6.2.0
 _ZN20QQuickLayoutAttached14rowSpanChangedEv@Base 6.2.0
 _ZN20QQuickLayoutAttached14setRightMarginEd@Base 6.2.0
 _ZN20QQuickLayoutAttached15resetLeftMarginEv@Base 6.2.0
 _ZN20QQuickLayoutAttached15setBottomMarginEd@Base 6.2.0
 _ZN20QQuickLayoutAttached15setMaximumWidthEd@Base 6.2.0
 _ZN20QQuickLayoutAttached15setMinimumWidthEd@Base 6.2.0
 _ZN20QQuickLayoutAttached16alignmentChangedEv@Base 6.2.0
 _ZN20QQuickLayoutAttached16fillWidthChangedEv@Base 6.2.0
 _ZN20QQuickLayoutAttached16resetRightMarginEv@Base 6.2.0
 _ZN20QQuickLayoutAttached16setMaximumHeightEd@Base 6.2.0
 _ZN20QQuickLayoutAttached16setMinimumHeightEd@Base 6.2.0
 _ZN20QQuickLayoutAttached16staticMetaObjectE@Base 6.2.0
 _ZN20QQuickLayoutAttached16topMarginChangedEv@Base 6.2.0
 _ZN20QQuickLayoutAttached17columnSpanChangedEv@Base 6.2.0
 _ZN20QQuickLayoutAttached17fillHeightChangedEv@Base 6.2.0
 _ZN20QQuickLayoutAttached17leftMarginChangedEv@Base 6.2.0
 _ZN20QQuickLayoutAttached17resetBottomMarginEv@Base 6.2.0
 _ZN20QQuickLayoutAttached17setPreferredWidthEd@Base 6.2.0
 _ZN20QQuickLayoutAttached18rightMarginChangedEv@Base 6.2.0
 _ZN20QQuickLayoutAttached18setPreferredHeightEd@Base 6.2.0
 _ZN20QQuickLayoutAttached19bottomMarginChangedEv@Base 6.2.0
 _ZN20QQuickLayoutAttached19maximumWidthChangedEv@Base 6.2.0
 _ZN20QQuickLayoutAttached19minimumWidthChangedEv@Base 6.2.0
 _ZN20QQuickLayoutAttached20maximumHeightChangedEv@Base 6.2.0
 _ZN20QQuickLayoutAttached20minimumHeightChangedEv@Base 6.2.0
 _ZN20QQuickLayoutAttached21preferredWidthChangedEv@Base 6.2.0
 _ZN20QQuickLayoutAttached22preferredHeightChangedEv@Base 6.2.0
 _ZN20QQuickLayoutAttached22setMaximumImplicitSizeERK6QSizeF@Base 6.2.0
 _ZN20QQuickLayoutAttached22setMinimumImplicitSizeERK6QSizeF@Base 6.2.0
 _ZN20QQuickLayoutAttached6setRowEi@Base 6.2.0
 _ZN20QQuickLayoutAttached9setColumnEi@Base 6.2.0
 _ZN20QQuickLayoutAttachedC1EP7QObject@Base 6.2.0
 _ZN20QQuickLayoutAttachedC2EP7QObject@Base 6.2.0
 _ZNK12QQuickLayout10isMirroredEv@Base 6.2.0
 _ZNK12QQuickLayout10metaObjectEv@Base 6.2.0
 _ZNK12QQuickLayout11invalidatedEv@Base 6.2.0
 _ZNK12QQuickLayout12checkAnchorsEP10QQuickItem@Base 6.2.0
 _ZNK12QQuickLayout16shouldIgnoreItemEP10QQuickItemRP20QQuickLayoutAttachedP6QSizeF@Base 6.2.0
 _ZNK12QQuickLayout17_q_dumpLayoutTreeEv@Base 6.2.0
 _ZNK12QQuickLayout22invalidatedArrangementEv@Base 6.2.0
 _ZNK12QQuickLayout23dumpLayoutTreeRecursiveEiR7QString@Base 6.2.0
 _ZNK12QQuickLayout24ensureLayoutItemsUpdatedEv@Base 6.2.0
 _ZNK12QQuickLayout7isReadyEv@Base 6.2.0
 _ZNK15QQuickRowLayout10metaObjectEv@Base 6.2.0
 _ZNK16QQuickGridLayout10metaObjectEv@Base 6.2.0
 _ZNK16QQuickGridLayout10rowSpacingEv@Base 6.2.0
 _ZNK16QQuickGridLayout13columnSpacingEv@Base 6.2.0
 _ZNK16QQuickGridLayout4flowEv@Base 6.2.0
 _ZNK16QQuickGridLayout4rowsEv@Base 6.2.0
 _ZNK16QQuickGridLayout7columnsEv@Base 6.2.0
 _ZNK17QQuickStackLayout10metaObjectEv@Base 6.2.0
 _ZNK17QQuickStackLayout12currentIndexEv@Base 6.2.0
 _ZNK17QQuickStackLayout16shouldIgnoreItemEP10QQuickItem@Base 6.2.0
 _ZNK17QQuickStackLayout5countEv@Base 6.2.0
 _ZNK17QQuickStackLayout6itemAtEi@Base 6.2.0
 _ZNK17QQuickStackLayout7indexOfEP10QQuickItem@Base 6.2.0
 _ZNK17QQuickStackLayout8sizeHintEN2Qt8SizeHintE@Base 6.2.0
 _ZNK17QQuickStackLayout9itemCountEv@Base 6.2.0
 _ZNK18QQuickColumnLayout10metaObjectEv@Base 6.2.0
 _ZNK20QQuickGridLayoutBase10metaObjectEv@Base 6.2.0
 _ZNK20QQuickGridLayoutBase11orientationEv@Base 6.2.0
 _ZNK20QQuickGridLayoutBase15layoutDirectionEv@Base 6.2.0
 _ZNK20QQuickGridLayoutBase24effectiveLayoutDirectionEv@Base 6.2.0
 _ZNK20QQuickGridLayoutBase6itemAtEi@Base 6.2.0
 _ZNK20QQuickGridLayoutBase8sizeHintEN2Qt8SizeHintE@Base 6.2.0
 _ZNK20QQuickGridLayoutBase9itemCountEv@Base 6.2.0
 _ZNK20QQuickLayoutAttached10metaObjectEv@Base 6.2.0
 _ZNK20QQuickLayoutAttached12parentLayoutEv@Base 6.2.0
 _ZNK20QQuickLayoutAttached4itemEv@Base 6.2.0
 _ZNK20QQuickLayoutAttached8sizeHintEN2Qt8SizeHintENS0_11OrientationE@Base 6.2.0
 _ZTI12QQuickLayout@Base 6.2.0
 _ZTI15QQuickRowLayout@Base 6.2.0
 _ZTI16QQuickGridLayout@Base 6.2.0
 _ZTI17QQuickStackLayout@Base 6.2.0
 _ZTI18QQuickColumnLayout@Base 6.2.0
 _ZTI20QQuickGridLayoutBase@Base 6.2.0
 _ZTI20QQuickLayoutAttached@Base 6.2.0
 _ZTI24QAbstractLayoutStyleInfo@Base 6.2.0
 _ZTS12QQuickLayout@Base 6.2.0
 _ZTS15QQuickRowLayout@Base 6.2.0
 _ZTS16QQuickGridLayout@Base 6.2.0
 _ZTS17QQuickStackLayout@Base 6.2.0
 _ZTS18QQuickColumnLayout@Base 6.2.0
 _ZTS20QQuickGridLayoutBase@Base 6.2.0
 _ZTS20QQuickLayoutAttached@Base 6.2.0
 _ZTS24QAbstractLayoutStyleInfo@Base 6.2.0
 _ZTV12QQuickLayout@Base 6.2.0
 _ZTV15QQuickRowLayout@Base 6.2.0
 _ZTV16QQuickGridLayout@Base 6.2.0
 _ZTV17QQuickStackLayout@Base 6.2.0
 _ZTV18QQuickColumnLayout@Base 6.2.0
 _ZTV20QQuickGridLayoutBase@Base 6.2.0
 _ZTV20QQuickLayoutAttached@Base 6.2.0
 (optional=templinst)_ZZN9QtPrivate16QMetaTypeForTypeIbE10getCopyCtrEvENUlPKNS_18QMetaTypeInterfaceEPvPKvE_4_FUNES4_S5_S7_@Base 6.2.0
 (optional=templinst)_ZZN9QtPrivate16QMetaTypeForTypeIbE10getMoveCtrEvENUlPKNS_18QMetaTypeInterfaceEPvS5_E_4_FUNES4_S5_S5_@Base 6.2.0
 (optional=templinst)_ZZN9QtPrivate16QMetaTypeForTypeIbE13getDefaultCtrEvENUlPKNS_18QMetaTypeInterfaceEPvE_4_FUNES4_S5_@Base 6.2.0
 (optional=templinst)_ZZN9QtPrivate16QMetaTypeForTypeIdE10getCopyCtrEvENUlPKNS_18QMetaTypeInterfaceEPvPKvE_4_FUNES4_S5_S7_@Base 6.2.0
 (optional=templinst)_ZZN9QtPrivate16QMetaTypeForTypeIdE10getMoveCtrEvENUlPKNS_18QMetaTypeInterfaceEPvS5_E_4_FUNES4_S5_S5_@Base 6.2.0
 (optional=templinst)_ZZN9QtPrivate16QMetaTypeForTypeIdE13getDefaultCtrEvENUlPKNS_18QMetaTypeInterfaceEPvE_4_FUNES4_S5_@Base 6.2.0
 (optional=templinst)_ZZN9QtPrivate16QMetaTypeForTypeIiE10getCopyCtrEvENUlPKNS_18QMetaTypeInterfaceEPvPKvE_4_FUNES4_S5_S7_@Base 6.2.0
 (optional=templinst)_ZZN9QtPrivate16QMetaTypeForTypeIiE10getMoveCtrEvENUlPKNS_18QMetaTypeInterfaceEPvS5_E_4_FUNES4_S5_S5_@Base 6.2.0
 (optional=templinst)_ZZN9QtPrivate16QMetaTypeForTypeIiE13getDefaultCtrEvENUlPKNS_18QMetaTypeInterfaceEPvE_4_FUNES4_S5_@Base 6.2.0
 (c++)"non-virtual thunk to QQuickGridLayoutBase::componentComplete()@Base" 6.2.0
 (c++)"non-virtual thunk to QQuickGridLayoutBase::itemDestroyed(QQuickItem*)@Base" 6.2.0
 (c++)"non-virtual thunk to QQuickGridLayoutBase::itemVisibilityChanged(QQuickItem*)@Base" 6.2.0
 (c++)"non-virtual thunk to QQuickGridLayoutBase::~QQuickGridLayoutBase()@Base" 6.2.0
 (c++)"non-virtual thunk to QQuickLayout::componentComplete()@Base" 6.2.0
 (c++)"non-virtual thunk to QQuickLayout::itemDestroyed(QQuickItem*)@Base" 6.2.0
 (c++)"non-virtual thunk to QQuickLayout::itemImplicitHeightChanged(QQuickItem*)@Base" 6.2.0
 (c++)"non-virtual thunk to QQuickLayout::itemImplicitWidthChanged(QQuickItem*)@Base" 6.2.0
 (c++)"non-virtual thunk to QQuickLayout::itemSiblingOrderChanged(QQuickItem*)@Base" 6.2.0
 (c++)"non-virtual thunk to QQuickLayout::itemVisibilityChanged(QQuickItem*)@Base" 6.2.0
 (c++)"non-virtual thunk to QQuickLayout::~QQuickLayout()@Base" 6.2.0
 (c++)"non-virtual thunk to QQuickStackLayout::componentComplete()@Base" 6.2.0
