# SymbolsHelper-Confirmed: 6.2.0 amd64
libQt6QuickTest.so.6 libqt6quicktest6 #MINVER#
| libqt6quicktest6 #MINVER#, qt6-declarative-abi (= 6.2.2)
* Build-Depends-Packages: qt6-declarative-dev, qt6-declarative-private-dev
 _Z15quick_test_mainiPPcPKcS2_@Base 6.2.0
 _Z25qml_register_types_QtTestv@Base 6.2.0
 _Z26quick_test_main_with_setupiPPcPKcS2_P7QObject@Base 6.2.0
 _ZGVZN15QTestRootObject8instanceEvE6object@Base 6.2.0
 _ZN10QQuickTest18qIsPolishScheduledEPK10QQuickItem@Base 6.2.0
 _ZN10QQuickTest20qWaitForItemPolishedEPK10QQuickItemi@Base 6.2.0
 _ZN13QuickTestUtil11qt_metacallEN11QMetaObject4CallEiPPv@Base 6.2.0
 _ZN13QuickTestUtil11qt_metacastEPKc@Base 6.2.0
 _ZN13QuickTestUtil16staticMetaObjectE@Base 6.2.0
 _ZN13QuickTestUtil20dragThresholdChangedEv@Base 6.2.0
 _ZN13QuickTestUtil30printAvailableFunctionsChangedEv@Base 6.2.0
 _ZN14QuickTestEvent10keyReleaseEiii@Base 6.2.0
 _ZN14QuickTestEvent10mouseClickEP7QObjectddiii@Base 6.2.0
 _ZN14QuickTestEvent10mousePressEP7QObjectddiii@Base 6.2.0
 _ZN14QuickTestEvent10mouseWheelEP7QObjectddiiiii@Base 6.2.0
 _ZN14QuickTestEvent10touchEventEP7QObject@Base 6.2.0
 _ZN14QuickTestEvent11eventWindowEP7QObject@Base 6.2.0
 _ZN14QuickTestEvent11keySequenceERK8QVariant@Base 6.2.0
 _ZN14QuickTestEvent11qt_metacallEN11QMetaObject4CallEiPPv@Base 6.2.0
 _ZN14QuickTestEvent11qt_metacastEPKc@Base 6.2.0
 _ZN14QuickTestEvent11touchDeviceEv@Base 6.2.0
 _ZN14QuickTestEvent12activeWindowEv@Base 6.2.0
 _ZN14QuickTestEvent12keyClickCharERK7QStringii@Base 6.2.0
 _ZN14QuickTestEvent12keyPressCharERK7QStringii@Base 6.2.0
 _ZN14QuickTestEvent12mouseReleaseEP7QObjectddiii@Base 6.2.0
 _ZN14QuickTestEvent14keyReleaseCharERK7QStringii@Base 6.2.0
 _ZN14QuickTestEvent16mouseDoubleClickEP7QObjectddiii@Base 6.2.0
 _ZN14QuickTestEvent16staticMetaObjectE@Base 6.2.0
 _ZN14QuickTestEvent24mouseDoubleClickSequenceEP7QObjectddiii@Base 6.2.0
 _ZN14QuickTestEvent8keyClickEiii@Base 6.2.0
 _ZN14QuickTestEvent8keyPressEiii@Base 6.2.0
 _ZN14QuickTestEvent9mouseMoveEP7QObjectddii@Base 6.2.0
 _ZN14QuickTestEventC1EP7QObject@Base 6.2.0
 _ZN14QuickTestEventC2EP7QObject@Base 6.2.0
 _ZN14QuickTestEventD0Ev@Base 6.2.0
 _ZN14QuickTestEventD1Ev@Base 6.2.0
 _ZN14QuickTestEventD2Ev@Base 6.2.0
 _ZN15QTestRootObject11qt_metacallEN11QMetaObject4CallEiPPv@Base 6.2.0
 _ZN15QTestRootObject11qt_metacastEPKc@Base 6.2.0
 _ZN15QTestRootObject16staticMetaObjectE@Base 6.2.0
 _ZN15QTestRootObject18hasTestCaseChangedEv@Base 6.2.0
 _ZN15QTestRootObject18windowShownChangedEv@Base 6.2.0
 _ZN15QuickTestResult10endDataRunEv@Base 6.2.0
 _ZN15QuickTestResult10expectFailERK7QStringS2_RK4QUrli@Base 6.2.0
 _ZN15QuickTestResult10setDataTagERK7QString@Base 6.2.0
 _ZN15QuickTestResult10setSkippedEb@Base 6.2.0
 _ZN15QuickTestResult11qt_metacallEN11QMetaObject4CallEiPPv@Base 6.2.0
 _ZN15QuickTestResult11qt_metacastEPKc@Base 6.2.0
 _ZN15QuickTestResult11stopLoggingEv@Base 6.2.0
 _ZN15QuickTestResult12beginDataRunEv@Base 6.2.0
 _ZN15QuickTestResult12fuzzyCompareERK8QVariantS2_d@Base 6.2.0
 _ZN15QuickTestResult12startLoggingEv@Base 6.2.0
 _ZN15QuickTestResult13ignoreWarningERK8QJSValue@Base 6.2.0
 _ZN15QuickTestResult13initTestTableEv@Base 6.2.0
 _ZN15QuickTestResult13nextBenchmarkEv@Base 6.2.0
 _ZN15QuickTestResult13stopBenchmarkEv@Base 6.2.0
 _ZN15QuickTestResult14clearTestTableEv@Base 6.2.0
 _ZN15QuickTestResult14dataTagChangedEv@Base 6.2.0
 _ZN15QuickTestResult14finishTestDataEv@Base 6.2.0
 _ZN15QuickTestResult14setProgramNameEPKc@Base 6.2.0
 _ZN15QuickTestResult14skippedChangedEv@Base 6.2.0
 _ZN15QuickTestResult14startBenchmarkENS_7RunModeERK7QString@Base 6.2.0
 _ZN15QuickTestResult15setFunctionNameERK7QString@Base 6.2.0
 _ZN15QuickTestResult15setTestCaseNameERK7QString@Base 6.2.0
 _ZN15QuickTestResult16startMeasurementEv@Base 6.2.0
 _ZN15QuickTestResult16staticMetaObjectE@Base 6.2.0
 _ZN15QuickTestResult16waitForRenderingEP10QQuickItemi@Base 6.2.0
 _ZN15QuickTestResult17setCurrentAppnameEPKc@Base 6.2.0
 _ZN15QuickTestResult18expectFailContinueERK7QStringS2_RK4QUrli@Base 6.2.0
 _ZN15QuickTestResult18finishTestFunctionEv@Base 6.2.0
 _ZN15QuickTestResult18programNameChangedEv@Base 6.2.0
 _ZN15QuickTestResult19functionNameChangedEv@Base 6.2.0
 _ZN15QuickTestResult19measurementAcceptedEv@Base 6.2.0
 _ZN15QuickTestResult19testCaseNameChangedEv@Base 6.2.0
 _ZN15QuickTestResult19waitForItemPolishedEP10QQuickItemi@Base 6.2.0
 _ZN15QuickTestResult21finishTestDataCleanupEv@Base 6.2.0
 _ZN15QuickTestResult21needsMoreMeasurementsEv@Base 6.2.0
 _ZN15QuickTestResult4failERK7QStringRK4QUrli@Base 6.2.0
 _ZN15QuickTestResult4skipERK7QStringRK4QUrli@Base 6.2.0
 _ZN15QuickTestResult4waitEi@Base 6.2.0
 _ZN15QuickTestResult4warnERK7QStringRK4QUrli@Base 6.2.0
 _ZN15QuickTestResult5resetEv@Base 6.2.0
 _ZN15QuickTestResult5sleepEi@Base 6.2.0
 _ZN15QuickTestResult6verifyEbRK7QStringRK4QUrli@Base 6.2.0
 _ZN15QuickTestResult7compareEbRK7QStringRK8QVariantS5_RK4QUrli@Base 6.2.0
 _ZN15QuickTestResult8exitCodeEv@Base 6.2.0
 _ZN15QuickTestResult9findChildEP7QObjectRK7QString@Base 6.2.0
 _ZN15QuickTestResult9grabImageEP10QQuickItem@Base 6.2.0
 _ZN15QuickTestResult9parseArgsEiPPc@Base 6.2.0
 _ZN15QuickTestResult9stringifyEP14QQmlV4Function@Base 6.2.0
 _ZN15QuickTestResultC1EP7QObject@Base 6.2.0
 _ZN15QuickTestResultC2EP7QObject@Base 6.2.0
 _ZN15QuickTestResultD0Ev@Base 6.2.0
 _ZN15QuickTestResultD1Ev@Base 6.2.0
 _ZN15QuickTestResultD2Ev@Base 6.2.0
 _ZN20QuickTestImageObject11qt_metacallEN11QMetaObject4CallEiPPv@Base 6.2.0
 _ZN20QuickTestImageObject11qt_metacastEPKc@Base 6.2.0
 _ZN20QuickTestImageObject16staticMetaObjectE@Base 6.2.0
 _ZN24QQuickTouchEventSequence10stationaryEi@Base 6.2.0
 _ZN24QQuickTouchEventSequence11qt_metacallEN11QMetaObject4CallEiPPv@Base 6.2.0
 _ZN24QQuickTouchEventSequence11qt_metacastEPKc@Base 6.2.0
 _ZN24QQuickTouchEventSequence16staticMetaObjectE@Base 6.2.0
 _ZN24QQuickTouchEventSequence4moveEiP7QObjectdd@Base 6.2.0
 _ZN24QQuickTouchEventSequence5pressEiP7QObjectdd@Base 6.2.0
 _ZN24QQuickTouchEventSequence6commitEv@Base 6.2.0
 _ZN24QQuickTouchEventSequence7releaseEiP7QObjectdd@Base 6.2.0
 _ZN24QQuickTouchEventSequenceC1EP14QuickTestEventP7QObject@Base 6.2.0
 _ZN24QQuickTouchEventSequenceC2EP14QuickTestEventP7QObject@Base 6.2.0
 _ZNK13QuickTestUtil10callerFileEi@Base 6.2.0
 _ZNK13QuickTestUtil10callerLineEi@Base 6.2.0
 _ZNK13QuickTestUtil10metaObjectEv@Base 6.2.0
 _ZNK13QuickTestUtil13dragThresholdEv@Base 6.2.0
 _ZNK13QuickTestUtil23printAvailableFunctionsEv@Base 6.2.0
 _ZNK13QuickTestUtil7compareERK8QVariantS2_@Base 6.2.0
 _ZNK13QuickTestUtil8typeNameERK8QVariant@Base 6.2.0
 _ZNK14QuickTestEvent10metaObjectEv@Base 6.2.0
 _ZNK14QuickTestEvent17defaultMouseDelayEv@Base 6.2.0
 _ZNK15QTestRootObject10metaObjectEv@Base 6.2.0
 _ZNK15QuickTestResult10metaObjectEv@Base 6.2.0
 _ZNK15QuickTestResult12functionNameEv@Base 6.2.0
 _ZNK15QuickTestResult12testCaseNameEv@Base 6.2.0
 _ZNK15QuickTestResult14functionsToRunEv@Base 6.2.0
 _ZNK15QuickTestResult15isBenchmarkDoneEv@Base 6.2.0
 _ZNK15QuickTestResult17isPolishScheduledEP10QQuickItem@Base 6.2.0
 _ZNK15QuickTestResult7dataTagEv@Base 6.2.0
 _ZNK15QuickTestResult8isFailedEv@Base 6.2.0
 _ZNK15QuickTestResult9failCountEv@Base 6.2.0
 _ZNK15QuickTestResult9isSkippedEv@Base 6.2.0
 _ZNK15QuickTestResult9passCountEv@Base 6.2.0
 _ZNK15QuickTestResult9skipCountEv@Base 6.2.0
 _ZNK15QuickTestResult9tagsToRunEv@Base 6.2.0
 _ZNK20QuickTestImageObject10metaObjectEv@Base 6.2.0
 _ZNK24QQuickTouchEventSequence10metaObjectEv@Base 6.2.0
 _ZTI13QuickTestUtil@Base 6.2.0
 _ZTI14QuickTestEvent@Base 6.2.0
 _ZTI15QTestRootObject@Base 6.2.0
 _ZTI15QuickTestResult@Base 6.2.0
 _ZTI20QuickTestImageObject@Base 6.2.0
 _ZTI24QQuickTouchEventSequence@Base 6.2.0
 _ZTIFP7QObjectP10QQmlEngineP9QJSEngineE@Base 6.2.0
 _ZTIPFP7QObjectP10QQmlEngineP9QJSEngineE@Base 6.2.0
 _ZTS13QuickTestUtil@Base 6.2.0
 _ZTS14QuickTestEvent@Base 6.2.0
 _ZTS15QTestRootObject@Base 6.2.0
 _ZTS15QuickTestResult@Base 6.2.0
 _ZTS20QuickTestImageObject@Base 6.2.0
 _ZTS24QQuickTouchEventSequence@Base 6.2.0
 _ZTSFP7QObjectP10QQmlEngineP9QJSEngineE@Base 6.2.0
 _ZTSPFP7QObjectP10QQmlEngineP9QJSEngineE@Base 6.2.0
 _ZTV13QuickTestUtil@Base 6.2.0
 _ZTV14QuickTestEvent@Base 6.2.0
 _ZTV15QTestRootObject@Base 6.2.0
 _ZTV15QuickTestResult@Base 6.2.0
 _ZTV20QuickTestImageObject@Base 6.2.0
 _ZTV24QQuickTouchEventSequence@Base 6.2.0
 _ZZN15QTestRootObject8instanceEvE6object@Base 6.2.0
 (optional=templinst)_ZZN9QtPrivate16QMetaTypeForTypeI4QUrlE10getCopyCtrEvENUlPKNS_18QMetaTypeInterfaceEPvPKvE_4_FUNES5_S6_S8_@Base 6.2.0
 (optional=templinst)_ZZN9QtPrivate16QMetaTypeForTypeI4QUrlE10getMoveCtrEvENUlPKNS_18QMetaTypeInterfaceEPvS6_E_4_FUNES5_S6_S6_@Base 6.2.0
 (optional=templinst)_ZZN9QtPrivate16QMetaTypeForTypeI4QUrlE13getDefaultCtrEvENUlPKNS_18QMetaTypeInterfaceEPvE_4_FUNES5_S6_@Base 6.2.0
 (optional=templinst)_ZZN9QtPrivate16QMetaTypeForTypeI4QUrlE7getDtorEvENUlPKNS_18QMetaTypeInterfaceEPvE_4_FUNES5_S6_@Base 6.2.0
 (optional=templinst)_ZZN9QtPrivate16QMetaTypeForTypeI5QListI7QStringEE10getCopyCtrEvENUlPKNS_18QMetaTypeInterfaceEPvPKvE_4_FUNES7_S8_SA_@Base 6.2.0
 (optional=templinst)_ZZN9QtPrivate16QMetaTypeForTypeI5QListI7QStringEE10getMoveCtrEvENUlPKNS_18QMetaTypeInterfaceEPvS8_E_4_FUNES7_S8_S8_@Base 6.2.0
 (optional=templinst)_ZZN9QtPrivate16QMetaTypeForTypeI5QListI7QStringEE13getDefaultCtrEvENUlPKNS_18QMetaTypeInterfaceEPvE_4_FUNES7_S8_@Base 6.2.0
 (optional=templinst)_ZZN9QtPrivate16QMetaTypeForTypeI5QListI7QStringEE7getDtorEvENUlPKNS_18QMetaTypeInterfaceEPvE_4_FUNES7_S8_@Base 6.2.0
 (optional=templinst)_ZZN9QtPrivate16QMetaTypeForTypeI5QSizeE10getCopyCtrEvENUlPKNS_18QMetaTypeInterfaceEPvPKvE_4_FUNES5_S6_S8_@Base 6.2.0
 (optional=templinst)_ZZN9QtPrivate16QMetaTypeForTypeI5QSizeE10getMoveCtrEvENUlPKNS_18QMetaTypeInterfaceEPvS6_E_4_FUNES5_S6_S6_@Base 6.2.0
 (optional=templinst)_ZZN9QtPrivate16QMetaTypeForTypeI5QSizeE13getDefaultCtrEvENUlPKNS_18QMetaTypeInterfaceEPvE_4_FUNES5_S6_@Base 6.2.0
 (optional=templinst)_ZZN9QtPrivate16QMetaTypeForTypeI7QStringE10getCopyCtrEvENUlPKNS_18QMetaTypeInterfaceEPvPKvE_4_FUNES5_S6_S8_@Base 6.2.0
 (optional=templinst)_ZZN9QtPrivate16QMetaTypeForTypeI7QStringE10getMoveCtrEvENUlPKNS_18QMetaTypeInterfaceEPvS6_E_4_FUNES5_S6_S6_@Base 6.2.0
 (optional=templinst)_ZZN9QtPrivate16QMetaTypeForTypeI7QStringE13getDefaultCtrEvENUlPKNS_18QMetaTypeInterfaceEPvE_4_FUNES5_S6_@Base 6.2.0
 (optional=templinst)_ZZN9QtPrivate16QMetaTypeForTypeI7QStringE7getDtorEvENUlPKNS_18QMetaTypeInterfaceEPvE_4_FUNES5_S6_@Base 6.2.0
 (optional=templinst)_ZZN9QtPrivate16QMetaTypeForTypeI8QVariantE10getCopyCtrEvENUlPKNS_18QMetaTypeInterfaceEPvPKvE_4_FUNES5_S6_S8_@Base 6.2.0
 (optional=templinst)_ZZN9QtPrivate16QMetaTypeForTypeI8QVariantE10getMoveCtrEvENUlPKNS_18QMetaTypeInterfaceEPvS6_E_4_FUNES5_S6_S6_@Base 6.2.0
 (optional=templinst)_ZZN9QtPrivate16QMetaTypeForTypeI8QVariantE13getDefaultCtrEvENUlPKNS_18QMetaTypeInterfaceEPvE_4_FUNES5_S6_@Base 6.2.0
 (optional=templinst)_ZZN9QtPrivate16QMetaTypeForTypeI8QVariantE7getDtorEvENUlPKNS_18QMetaTypeInterfaceEPvE_4_FUNES5_S6_@Base 6.2.0
 (optional=templinst)_ZZN9QtPrivate16QMetaTypeForTypeI9QDateTimeE10getCopyCtrEvENUlPKNS_18QMetaTypeInterfaceEPvPKvE_4_FUNES5_S6_S8_@Base 6.2.0
 (optional=templinst)_ZZN9QtPrivate16QMetaTypeForTypeI9QDateTimeE10getMoveCtrEvENUlPKNS_18QMetaTypeInterfaceEPvS6_E_4_FUNES5_S6_S6_@Base 6.2.0
 (optional=templinst)_ZZN9QtPrivate16QMetaTypeForTypeI9QDateTimeE13getDefaultCtrEvENUlPKNS_18QMetaTypeInterfaceEPvE_4_FUNES5_S6_@Base 6.2.0
 (optional=templinst)_ZZN9QtPrivate16QMetaTypeForTypeI9QDateTimeE7getDtorEvENUlPKNS_18QMetaTypeInterfaceEPvE_4_FUNES5_S6_@Base 6.2.0
 (optional=templinst)_ZZN9QtPrivate16QMetaTypeForTypeIP7QObjectE10getCopyCtrEvENUlPKNS_18QMetaTypeInterfaceEPvPKvE_4_FUNES6_S7_S9_@Base 6.2.0
 (optional=templinst)_ZZN9QtPrivate16QMetaTypeForTypeIP7QObjectE10getMoveCtrEvENUlPKNS_18QMetaTypeInterfaceEPvS7_E_4_FUNES6_S7_S7_@Base 6.2.0
 (optional=templinst)_ZZN9QtPrivate16QMetaTypeForTypeIP7QObjectE13getDefaultCtrEvENUlPKNS_18QMetaTypeInterfaceEPvE_4_FUNES6_S7_@Base 6.2.0
 (optional=templinst)_ZZN9QtPrivate16QMetaTypeForTypeIbE10getCopyCtrEvENUlPKNS_18QMetaTypeInterfaceEPvPKvE_4_FUNES4_S5_S7_@Base 6.2.0
 (optional=templinst)_ZZN9QtPrivate16QMetaTypeForTypeIbE10getMoveCtrEvENUlPKNS_18QMetaTypeInterfaceEPvS5_E_4_FUNES4_S5_S5_@Base 6.2.0
 (optional=templinst)_ZZN9QtPrivate16QMetaTypeForTypeIbE13getDefaultCtrEvENUlPKNS_18QMetaTypeInterfaceEPvE_4_FUNES4_S5_@Base 6.2.0
 (optional=templinst)_ZZN9QtPrivate16QMetaTypeForTypeIdE10getCopyCtrEvENUlPKNS_18QMetaTypeInterfaceEPvPKvE_4_FUNES4_S5_S7_@Base 6.2.0
 (optional=templinst)_ZZN9QtPrivate16QMetaTypeForTypeIdE10getMoveCtrEvENUlPKNS_18QMetaTypeInterfaceEPvS5_E_4_FUNES4_S5_S5_@Base 6.2.0
 (optional=templinst)_ZZN9QtPrivate16QMetaTypeForTypeIdE13getDefaultCtrEvENUlPKNS_18QMetaTypeInterfaceEPvE_4_FUNES4_S5_@Base 6.2.0
 (optional=templinst)_ZZN9QtPrivate16QMetaTypeForTypeIiE10getCopyCtrEvENUlPKNS_18QMetaTypeInterfaceEPvPKvE_4_FUNES4_S5_S7_@Base 6.2.0
 (optional=templinst)_ZZN9QtPrivate16QMetaTypeForTypeIiE10getMoveCtrEvENUlPKNS_18QMetaTypeInterfaceEPvS5_E_4_FUNES4_S5_S5_@Base 6.2.0
 (optional=templinst)_ZZN9QtPrivate16QMetaTypeForTypeIiE13getDefaultCtrEvENUlPKNS_18QMetaTypeInterfaceEPvE_4_FUNES4_S5_@Base 6.2.0
