# SymbolsHelper-Confirmed: 6.2.0 amd64
libQt6QmlCore.so.6 libqt6qmlcore6 #MINVER#
| libqt6qmlcore6 #MINVER#, qt6-declarative-abi (= 6.2.2)
* Build-Depends-Packages: qt6-declarative-dev, qt6-declarative-private-dev
 _Z25qml_register_types_QtCorev@Base 6.2.0
 _ZGVZN9QMetaType21registerConverterImplI5QListI4QUrlE9QIterableI13QMetaSequenceEEEbSt8functionIFbPKvPvEES_S_E10unregister@Base 6.2.0
 _ZGVZN9QMetaType23registerMutableViewImplI5QListI4QUrlE9QIterableI13QMetaSequenceEEEbSt8functionIFbPvS8_EES_S_E10unregister@Base 6.2.0
 _ZN13QMetaSequence12MetaSequenceI5QListI4QUrlEE5valueE@Base 6.2.0
 _ZN17QQmlStandardPaths11qt_metacallEN11QMetaObject4CallEiPPv@Base 6.2.0
 _ZN17QQmlStandardPaths11qt_metacastEPKc@Base 6.2.0
 _ZN17QQmlStandardPaths16staticMetaObjectE@Base 6.2.0
 _ZN17QQmlStandardPathsC1EP7QObject@Base 6.2.0
 _ZN17QQmlStandardPathsC2EP7QObject@Base 6.2.0
 _ZNK17QQmlStandardPaths10metaObjectEv@Base 6.2.0
 _ZNK17QQmlStandardPaths11displayNameEN14QStandardPaths16StandardLocationE@Base 6.2.0
 _ZNK17QQmlStandardPaths14findExecutableERK7QStringRK5QListIS0_E@Base 6.2.0
 _ZNK17QQmlStandardPaths16writableLocationEN14QStandardPaths16StandardLocationE@Base 6.2.0
 _ZNK17QQmlStandardPaths17standardLocationsEN14QStandardPaths16StandardLocationE@Base 6.2.0
 _ZNK17QQmlStandardPaths6locateEN14QStandardPaths16StandardLocationERK7QString6QFlagsINS0_12LocateOptionEE@Base 6.2.0
 _ZNK17QQmlStandardPaths9locateAllEN14QStandardPaths16StandardLocationERK7QString6QFlagsINS0_12LocateOptionEE@Base 6.2.0
 _ZTI17QQmlStandardPaths@Base 6.2.0
 _ZTIFP7QObjectP10QQmlEngineP9QJSEngineE@Base 6.2.0
 _ZTIPFP7QObjectP10QQmlEngineP9QJSEngineE@Base 6.2.0
 _ZTIZN9QMetaType17registerConverterI5QListI4QUrlE9QIterableI13QMetaSequenceEN9QtPrivate33QSequentialIterableConvertFunctorIS3_EEEEbT1_EUlPKvPvE_@Base 6.2.0
 _ZTIZN9QMetaType19registerMutableViewI5QListI4QUrlE9QIterableI13QMetaSequenceEN9QtPrivate37QSequentialIterableMutableViewFunctorIS3_EEEEbT1_EUlPvSB_E_@Base 6.2.0
 _ZTS17QQmlStandardPaths@Base 6.2.0
 _ZTSFP7QObjectP10QQmlEngineP9QJSEngineE@Base 6.2.0
 _ZTSPFP7QObjectP10QQmlEngineP9QJSEngineE@Base 6.2.0
 _ZTSZN9QMetaType17registerConverterI5QListI4QUrlE9QIterableI13QMetaSequenceEN9QtPrivate33QSequentialIterableConvertFunctorIS3_EEEEbT1_EUlPKvPvE_@Base 6.2.0
 _ZTSZN9QMetaType19registerMutableViewI5QListI4QUrlE9QIterableI13QMetaSequenceEN9QtPrivate37QSequentialIterableMutableViewFunctorIS3_EEEEbT1_EUlPvSB_E_@Base 6.2.0
 _ZTV17QQmlStandardPaths@Base 6.2.0
 (optional=templinst)_ZZN9QMetaType21registerConverterImplI5QListI4QUrlE9QIterableI13QMetaSequenceEEEbSt8functionIFbPKvPvEES_S_E10unregister@Base 6.2.0
 (optional=templinst)_ZZN9QMetaType23registerMutableViewImplI5QListI4QUrlE9QIterableI13QMetaSequenceEEEbSt8functionIFbPvS8_EES_S_E10unregister@Base 6.2.0
 (optional=templinst)_ZZN9QtPrivate16QMetaTypeForTypeI4QUrlE10getCopyCtrEvENUlPKNS_18QMetaTypeInterfaceEPvPKvE_4_FUNES5_S6_S8_@Base 6.2.0
 (optional=templinst)_ZZN9QtPrivate16QMetaTypeForTypeI4QUrlE10getMoveCtrEvENUlPKNS_18QMetaTypeInterfaceEPvS6_E_4_FUNES5_S6_S6_@Base 6.2.0
 (optional=templinst)_ZZN9QtPrivate16QMetaTypeForTypeI4QUrlE13getDefaultCtrEvENUlPKNS_18QMetaTypeInterfaceEPvE_4_FUNES5_S6_@Base 6.2.0
 (optional=templinst)_ZZN9QtPrivate16QMetaTypeForTypeI4QUrlE7getDtorEvENUlPKNS_18QMetaTypeInterfaceEPvE_4_FUNES5_S6_@Base 6.2.0
 (optional=templinst)_ZZN9QtPrivate16QMetaTypeForTypeI5QListI7QStringEE10getCopyCtrEvENUlPKNS_18QMetaTypeInterfaceEPvPKvE_4_FUNES7_S8_SA_@Base 6.2.0
 (optional=templinst)_ZZN9QtPrivate16QMetaTypeForTypeI5QListI7QStringEE10getMoveCtrEvENUlPKNS_18QMetaTypeInterfaceEPvS8_E_4_FUNES7_S8_S8_@Base 6.2.0
 (optional=templinst)_ZZN9QtPrivate16QMetaTypeForTypeI5QListI7QStringEE13getDefaultCtrEvENUlPKNS_18QMetaTypeInterfaceEPvE_4_FUNES7_S8_@Base 6.2.0
 (optional=templinst)_ZZN9QtPrivate16QMetaTypeForTypeI5QListI7QStringEE7getDtorEvENUlPKNS_18QMetaTypeInterfaceEPvE_4_FUNES7_S8_@Base 6.2.0
 (optional=templinst)_ZZN9QtPrivate16QMetaTypeForTypeI7QStringE10getCopyCtrEvENUlPKNS_18QMetaTypeInterfaceEPvPKvE_4_FUNES5_S6_S8_@Base 6.2.0
 (optional=templinst)_ZZN9QtPrivate16QMetaTypeForTypeI7QStringE10getMoveCtrEvENUlPKNS_18QMetaTypeInterfaceEPvS6_E_4_FUNES5_S6_S6_@Base 6.2.0
 (optional=templinst)_ZZN9QtPrivate16QMetaTypeForTypeI7QStringE13getDefaultCtrEvENUlPKNS_18QMetaTypeInterfaceEPvE_4_FUNES5_S6_@Base 6.2.0
 (optional=templinst)_ZZN9QtPrivate16QMetaTypeForTypeI7QStringE7getDtorEvENUlPKNS_18QMetaTypeInterfaceEPvE_4_FUNES5_S6_@Base 6.2.0
