# SymbolsHelper-Confirmed: 6.2.0 amd64
libQt6QuickWidgets.so.6 libqt6quickwidgets6 #MINVER#
| libqt6quickwidgets6 #MINVER#, qt6-declarative-abi (= 6.2.2)
* Build-Depends-Packages: qt6-declarative-dev, qt6-declarative-private-dev
 _ZN12QQuickWidget10paintEventEP11QPaintEvent@Base 6.2.0
 _ZN12QQuickWidget10setContentERK4QUrlP13QQmlComponentP7QObject@Base 6.2.0
 _ZN12QQuickWidget10timerEventEP11QTimerEvent@Base 6.2.0
 _ZN12QQuickWidget10wheelEventEP11QWheelEvent@Base 6.2.0
 _ZN12QQuickWidget11qt_metacallEN11QMetaObject4CallEiPPv@Base 6.2.0
 _ZN12QQuickWidget11qt_metacastEPKc@Base 6.2.0
 _ZN12QQuickWidget11resizeEventEP12QResizeEvent@Base 6.2.0
 _ZN12QQuickWidget12focusInEventEP11QFocusEvent@Base 6.2.0
 _ZN12QQuickWidget13dragMoveEventEP14QDragMoveEvent@Base 6.2.0
 _ZN12QQuickWidget13focusOutEventEP11QFocusEvent@Base 6.2.0
 _ZN12QQuickWidget13keyPressEventEP9QKeyEvent@Base 6.2.0
 _ZN12QQuickWidget13setClearColorERK6QColor@Base 6.2.0
 _ZN12QQuickWidget13setResizeModeENS_10ResizeModeE@Base 6.2.0
 _ZN12QQuickWidget13statusChangedENS_6StatusE@Base 6.2.0
 _ZN12QQuickWidget13triggerUpdateEv@Base 6.2.0
 _ZN12QQuickWidget14dragEnterEventEP15QDragEnterEvent@Base 6.2.0
 _ZN12QQuickWidget14dragLeaveEventEP15QDragLeaveEvent@Base 6.2.0
 _ZN12QQuickWidget14mouseMoveEventEP11QMouseEvent@Base 6.2.0
 _ZN12QQuickWidget15continueExecuteEv@Base 6.2.0
 _ZN12QQuickWidget15keyReleaseEventEP9QKeyEvent@Base 6.2.0
 _ZN12QQuickWidget15mousePressEventEP11QMouseEvent@Base 6.2.0
 _ZN12QQuickWidget15sceneGraphErrorEN12QQuickWindow15SceneGraphErrorERK7QString@Base 6.2.0
 _ZN12QQuickWidget16staticMetaObjectE@Base 6.2.0
 _ZN12QQuickWidget17mouseReleaseEventEP11QMouseEvent@Base 6.2.0
 _ZN12QQuickWidget18focusNextPrevChildEb@Base 6.2.0
 _ZN12QQuickWidget21mouseDoubleClickEventEP11QMouseEvent@Base 6.2.0
 _ZN12QQuickWidget23createFramebufferObjectEv@Base 6.2.0
 _ZN12QQuickWidget24destroyFramebufferObjectEv@Base 6.2.0
 _ZN12QQuickWidget27propagateFocusObjectChangedEP7QObject@Base 6.2.0
 _ZN12QQuickWidget5eventEP6QEvent@Base 6.2.0
 _ZN12QQuickWidget9dropEventEP10QDropEvent@Base 6.2.0
 _ZN12QQuickWidget9hideEventEP10QHideEvent@Base 6.2.0
 _ZN12QQuickWidget9setFormatERK14QSurfaceFormat@Base 6.2.0
 _ZN12QQuickWidget9setSourceERK4QUrl@Base 6.2.0
 _ZN12QQuickWidget9showEventEP10QShowEvent@Base 6.2.0
 _ZN12QQuickWidgetC1EP10QQmlEngineP7QWidget@Base 6.2.0
 _ZN12QQuickWidgetC1EP7QWidget@Base 6.2.0
 _ZN12QQuickWidgetC1ERK4QUrlP7QWidget@Base 6.2.0
 _ZN12QQuickWidgetC2EP10QQmlEngineP7QWidget@Base 6.2.0
 _ZN12QQuickWidgetC2EP7QWidget@Base 6.2.0
 _ZN12QQuickWidgetC2ERK4QUrlP7QWidget@Base 6.2.0
 _ZN12QQuickWidgetD0Ev@Base 6.2.0
 _ZN12QQuickWidgetD1Ev@Base 6.2.0
 _ZN12QQuickWidgetD2Ev@Base 6.2.0
 _ZNK12QQuickWidget10metaObjectEv@Base 6.2.0
 _ZNK12QQuickWidget10resizeModeEv@Base 6.2.0
 _ZNK12QQuickWidget10rootObjectEv@Base 6.2.0
 _ZNK12QQuickWidget11initialSizeEv@Base 6.2.0
 _ZNK12QQuickWidget11quickWindowEv@Base 6.2.0
 _ZNK12QQuickWidget11rootContextEv@Base 6.2.0
 _ZNK12QQuickWidget15grabFramebufferEv@Base 6.2.0
 _ZNK12QQuickWidget6engineEv@Base 6.2.0
 _ZNK12QQuickWidget6errorsEv@Base 6.2.0
 _ZNK12QQuickWidget6formatEv@Base 6.2.0
 _ZNK12QQuickWidget6sourceEv@Base 6.2.0
 _ZNK12QQuickWidget6statusEv@Base 6.2.0
 _ZNK12QQuickWidget8sizeHintEv@Base 6.2.0
 _ZTI12QQuickWidget@Base 6.2.0
 _ZTS12QQuickWidget@Base 6.2.0
 _ZTV12QQuickWidget@Base 6.2.0
 (optional=templinst)_ZZN9QtPrivate16QMetaTypeForTypeI4QUrlE10getCopyCtrEvENUlPKNS_18QMetaTypeInterfaceEPvPKvE_4_FUNES5_S6_S8_@Base 6.2.0
 (optional=templinst)_ZZN9QtPrivate16QMetaTypeForTypeI4QUrlE10getMoveCtrEvENUlPKNS_18QMetaTypeInterfaceEPvS6_E_4_FUNES5_S6_S6_@Base 6.2.0
 (optional=templinst)_ZZN9QtPrivate16QMetaTypeForTypeI4QUrlE13getDefaultCtrEvENUlPKNS_18QMetaTypeInterfaceEPvE_4_FUNES5_S6_@Base 6.2.0
 (optional=templinst)_ZZN9QtPrivate16QMetaTypeForTypeI4QUrlE7getDtorEvENUlPKNS_18QMetaTypeInterfaceEPvE_4_FUNES5_S6_@Base 6.2.0
 (optional=templinst)_ZZN9QtPrivate16QMetaTypeForTypeI6QRectFE10getCopyCtrEvENUlPKNS_18QMetaTypeInterfaceEPvPKvE_4_FUNES5_S6_S8_@Base 6.2.0
 (optional=templinst)_ZZN9QtPrivate16QMetaTypeForTypeI6QRectFE10getMoveCtrEvENUlPKNS_18QMetaTypeInterfaceEPvS6_E_4_FUNES5_S6_S6_@Base 6.2.0
 (optional=templinst)_ZZN9QtPrivate16QMetaTypeForTypeI6QRectFE13getDefaultCtrEvENUlPKNS_18QMetaTypeInterfaceEPvE_4_FUNES5_S6_@Base 6.2.0
 (optional=templinst)_ZZN9QtPrivate16QMetaTypeForTypeI7QPointFE10getCopyCtrEvENUlPKNS_18QMetaTypeInterfaceEPvPKvE_4_FUNES5_S6_S8_@Base 6.2.0
 (optional=templinst)_ZZN9QtPrivate16QMetaTypeForTypeI7QPointFE10getMoveCtrEvENUlPKNS_18QMetaTypeInterfaceEPvS6_E_4_FUNES5_S6_S6_@Base 6.2.0
 (optional=templinst)_ZZN9QtPrivate16QMetaTypeForTypeI7QPointFE13getDefaultCtrEvENUlPKNS_18QMetaTypeInterfaceEPvE_4_FUNES5_S6_@Base 6.2.0
 (optional=templinst)_ZZN9QtPrivate16QMetaTypeForTypeI7QStringE10getCopyCtrEvENUlPKNS_18QMetaTypeInterfaceEPvPKvE_4_FUNES5_S6_S8_@Base 6.2.0
 (optional=templinst)_ZZN9QtPrivate16QMetaTypeForTypeI7QStringE10getMoveCtrEvENUlPKNS_18QMetaTypeInterfaceEPvS6_E_4_FUNES5_S6_S6_@Base 6.2.0
 (optional=templinst)_ZZN9QtPrivate16QMetaTypeForTypeI7QStringE13getDefaultCtrEvENUlPKNS_18QMetaTypeInterfaceEPvE_4_FUNES5_S6_@Base 6.2.0
 (optional=templinst)_ZZN9QtPrivate16QMetaTypeForTypeI7QStringE7getDtorEvENUlPKNS_18QMetaTypeInterfaceEPvE_4_FUNES5_S6_@Base 6.2.0
 (optional=templinst)_ZZN9QtPrivate16QMetaTypeForTypeIP7QObjectE10getCopyCtrEvENUlPKNS_18QMetaTypeInterfaceEPvPKvE_4_FUNES6_S7_S9_@Base 6.2.0
 (optional=templinst)_ZZN9QtPrivate16QMetaTypeForTypeIP7QObjectE10getMoveCtrEvENUlPKNS_18QMetaTypeInterfaceEPvS7_E_4_FUNES6_S7_S7_@Base 6.2.0
 (optional=templinst)_ZZN9QtPrivate16QMetaTypeForTypeIP7QObjectE13getDefaultCtrEvENUlPKNS_18QMetaTypeInterfaceEPvE_4_FUNES6_S7_@Base 6.2.0
 (c++)"non-virtual thunk to QQuickWidget::~QQuickWidget()@Base" 6.2.0
