# SymbolsHelper-Confirmed: 6.2.1 amd64 armel armhf i386
libQt6QuickTemplates2.so.6 libqt6quicktemplates2-6 #MINVER#
| libqt6quicktemplates2-6 #MINVER#, qt6-declarative-abi (= 6.2.2)
* Build-Depends-Packages: qt6-declarative-dev, qt6-declarative-private-dev
 _Z32QQuickTemplates_initializeModulev@Base 6.2.0
 _Z36qml_register_types_QtQuick_Templatesv@Base 6.2.0
 _ZN10QQuickDial10setPressedEb@Base 6.2.0
 _ZN10QQuickDial10touchEventEP11QTouchEvent@Base 6.2.0
 _ZN10QQuickDial10wheelEventEP11QWheelEvent@Base 6.2.0
 _ZN10QQuickDial11fromChangedEv@Base 6.2.0
 _ZN10QQuickDial11liveChangedEv@Base 6.2.0
 _ZN10QQuickDial11qt_metacallEN11QMetaObject4CallEiPPv@Base 6.2.0
 _ZN10QQuickDial11qt_metacastEPKc@Base 6.2.0
 _ZN10QQuickDial11setSnapModeENS_8SnapModeE@Base 6.2.0
 _ZN10QQuickDial11setStepSizeEd@Base 6.2.0
 _ZN10QQuickDial11wrapChangedEv@Base 6.2.0
 _ZN10QQuickDial12angleChangedEv@Base 6.2.0
 _ZN10QQuickDial12mirrorChangeEv@Base 6.2.0
 _ZN10QQuickDial12setInputModeENS_9InputModeE@Base 6.2.0
 _ZN10QQuickDial12valueChangedEv@Base 6.2.0
 _ZN10QQuickDial13handleChangedEv@Base 6.2.0
 _ZN10QQuickDial13keyPressEventEP9QKeyEvent@Base 6.2.0
 _ZN10QQuickDial14pressedChangedEv@Base 6.2.0
 _ZN10QQuickDial15keyReleaseEventEP9QKeyEvent@Base 6.2.0
 _ZN10QQuickDial15mousePressEventEP11QMouseEvent@Base 6.2.0
 _ZN10QQuickDial15positionChangedEv@Base 6.2.0
 _ZN10QQuickDial15snapModeChangedEv@Base 6.2.0
 _ZN10QQuickDial15stepSizeChangedEv@Base 6.2.0
 _ZN10QQuickDial16inputModeChangedEv@Base 6.2.0
 _ZN10QQuickDial16staticMetaObjectE@Base 6.2.0
 _ZN10QQuickDial17componentCompleteEv@Base 6.2.0
 _ZN10QQuickDial26accessibilityActiveChangedEb@Base 6.2.0
 _ZN10QQuickDial5movedEv@Base 6.2.0
 _ZN10QQuickDial5setToEd@Base 6.2.0
 _ZN10QQuickDial7setFromEd@Base 6.2.0
 _ZN10QQuickDial7setLiveEb@Base 6.2.0
 _ZN10QQuickDial7setWrapEb@Base 6.2.0
 _ZN10QQuickDial8decreaseEv@Base 6.2.0
 _ZN10QQuickDial8increaseEv@Base 6.2.0
 _ZN10QQuickDial8setValueEd@Base 6.2.0
 _ZN10QQuickDial9setHandleEP10QQuickItem@Base 6.2.0
 _ZN10QQuickDial9toChangedEv@Base 6.2.0
 _ZN10QQuickDialC1EP10QQuickItem@Base 6.2.0
 _ZN10QQuickDialC2EP10QQuickItem@Base 6.2.0
 _ZN10QQuickIcon10resetCacheEv@Base 6.2.0
 _ZN10QQuickIcon10resetColorEv@Base 6.2.0
 _ZN10QQuickIcon10resetWidthEv@Base 6.2.0
 _ZN10QQuickIcon11resetHeightEv@Base 6.2.0
 _ZN10QQuickIcon11resetSourceEv@Base 6.2.0
 _ZN10QQuickIcon16staticMetaObjectE@Base 6.2.0
 _ZN10QQuickIcon7setNameERK7QString@Base 6.2.0
 _ZN10QQuickIcon8setCacheEb@Base 6.2.0
 _ZN10QQuickIcon8setColorERK6QColor@Base 6.2.0
 _ZN10QQuickIcon8setOwnerEP7QObject@Base 6.2.1
 _ZN10QQuickIcon8setWidthEi@Base 6.2.0
 _ZN10QQuickIcon9resetNameEv@Base 6.2.0
 _ZN10QQuickIcon9setHeightEi@Base 6.2.0
 _ZN10QQuickIcon9setSourceERK4QUrl@Base 6.2.0
 _ZN10QQuickIconC1ERKS_@Base 6.2.0
 _ZN10QQuickIconC1Ev@Base 6.2.0
 _ZN10QQuickIconC2ERKS_@Base 6.2.0
 _ZN10QQuickIconC2Ev@Base 6.2.0
 _ZN10QQuickIconD1Ev@Base 6.2.0
 _ZN10QQuickIconD2Ev@Base 6.2.0
 _ZN10QQuickIconaSERKS_@Base 6.2.0
 _ZN10QQuickMenu10insertItemEiP10QQuickItem@Base 6.2.0
 _ZN10QQuickMenu10insertMenuEiPS_@Base 6.2.0
 _ZN10QQuickMenu10itemChangeEN10QQuickItem10ItemChangeERKNS0_14ItemChangeDataE@Base 6.2.0
 _ZN10QQuickMenu10removeItemEP10QQuickItem@Base 6.2.0
 _ZN10QQuickMenu10removeMenuEPS_@Base 6.2.0
 _ZN10QQuickMenu10setCascadeEb@Base 6.2.0
 _ZN10QQuickMenu10setOverlapEd@Base 6.2.0
 _ZN10QQuickMenu10takeActionEi@Base 6.2.0
 _ZN10QQuickMenu10timerEventEP11QTimerEvent@Base 6.2.0
 _ZN10QQuickMenu11contentDataEv@Base 6.2.0
 _ZN10QQuickMenu11qt_metacallEN11QMetaObject4CallEiPPv@Base 6.2.0
 _ZN10QQuickMenu11qt_metacastEPKc@Base 6.2.0
 _ZN10QQuickMenu11setDelegateEP13QQmlComponent@Base 6.2.0
 _ZN10QQuickMenu12countChangedEv@Base 6.2.0
 _ZN10QQuickMenu12insertActionEiP12QQuickAction@Base 6.2.0
 _ZN10QQuickMenu12removeActionEP12QQuickAction@Base 6.2.0
 _ZN10QQuickMenu12resetCascadeEv@Base 6.2.0
 _ZN10QQuickMenu12titleChangedERK7QString@Base 6.2.0
 _ZN10QQuickMenu13keyPressEventEP9QKeyEvent@Base 6.2.0
 _ZN10QQuickMenu14cascadeChangedEb@Base 6.2.0
 _ZN10QQuickMenu14overlapChangedEv@Base 6.2.0
 _ZN10QQuickMenu15delegateChangedEv@Base 6.2.0
 _ZN10QQuickMenu15setCurrentIndexEi@Base 6.2.0
 _ZN10QQuickMenu16staticMetaObjectE@Base 6.2.0
 _ZN10QQuickMenu17componentCompleteEv@Base 6.2.0
 _ZN10QQuickMenu17contentItemChangeEP10QQuickItemS1_@Base 6.2.0
 _ZN10QQuickMenu19currentIndexChangedEv@Base 6.2.0
 _ZN10QQuickMenu5popupEP10QQuickItem@Base 6.2.0
 _ZN10QQuickMenu5popupEP14QQmlV4Function@Base 6.2.0
 _ZN10QQuickMenu5popupERK7QPointFP10QQuickItem@Base 6.2.0
 _ZN10QQuickMenu7addItemEP10QQuickItem@Base 6.2.0
 _ZN10QQuickMenu7addMenuEPS_@Base 6.2.0
 _ZN10QQuickMenu7dismissEv@Base 6.2.0
 _ZN10QQuickMenu8moveItemEii@Base 6.2.0
 _ZN10QQuickMenu8setTitleER7QString@Base 6.2.0
 _ZN10QQuickMenu8takeItemEi@Base 6.2.0
 _ZN10QQuickMenu8takeMenuEi@Base 6.2.0
 _ZN10QQuickMenu9addActionEP12QQuickAction@Base 6.2.0
 _ZN10QQuickMenuC1EP7QObject@Base 6.2.0
 _ZN10QQuickMenuC2EP7QObject@Base 6.2.0
 _ZN10QQuickMenuD0Ev@Base 6.2.0
 _ZN10QQuickMenuD1Ev@Base 6.2.0
 _ZN10QQuickMenuD2Ev@Base 6.2.0
 _ZN10QQuickPage11qt_metacallEN11QMetaObject4CallEiPPv@Base 6.2.0
 _ZN10QQuickPage11qt_metacastEPKc@Base 6.2.0
 _ZN10QQuickPage12titleChangedEv@Base 6.2.0
 _ZN10QQuickPage13footerChangedEv@Base 6.2.0
 _ZN10QQuickPage13headerChangedEv@Base 6.2.0
 _ZN10QQuickPage13spacingChangeEdd@Base 6.2.0
 _ZN10QQuickPage16staticMetaObjectE@Base 6.2.0
 _ZN10QQuickPage17componentCompleteEv@Base 6.2.0
 _ZN10QQuickPage26accessibilityActiveChangedEb@Base 6.2.0
 _ZN10QQuickPage26implicitFooterWidthChangedEv@Base 6.2.0
 _ZN10QQuickPage26implicitHeaderWidthChangedEv@Base 6.2.0
 _ZN10QQuickPage27implicitFooterHeightChangedEv@Base 6.2.0
 _ZN10QQuickPage27implicitHeaderHeightChangedEv@Base 6.2.0
 _ZN10QQuickPage8setTitleERK7QString@Base 6.2.0
 _ZN10QQuickPage9setFooterEP10QQuickItem@Base 6.2.0
 _ZN10QQuickPage9setHeaderEP10QQuickItem@Base 6.2.0
 _ZN10QQuickPageC1EP10QQuickItem@Base 6.2.0
 _ZN10QQuickPageC1ER17QQuickPagePrivateP10QQuickItem@Base 6.2.0
 _ZN10QQuickPageC2EP10QQuickItem@Base 6.2.0
 _ZN10QQuickPageC2ER17QQuickPagePrivateP10QQuickItem@Base 6.2.0
 _ZN10QQuickPageD0Ev@Base 6.2.0
 _ZN10QQuickPageD1Ev@Base 6.2.0
 _ZN10QQuickPageD2Ev@Base 6.2.0
 _ZN10QQuickPane11qt_metacallEN11QMetaObject4CallEiPPv@Base 6.2.0
 _ZN10QQuickPane11qt_metacastEPKc@Base 6.2.0
 _ZN10QQuickPane15setContentWidthEd@Base 6.2.0
 _ZN10QQuickPane16setContentHeightEd@Base 6.2.0
 _ZN10QQuickPane16staticMetaObjectE@Base 6.2.0
 _ZN10QQuickPane17componentCompleteEv@Base 6.2.0
 _ZN10QQuickPane17contentItemChangeEP10QQuickItemS1_@Base 6.2.0
 _ZN10QQuickPane17contentSizeChangeERK6QSizeFS2_@Base 6.2.0
 _ZN10QQuickPane17resetContentWidthEv@Base 6.2.0
 _ZN10QQuickPane18resetContentHeightEv@Base 6.2.0
 _ZN10QQuickPane19contentWidthChangedEv@Base 6.2.0
 _ZN10QQuickPane20contentHeightChangedEv@Base 6.2.0
 _ZN10QQuickPane22contentChildrenChangedEv@Base 6.2.0
 _ZN10QQuickPaneC1EP10QQuickItem@Base 6.2.0
 _ZN10QQuickPaneC1ER17QQuickPanePrivateP10QQuickItem@Base 6.2.0
 _ZN10QQuickPaneC2EP10QQuickItem@Base 6.2.0
 _ZN10QQuickPaneC2ER17QQuickPanePrivateP10QQuickItem@Base 6.2.0
 _ZN10QQuickPaneD0Ev@Base 6.2.0
 _ZN10QQuickPaneD1Ev@Base 6.2.0
 _ZN10QQuickPaneD2Ev@Base 6.2.0
 _ZN11QQuickFrame11qt_metacallEN11QMetaObject4CallEiPPv@Base 6.2.0
 _ZN11QQuickFrame11qt_metacastEPKc@Base 6.2.0
 _ZN11QQuickFrame16staticMetaObjectE@Base 6.2.0
 _ZN11QQuickFrameC1EP10QQuickItem@Base 6.2.0
 _ZN11QQuickFrameC1ER18QQuickFramePrivateP10QQuickItem@Base 6.2.0
 _ZN11QQuickFrameC2EP10QQuickItem@Base 6.2.0
 _ZN11QQuickFrameC2ER18QQuickFramePrivateP10QQuickItem@Base 6.2.0
 _ZN11QQuickLabel10classBeginEv@Base 6.2.0
 _ZN11QQuickLabel10itemChangeEN10QQuickItem10ItemChangeERKNS0_14ItemChangeDataE@Base 6.2.0
 _ZN11QQuickLabel11fontChangedEv@Base 6.2.0
 _ZN11QQuickLabel11insetChangeERK9QMarginsFS2_@Base 6.2.0
 _ZN11QQuickLabel11qt_metacallEN11QMetaObject4CallEiPPv@Base 6.2.0
 _ZN11QQuickLabel11qt_metacastEPKc@Base 6.2.0
 _ZN11QQuickLabel11setTopInsetEd@Base 6.2.0
 _ZN11QQuickLabel12setLeftInsetEd@Base 6.2.0
 _ZN11QQuickLabel13resetTopInsetEv@Base 6.2.0
 _ZN11QQuickLabel13setBackgroundEP10QQuickItem@Base 6.2.0
 _ZN11QQuickLabel13setRightInsetEd@Base 6.2.0
 _ZN11QQuickLabel14geometryChangeERK6QRectFS2_@Base 6.2.0
 _ZN11QQuickLabel14resetLeftInsetEv@Base 6.2.0
 _ZN11QQuickLabel14setBottomInsetEd@Base 6.2.0
 _ZN11QQuickLabel15resetRightInsetEv@Base 6.2.0
 _ZN11QQuickLabel15topInsetChangedEv@Base 6.2.0
 _ZN11QQuickLabel16leftInsetChangedEv@Base 6.2.0
 _ZN11QQuickLabel16resetBottomInsetEv@Base 6.2.0
 _ZN11QQuickLabel16staticMetaObjectE@Base 6.2.0
 _ZN11QQuickLabel17backgroundChangedEv@Base 6.2.0
 _ZN11QQuickLabel17componentCompleteEv@Base 6.2.0
 _ZN11QQuickLabel17rightInsetChangedEv@Base 6.2.0
 _ZN11QQuickLabel18bottomInsetChangedEv@Base 6.2.0
 _ZN11QQuickLabel30implicitBackgroundWidthChangedEv@Base 6.2.0
 _ZN11QQuickLabel31implicitBackgroundHeightChangedEv@Base 6.2.0
 _ZN11QQuickLabel7setFontERK5QFont@Base 6.2.0
 _ZN11QQuickLabelC1EP10QQuickItem@Base 6.2.0
 _ZN11QQuickLabelC2EP10QQuickItem@Base 6.2.0
 _ZN11QQuickLabelD0Ev@Base 6.2.0
 _ZN11QQuickLabelD1Ev@Base 6.2.0
 _ZN11QQuickLabelD2Ev@Base 6.2.0
 _ZN11QQuickPopup10classBeginEv@Base 6.2.0
 _ZN11QQuickPopup10dimChangedEv@Base 6.2.0
 _ZN11QQuickPopup10fontChangeERK5QFontS2_@Base 6.2.0
 _ZN11QQuickPopup10itemChangeEN10QQuickItem10ItemChangeERKNS0_14ItemChangeDataE@Base 6.2.0
 _ZN11QQuickPopup10resetWidthEv@Base 6.2.0
 _ZN11QQuickPopup10setEnabledEb@Base 6.2.0
 _ZN11QQuickPopup10setMarginsEd@Base 6.2.0
 _ZN11QQuickPopup10setOpacityEd@Base 6.2.0
 _ZN11QQuickPopup10setPaddingEd@Base 6.2.0
 _ZN11QQuickPopup10setSpacingEd@Base 6.2.0
 _ZN11QQuickPopup10setVisibleEb@Base 6.2.0
 _ZN11QQuickPopup10touchEventEP11QTouchEvent@Base 6.2.0
 _ZN11QQuickPopup10wheelEventEP11QWheelEvent@Base 6.2.0
 _ZN11QQuickPopup11aboutToHideEv@Base 6.2.0
 _ZN11QQuickPopup11aboutToShowEv@Base 6.2.0
 _ZN11QQuickPopup11clipChangedEv@Base 6.2.0
 _ZN11QQuickPopup11exitChangedEv@Base 6.2.0
 _ZN11QQuickPopup11fontChangedEv@Base 6.2.0
 _ZN11QQuickPopup11insetChangeERK9QMarginsFS2_@Base 6.2.0
 _ZN11QQuickPopup11qt_metacallEN11QMetaObject4CallEiPPv@Base 6.2.0
 _ZN11QQuickPopup11qt_metacastEPKc@Base 6.2.0
 _ZN11QQuickPopup11resetHeightEv@Base 6.2.0
 _ZN11QQuickPopup11resetLocaleEv@Base 6.2.0
 _ZN11QQuickPopup11setPositionERK7QPointF@Base 6.2.0
 _ZN11QQuickPopup11setTopInsetEd@Base 6.2.0
 _ZN11QQuickPopup12enterChangedEv@Base 6.2.0
 _ZN11QQuickPopup12focusChangedEv@Base 6.2.0
 _ZN11QQuickPopup12focusInEventEP11QFocusEvent@Base 6.2.0
 _ZN11QQuickPopup12localeChangeERK7QLocaleS2_@Base 6.2.0
 _ZN11QQuickPopup12modalChangedEv@Base 6.2.0
 _ZN11QQuickPopup12overlayEventEP10QQuickItemP6QEvent@Base 6.2.0
 _ZN11QQuickPopup12resetMarginsEv@Base 6.2.0
 _ZN11QQuickPopup12resetPaddingEv@Base 6.2.0
 _ZN11QQuickPopup12resetSpacingEv@Base 6.2.0
 _ZN11QQuickPopup12scaleChangedEv@Base 6.2.0
 _ZN11QQuickPopup12setLeftInsetEd@Base 6.2.0
 _ZN11QQuickPopup12setTopMarginEd@Base 6.2.0
 _ZN11QQuickPopup12widthChangedEv@Base 6.2.0
 _ZN11QQuickPopup13focusOutEventEP11QFocusEvent@Base 6.2.0
 _ZN11QQuickPopup13heightChangedEv@Base 6.2.0
 _ZN11QQuickPopup13keyPressEventEP9QKeyEvent@Base 6.2.0
 _ZN11QQuickPopup13localeChangedEv@Base 6.2.0
 _ZN11QQuickPopup13marginsChangeERK9QMarginsFS2_@Base 6.2.0
 _ZN11QQuickPopup13openedChangedEv@Base 6.2.0
 _ZN11QQuickPopup13paddingChangeERK9QMarginsFS2_@Base 6.2.0
 _ZN11QQuickPopup13parentChangedEv@Base 6.2.0
 _ZN11QQuickPopup13resetTopInsetEv@Base 6.2.0
 _ZN11QQuickPopup13setBackgroundEP10QQuickItem@Base 6.2.0
 _ZN11QQuickPopup13setLeftMarginEd@Base 6.2.0
 _ZN11QQuickPopup13setParentItemEP10QQuickItem@Base 6.2.0
 _ZN11QQuickPopup13setRightInsetEd@Base 6.2.0
 _ZN11QQuickPopup13setTopPaddingEd@Base 6.2.0
 _ZN11QQuickPopup13spacingChangeEdd@Base 6.2.0
 _ZN11QQuickPopup13windowChangedEP12QQuickWindow@Base 6.2.0
 _ZN11QQuickPopup14enabledChangedEv@Base 6.2.0
 _ZN11QQuickPopup14geometryChangeERK6QRectFS2_@Base 6.2.0
 _ZN11QQuickPopup14marginsChangedEv@Base 6.2.0
 _ZN11QQuickPopup14mouseMoveEventEP11QMouseEvent@Base 6.2.0
 _ZN11QQuickPopup14opacityChangedEv@Base 6.2.0
 _ZN11QQuickPopup14paddingChangedEv@Base 6.2.0
 _ZN11QQuickPopup14paletteChangedEv@Base 6.2.0
 _ZN11QQuickPopup14paletteCreatedEv@Base 6.2.0
 _ZN11QQuickPopup14resetLeftInsetEv@Base 6.2.0
 _ZN11QQuickPopup14resetTopMarginEv@Base 6.2.0
 _ZN11QQuickPopup14setBottomInsetEd@Base 6.2.0
 _ZN11QQuickPopup14setClosePolicyE6QFlagsINS_15ClosePolicyFlagEE@Base 6.2.0
 _ZN11QQuickPopup14setContentItemEP10QQuickItem@Base 6.2.0
 _ZN11QQuickPopup14setLeftPaddingEd@Base 6.2.0
 _ZN11QQuickPopup14setRightMarginEd@Base 6.2.0
 _ZN11QQuickPopup14spacingChangedEv@Base 6.2.0
 _ZN11QQuickPopup14visibleChangedEv@Base 6.2.0
 _ZN11QQuickPopup15keyReleaseEventEP9QKeyEvent@Base 6.2.0
 _ZN11QQuickPopup15mirroredChangedEv@Base 6.2.0
 _ZN11QQuickPopup15mousePressEventEP11QMouseEvent@Base 6.2.0
 _ZN11QQuickPopup15resetLeftMarginEv@Base 6.2.0
 _ZN11QQuickPopup15resetParentItemEv@Base 6.2.0
 _ZN11QQuickPopup15resetRightInsetEv@Base 6.2.0
 _ZN11QQuickPopup15resetTopPaddingEv@Base 6.2.0
 _ZN11QQuickPopup15setBottomMarginEd@Base 6.2.0
 _ZN11QQuickPopup15setContentWidthEd@Base 6.2.0
 _ZN11QQuickPopup15setRightPaddingEd@Base 6.2.0
 _ZN11QQuickPopup15topInsetChangedEv@Base 6.2.0
 _ZN11QQuickPopup16forceActiveFocusEN2Qt11FocusReasonE@Base 6.2.0
 _ZN11QQuickPopup16leftInsetChangedEv@Base 6.2.0
 _ZN11QQuickPopup16mouseUngrabEventEv@Base 6.2.0
 _ZN11QQuickPopup16resetBottomInsetEv@Base 6.2.0
 _ZN11QQuickPopup16resetClosePolicyEv@Base 6.2.0
 _ZN11QQuickPopup16resetLeftPaddingEv@Base 6.2.0
 _ZN11QQuickPopup16resetRightMarginEv@Base 6.2.0
 _ZN11QQuickPopup16setBottomPaddingEd@Base 6.2.0
 _ZN11QQuickPopup16setContentHeightEd@Base 6.2.0
 _ZN11QQuickPopup16setImplicitWidthEd@Base 6.2.0
 _ZN11QQuickPopup16staticMetaObjectE@Base 6.2.0
 _ZN11QQuickPopup16topMarginChangedEv@Base 6.2.0
 _ZN11QQuickPopup16touchUngrabEventEv@Base 6.2.0
 _ZN11QQuickPopup17backgroundChangedEv@Base 6.2.0
 _ZN11QQuickPopup17componentCompleteEv@Base 6.2.0
 _ZN11QQuickPopup17contentItemChangeEP10QQuickItemS1_@Base 6.2.0
 _ZN11QQuickPopup17contentSizeChangeERK6QSizeFS2_@Base 6.2.0
 _ZN11QQuickPopup17leftMarginChangedEv@Base 6.2.0
 _ZN11QQuickPopup17mouseReleaseEventEP11QMouseEvent@Base 6.2.0
 _ZN11QQuickPopup17resetBottomMarginEv@Base 6.2.0
 _ZN11QQuickPopup17resetRightPaddingEv@Base 6.2.0
 _ZN11QQuickPopup17rightInsetChangedEv@Base 6.2.0
 _ZN11QQuickPopup17setImplicitHeightEd@Base 6.2.0
 _ZN11QQuickPopup17topPaddingChangedEv@Base 6.2.0
 _ZN11QQuickPopup18accessiblePropertyEPKc@Base 6.2.0
 _ZN11QQuickPopup18activeFocusChangedEv@Base 6.2.0
 _ZN11QQuickPopup18bottomInsetChangedEv@Base 6.2.0
 _ZN11QQuickPopup18closePolicyChangedEv@Base 6.2.0
 _ZN11QQuickPopup18contentItemChangedEv@Base 6.2.0
 _ZN11QQuickPopup18leftPaddingChangedEv@Base 6.2.0
 _ZN11QQuickPopup18resetBottomPaddingEv@Base 6.2.0
 _ZN11QQuickPopup18rightMarginChangedEv@Base 6.2.0
 _ZN11QQuickPopup18setTransformOriginENS_15TransformOriginE@Base 6.2.0
 _ZN11QQuickPopup18setVerticalPaddingEd@Base 6.2.0
 _ZN11QQuickPopup19bottomMarginChangedEv@Base 6.2.0
 _ZN11QQuickPopup19contentWidthChangedEv@Base 6.2.0
 _ZN11QQuickPopup19rightPaddingChangedEv@Base 6.2.0
 _ZN11QQuickPopup20bottomPaddingChangedEv@Base 6.2.0
 _ZN11QQuickPopup20contentHeightChangedEv@Base 6.2.0
 _ZN11QQuickPopup20implicitWidthChangedEv@Base 6.2.0
 _ZN11QQuickPopup20resetVerticalPaddingEv@Base 6.2.0
 _ZN11QQuickPopup20setHorizontalPaddingEd@Base 6.2.0
 _ZN11QQuickPopup21availableWidthChangedEv@Base 6.2.0
 _ZN11QQuickPopup21childMouseEventFilterEP10QQuickItemP6QEvent@Base 6.2.0
 _ZN11QQuickPopup21implicitHeightChangedEv@Base 6.2.0
 _ZN11QQuickPopup21mouseDoubleClickEventEP11QMouseEvent@Base 6.2.0
 _ZN11QQuickPopup21setAccessiblePropertyEPKcRK8QVariant@Base 6.2.0
 _ZN11QQuickPopup22availableHeightChangedEv@Base 6.2.0
 _ZN11QQuickPopup22contentChildrenChangedEv@Base 6.2.0
 _ZN11QQuickPopup22maybeSetAccessibleNameERK7QString@Base 6.2.0
 _ZN11QQuickPopup22resetHorizontalPaddingEv@Base 6.2.0
 _ZN11QQuickPopup22verticalPaddingChangedEv@Base 6.2.0
 _ZN11QQuickPopup24horizontalPaddingChangedEv@Base 6.2.0
 _ZN11QQuickPopup26accessibilityActiveChangedEb@Base 6.2.0
 _ZN11QQuickPopup26setFiltersChildMouseEventsEb@Base 6.2.0
 _ZN11QQuickPopup27implicitContentWidthChangedEv@Base 6.2.0
 _ZN11QQuickPopup28implicitContentHeightChangedEv@Base 6.2.0
 _ZN11QQuickPopup30implicitBackgroundWidthChangedEv@Base 6.2.0
 _ZN11QQuickPopup31implicitBackgroundHeightChangedEv@Base 6.2.0
 _ZN11QQuickPopup4openEv@Base 6.2.0
 _ZN11QQuickPopup4setXEd@Base 6.2.0
 _ZN11QQuickPopup4setYEd@Base 6.2.0
 _ZN11QQuickPopup4setZEd@Base 6.2.0
 _ZN11QQuickPopup5closeEv@Base 6.2.0
 _ZN11QQuickPopup6closedEv@Base 6.2.0
 _ZN11QQuickPopup6openedEv@Base 6.2.0
 _ZN11QQuickPopup6setDimEb@Base 6.2.0
 _ZN11QQuickPopup7setClipEb@Base 6.2.0
 _ZN11QQuickPopup7setExitEP16QQuickTransition@Base 6.2.0
 _ZN11QQuickPopup7setFontERK5QFont@Base 6.2.0
 _ZN11QQuickPopup8resetDimEv@Base 6.2.0
 _ZN11QQuickPopup8setEnterEP16QQuickTransition@Base 6.2.0
 _ZN11QQuickPopup8setFocusEb@Base 6.2.0
 _ZN11QQuickPopup8setModalEb@Base 6.2.0
 _ZN11QQuickPopup8setScaleEd@Base 6.2.0
 _ZN11QQuickPopup8setWidthEd@Base 6.2.0
 _ZN11QQuickPopup8xChangedEv@Base 6.2.0
 _ZN11QQuickPopup8yChangedEv@Base 6.2.0
 _ZN11QQuickPopup8zChangedEv@Base 6.2.0
 _ZN11QQuickPopup9resetFontEv@Base 6.2.0
 _ZN11QQuickPopup9setHeightEd@Base 6.2.0
 _ZN11QQuickPopup9setLocaleERK7QLocale@Base 6.2.0
 _ZN11QQuickPopupC1EP7QObject@Base 6.2.0
 _ZN11QQuickPopupC1ER18QQuickPopupPrivateP7QObject@Base 6.2.0
 _ZN11QQuickPopupC2EP7QObject@Base 6.2.0
 _ZN11QQuickPopupC2ER18QQuickPopupPrivateP7QObject@Base 6.2.0
 _ZN11QQuickPopupD0Ev@Base 6.2.0
 _ZN11QQuickPopupD1Ev@Base 6.2.0
 _ZN11QQuickPopupD2Ev@Base 6.2.0
 _ZN11QQuickSwipe10setEnabledEb@Base 6.2.0
 _ZN11QQuickSwipe11leftChangedEv@Base 6.2.0
 _ZN11QQuickSwipe11qt_metacallEN11QMetaObject4CallEiPPv@Base 6.2.0
 _ZN11QQuickSwipe11qt_metacastEPKc@Base 6.2.0
 _ZN11QQuickSwipe11setCompleteEb@Base 6.2.0
 _ZN11QQuickSwipe11setLeftItemEP10QQuickItem@Base 6.2.0
 _ZN11QQuickSwipe11setPositionEd@Base 6.2.0
 _ZN11QQuickSwipe12rightChangedEv@Base 6.2.0
 _ZN11QQuickSwipe12setRightItemEP10QQuickItem@Base 6.2.0
 _ZN11QQuickSwipe13behindChangedEv@Base 6.2.0
 _ZN11QQuickSwipe13setBehindItemEP10QQuickItem@Base 6.2.0
 _ZN11QQuickSwipe13setTransitionEP16QQuickTransition@Base 6.2.0
 _ZN11QQuickSwipe14enabledChangedEv@Base 6.2.0
 _ZN11QQuickSwipe15completeChangedEv@Base 6.2.0
 _ZN11QQuickSwipe15leftItemChangedEv@Base 6.2.0
 _ZN11QQuickSwipe15positionChangedEv@Base 6.2.0
 _ZN11QQuickSwipe16rightItemChangedEv@Base 6.2.0
 _ZN11QQuickSwipe16staticMetaObjectE@Base 6.2.0
 _ZN11QQuickSwipe17behindItemChangedEv@Base 6.2.0
 _ZN11QQuickSwipe17transitionChangedEv@Base 6.2.0
 _ZN11QQuickSwipe4openEN19QQuickSwipeDelegate4SideE@Base 6.2.0
 _ZN11QQuickSwipe5closeEv@Base 6.2.0
 _ZN11QQuickSwipe6closedEv@Base 6.2.0
 _ZN11QQuickSwipe6openedEv@Base 6.2.0
 _ZN11QQuickSwipe7setLeftEP13QQmlComponent@Base 6.2.0
 _ZN11QQuickSwipe8setRightEP13QQmlComponent@Base 6.2.0
 _ZN11QQuickSwipe9completedEv@Base 6.2.0
 _ZN11QQuickSwipe9setBehindEP13QQmlComponent@Base 6.2.0
 _ZN11QQuickSwipeC1EP19QQuickSwipeDelegate@Base 6.2.0
 _ZN11QQuickSwipeC2EP19QQuickSwipeDelegate@Base 6.2.0
 _ZN11QQuickTheme10setPaletteENS_5ScopeERK8QPalette@Base 6.2.0
 _ZN11QQuickTheme4fontENS_5ScopeE@Base 6.2.0
 _ZN11QQuickTheme7paletteENS_5ScopeE@Base 6.2.0
 _ZN11QQuickTheme7setFontENS_5ScopeERK5QFont@Base 6.2.0
 _ZN11QQuickTheme8instanceEv@Base 6.2.0
 _ZN11QQuickThemeC1Ev@Base 6.2.0
 _ZN11QQuickThemeC2Ev@Base 6.2.0
 _ZN11QQuickThemeD1Ev@Base 6.2.0
 _ZN11QQuickThemeD2Ev@Base 6.2.0
 _ZN12QQuickAction10setCheckedEb@Base 6.2.0
 _ZN12QQuickAction10setEnabledEb@Base 6.2.0
 _ZN12QQuickAction11eventFilterEP7QObjectP6QEvent@Base 6.2.0
 _ZN12QQuickAction11iconChangedERK10QQuickIcon@Base 6.2.0
 _ZN12QQuickAction11qt_metacallEN11QMetaObject4CallEiPPv@Base 6.2.0
 _ZN12QQuickAction11qt_metacastEPKc@Base 6.2.0
 _ZN12QQuickAction11setShortcutERK12QKeySequence@Base 6.2.0
 _ZN12QQuickAction11textChangedERK7QString@Base 6.2.0
 _ZN12QQuickAction12resetEnabledEv@Base 6.2.0
 _ZN12QQuickAction12setCheckableEb@Base 6.2.0
 _ZN12QQuickAction14checkedChangedEb@Base 6.2.0
 _ZN12QQuickAction14enabledChangedEb@Base 6.2.0
 _ZN12QQuickAction15shortcutChangedERK12QKeySequence@Base 6.2.0
 _ZN12QQuickAction16checkableChangedEb@Base 6.2.0
 _ZN12QQuickAction16staticMetaObjectE@Base 6.2.0
 _ZN12QQuickAction5eventEP6QEvent@Base 6.2.0
 _ZN12QQuickAction6toggleEP7QObject@Base 6.2.0
 _ZN12QQuickAction7setIconERK10QQuickIcon@Base 6.2.0
 _ZN12QQuickAction7setTextERK7QString@Base 6.2.0
 _ZN12QQuickAction7toggledEP7QObject@Base 6.2.0
 _ZN12QQuickAction7triggerEP7QObject@Base 6.2.0
 _ZN12QQuickAction9triggeredEP7QObject@Base 6.2.0
 _ZN12QQuickActionC1EP7QObject@Base 6.2.0
 _ZN12QQuickActionC2EP7QObject@Base 6.2.0
 _ZN12QQuickActionD0Ev@Base 6.2.0
 _ZN12QQuickActionD1Ev@Base 6.2.0
 _ZN12QQuickActionD2Ev@Base 6.2.0
 _ZN12QQuickButton11flatChangedEv@Base 6.2.0
 _ZN12QQuickButton11qt_metacallEN11QMetaObject4CallEiPPv@Base 6.2.0
 _ZN12QQuickButton11qt_metacastEPKc@Base 6.2.0
 _ZN12QQuickButton14setHighlightedEb@Base 6.2.0
 _ZN12QQuickButton16staticMetaObjectE@Base 6.2.0
 _ZN12QQuickButton18highlightedChangedEv@Base 6.2.0
 _ZN12QQuickButton7setFlatEb@Base 6.2.0
 _ZN12QQuickButtonC1EP10QQuickItem@Base 6.2.0
 _ZN12QQuickButtonC1ER19QQuickButtonPrivateP10QQuickItem@Base 6.2.0
 _ZN12QQuickButtonC2EP10QQuickItem@Base 6.2.0
 _ZN12QQuickButtonC2ER19QQuickButtonPrivateP10QQuickItem@Base 6.2.0
 _ZN12QQuickDialog11qt_metacallEN11QMetaObject4CallEiPPv@Base 6.2.0
 _ZN12QQuickDialog11qt_metacastEPKc@Base 6.2.0
 _ZN12QQuickDialog12titleChangedEv@Base 6.2.0
 _ZN12QQuickDialog13footerChangedEv@Base 6.2.0
 _ZN12QQuickDialog13headerChangedEv@Base 6.2.0
 _ZN12QQuickDialog13helpRequestedEv@Base 6.2.0
 _ZN12QQuickDialog13resultChangedEv@Base 6.2.0
 _ZN12QQuickDialog16staticMetaObjectE@Base 6.2.0
 _ZN12QQuickDialog18setStandardButtonsE6QFlagsIN21QPlatformDialogHelper14StandardButtonEE@Base 6.2.0
 _ZN12QQuickDialog22standardButtonsChangedEv@Base 6.2.0
 _ZN12QQuickDialog26accessibilityActiveChangedEb@Base 6.2.0
 _ZN12QQuickDialog26implicitFooterWidthChangedEv@Base 6.2.0
 _ZN12QQuickDialog26implicitHeaderWidthChangedEv@Base 6.2.0
 _ZN12QQuickDialog27implicitFooterHeightChangedEv@Base 6.2.0
 _ZN12QQuickDialog27implicitHeaderHeightChangedEv@Base 6.2.0
 _ZN12QQuickDialog4doneEi@Base 6.2.0
 _ZN12QQuickDialog5resetEv@Base 6.2.0
 _ZN12QQuickDialog6acceptEv@Base 6.2.0
 _ZN12QQuickDialog6rejectEv@Base 6.2.0
 _ZN12QQuickDialog7appliedEv@Base 6.2.0
 _ZN12QQuickDialog8acceptedEv@Base 6.2.0
 _ZN12QQuickDialog8rejectedEv@Base 6.2.0
 _ZN12QQuickDialog8setTitleERK7QString@Base 6.2.0
 _ZN12QQuickDialog9discardedEv@Base 6.2.0
 _ZN12QQuickDialog9setFooterEP10QQuickItem@Base 6.2.0
 _ZN12QQuickDialog9setHeaderEP10QQuickItem@Base 6.2.0
 _ZN12QQuickDialog9setResultEi@Base 6.2.0
 _ZN12QQuickDialogC1EP7QObject@Base 6.2.0
 _ZN12QQuickDialogC1ER19QQuickDialogPrivateP7QObject@Base 6.2.0
 _ZN12QQuickDialogC2EP7QObject@Base 6.2.0
 _ZN12QQuickDialogC2ER19QQuickDialogPrivateP7QObject@Base 6.2.0
 _ZN12QQuickDrawer10touchEventEP11QTouchEvent@Base 6.2.0
 _ZN12QQuickDrawer11edgeChangedEv@Base 6.2.0
 _ZN12QQuickDrawer11qt_metacallEN11QMetaObject4CallEiPPv@Base 6.2.0
 _ZN12QQuickDrawer11qt_metacastEPKc@Base 6.2.0
 _ZN12QQuickDrawer11setPositionEd@Base 6.2.0
 _ZN12QQuickDrawer12overlayEventEP10QQuickItemP6QEvent@Base 6.2.0
 _ZN12QQuickDrawer13setDragMarginEd@Base 6.2.0
 _ZN12QQuickDrawer14geometryChangeERK6QRectFS2_@Base 6.2.0
 _ZN12QQuickDrawer14mouseMoveEventEP11QMouseEvent@Base 6.2.0
 _ZN12QQuickDrawer14setInteractiveEb@Base 6.2.0
 _ZN12QQuickDrawer15positionChangedEv@Base 6.2.0
 _ZN12QQuickDrawer15resetDragMarginEv@Base 6.2.0
 _ZN12QQuickDrawer16staticMetaObjectE@Base 6.2.0
 _ZN12QQuickDrawer17dragMarginChangedEv@Base 6.2.0
 _ZN12QQuickDrawer18interactiveChangedEv@Base 6.2.0
 _ZN12QQuickDrawer21childMouseEventFilterEP10QQuickItemP6QEvent@Base 6.2.0
 _ZN12QQuickDrawer7setEdgeEN2Qt4EdgeE@Base 6.2.0
 _ZN12QQuickDrawerC1EP7QObject@Base 6.2.0
 _ZN12QQuickDrawerC2EP7QObject@Base 6.2.0
 _ZN12QQuickSlider10setPressedEb@Base 6.2.0
 _ZN12QQuickSlider10touchEventEP11QTouchEvent@Base 6.2.0
 _ZN12QQuickSlider10wheelEventEP11QWheelEvent@Base 6.2.0
 _ZN12QQuickSlider11fromChangedEv@Base 6.2.0
 _ZN12QQuickSlider11liveChangedEv@Base 6.2.0
 _ZN12QQuickSlider11qt_metacallEN11QMetaObject4CallEiPPv@Base 6.2.0
 _ZN12QQuickSlider11qt_metacastEPKc@Base 6.2.0
 _ZN12QQuickSlider11setSnapModeENS_8SnapModeE@Base 6.2.0
 _ZN12QQuickSlider11setStepSizeEd@Base 6.2.0
 _ZN12QQuickSlider12mirrorChangeEv@Base 6.2.0
 _ZN12QQuickSlider12valueChangedEv@Base 6.2.0
 _ZN12QQuickSlider13handleChangedEv@Base 6.2.0
 _ZN12QQuickSlider13keyPressEventEP9QKeyEvent@Base 6.2.0
 _ZN12QQuickSlider14pressedChangedEv@Base 6.2.0
 _ZN12QQuickSlider14setOrientationEN2Qt11OrientationE@Base 6.2.0
 _ZN12QQuickSlider15keyReleaseEventEP9QKeyEvent@Base 6.2.0
 _ZN12QQuickSlider15mousePressEventEP11QMouseEvent@Base 6.2.0
 _ZN12QQuickSlider15positionChangedEv@Base 6.2.0
 _ZN12QQuickSlider15snapModeChangedEv@Base 6.2.0
 _ZN12QQuickSlider15stepSizeChangedEv@Base 6.2.0
 _ZN12QQuickSlider16staticMetaObjectE@Base 6.2.0
 _ZN12QQuickSlider17componentCompleteEv@Base 6.2.0
 _ZN12QQuickSlider18orientationChangedEv@Base 6.2.0
 _ZN12QQuickSlider21setTouchDragThresholdEd@Base 6.2.0
 _ZN12QQuickSlider21visualPositionChangedEv@Base 6.2.0
 _ZN12QQuickSlider23resetTouchDragThresholdEv@Base 6.2.0
 _ZN12QQuickSlider25touchDragThresholdChangedEv@Base 6.2.0
 _ZN12QQuickSlider26accessibilityActiveChangedEb@Base 6.2.0
 _ZN12QQuickSlider26implicitHandleWidthChangedEv@Base 6.2.0
 _ZN12QQuickSlider27implicitHandleHeightChangedEv@Base 6.2.0
 _ZN12QQuickSlider5movedEv@Base 6.2.0
 _ZN12QQuickSlider5setToEd@Base 6.2.0
 _ZN12QQuickSlider7setFromEd@Base 6.2.0
 _ZN12QQuickSlider7setLiveEb@Base 6.2.0
 _ZN12QQuickSlider8decreaseEv@Base 6.2.0
 _ZN12QQuickSlider8increaseEv@Base 6.2.0
 _ZN12QQuickSlider8setValueEd@Base 6.2.0
 _ZN12QQuickSlider9setHandleEP10QQuickItem@Base 6.2.0
 _ZN12QQuickSlider9toChangedEv@Base 6.2.0
 _ZN12QQuickSliderC1EP10QQuickItem@Base 6.2.0
 _ZN12QQuickSliderC2EP10QQuickItem@Base 6.2.0
 _ZN12QQuickSliderD0Ev@Base 6.2.0
 _ZN12QQuickSliderD1Ev@Base 6.2.0
 _ZN12QQuickSliderD2Ev@Base 6.2.0
 _ZN12QQuickSwitch10touchEventEP11QTouchEvent@Base 6.2.0
 _ZN12QQuickSwitch11qt_metacallEN11QMetaObject4CallEiPPv@Base 6.2.0
 _ZN12QQuickSwitch11qt_metacastEPKc@Base 6.2.0
 _ZN12QQuickSwitch11setPositionEd@Base 6.2.0
 _ZN12QQuickSwitch12buttonChangeEN20QQuickAbstractButton12ButtonChangeE@Base 6.2.0
 _ZN12QQuickSwitch12mirrorChangeEv@Base 6.2.0
 _ZN12QQuickSwitch14mouseMoveEventEP11QMouseEvent@Base 6.2.0
 _ZN12QQuickSwitch14nextCheckStateEv@Base 6.2.0
 _ZN12QQuickSwitch15positionChangedEv@Base 6.2.0
 _ZN12QQuickSwitch16staticMetaObjectE@Base 6.2.0
 _ZN12QQuickSwitch21visualPositionChangedEv@Base 6.2.0
 _ZN12QQuickSwitchC1EP10QQuickItem@Base 6.2.0
 _ZN12QQuickSwitchC2EP10QQuickItem@Base 6.2.0
 _ZN12QQuickTabBar11itemRemovedEiP10QQuickItem@Base 6.2.0
 _ZN12QQuickTabBar11qt_metacallEN11QMetaObject4CallEiPPv@Base 6.2.0
 _ZN12QQuickTabBar11qt_metacastEPKc@Base 6.2.0
 _ZN12QQuickTabBar11setPositionENS_8PositionE@Base 6.2.0
 _ZN12QQuickTabBar12updatePolishEv@Base 6.2.0
 _ZN12QQuickTabBar14geometryChangeERK6QRectFS2_@Base 6.2.0
 _ZN12QQuickTabBar15positionChangedEv@Base 6.2.0
 _ZN12QQuickTabBar16staticMetaObjectE@Base 6.2.0
 _ZN12QQuickTabBar17componentCompleteEv@Base 6.2.0
 _ZN12QQuickTabBar21qmlAttachedPropertiesEP7QObject@Base 6.2.0
 _ZN12QQuickTabBar9itemAddedEiP10QQuickItem@Base 6.2.0
 _ZN12QQuickTabBar9itemMovedEiP10QQuickItem@Base 6.2.0
 _ZN12QQuickTabBarC1EP10QQuickItem@Base 6.2.0
 _ZN12QQuickTabBarC2EP10QQuickItem@Base 6.2.0
 _ZN13QQuickControl10classBeginEv@Base 6.2.0
 _ZN13QQuickControl10fontChangeERK5QFontS2_@Base 6.2.0
 _ZN13QQuickControl10itemChangeEN10QQuickItem10ItemChangeERKNS0_14ItemChangeDataE@Base 6.2.0
 _ZN13QQuickControl10setHoveredEb@Base 6.2.0
 _ZN13QQuickControl10setPaddingEd@Base 6.2.0
 _ZN13QQuickControl10setSpacingEd@Base 6.2.0
 _ZN13QQuickControl10touchEventEP11QTouchEvent@Base 6.2.0
 _ZN13QQuickControl10wheelEventEP11QWheelEvent@Base 6.2.0
 _ZN13QQuickControl11fontChangedEv@Base 6.2.0
 _ZN13QQuickControl11hoverChangeEv@Base 6.2.0
 _ZN13QQuickControl11insetChangeERK9QMarginsFS2_@Base 6.2.0
 _ZN13QQuickControl11qt_metacallEN11QMetaObject4CallEiPPv@Base 6.2.0
 _ZN13QQuickControl11qt_metacastEPKc@Base 6.2.0
 _ZN13QQuickControl11resetLocaleEv@Base 6.2.0
 _ZN13QQuickControl11setTopInsetEd@Base 6.2.0
 _ZN13QQuickControl12focusInEventEP11QFocusEvent@Base 6.2.0
 _ZN13QQuickControl12localeChangeERK7QLocaleS2_@Base 6.2.0
 _ZN13QQuickControl12mirrorChangeEv@Base 6.2.0
 _ZN13QQuickControl12resetPaddingEv@Base 6.2.0
 _ZN13QQuickControl12resetSpacingEv@Base 6.2.0
 _ZN13QQuickControl12setLeftInsetEd@Base 6.2.0
 _ZN13QQuickControl13enabledChangeEv@Base 6.2.0
 _ZN13QQuickControl13focusOutEventEP11QFocusEvent@Base 6.2.0
 _ZN13QQuickControl13localeChangedEv@Base 6.2.0
 _ZN13QQuickControl13paddingChangeERK9QMarginsFS2_@Base 6.2.0
 _ZN13QQuickControl13resetTopInsetEv@Base 6.2.0
 _ZN13QQuickControl13setBackgroundEP10QQuickItem@Base 6.2.0
 _ZN13QQuickControl13setRightInsetEd@Base 6.2.0
 _ZN13QQuickControl13setTopPaddingEd@Base 6.2.0
 _ZN13QQuickControl13spacingChangeEdd@Base 6.2.0
 _ZN13QQuickControl14geometryChangeERK6QRectFS2_@Base 6.2.0
 _ZN13QQuickControl14hoverMoveEventEP11QHoverEvent@Base 6.2.0
 _ZN13QQuickControl14hoveredChangedEv@Base 6.2.0
 _ZN13QQuickControl14mouseMoveEventEP11QMouseEvent@Base 6.2.0
 _ZN13QQuickControl14paddingChangedEv@Base 6.2.0
 _ZN13QQuickControl14resetLeftInsetEv@Base 6.2.0
 _ZN13QQuickControl14setBottomInsetEd@Base 6.2.0
 _ZN13QQuickControl14setContentItemEP10QQuickItem@Base 6.2.0
 _ZN13QQuickControl14setFocusPolicyEN2Qt11FocusPolicyE@Base 6.2.0
 _ZN13QQuickControl14setFocusReasonEN2Qt11FocusReasonE@Base 6.2.0
 _ZN13QQuickControl14setLeftPaddingEd@Base 6.2.0
 _ZN13QQuickControl14spacingChangedEv@Base 6.2.0
 _ZN13QQuickControl15hoverEnterEventEP11QHoverEvent@Base 6.2.0
 _ZN13QQuickControl15hoverLeaveEventEP11QHoverEvent@Base 6.2.0
 _ZN13QQuickControl15mirroredChangedEv@Base 6.2.0
 _ZN13QQuickControl15mousePressEventEP11QMouseEvent@Base 6.2.0
 _ZN13QQuickControl15resetRightInsetEv@Base 6.2.0
 _ZN13QQuickControl15resetTopPaddingEv@Base 6.2.0
 _ZN13QQuickControl15setHoverEnabledEb@Base 6.2.0
 _ZN13QQuickControl15setRightPaddingEd@Base 6.2.0
 _ZN13QQuickControl15setWheelEnabledEb@Base 6.2.0
 _ZN13QQuickControl15topInsetChangedEv@Base 6.2.0
 _ZN13QQuickControl16leftInsetChangedEv@Base 6.2.0
 _ZN13QQuickControl16mouseUngrabEventEv@Base 6.2.0
 _ZN13QQuickControl16resetBottomInsetEv@Base 6.2.0
 _ZN13QQuickControl16resetLeftPaddingEv@Base 6.2.0
 _ZN13QQuickControl16setBottomPaddingEd@Base 6.2.0
 _ZN13QQuickControl16staticMetaObjectE@Base 6.2.0
 _ZN13QQuickControl16touchUngrabEventEv@Base 6.2.0
 _ZN13QQuickControl17backgroundChangedEv@Base 6.2.0
 _ZN13QQuickControl17componentCompleteEv@Base 6.2.0
 _ZN13QQuickControl17contentItemChangeEP10QQuickItemS1_@Base 6.2.0
 _ZN13QQuickControl17mouseReleaseEventEP11QMouseEvent@Base 6.2.0
 _ZN13QQuickControl17resetHoverEnabledEv@Base 6.2.0
 _ZN13QQuickControl17resetRightPaddingEv@Base 6.2.0
 _ZN13QQuickControl17rightInsetChangedEv@Base 6.2.0
 _ZN13QQuickControl17setBaselineOffsetEd@Base 6.2.0
 _ZN13QQuickControl17topPaddingChangedEv@Base 6.2.0
 _ZN13QQuickControl18accessiblePropertyEPKc@Base 6.2.0
 _ZN13QQuickControl18bottomInsetChangedEv@Base 6.2.0
 _ZN13QQuickControl18contentItemChangedEv@Base 6.2.0
 _ZN13QQuickControl18focusPolicyChangedEv@Base 6.2.0
 _ZN13QQuickControl18focusReasonChangedEv@Base 6.2.0
 _ZN13QQuickControl18leftPaddingChangedEv@Base 6.2.0
 _ZN13QQuickControl18resetBottomPaddingEv@Base 6.2.0
 _ZN13QQuickControl18setVerticalPaddingEd@Base 6.2.0
 _ZN13QQuickControl18visualFocusChangedEv@Base 6.2.0
 _ZN13QQuickControl19hoverEnabledChangedEv@Base 6.2.0
 _ZN13QQuickControl19resetBaselineOffsetEv@Base 6.2.0
 _ZN13QQuickControl19rightPaddingChangedEv@Base 6.2.0
 _ZN13QQuickControl19wheelEnabledChangedEv@Base 6.2.0
 _ZN13QQuickControl20bottomPaddingChangedEv@Base 6.2.0
 _ZN13QQuickControl20resetVerticalPaddingEv@Base 6.2.0
 _ZN13QQuickControl20setHorizontalPaddingEd@Base 6.2.0
 _ZN13QQuickControl21availableWidthChangedEv@Base 6.2.0
 _ZN13QQuickControl21baselineOffsetChangedEv@Base 6.2.0
 _ZN13QQuickControl21setAccessiblePropertyEPKcRK8QVariant@Base 6.2.0
 _ZN13QQuickControl22availableHeightChangedEv@Base 6.2.0
 _ZN13QQuickControl22maybeSetAccessibleNameERK7QString@Base 6.2.0
 _ZN13QQuickControl22resetHorizontalPaddingEv@Base 6.2.0
 _ZN13QQuickControl22verticalPaddingChangedEv@Base 6.2.0
 _ZN13QQuickControl24horizontalPaddingChangedEv@Base 6.2.0
 _ZN13QQuickControl26accessibilityActiveChangedEb@Base 6.2.0
 _ZN13QQuickControl27implicitContentWidthChangedEv@Base 6.2.0
 _ZN13QQuickControl28implicitContentHeightChangedEv@Base 6.2.0
 _ZN13QQuickControl30implicitBackgroundWidthChangedEv@Base 6.2.0
 _ZN13QQuickControl31implicitBackgroundHeightChangedEv@Base 6.2.0
 _ZN13QQuickControl7setFontERK5QFont@Base 6.2.0
 _ZN13QQuickControl9resetFontEv@Base 6.2.0
 _ZN13QQuickControl9setLocaleERK7QLocale@Base 6.2.0
 _ZN13QQuickControlC1EP10QQuickItem@Base 6.2.0
 _ZN13QQuickControlC1ER20QQuickControlPrivateP10QQuickItem@Base 6.2.0
 _ZN13QQuickControlC2EP10QQuickItem@Base 6.2.0
 _ZN13QQuickControlC2ER20QQuickControlPrivateP10QQuickItem@Base 6.2.0
 _ZN13QQuickControlD0Ev@Base 6.2.0
 _ZN13QQuickControlD1Ev@Base 6.2.0
 _ZN13QQuickControlD2Ev@Base 6.2.0
 _ZN13QQuickMenuBar10insertMenuEiP10QQuickMenu@Base 6.2.0
 _ZN13QQuickMenuBar10removeMenuEP10QQuickMenu@Base 6.2.0
 _ZN13QQuickMenuBar11eventFilterEP7QObjectP6QEvent@Base 6.2.0
 _ZN13QQuickMenuBar11itemRemovedEiP10QQuickItem@Base 6.2.0
 _ZN13QQuickMenuBar11qt_metacallEN11QMetaObject4CallEiPPv@Base 6.2.0
 _ZN13QQuickMenuBar11qt_metacastEPKc@Base 6.2.0
 _ZN13QQuickMenuBar11setDelegateEP13QQmlComponent@Base 6.2.0
 _ZN13QQuickMenuBar12menusChangedEv@Base 6.2.0
 _ZN13QQuickMenuBar13keyPressEventEP9QKeyEvent@Base 6.2.0
 _ZN13QQuickMenuBar15delegateChangedEv@Base 6.2.0
 _ZN13QQuickMenuBar15hoverLeaveEventEP11QHoverEvent@Base 6.2.0
 _ZN13QQuickMenuBar15keyReleaseEventEP9QKeyEvent@Base 6.2.0
 _ZN13QQuickMenuBar16staticMetaObjectE@Base 6.2.0
 _ZN13QQuickMenuBar7addMenuEP10QQuickMenu@Base 6.2.0
 _ZN13QQuickMenuBar8takeMenuEi@Base 6.2.0
 _ZN13QQuickMenuBar9itemAddedEiP10QQuickItem@Base 6.2.0
 _ZN13QQuickMenuBar9itemMovedEiP10QQuickItem@Base 6.2.0
 _ZN13QQuickMenuBarC1EP10QQuickItem@Base 6.2.0
 _ZN13QQuickMenuBarC2EP10QQuickItem@Base 6.2.0
 _ZN13QQuickOverlay10itemChangeEN10QQuickItem10ItemChangeERKNS0_14ItemChangeDataE@Base 6.2.0
 _ZN13QQuickOverlay10touchEventEP11QTouchEvent@Base 6.2.0
 _ZN13QQuickOverlay10wheelEventEP11QWheelEvent@Base 6.2.0
 _ZN13QQuickOverlay11eventFilterEP7QObjectP6QEvent@Base 6.2.0
 _ZN13QQuickOverlay11qt_metacallEN11QMetaObject4CallEiPPv@Base 6.2.0
 _ZN13QQuickOverlay11qt_metacastEPKc@Base 6.2.0
 _ZN13QQuickOverlay11setModelessEP13QQmlComponent@Base 6.2.0
 _ZN13QQuickOverlay12modalChangedEv@Base 6.2.0
 _ZN13QQuickOverlay14geometryChangeERK6QRectFS2_@Base 6.2.0
 _ZN13QQuickOverlay14mouseMoveEventEP11QMouseEvent@Base 6.2.0
 _ZN13QQuickOverlay15modelessChangedEv@Base 6.2.0
 _ZN13QQuickOverlay15mousePressEventEP11QMouseEvent@Base 6.2.0
 _ZN13QQuickOverlay16staticMetaObjectE@Base 6.2.0
 _ZN13QQuickOverlay17mouseReleaseEventEP11QMouseEvent@Base 6.2.0
 _ZN13QQuickOverlay21childMouseEventFilterEP10QQuickItemP6QEvent@Base 6.2.0
 _ZN13QQuickOverlay21qmlAttachedPropertiesEP7QObject@Base 6.2.0
 _ZN13QQuickOverlay7overlayEP12QQuickWindow@Base 6.2.0
 _ZN13QQuickOverlay7pressedEv@Base 6.2.0
 _ZN13QQuickOverlay8releasedEv@Base 6.2.0
 _ZN13QQuickOverlay8setModalEP13QQmlComponent@Base 6.2.0
 _ZN13QQuickOverlayC1EP10QQuickItem@Base 6.2.0
 _ZN13QQuickOverlayC2EP10QQuickItem@Base 6.2.0
 _ZN13QQuickOverlayD0Ev@Base 6.2.0
 _ZN13QQuickOverlayD1Ev@Base 6.2.0
 _ZN13QQuickOverlayD2Ev@Base 6.2.0
 _ZN13QQuickSpinBox10classBeginEv@Base 6.2.0
 _ZN13QQuickSpinBox10itemChangeEN10QQuickItem10ItemChangeERKNS0_14ItemChangeDataE@Base 6.2.0
 _ZN13QQuickSpinBox10timerEventEP11QTimerEvent@Base 6.2.0
 _ZN13QQuickSpinBox10wheelEventEP11QWheelEvent@Base 6.2.0
 _ZN13QQuickSpinBox11fromChangedEv@Base 6.2.0
 _ZN13QQuickSpinBox11qt_metacallEN11QMetaObject4CallEiPPv@Base 6.2.0
 _ZN13QQuickSpinBox11qt_metacastEPKc@Base 6.2.0
 _ZN13QQuickSpinBox11setEditableEb@Base 6.2.0
 _ZN13QQuickSpinBox11setStepSizeEi@Base 6.2.0
 _ZN13QQuickSpinBox11wrapChangedEv@Base 6.2.0
 _ZN13QQuickSpinBox12focusInEventEP11QFocusEvent@Base 6.2.0
 _ZN13QQuickSpinBox12localeChangeERK7QLocaleS2_@Base 6.2.0
 _ZN13QQuickSpinBox12setValidatorEP10QValidator@Base 6.2.0
 _ZN13QQuickSpinBox12valueChangedEv@Base 6.2.0
 _ZN13QQuickSpinBox13keyPressEventEP9QKeyEvent@Base 6.2.0
 _ZN13QQuickSpinBox13valueModifiedEv@Base 6.2.0
 _ZN13QQuickSpinBox14hoverMoveEventEP11QHoverEvent@Base 6.2.0
 _ZN13QQuickSpinBox15editableChangedEv@Base 6.2.0
 _ZN13QQuickSpinBox15hoverEnterEventEP11QHoverEvent@Base 6.2.0
 _ZN13QQuickSpinBox15hoverLeaveEventEP11QHoverEvent@Base 6.2.0
 _ZN13QQuickSpinBox15keyReleaseEventEP9QKeyEvent@Base 6.2.0
 _ZN13QQuickSpinBox15stepSizeChangedEv@Base 6.2.0
 _ZN13QQuickSpinBox16setTextFromValueERK8QJSValue@Base 6.2.0
 _ZN13QQuickSpinBox16setValueFromTextERK8QJSValue@Base 6.2.0
 _ZN13QQuickSpinBox16staticMetaObjectE@Base 6.2.0
 _ZN13QQuickSpinBox16validatorChangedEv@Base 6.2.0
 _ZN13QQuickSpinBox17componentCompleteEv@Base 6.2.0
 _ZN13QQuickSpinBox17contentItemChangeEP10QQuickItemS1_@Base 6.2.0
 _ZN13QQuickSpinBox18displayTextChangedEv@Base 6.2.0
 _ZN13QQuickSpinBox19setInputMethodHintsE6QFlagsIN2Qt15InputMethodHintEE@Base 6.2.0
 _ZN13QQuickSpinBox20textFromValueChangedEv@Base 6.2.0
 _ZN13QQuickSpinBox20valueFromTextChangedEv@Base 6.2.0
 _ZN13QQuickSpinBox23inputMethodHintsChangedEv@Base 6.2.0
 _ZN13QQuickSpinBox26accessibilityActiveChangedEb@Base 6.2.0
 _ZN13QQuickSpinBox27inputMethodComposingChangedEv@Base 6.2.0
 _ZN13QQuickSpinBox5setToEi@Base 6.2.0
 _ZN13QQuickSpinBox7setFromEi@Base 6.2.0
 _ZN13QQuickSpinBox7setWrapEb@Base 6.2.0
 _ZN13QQuickSpinBox8decreaseEv@Base 6.2.0
 _ZN13QQuickSpinBox8increaseEv@Base 6.2.0
 _ZN13QQuickSpinBox8setValueEi@Base 6.2.0
 _ZN13QQuickSpinBox9toChangedEv@Base 6.2.0
 _ZN13QQuickSpinBoxC1EP10QQuickItem@Base 6.2.0
 _ZN13QQuickSpinBoxC2EP10QQuickItem@Base 6.2.0
 _ZN13QQuickSpinBoxD0Ev@Base 6.2.0
 _ZN13QQuickSpinBoxD1Ev@Base 6.2.0
 _ZN13QQuickSpinBoxD2Ev@Base 6.2.0
 _ZN13QQuickToolBar11qt_metacallEN11QMetaObject4CallEiPPv@Base 6.2.0
 _ZN13QQuickToolBar11qt_metacastEPKc@Base 6.2.0
 _ZN13QQuickToolBar11setPositionENS_8PositionE@Base 6.2.0
 _ZN13QQuickToolBar15positionChangedEv@Base 6.2.0
 _ZN13QQuickToolBar16staticMetaObjectE@Base 6.2.0
 _ZN13QQuickToolBarC1EP10QQuickItem@Base 6.2.0
 _ZN13QQuickToolBarC2EP10QQuickItem@Base 6.2.0
 _ZN13QQuickToolTip10itemChangeEN10QQuickItem10ItemChangeERKNS0_14ItemChangeDataE@Base 6.2.0
 _ZN13QQuickToolTip10setTimeoutEi@Base 6.2.0
 _ZN13QQuickToolTip10setVisibleEb@Base 6.2.0
 _ZN13QQuickToolTip10timerEventEP11QTimerEvent@Base 6.2.0
 _ZN13QQuickToolTip11qt_metacallEN11QMetaObject4CallEiPPv@Base 6.2.0
 _ZN13QQuickToolTip11qt_metacastEPKc@Base 6.2.0
 _ZN13QQuickToolTip11textChangedEv@Base 6.2.0
 _ZN13QQuickToolTip12delayChangedEv@Base 6.2.0
 _ZN13QQuickToolTip14timeoutChangedEv@Base 6.2.0
 _ZN13QQuickToolTip16staticMetaObjectE@Base 6.2.0
 _ZN13QQuickToolTip21qmlAttachedPropertiesEP7QObject@Base 6.2.0
 _ZN13QQuickToolTip26accessibilityActiveChangedEb@Base 6.2.0
 _ZN13QQuickToolTip4hideEv@Base 6.2.0
 _ZN13QQuickToolTip4showERK7QStringi@Base 6.2.0
 _ZN13QQuickToolTip7setTextERK7QString@Base 6.2.0
 _ZN13QQuickToolTip8setDelayEi@Base 6.2.0
 _ZN13QQuickToolTipC1EP10QQuickItem@Base 6.2.0
 _ZN13QQuickToolTipC2EP10QQuickItem@Base 6.2.0
 _ZN13QQuickTumbler11qt_metacallEN11QMetaObject4CallEiPPv@Base 6.2.0
 _ZN13QQuickTumbler11qt_metacastEPKc@Base 6.2.0
 _ZN13QQuickTumbler11setDelegateEP13QQmlComponent@Base 6.2.0
 _ZN13QQuickTumbler11wrapChangedEv@Base 6.2.0
 _ZN13QQuickTumbler12countChangedEv@Base 6.2.0
 _ZN13QQuickTumbler12modelChangedEv@Base 6.2.0
 _ZN13QQuickTumbler12updatePolishEv@Base 6.2.0
 _ZN13QQuickTumbler13keyPressEventEP9QKeyEvent@Base 6.2.0
 _ZN13QQuickTumbler13movingChangedEv@Base 6.2.0
 _ZN13QQuickTumbler14geometryChangeERK6QRectFS2_@Base 6.2.0
 _ZN13QQuickTumbler15delegateChangedEv@Base 6.2.0
 _ZN13QQuickTumbler15setCurrentIndexEi@Base 6.2.0
 _ZN13QQuickTumbler16staticMetaObjectE@Base 6.2.0
 _ZN13QQuickTumbler17componentCompleteEv@Base 6.2.0
 _ZN13QQuickTumbler17contentItemChangeEP10QQuickItemS1_@Base 6.2.0
 _ZN13QQuickTumbler18currentItemChangedEv@Base 6.2.0
 _ZN13QQuickTumbler19currentIndexChangedEv@Base 6.2.0
 _ZN13QQuickTumbler19positionViewAtIndexEiNS_12PositionModeE@Base 6.2.0
 _ZN13QQuickTumbler19setVisibleItemCountEi@Base 6.2.0
 _ZN13QQuickTumbler21qmlAttachedPropertiesEP7QObject@Base 6.2.0
 _ZN13QQuickTumbler23visibleItemCountChangedEv@Base 6.2.0
 _ZN13QQuickTumbler7setWrapEb@Base 6.2.0
 _ZN13QQuickTumbler8setModelERK8QVariant@Base 6.2.0
 _ZN13QQuickTumbler9resetWrapEv@Base 6.2.0
 _ZN13QQuickTumblerC1EP10QQuickItem@Base 6.2.0
 _ZN13QQuickTumblerC2EP10QQuickItem@Base 6.2.0
 _ZN13QQuickTumblerD0Ev@Base 6.2.0
 _ZN13QQuickTumblerD1Ev@Base 6.2.0
 _ZN13QQuickTumblerD2Ev@Base 6.2.0
 _ZN14QQuickCheckBox11qt_metacallEN11QMetaObject4CallEiPPv@Base 6.2.0
 _ZN14QQuickCheckBox11qt_metacastEPKc@Base 6.2.0
 _ZN14QQuickCheckBox11setTristateEb@Base 6.2.0
 _ZN14QQuickCheckBox12buttonChangeEN20QQuickAbstractButton12ButtonChangeE@Base 6.2.0
 _ZN14QQuickCheckBox13setCheckStateEN2Qt10CheckStateE@Base 6.2.0
 _ZN14QQuickCheckBox14nextCheckStateEv@Base 6.2.0
 _ZN14QQuickCheckBox15tristateChangedEv@Base 6.2.0
 _ZN14QQuickCheckBox16staticMetaObjectE@Base 6.2.0
 _ZN14QQuickCheckBox17checkStateChangedEv@Base 6.2.0
 _ZN14QQuickCheckBox21nextCheckStateChangedEv@Base 6.2.0
 _ZN14QQuickCheckBoxC1EP10QQuickItem@Base 6.2.0
 _ZN14QQuickCheckBoxC2EP10QQuickItem@Base 6.2.0
 _ZN14QQuickComboBox10fontChangeERK5QFontS2_@Base 6.2.0
 _ZN14QQuickComboBox10itemChangeEN10QQuickItem10ItemChangeERKNS0_14ItemChangeDataE@Base 6.2.0
 _ZN14QQuickComboBox10setPressedEb@Base 6.2.0
 _ZN14QQuickComboBox10wheelEventEP11QWheelEvent@Base 6.2.0
 _ZN14QQuickComboBox11downChangedEv@Base 6.2.0
 _ZN14QQuickComboBox11eventFilterEP7QObjectP6QEvent@Base 6.2.0
 _ZN14QQuickComboBox11flatChangedEv@Base 6.2.0
 _ZN14QQuickComboBox11highlightedEi@Base 6.2.0
 _ZN14QQuickComboBox11qt_metacallEN11QMetaObject4CallEiPPv@Base 6.2.0
 _ZN14QQuickComboBox11qt_metacastEPKc@Base 6.2.0
 _ZN14QQuickComboBox11setDelegateEP13QQmlComponent@Base 6.2.0
 _ZN14QQuickComboBox11setEditTextERK7QString@Base 6.2.0
 _ZN14QQuickComboBox11setEditableEb@Base 6.2.0
 _ZN14QQuickComboBox11setTextRoleERK7QString@Base 6.2.0
 _ZN14QQuickComboBox12countChangedEv@Base 6.2.0
 _ZN14QQuickComboBox12focusInEventEP11QFocusEvent@Base 6.2.0
 _ZN14QQuickComboBox12localeChangeERK7QLocaleS2_@Base 6.2.0
 _ZN14QQuickComboBox12modelChangedEv@Base 6.2.0
 _ZN14QQuickComboBox12popupChangedEv@Base 6.2.0
 _ZN14QQuickComboBox12setIndicatorEP10QQuickItem@Base 6.2.0
 _ZN14QQuickComboBox12setValidatorEP10QValidator@Base 6.2.0
 _ZN14QQuickComboBox12setValueRoleERK7QString@Base 6.2.0
 _ZN14QQuickComboBox13focusOutEventEP11QFocusEvent@Base 6.2.0
 _ZN14QQuickComboBox13keyPressEventEP9QKeyEvent@Base 6.2.0
 _ZN14QQuickComboBox13resetEditTextEv@Base 6.2.0
 _ZN14QQuickComboBox14pressedChangedEv@Base 6.2.0
 _ZN14QQuickComboBox14setDisplayTextERK7QString@Base 6.2.0
 _ZN14QQuickComboBox15delegateChangedEv@Base 6.2.0
 _ZN14QQuickComboBox15editTextChangedEv@Base 6.2.0
 _ZN14QQuickComboBox15editableChangedEv@Base 6.2.0
 _ZN14QQuickComboBox15keyReleaseEventEP9QKeyEvent@Base 6.2.0
 _ZN14QQuickComboBox15setCurrentIndexEi@Base 6.2.0
 _ZN14QQuickComboBox15textRoleChangedEv@Base 6.2.0
 _ZN14QQuickComboBox16indicatorChangedEv@Base 6.2.0
 _ZN14QQuickComboBox16inputMethodEventEP17QInputMethodEvent@Base 6.2.0
 _ZN14QQuickComboBox16resetDisplayTextEv@Base 6.2.0
 _ZN14QQuickComboBox16staticMetaObjectE@Base 6.2.0
 _ZN14QQuickComboBox16validatorChangedEv@Base 6.2.0
 _ZN14QQuickComboBox16valueRoleChangedEv@Base 6.2.0
 _ZN14QQuickComboBox17componentCompleteEv@Base 6.2.0
 _ZN14QQuickComboBox17contentItemChangeEP10QQuickItemS1_@Base 6.2.0
 _ZN14QQuickComboBox18currentTextChangedEv@Base 6.2.0
 _ZN14QQuickComboBox18displayTextChangedEv@Base 6.2.0
 _ZN14QQuickComboBox19currentIndexChangedEv@Base 6.2.0
 _ZN14QQuickComboBox19currentValueChangedEv@Base 6.2.0
 _ZN14QQuickComboBox19setInputMethodHintsE6QFlagsIN2Qt15InputMethodHintEE@Base 6.2.0
 _ZN14QQuickComboBox20delegateModelChangedEv@Base 6.2.0
 _ZN14QQuickComboBox20setSelectTextByMouseEb@Base 6.2.0
 _ZN14QQuickComboBox21decrementCurrentIndexEv@Base 6.2.0
 _ZN14QQuickComboBox21incrementCurrentIndexEv@Base 6.2.0
 _ZN14QQuickComboBox22acceptableInputChangedEv@Base 6.2.0
 _ZN14QQuickComboBox23highlightedIndexChangedEv@Base 6.2.0
 _ZN14QQuickComboBox23inputMethodHintsChangedEv@Base 6.2.0
 _ZN14QQuickComboBox24selectTextByMouseChangedEv@Base 6.2.0
 _ZN14QQuickComboBox26accessibilityActiveChangedEb@Base 6.2.0
 _ZN14QQuickComboBox27inputMethodComposingChangedEv@Base 6.2.0
 _ZN14QQuickComboBox29implicitIndicatorWidthChangedEv@Base 6.2.0
 _ZN14QQuickComboBox29setImplicitContentWidthPolicyENS_26ImplicitContentWidthPolicyE@Base 6.2.0
 _ZN14QQuickComboBox30implicitIndicatorHeightChangedEv@Base 6.2.0
 _ZN14QQuickComboBox33implicitContentWidthPolicyChangedEv@Base 6.2.0
 _ZN14QQuickComboBox5eventEP6QEvent@Base 6.2.0
 _ZN14QQuickComboBox7setDownEb@Base 6.2.0
 _ZN14QQuickComboBox7setFlatEb@Base 6.2.0
 _ZN14QQuickComboBox8acceptedEv@Base 6.2.0
 _ZN14QQuickComboBox8setModelERK8QVariant@Base 6.2.0
 _ZN14QQuickComboBox8setPopupEP11QQuickPopup@Base 6.2.0
 _ZN14QQuickComboBox9activatedEi@Base 6.2.0
 _ZN14QQuickComboBox9resetDownEv@Base 6.2.0
 _ZN14QQuickComboBox9selectAllEv@Base 6.2.0
 _ZN14QQuickComboBoxC1EP10QQuickItem@Base 6.2.0
 _ZN14QQuickComboBoxC2EP10QQuickItem@Base 6.2.0
 _ZN14QQuickComboBoxD0Ev@Base 6.2.0
 _ZN14QQuickComboBoxD1Ev@Base 6.2.0
 _ZN14QQuickComboBoxD2Ev@Base 6.2.0
 _ZN14QQuickGroupBox11qt_metacallEN11QMetaObject4CallEiPPv@Base 6.2.0
 _ZN14QQuickGroupBox11qt_metacastEPKc@Base 6.2.0
 _ZN14QQuickGroupBox12labelChangedEv@Base 6.2.0
 _ZN14QQuickGroupBox12titleChangedEv@Base 6.2.0
 _ZN14QQuickGroupBox16staticMetaObjectE@Base 6.2.0
 _ZN14QQuickGroupBox17componentCompleteEv@Base 6.2.0
 _ZN14QQuickGroupBox25implicitLabelWidthChangedEv@Base 6.2.0
 _ZN14QQuickGroupBox26accessibilityActiveChangedEb@Base 6.2.0
 _ZN14QQuickGroupBox26implicitLabelHeightChangedEv@Base 6.2.0
 _ZN14QQuickGroupBox8setLabelEP10QQuickItem@Base 6.2.0
 _ZN14QQuickGroupBox8setTitleERK7QString@Base 6.2.0
 _ZN14QQuickGroupBoxC1EP10QQuickItem@Base 6.2.0
 _ZN14QQuickGroupBoxC2EP10QQuickItem@Base 6.2.0
 _ZN14QQuickGroupBoxD0Ev@Base 6.2.0
 _ZN14QQuickGroupBoxD1Ev@Base 6.2.0
 _ZN14QQuickGroupBoxD2Ev@Base 6.2.0
 _ZN14QQuickMenuItem11menuChangedEv@Base 6.2.0
 _ZN14QQuickMenuItem11qt_metacallEN11QMetaObject4CallEiPPv@Base 6.2.0
 _ZN14QQuickMenuItem11qt_metacastEPKc@Base 6.2.0
 _ZN14QQuickMenuItem12arrowChangedEv@Base 6.2.0
 _ZN14QQuickMenuItem14setHighlightedEb@Base 6.2.0
 _ZN14QQuickMenuItem14subMenuChangedEv@Base 6.2.0
 _ZN14QQuickMenuItem16staticMetaObjectE@Base 6.2.0
 _ZN14QQuickMenuItem17componentCompleteEv@Base 6.2.0
 _ZN14QQuickMenuItem18highlightedChangedEv@Base 6.2.0
 _ZN14QQuickMenuItem8setArrowEP10QQuickItem@Base 6.2.0
 _ZN14QQuickMenuItem9triggeredEv@Base 6.2.0
 _ZN14QQuickMenuItemC1EP10QQuickItem@Base 6.2.0
 _ZN14QQuickMenuItemC2EP10QQuickItem@Base 6.2.0
 _ZN14QQuickTextArea10classBeginEv@Base 6.2.0
 _ZN14QQuickTextArea10itemChangeEN10QQuickItem10ItemChangeERKNS0_14ItemChangeDataE@Base 6.2.0
 _ZN14QQuickTextArea10setHoveredEb@Base 6.2.0
 _ZN14QQuickTextArea10timerEventEP11QTimerEvent@Base 6.2.0
 _ZN14QQuickTextArea11fontChangedEv@Base 6.2.0
 _ZN14QQuickTextArea11insetChangeERK9QMarginsFS2_@Base 6.2.0
 _ZN14QQuickTextArea11qt_metacallEN11QMetaObject4CallEiPPv@Base 6.2.0
 _ZN14QQuickTextArea11qt_metacastEPKc@Base 6.2.0
 _ZN14QQuickTextArea11setTopInsetEd@Base 6.2.0
 _ZN14QQuickTextArea12focusInEventEP11QFocusEvent@Base 6.2.0
 _ZN14QQuickTextArea12pressAndHoldEP16QQuickMouseEvent@Base 6.2.0
 _ZN14QQuickTextArea12setLeftInsetEd@Base 6.2.0
 _ZN14QQuickTextArea13focusOutEventEP11QFocusEvent@Base 6.2.0
 _ZN14QQuickTextArea13resetTopInsetEv@Base 6.2.0
 _ZN14QQuickTextArea13setBackgroundEP10QQuickItem@Base 6.2.0
 _ZN14QQuickTextArea13setRightInsetEd@Base 6.2.0
 _ZN14QQuickTextArea14geometryChangeERK6QRectFS2_@Base 6.2.0
 _ZN14QQuickTextArea14hoveredChangedEv@Base 6.2.0
 _ZN14QQuickTextArea14mouseMoveEventEP11QMouseEvent@Base 6.2.0
 _ZN14QQuickTextArea14resetLeftInsetEv@Base 6.2.0
 _ZN14QQuickTextArea14setBottomInsetEd@Base 6.2.0
 _ZN14QQuickTextArea14setFocusReasonEN2Qt11FocusReasonE@Base 6.2.0
 _ZN14QQuickTextArea15hoverEnterEventEP11QHoverEvent@Base 6.2.0
 _ZN14QQuickTextArea15hoverLeaveEventEP11QHoverEvent@Base 6.2.0
 _ZN14QQuickTextArea15mousePressEventEP11QMouseEvent@Base 6.2.0
 _ZN14QQuickTextArea15resetRightInsetEv@Base 6.2.0
 _ZN14QQuickTextArea15setHoverEnabledEb@Base 6.2.0
 _ZN14QQuickTextArea15topInsetChangedEv@Base 6.2.0
 _ZN14QQuickTextArea15updatePaintNodeEP7QSGNodePN10QQuickItem19UpdatePaintNodeDataE@Base 6.2.0
 _ZN14QQuickTextArea16leftInsetChangedEv@Base 6.2.0
 _ZN14QQuickTextArea16resetBottomInsetEv@Base 6.2.0
 _ZN14QQuickTextArea16staticMetaObjectE@Base 6.2.0
 _ZN14QQuickTextArea17backgroundChangedEv@Base 6.2.0
 _ZN14QQuickTextArea17componentCompleteEv@Base 6.2.0
 _ZN14QQuickTextArea17mouseReleaseEventEP11QMouseEvent@Base 6.2.0
 _ZN14QQuickTextArea17resetHoverEnabledEv@Base 6.2.0
 _ZN14QQuickTextArea17rightInsetChangedEv@Base 6.2.0
 _ZN14QQuickTextArea18bottomInsetChangedEv@Base 6.2.0
 _ZN14QQuickTextArea18focusReasonChangedEv@Base 6.2.0
 _ZN14QQuickTextArea18setPlaceholderTextERK7QString@Base 6.2.0
 _ZN14QQuickTextArea19hoverEnabledChangedEv@Base 6.2.0
 _ZN14QQuickTextArea21implicitWidthChanged3Ev@Base 6.2.0
 _ZN14QQuickTextArea21mouseDoubleClickEventEP11QMouseEvent@Base 6.2.0
 _ZN14QQuickTextArea21qmlAttachedPropertiesEP7QObject@Base 6.2.0
 _ZN14QQuickTextArea22implicitHeightChanged3Ev@Base 6.2.0
 _ZN14QQuickTextArea22placeholderTextChangedEv@Base 6.2.0
 _ZN14QQuickTextArea23setPlaceholderTextColorERK6QColor@Base 6.2.0
 _ZN14QQuickTextArea27placeholderTextColorChangedEv@Base 6.2.0
 _ZN14QQuickTextArea30implicitBackgroundWidthChangedEv@Base 6.2.0
 _ZN14QQuickTextArea31implicitBackgroundHeightChangedEv@Base 6.2.0
 _ZN14QQuickTextArea7pressedEP16QQuickMouseEvent@Base 6.2.0
 _ZN14QQuickTextArea7setFontERK5QFont@Base 6.2.0
 _ZN14QQuickTextArea8releasedEP16QQuickMouseEvent@Base 6.2.0
 _ZN14QQuickTextAreaC1EP10QQuickItem@Base 6.2.0
 _ZN14QQuickTextAreaC2EP10QQuickItem@Base 6.2.0
 _ZN14QQuickTextAreaD0Ev@Base 6.2.0
 _ZN14QQuickTextAreaD1Ev@Base 6.2.0
 _ZN14QQuickTextAreaD2Ev@Base 6.2.0
 _ZN14QtQuickPrivate13beginDeferredEP7QObjectRK7QString@Base 6.2.0
 _ZN14QtQuickPrivate14cancelDeferredEP7QObjectRK7QString@Base 6.2.0
 _ZN14QtQuickPrivate16completeDeferredEP7QObjectRK7QString@Base 6.2.0
 _ZN15QQuickContainer10insertItemEiP10QQuickItem@Base 6.2.0
 _ZN15QQuickContainer10itemChangeEN10QQuickItem10ItemChangeERKNS0_14ItemChangeDataE@Base 6.2.0
 _ZN15QQuickContainer10removeItemEP10QQuickItem@Base 6.2.0
 _ZN15QQuickContainer11contentDataEv@Base 6.2.0
 _ZN15QQuickContainer11itemRemovedEiP10QQuickItem@Base 6.2.0
 _ZN15QQuickContainer11qt_metacallEN11QMetaObject4CallEiPPv@Base 6.2.0
 _ZN15QQuickContainer11qt_metacastEPKc@Base 6.2.0
 _ZN15QQuickContainer12countChangedEv@Base 6.2.0
 _ZN15QQuickContainer15contentChildrenEv@Base 6.2.0
 _ZN15QQuickContainer15setContentWidthEd@Base 6.2.0
 _ZN15QQuickContainer15setCurrentIndexEi@Base 6.2.0
 _ZN15QQuickContainer16setContentHeightEd@Base 6.2.0
 _ZN15QQuickContainer16staticMetaObjectE@Base 6.2.0
 _ZN15QQuickContainer17componentCompleteEv@Base 6.2.0
 _ZN15QQuickContainer17contentItemChangeEP10QQuickItemS1_@Base 6.2.0
 _ZN15QQuickContainer17resetContentWidthEv@Base 6.2.0
 _ZN15QQuickContainer18currentItemChangedEv@Base 6.2.0
 _ZN15QQuickContainer18resetContentHeightEv@Base 6.2.0
 _ZN15QQuickContainer19contentWidthChangedEv@Base 6.2.0
 _ZN15QQuickContainer19currentIndexChangedEv@Base 6.2.0
 _ZN15QQuickContainer20contentHeightChangedEv@Base 6.2.0
 _ZN15QQuickContainer21decrementCurrentIndexEv@Base 6.2.0
 _ZN15QQuickContainer21incrementCurrentIndexEv@Base 6.2.0
 _ZN15QQuickContainer22contentChildrenChangedEv@Base 6.2.0
 _ZN15QQuickContainer7addItemEP10QQuickItem@Base 6.2.0
 _ZN15QQuickContainer8moveItemEii@Base 6.2.0
 _ZN15QQuickContainer8takeItemEi@Base 6.2.0
 _ZN15QQuickContainer9itemAddedEiP10QQuickItem@Base 6.2.0
 _ZN15QQuickContainer9itemMovedEiP10QQuickItem@Base 6.2.0
 _ZN15QQuickContainerC1EP10QQuickItem@Base 6.2.0
 _ZN15QQuickContainerC1ER22QQuickContainerPrivateP10QQuickItem@Base 6.2.0
 _ZN15QQuickContainerC2EP10QQuickItem@Base 6.2.0
 _ZN15QQuickContainerC2ER22QQuickContainerPrivateP10QQuickItem@Base 6.2.0
 _ZN15QQuickContainerD0Ev@Base 6.2.0
 _ZN15QQuickContainerD1Ev@Base 6.2.0
 _ZN15QQuickContainerD2Ev@Base 6.2.0
 _ZN15QQuickPopupItem10fontChangeERK5QFontS2_@Base 6.2.0
 _ZN15QQuickPopupItem10itemChangeEN10QQuickItem10ItemChangeERKNS0_14ItemChangeDataE@Base 6.2.0
 _ZN15QQuickPopupItem10touchEventEP11QTouchEvent@Base 6.2.0
 _ZN15QQuickPopupItem10wheelEventEP11QWheelEvent@Base 6.2.0
 _ZN15QQuickPopupItem11qt_metacallEN11QMetaObject4CallEiPPv@Base 6.2.0
 _ZN15QQuickPopupItem11qt_metacastEPKc@Base 6.2.0
 _ZN15QQuickPopupItem12focusInEventEP11QFocusEvent@Base 6.2.0
 _ZN15QQuickPopupItem12grabShortcutEv@Base 6.2.0
 _ZN15QQuickPopupItem12localeChangeERK7QLocaleS2_@Base 6.2.0
 _ZN15QQuickPopupItem12mirrorChangeEv@Base 6.2.0
 _ZN15QQuickPopupItem12updatePolishEv@Base 6.2.0
 _ZN15QQuickPopupItem13enabledChangeEv@Base 6.2.0
 _ZN15QQuickPopupItem13focusOutEventEP11QFocusEvent@Base 6.2.0
 _ZN15QQuickPopupItem13keyPressEventEP9QKeyEvent@Base 6.2.0
 _ZN15QQuickPopupItem13paddingChangeERK9QMarginsFS2_@Base 6.2.0
 _ZN15QQuickPopupItem14geometryChangeERK6QRectFS2_@Base 6.2.0
 _ZN15QQuickPopupItem14mouseMoveEventEP11QMouseEvent@Base 6.2.0
 _ZN15QQuickPopupItem14ungrabShortcutEv@Base 6.2.0
 _ZN15QQuickPopupItem15keyReleaseEventEP9QKeyEvent@Base 6.2.0
 _ZN15QQuickPopupItem15mousePressEventEP11QMouseEvent@Base 6.2.0
 _ZN15QQuickPopupItem16mouseUngrabEventEv@Base 6.2.0
 _ZN15QQuickPopupItem16staticMetaObjectE@Base 6.2.0
 _ZN15QQuickPopupItem16touchUngrabEventEv@Base 6.2.0
 _ZN15QQuickPopupItem17contentItemChangeEP10QQuickItemS1_@Base 6.2.0
 _ZN15QQuickPopupItem17contentSizeChangeERK6QSizeFS2_@Base 6.2.0
 _ZN15QQuickPopupItem17mouseReleaseEventEP11QMouseEvent@Base 6.2.0
 _ZN15QQuickPopupItem21childMouseEventFilterEP10QQuickItemP6QEvent@Base 6.2.0
 _ZN15QQuickPopupItem21mouseDoubleClickEventEP11QMouseEvent@Base 6.2.0
 _ZN15QQuickPopupItem26accessibilityActiveChangedEb@Base 6.2.0
 _ZN15QQuickPopupItem5eventEP6QEvent@Base 6.2.0
 _ZN15QQuickPopupItemC1EP11QQuickPopup@Base 6.2.0
 _ZN15QQuickPopupItemC2EP11QQuickPopup@Base 6.2.0
 _ZN15QQuickScrollBar10classBeginEv@Base 6.2.0
 _ZN15QQuickScrollBar10setPressedEb@Base 6.2.0
 _ZN15QQuickScrollBar11hoverChangeEv@Base 6.2.0
 _ZN15QQuickScrollBar11qt_metacallEN11QMetaObject4CallEiPPv@Base 6.2.0
 _ZN15QQuickScrollBar11qt_metacastEPKc@Base 6.2.0
 _ZN15QQuickScrollBar11setPositionEd@Base 6.2.0
 _ZN15QQuickScrollBar11setSnapModeENS_8SnapModeE@Base 6.2.0
 _ZN15QQuickScrollBar11setStepSizeEd@Base 6.2.0
 _ZN15QQuickScrollBar11sizeChangedEv@Base 6.2.0
 _ZN15QQuickScrollBar13activeChangedEv@Base 6.2.0
 _ZN15QQuickScrollBar13policyChangedEv@Base 6.2.0
 _ZN15QQuickScrollBar14decreaseVisualEv@Base 6.2.0
 _ZN15QQuickScrollBar14hoverMoveEventEP11QHoverEvent@Base 6.2.0
 _ZN15QQuickScrollBar14increaseVisualEv@Base 6.2.0
 _ZN15QQuickScrollBar14pressedChangedEv@Base 6.2.0
 _ZN15QQuickScrollBar14setInteractiveEb@Base 6.2.0
 _ZN15QQuickScrollBar14setMinimumSizeEd@Base 6.2.0
 _ZN15QQuickScrollBar14setOrientationEN2Qt11OrientationE@Base 6.2.0
 _ZN15QQuickScrollBar15hoverEnterEventEP11QHoverEvent@Base 6.2.0
 _ZN15QQuickScrollBar15hoverLeaveEventEP11QHoverEvent@Base 6.2.0
 _ZN15QQuickScrollBar15mousePressEventEP11QMouseEvent@Base 6.2.0
 _ZN15QQuickScrollBar15positionChangedEv@Base 6.2.0
 _ZN15QQuickScrollBar15snapModeChangedEv@Base 6.2.0
 _ZN15QQuickScrollBar15stepSizeChangedEv@Base 6.2.0
 _ZN15QQuickScrollBar16resetInteractiveEv@Base 6.2.0
 _ZN15QQuickScrollBar16staticMetaObjectE@Base 6.2.0
 _ZN15QQuickScrollBar17componentCompleteEv@Base 6.2.0
 _ZN15QQuickScrollBar17visualSizeChangedEv@Base 6.2.0
 _ZN15QQuickScrollBar18interactiveChangedEv@Base 6.2.0
 _ZN15QQuickScrollBar18minimumSizeChangedEv@Base 6.2.0
 _ZN15QQuickScrollBar18orientationChangedEv@Base 6.2.0
 _ZN15QQuickScrollBar21qmlAttachedPropertiesEP7QObject@Base 6.2.0
 _ZN15QQuickScrollBar21visualPositionChangedEv@Base 6.2.0
 _ZN15QQuickScrollBar26accessibilityActiveChangedEb@Base 6.2.0
 _ZN15QQuickScrollBar7setSizeEd@Base 6.2.0
 _ZN15QQuickScrollBar8decreaseEv@Base 6.2.0
 _ZN15QQuickScrollBar8increaseEv@Base 6.2.0
 _ZN15QQuickScrollBar9setActiveEb@Base 6.2.0
 _ZN15QQuickScrollBar9setPolicyENS_6PolicyE@Base 6.2.0
 _ZN15QQuickScrollBarC1EP10QQuickItem@Base 6.2.0
 _ZN15QQuickScrollBarC2EP10QQuickItem@Base 6.2.0
 _ZN15QQuickSplitView11itemRemovedEiP10QQuickItem@Base 6.2.0
 _ZN15QQuickSplitView11qt_metacallEN11QMetaObject4CallEiPPv@Base 6.2.0
 _ZN15QQuickSplitView11qt_metacastEPKc@Base 6.2.0
 _ZN15QQuickSplitView12restoreStateERK8QVariant@Base 6.2.0
 _ZN15QQuickSplitView13handleChangedEv@Base 6.2.0
 _ZN15QQuickSplitView14geometryChangeERK6QRectFS2_@Base 6.2.0
 _ZN15QQuickSplitView14hoverMoveEventEP11QHoverEvent@Base 6.2.0
 _ZN15QQuickSplitView14setOrientationEN2Qt11OrientationE@Base 6.2.0
 _ZN15QQuickSplitView15resizingChangedEv@Base 6.2.0
 _ZN15QQuickSplitView16staticMetaObjectE@Base 6.2.0
 _ZN15QQuickSplitView17componentCompleteEv@Base 6.2.0
 _ZN15QQuickSplitView18orientationChangedEv@Base 6.2.0
 _ZN15QQuickSplitView21childMouseEventFilterEP10QQuickItemP6QEvent@Base 6.2.0
 _ZN15QQuickSplitView21qmlAttachedPropertiesEP7QObject@Base 6.2.0
 _ZN15QQuickSplitView6handleEv@Base 6.2.0
 _ZN15QQuickSplitView9itemAddedEiP10QQuickItem@Base 6.2.0
 _ZN15QQuickSplitView9itemMovedEiP10QQuickItem@Base 6.2.0
 _ZN15QQuickSplitView9saveStateEv@Base 6.2.0
 _ZN15QQuickSplitView9setHandleEP13QQmlComponent@Base 6.2.0
 _ZN15QQuickSplitViewC1EP10QQuickItem@Base 6.2.0
 _ZN15QQuickSplitViewC1ER22QQuickSplitViewPrivateP10QQuickItem@Base 6.2.0
 _ZN15QQuickSplitViewC2EP10QQuickItem@Base 6.2.0
 _ZN15QQuickSplitViewC2ER22QQuickSplitViewPrivateP10QQuickItem@Base 6.2.0
 _ZN15QQuickSplitViewD0Ev@Base 6.2.0
 _ZN15QQuickSplitViewD1Ev@Base 6.2.0
 _ZN15QQuickSplitViewD2Ev@Base 6.2.0
 _ZN15QQuickStackView10setPopExitEP16QQuickTransition@Base 6.2.0
 _ZN15QQuickStackView10touchEventEP11QTouchEvent@Base 6.2.0
 _ZN15QQuickStackView11busyChangedEv@Base 6.2.0
 _ZN15QQuickStackView11qt_metacallEN11QMetaObject4CallEiPPv@Base 6.2.0
 _ZN15QQuickStackView11qt_metacastEPKc@Base 6.2.0
 _ZN15QQuickStackView11setPopEnterEP16QQuickTransition@Base 6.2.0
 _ZN15QQuickStackView11setPushExitEP16QQuickTransition@Base 6.2.0
 _ZN15QQuickStackView12depthChangedEv@Base 6.2.0
 _ZN15QQuickStackView12emptyChangedEv@Base 6.2.0
 _ZN15QQuickStackView12setPushEnterEP16QQuickTransition@Base 6.2.0
 _ZN15QQuickStackView14geometryChangeERK6QRectFS2_@Base 6.2.0
 _ZN15QQuickStackView14popExitChangedEv@Base 6.2.0
 _ZN15QQuickStackView14setInitialItemERK8QJSValue@Base 6.2.0
 _ZN15QQuickStackView14setReplaceExitEP16QQuickTransition@Base 6.2.0
 _ZN15QQuickStackView15popEnterChangedEv@Base 6.2.0
 _ZN15QQuickStackView15pushExitChangedEv@Base 6.2.0
 _ZN15QQuickStackView15setReplaceEnterEP16QQuickTransition@Base 6.2.0
 _ZN15QQuickStackView16pushEnterChangedEv@Base 6.2.0
 _ZN15QQuickStackView16staticMetaObjectE@Base 6.2.0
 _ZN15QQuickStackView17componentCompleteEv@Base 6.2.0
 _ZN15QQuickStackView18currentItemChangedEv@Base 6.2.0
 _ZN15QQuickStackView18replaceExitChangedEv@Base 6.2.0
 _ZN15QQuickStackView19replaceEnterChangedEv@Base 6.2.0
 _ZN15QQuickStackView21childMouseEventFilterEP10QQuickItemP6QEvent@Base 6.2.0
 _ZN15QQuickStackView21qmlAttachedPropertiesEP7QObject@Base 6.2.0
 _ZN15QQuickStackView3getEiNS_12LoadBehaviorE@Base 6.2.0
 _ZN15QQuickStackView3popEP14QQmlV4Function@Base 6.2.0
 _ZN15QQuickStackView4findERK8QJSValueNS_12LoadBehaviorE@Base 6.2.0
 _ZN15QQuickStackView4pushEP14QQmlV4Function@Base 6.2.0
 _ZN15QQuickStackView5clearENS_9OperationE@Base 6.2.0
 _ZN15QQuickStackView7replaceEP14QQmlV4Function@Base 6.2.0
 _ZN15QQuickStackViewC1EP10QQuickItem@Base 6.2.0
 _ZN15QQuickStackViewC2EP10QQuickItem@Base 6.2.0
 _ZN15QQuickStackViewD0Ev@Base 6.2.0
 _ZN15QQuickStackViewD1Ev@Base 6.2.0
 _ZN15QQuickStackViewD2Ev@Base 6.2.0
 _ZN15QQuickSwipeView11itemRemovedEiP10QQuickItem@Base 6.2.0
 _ZN15QQuickSwipeView11qt_metacallEN11QMetaObject4CallEiPPv@Base 6.2.0
 _ZN15QQuickSwipeView11qt_metacastEPKc@Base 6.2.0
 _ZN15QQuickSwipeView14geometryChangeERK6QRectFS2_@Base 6.2.0
 _ZN15QQuickSwipeView14setInteractiveEb@Base 6.2.0
 _ZN15QQuickSwipeView14setOrientationEN2Qt11OrientationE@Base 6.2.0
 _ZN15QQuickSwipeView16staticMetaObjectE@Base 6.2.0
 _ZN15QQuickSwipeView18interactiveChangedEv@Base 6.2.0
 _ZN15QQuickSwipeView18orientationChangedEv@Base 6.2.0
 _ZN15QQuickSwipeView21qmlAttachedPropertiesEP7QObject@Base 6.2.0
 _ZN15QQuickSwipeView9itemAddedEiP10QQuickItem@Base 6.2.0
 _ZN15QQuickSwipeView9itemMovedEiP10QQuickItem@Base 6.2.0
 _ZN15QQuickSwipeViewC1EP10QQuickItem@Base 6.2.0
 _ZN15QQuickSwipeViewC2EP10QQuickItem@Base 6.2.0
 _ZN15QQuickTabButton11qt_metacallEN11QMetaObject4CallEiPPv@Base 6.2.0
 _ZN15QQuickTabButton11qt_metacastEPKc@Base 6.2.0
 _ZN15QQuickTabButton16staticMetaObjectE@Base 6.2.0
 _ZN15QQuickTabButtonC1EP10QQuickItem@Base 6.2.0
 _ZN15QQuickTabButtonC2EP10QQuickItem@Base 6.2.0
 _ZN15QQuickTextField10classBeginEv@Base 6.2.0
 _ZN15QQuickTextField10itemChangeEN10QQuickItem10ItemChangeERKNS0_14ItemChangeDataE@Base 6.2.0
 _ZN15QQuickTextField10setHoveredEb@Base 6.2.0
 _ZN15QQuickTextField10timerEventEP11QTimerEvent@Base 6.2.0
 _ZN15QQuickTextField11fontChangedEv@Base 6.2.0
 _ZN15QQuickTextField11insetChangeERK9QMarginsFS2_@Base 6.2.0
 _ZN15QQuickTextField11qt_metacallEN11QMetaObject4CallEiPPv@Base 6.2.0
 _ZN15QQuickTextField11qt_metacastEPKc@Base 6.2.0
 _ZN15QQuickTextField11setTopInsetEd@Base 6.2.0
 _ZN15QQuickTextField12focusInEventEP11QFocusEvent@Base 6.2.0
 _ZN15QQuickTextField12pressAndHoldEP16QQuickMouseEvent@Base 6.2.0
 _ZN15QQuickTextField12setLeftInsetEd@Base 6.2.0
 _ZN15QQuickTextField13focusOutEventEP11QFocusEvent@Base 6.2.0
 _ZN15QQuickTextField13resetTopInsetEv@Base 6.2.0
 _ZN15QQuickTextField13setBackgroundEP10QQuickItem@Base 6.2.0
 _ZN15QQuickTextField13setRightInsetEd@Base 6.2.0
 _ZN15QQuickTextField14geometryChangeERK6QRectFS2_@Base 6.2.0
 _ZN15QQuickTextField14hoveredChangedEv@Base 6.2.0
 _ZN15QQuickTextField14mouseMoveEventEP11QMouseEvent@Base 6.2.0
 _ZN15QQuickTextField14resetLeftInsetEv@Base 6.2.0
 _ZN15QQuickTextField14setBottomInsetEd@Base 6.2.0
 _ZN15QQuickTextField14setFocusReasonEN2Qt11FocusReasonE@Base 6.2.0
 _ZN15QQuickTextField15hoverEnterEventEP11QHoverEvent@Base 6.2.0
 _ZN15QQuickTextField15hoverLeaveEventEP11QHoverEvent@Base 6.2.0
 _ZN15QQuickTextField15mousePressEventEP11QMouseEvent@Base 6.2.0
 _ZN15QQuickTextField15resetRightInsetEv@Base 6.2.0
 _ZN15QQuickTextField15setHoverEnabledEb@Base 6.2.0
 _ZN15QQuickTextField15topInsetChangedEv@Base 6.2.0
 _ZN15QQuickTextField15updatePaintNodeEP7QSGNodePN10QQuickItem19UpdatePaintNodeDataE@Base 6.2.0
 _ZN15QQuickTextField16leftInsetChangedEv@Base 6.2.0
 _ZN15QQuickTextField16resetBottomInsetEv@Base 6.2.0
 _ZN15QQuickTextField16staticMetaObjectE@Base 6.2.0
 _ZN15QQuickTextField17backgroundChangedEv@Base 6.2.0
 _ZN15QQuickTextField17componentCompleteEv@Base 6.2.0
 _ZN15QQuickTextField17mouseReleaseEventEP11QMouseEvent@Base 6.2.0
 _ZN15QQuickTextField17resetHoverEnabledEv@Base 6.2.0
 _ZN15QQuickTextField17rightInsetChangedEv@Base 6.2.0
 _ZN15QQuickTextField18bottomInsetChangedEv@Base 6.2.0
 _ZN15QQuickTextField18focusReasonChangedEv@Base 6.2.0
 _ZN15QQuickTextField18setPlaceholderTextERK7QString@Base 6.2.0
 _ZN15QQuickTextField19hoverEnabledChangedEv@Base 6.2.0
 _ZN15QQuickTextField21implicitWidthChanged3Ev@Base 6.2.0
 _ZN15QQuickTextField21mouseDoubleClickEventEP11QMouseEvent@Base 6.2.0
 _ZN15QQuickTextField22implicitHeightChanged3Ev@Base 6.2.0
 _ZN15QQuickTextField22placeholderTextChangedEv@Base 6.2.0
 _ZN15QQuickTextField23setPlaceholderTextColorERK6QColor@Base 6.2.0
 _ZN15QQuickTextField27placeholderTextColorChangedEv@Base 6.2.0
 _ZN15QQuickTextField30implicitBackgroundWidthChangedEv@Base 6.2.0
 _ZN15QQuickTextField31implicitBackgroundHeightChangedEv@Base 6.2.0
 _ZN15QQuickTextField7pressedEP16QQuickMouseEvent@Base 6.2.0
 _ZN15QQuickTextField7setFontERK5QFont@Base 6.2.0
 _ZN15QQuickTextField8releasedEP16QQuickMouseEvent@Base 6.2.0
 _ZN15QQuickTextFieldC1EP10QQuickItem@Base 6.2.0
 _ZN15QQuickTextFieldC2EP10QQuickItem@Base 6.2.0
 _ZN15QQuickTextFieldD0Ev@Base 6.2.0
 _ZN15QQuickTextFieldD1Ev@Base 6.2.0
 _ZN15QQuickTextFieldD2Ev@Base 6.2.0
 _ZN16QQuickScrollView11eventFilterEP7QObjectP6QEvent@Base 6.2.0
 _ZN16QQuickScrollView11qt_metacallEN11QMetaObject4CallEiPPv@Base 6.2.0
 _ZN16QQuickScrollView11qt_metacastEPKc@Base 6.2.0
 _ZN16QQuickScrollView13keyPressEventEP9QKeyEvent@Base 6.2.0
 _ZN16QQuickScrollView16staticMetaObjectE@Base 6.2.0
 _ZN16QQuickScrollView17componentCompleteEv@Base 6.2.0
 _ZN16QQuickScrollView17contentItemChangeEP10QQuickItemS1_@Base 6.2.0
 _ZN16QQuickScrollView17contentSizeChangeERK6QSizeFS2_@Base 6.2.0
 _ZN16QQuickScrollView21childMouseEventFilterEP10QQuickItemP6QEvent@Base 6.2.0
 _ZN16QQuickScrollViewC1EP10QQuickItem@Base 6.2.0
 _ZN16QQuickScrollViewC2EP10QQuickItem@Base 6.2.0
 _ZN16QQuickToolButton11qt_metacallEN11QMetaObject4CallEiPPv@Base 6.2.0
 _ZN16QQuickToolButton11qt_metacastEPKc@Base 6.2.0
 _ZN16QQuickToolButton16staticMetaObjectE@Base 6.2.0
 _ZN16QQuickToolButtonC1EP10QQuickItem@Base 6.2.0
 _ZN16QQuickToolButtonC2EP10QQuickItem@Base 6.2.0
 _ZN17QQuickActionGroup10setEnabledEb@Base 6.2.0
 _ZN17QQuickActionGroup11qt_metacallEN11QMetaObject4CallEiPPv@Base 6.2.0
 _ZN17QQuickActionGroup11qt_metacastEPKc@Base 6.2.0
 _ZN17QQuickActionGroup12removeActionEP12QQuickAction@Base 6.2.0
 _ZN17QQuickActionGroup12setExclusiveEb@Base 6.2.0
 _ZN17QQuickActionGroup14actionsChangedEv@Base 6.2.0
 _ZN17QQuickActionGroup14enabledChangedEv@Base 6.2.0
 _ZN17QQuickActionGroup16exclusiveChangedEv@Base 6.2.0
 _ZN17QQuickActionGroup16setCheckedActionEP12QQuickAction@Base 6.2.0
 _ZN17QQuickActionGroup16staticMetaObjectE@Base 6.2.0
 _ZN17QQuickActionGroup20checkedActionChangedEv@Base 6.2.0
 _ZN17QQuickActionGroup21qmlAttachedPropertiesEP7QObject@Base 6.2.0
 _ZN17QQuickActionGroup7actionsEv@Base 6.2.0
 _ZN17QQuickActionGroup9addActionEP12QQuickAction@Base 6.2.0
 _ZN17QQuickActionGroup9triggeredEP12QQuickAction@Base 6.2.0
 _ZN17QQuickActionGroupC1EP7QObject@Base 6.2.0
 _ZN17QQuickActionGroupC2EP7QObject@Base 6.2.0
 _ZN17QQuickActionGroupD0Ev@Base 6.2.0
 _ZN17QQuickActionGroupD1Ev@Base 6.2.0
 _ZN17QQuickActionGroupD2Ev@Base 6.2.0
 _ZN17QQuickButtonGroup10classBeginEv@Base 6.2.0
 _ZN17QQuickButtonGroup11qt_metacallEN11QMetaObject4CallEiPPv@Base 6.2.0
 _ZN17QQuickButtonGroup11qt_metacastEPKc@Base 6.2.0
 _ZN17QQuickButtonGroup12removeButtonEP20QQuickAbstractButton@Base 6.2.0
 _ZN17QQuickButtonGroup12setExclusiveEb@Base 6.2.0
 _ZN17QQuickButtonGroup13setCheckStateEN2Qt10CheckStateE@Base 6.2.0
 _ZN17QQuickButtonGroup14buttonsChangedEv@Base 6.2.0
 _ZN17QQuickButtonGroup16exclusiveChangedEv@Base 6.2.0
 _ZN17QQuickButtonGroup16setCheckedButtonEP20QQuickAbstractButton@Base 6.2.0
 _ZN17QQuickButtonGroup16staticMetaObjectE@Base 6.2.0
 _ZN17QQuickButtonGroup17checkStateChangedEv@Base 6.2.0
 _ZN17QQuickButtonGroup17componentCompleteEv@Base 6.2.0
 _ZN17QQuickButtonGroup20checkedButtonChangedEv@Base 6.2.0
 _ZN17QQuickButtonGroup21qmlAttachedPropertiesEP7QObject@Base 6.2.0
 _ZN17QQuickButtonGroup7buttonsEv@Base 6.2.0
 _ZN17QQuickButtonGroup7clickedEP20QQuickAbstractButton@Base 6.2.0
 _ZN17QQuickButtonGroup9addButtonEP20QQuickAbstractButton@Base 6.2.0
 _ZN17QQuickButtonGroupC1EP7QObject@Base 6.2.0
 _ZN17QQuickButtonGroupC2EP7QObject@Base 6.2.0
 _ZN17QQuickButtonGroupD0Ev@Base 6.2.0
 _ZN17QQuickButtonGroupD1Ev@Base 6.2.0
 _ZN17QQuickButtonGroupD2Ev@Base 6.2.0
 _ZN17QQuickContentItem11qt_metacallEN11QMetaObject4CallEiPPv@Base 6.2.0
 _ZN17QQuickContentItem11qt_metacastEPKc@Base 6.2.0
 _ZN17QQuickContentItem16staticMetaObjectE@Base 6.2.0
 _ZN17QQuickContentItemC1EP10QQuickItem@Base 6.2.0
 _ZN17QQuickContentItemC1EPK7QObjectP10QQuickItem@Base 6.2.0
 _ZN17QQuickContentItemC2EP10QQuickItem@Base 6.2.0
 _ZN17QQuickContentItemC2EPK7QObjectP10QQuickItem@Base 6.2.0
 _ZN17QQuickDelayButton11qt_metacallEN11QMetaObject4CallEiPPv@Base 6.2.0
 _ZN17QQuickDelayButton11qt_metacastEPKc@Base 6.2.0
 _ZN17QQuickDelayButton11setProgressEd@Base 6.2.0
 _ZN17QQuickDelayButton12buttonChangeEN20QQuickAbstractButton12ButtonChangeE@Base 6.2.0
 _ZN17QQuickDelayButton12delayChangedEv@Base 6.2.0
 _ZN17QQuickDelayButton13setTransitionEP16QQuickTransition@Base 6.2.0
 _ZN17QQuickDelayButton14nextCheckStateEv@Base 6.2.0
 _ZN17QQuickDelayButton15progressChangedEv@Base 6.2.0
 _ZN17QQuickDelayButton16staticMetaObjectE@Base 6.2.0
 _ZN17QQuickDelayButton17transitionChangedEv@Base 6.2.0
 _ZN17QQuickDelayButton8setDelayEi@Base 6.2.0
 _ZN17QQuickDelayButton9activatedEv@Base 6.2.0
 _ZN17QQuickDelayButtonC1EP10QQuickItem@Base 6.2.0
 _ZN17QQuickDelayButtonC2EP10QQuickItem@Base 6.2.0
 _ZN17QQuickMenuBarItem11menuChangedEv@Base 6.2.0
 _ZN17QQuickMenuBarItem11qt_metacallEN11QMetaObject4CallEiPPv@Base 6.2.0
 _ZN17QQuickMenuBarItem11qt_metacastEPKc@Base 6.2.0
 _ZN17QQuickMenuBarItem14geometryChangeERK6QRectFS2_@Base 6.2.0
 _ZN17QQuickMenuBarItem14menuBarChangedEv@Base 6.2.0
 _ZN17QQuickMenuBarItem14setHighlightedEb@Base 6.2.0
 _ZN17QQuickMenuBarItem16staticMetaObjectE@Base 6.2.0
 _ZN17QQuickMenuBarItem18highlightedChangedEv@Base 6.2.0
 _ZN17QQuickMenuBarItem7setMenuEP10QQuickMenu@Base 6.2.0
 _ZN17QQuickMenuBarItem9triggeredEv@Base 6.2.0
 _ZN17QQuickMenuBarItemC1EP10QQuickItem@Base 6.2.0
 _ZN17QQuickMenuBarItemC2EP10QQuickItem@Base 6.2.0
 _ZN17QQuickMenuPrivate10createItemEP10QQuickMenu@Base 6.2.0
 _ZN17QQuickMenuPrivate10createItemEP12QQuickAction@Base 6.2.0
 _ZN17QQuickMenuPrivate10insertItemEiP10QQuickItem@Base 6.2.0
 _ZN17QQuickMenuPrivate10removeItemEiP10QQuickItem@Base 6.2.0
 _ZN17QQuickMenuPrivate10resizeItemEP10QQuickItem@Base 6.2.0
 _ZN17QQuickMenuPrivate11resizeItemsEv@Base 6.2.0
 _ZN17QQuickMenuPrivate13getPositionerEv@Base 6.2.0
 _ZN17QQuickMenuPrivate13itemDestroyedEP10QQuickItem@Base 6.2.0
 _ZN17QQuickMenuPrivate13onItemHoveredEv@Base 6.2.0
 _ZN17QQuickMenuPrivate13setParentMenuEP10QQuickMenu@Base 6.2.0
 (subst)_ZN17QQuickMenuPrivate14contentData_atEP16QQmlListPropertyI7QObjectE{qptrdiff}@Base 6.2.0
 _ZN17QQuickMenuPrivate14itemChildAddedEP10QQuickItemS1_@Base 6.2.0
 _ZN17QQuickMenuPrivate14stopHoverTimerEv@Base 6.2.0
 _ZN17QQuickMenuPrivate15beginCreateItemEv@Base 6.2.0
 _ZN17QQuickMenuPrivate15onItemTriggeredEv@Base 6.2.0
 _ZN17QQuickMenuPrivate15setCurrentIndexEiN2Qt11FocusReasonE@Base 6.2.0
 _ZN17QQuickMenuPrivate15startHoverTimerEv@Base 6.2.0
 _ZN17QQuickMenuPrivate16activateNextItemEv@Base 6.2.0
 _ZN17QQuickMenuPrivate17contentData_clearEP16QQmlListPropertyI7QObjectE@Base 6.2.0
 _ZN17QQuickMenuPrivate17contentData_countEP16QQmlListPropertyI7QObjectE@Base 6.2.0
 _ZN17QQuickMenuPrivate17itemParentChangedEP10QQuickItemS1_@Base 6.2.0
 _ZN17QQuickMenuPrivate17propagateKeyEventEP9QKeyEvent@Base 6.2.0
 _ZN17QQuickMenuPrivate17resolveParentItemEv@Base 6.2.0
 _ZN17QQuickMenuPrivate18completeCreateItemEv@Base 6.2.0
 _ZN17QQuickMenuPrivate18contentData_appendEP16QQmlListPropertyI7QObjectEPS1_@Base 6.2.0
 _ZN17QQuickMenuPrivate19itemGeometryChangedEP10QQuickItem20QQuickGeometryChangeRK6QRectF@Base 6.2.0
 _ZN17QQuickMenuPrivate20activatePreviousItemEv@Base 6.2.0
 _ZN17QQuickMenuPrivate21prepareExitTransitionEv@Base 6.2.0
 _ZN17QQuickMenuPrivate22prepareEnterTransitionEv@Base 6.2.0
 _ZN17QQuickMenuPrivate23itemSiblingOrderChangedEP10QQuickItem@Base 6.2.0
 _ZN17QQuickMenuPrivate24onItemActiveFocusChangedEv@Base 6.2.0
 _ZN17QQuickMenuPrivate4initEv@Base 6.2.0
 _ZN17QQuickMenuPrivate8moveItemEii@Base 6.2.0
 _ZN17QQuickMenuPrivateC1Ev@Base 6.2.0
 _ZN17QQuickMenuPrivateC2Ev@Base 6.2.0
 _ZN17QQuickPanePrivate11contentDataEv@Base 6.2.0
 _ZN17QQuickPanePrivate14getContentItemEv@Base 6.2.0
 _ZN17QQuickPanePrivate15contentChildrenEv@Base 6.2.0
 _ZN17QQuickPanePrivate18updateContentWidthEv@Base 6.2.0
 _ZN17QQuickPanePrivate19updateContentHeightEv@Base 6.2.0
 _ZN17QQuickPanePrivate21contentChildrenChangeEv@Base 6.2.0
 _ZN17QQuickPanePrivate24itemImplicitWidthChangedEP10QQuickItem@Base 6.2.0
 _ZN17QQuickPanePrivate25itemImplicitHeightChangedEP10QQuickItem@Base 6.2.0
 _ZN17QQuickPanePrivate4initEv@Base 6.2.0
 _ZN17QQuickProgressBar11fromChangedEv@Base 6.2.0
 _ZN17QQuickProgressBar11qt_metacallEN11QMetaObject4CallEiPPv@Base 6.2.0
 _ZN17QQuickProgressBar11qt_metacastEPKc@Base 6.2.0
 _ZN17QQuickProgressBar12mirrorChangeEv@Base 6.2.0
 _ZN17QQuickProgressBar12valueChangedEv@Base 6.2.0
 _ZN17QQuickProgressBar15positionChangedEv@Base 6.2.0
 _ZN17QQuickProgressBar16setIndeterminateEb@Base 6.2.0
 _ZN17QQuickProgressBar16staticMetaObjectE@Base 6.2.0
 _ZN17QQuickProgressBar17componentCompleteEv@Base 6.2.0
 _ZN17QQuickProgressBar20indeterminateChangedEv@Base 6.2.0
 _ZN17QQuickProgressBar21visualPositionChangedEv@Base 6.2.0
 _ZN17QQuickProgressBar5setToEd@Base 6.2.0
 _ZN17QQuickProgressBar7setFromEd@Base 6.2.0
 _ZN17QQuickProgressBar8setValueEd@Base 6.2.0
 _ZN17QQuickProgressBar9toChangedEv@Base 6.2.0
 _ZN17QQuickProgressBarC1EP10QQuickItem@Base 6.2.0
 _ZN17QQuickProgressBarC2EP10QQuickItem@Base 6.2.0
 _ZN17QQuickRadioButton11qt_metacallEN11QMetaObject4CallEiPPv@Base 6.2.0
 _ZN17QQuickRadioButton11qt_metacastEPKc@Base 6.2.0
 _ZN17QQuickRadioButton16staticMetaObjectE@Base 6.2.0
 _ZN17QQuickRadioButtonC1EP10QQuickItem@Base 6.2.0
 _ZN17QQuickRadioButtonC2EP10QQuickItem@Base 6.2.0
 _ZN17QQuickRangeSlider10classBeginEv@Base 6.2.0
 _ZN17QQuickRangeSlider10touchEventEP11QTouchEvent@Base 6.2.0
 _ZN17QQuickRangeSlider11fromChangedEv@Base 6.2.0
 _ZN17QQuickRangeSlider11liveChangedEv@Base 6.2.0
 _ZN17QQuickRangeSlider11qt_metacallEN11QMetaObject4CallEiPPv@Base 6.2.0
 _ZN17QQuickRangeSlider11qt_metacastEPKc@Base 6.2.0
 _ZN17QQuickRangeSlider11setSnapModeENS_8SnapModeE@Base 6.2.0
 _ZN17QQuickRangeSlider11setStepSizeEd@Base 6.2.0
 _ZN17QQuickRangeSlider12focusInEventEP11QFocusEvent@Base 6.2.0
 _ZN17QQuickRangeSlider12mirrorChangeEv@Base 6.2.0
 _ZN17QQuickRangeSlider13keyPressEventEP9QKeyEvent@Base 6.2.0
 _ZN17QQuickRangeSlider14hoverMoveEventEP11QHoverEvent@Base 6.2.0
 _ZN17QQuickRangeSlider14setOrientationEN2Qt11OrientationE@Base 6.2.0
 _ZN17QQuickRangeSlider15hoverEnterEventEP11QHoverEvent@Base 6.2.0
 _ZN17QQuickRangeSlider15hoverLeaveEventEP11QHoverEvent@Base 6.2.0
 _ZN17QQuickRangeSlider15keyReleaseEventEP9QKeyEvent@Base 6.2.0
 _ZN17QQuickRangeSlider15mousePressEventEP11QMouseEvent@Base 6.2.0
 _ZN17QQuickRangeSlider15snapModeChangedEv@Base 6.2.0
 _ZN17QQuickRangeSlider15stepSizeChangedEv@Base 6.2.0
 _ZN17QQuickRangeSlider16staticMetaObjectE@Base 6.2.0
 _ZN17QQuickRangeSlider17componentCompleteEv@Base 6.2.0
 _ZN17QQuickRangeSlider18orientationChangedEv@Base 6.2.0
 _ZN17QQuickRangeSlider21setTouchDragThresholdEd@Base 6.2.0
 _ZN17QQuickRangeSlider23resetTouchDragThresholdEv@Base 6.2.0
 _ZN17QQuickRangeSlider25touchDragThresholdChangedEv@Base 6.2.0
 _ZN17QQuickRangeSlider5setToEd@Base 6.2.0
 _ZN17QQuickRangeSlider7setFromEd@Base 6.2.0
 _ZN17QQuickRangeSlider7setLiveEb@Base 6.2.0
 _ZN17QQuickRangeSlider9setValuesEdd@Base 6.2.0
 _ZN17QQuickRangeSlider9toChangedEv@Base 6.2.0
 _ZN17QQuickRangeSliderC1EP10QQuickItem@Base 6.2.0
 _ZN17QQuickRangeSliderC2EP10QQuickItem@Base 6.2.0
 _ZN17QQuickRangeSliderD0Ev@Base 6.2.0
 _ZN17QQuickRangeSliderD1Ev@Base 6.2.0
 _ZN17QQuickRangeSliderD2Ev@Base 6.2.0
 _ZN17QQuickRoundButton11qt_metacallEN11QMetaObject4CallEiPPv@Base 6.2.0
 _ZN17QQuickRoundButton11qt_metacastEPKc@Base 6.2.0
 _ZN17QQuickRoundButton11resetRadiusEv@Base 6.2.0
 _ZN17QQuickRoundButton13radiusChangedEv@Base 6.2.0
 _ZN17QQuickRoundButton14geometryChangeERK6QRectFS2_@Base 6.2.0
 _ZN17QQuickRoundButton16staticMetaObjectE@Base 6.2.0
 _ZN17QQuickRoundButton9setRadiusEd@Base 6.2.0
 _ZN17QQuickRoundButtonC1EP10QQuickItem@Base 6.2.0
 _ZN17QQuickRoundButtonC2EP10QQuickItem@Base 6.2.0
 _ZN18QQuickItemDelegate11qt_metacallEN11QMetaObject4CallEiPPv@Base 6.2.0
 _ZN18QQuickItemDelegate11qt_metacastEPKc@Base 6.2.0
 _ZN18QQuickItemDelegate14setHighlightedEb@Base 6.2.0
 _ZN18QQuickItemDelegate16staticMetaObjectE@Base 6.2.0
 _ZN18QQuickItemDelegate18highlightedChangedEv@Base 6.2.0
 _ZN18QQuickItemDelegateC1EP10QQuickItem@Base 6.2.0
 _ZN18QQuickItemDelegateC1ER25QQuickItemDelegatePrivateP10QQuickItem@Base 6.2.0
 _ZN18QQuickItemDelegateC2EP10QQuickItem@Base 6.2.0
 _ZN18QQuickItemDelegateC2ER25QQuickItemDelegatePrivateP10QQuickItem@Base 6.2.0
 _ZN18QQuickPopupAnchors11qt_metacallEN11QMetaObject4CallEiPPv@Base 6.2.0
 _ZN18QQuickPopupAnchors11qt_metacastEPKc@Base 6.2.0
 _ZN18QQuickPopupAnchors11setCenterInEP10QQuickItem@Base 6.2.0
 _ZN18QQuickPopupAnchors13itemDestroyedEP10QQuickItem@Base 6.2.0
 _ZN18QQuickPopupAnchors13resetCenterInEv@Base 6.2.0
 _ZN18QQuickPopupAnchors15centerInChangedEv@Base 6.2.0
 _ZN18QQuickPopupAnchors16staticMetaObjectE@Base 6.2.0
 _ZN18QQuickPopupAnchorsC1EP11QQuickPopup@Base 6.2.0
 _ZN18QQuickPopupAnchorsC2EP11QQuickPopup@Base 6.2.0
 _ZN18QQuickPopupAnchorsD0Ev@Base 6.2.0
 _ZN18QQuickPopupAnchorsD1Ev@Base 6.2.0
 _ZN18QQuickPopupAnchorsD2Ev@Base 6.2.0
 _ZN18QQuickPopupPrivate10getAnchorsEv@Base 6.2.0
 _ZN18QQuickPopupPrivate10handleMoveEP10QQuickItemRK7QPointFm@Base 6.2.0
 _ZN18QQuickPopupPrivate10repositionEv@Base 6.2.0
 _ZN18QQuickPopupPrivate11acceptTouchERK11QEventPoint@Base 6.2.0
 _ZN18QQuickPopupPrivate11contentDataEv@Base 6.2.0
 _ZN18QQuickPopupPrivate11handlePressEP10QQuickItemRK7QPointFm@Base 6.2.0
 _ZN18QQuickPopupPrivate11hideOverlayEv@Base 6.2.0
 _ZN18QQuickPopupPrivate11showOverlayEv@Base 6.2.0
 _ZN18QQuickPopupPrivate12handleUngrabEv@Base 6.2.0
 _ZN18QQuickPopupPrivate12setTopMarginEdb@Base 6.2.0
 _ZN18QQuickPopupPrivate13closeOrRejectEv@Base 6.2.0
 _ZN18QQuickPopupPrivate13createOverlayEv@Base 6.2.0
 _ZN18QQuickPopupPrivate13getPositionerEv@Base 6.2.0
 _ZN18QQuickPopupPrivate13handleReleaseEP10QQuickItemRK7QPointFm@Base 6.2.0
 _ZN18QQuickPopupPrivate13itemDestroyedEP10QQuickItem@Base 6.2.0
 _ZN18QQuickPopupPrivate13resizeOverlayEv@Base 6.2.0
 _ZN18QQuickPopupPrivate13setLeftMarginEdb@Base 6.2.0
 _ZN18QQuickPopupPrivate13toggleOverlayEv@Base 6.2.0
 _ZN18QQuickPopupPrivate14destroyOverlayEv@Base 6.2.0
 _ZN18QQuickPopupPrivate14setRightMarginEdb@Base 6.2.0
 _ZN18QQuickPopupPrivate15contentChildrenEv@Base 6.2.0
 _ZN18QQuickPopupPrivate15setBottomMarginEdb@Base 6.2.0
 _ZN18QQuickPopupPrivate16handleHoverEventEP10QQuickItemP11QHoverEvent@Base 6.2.0
 _ZN18QQuickPopupPrivate16handleMouseEventEP10QQuickItemP11QMouseEvent@Base 6.2.0
 _ZN18QQuickPopupPrivate16handleTouchEventEP10QQuickItemP11QTouchEvent@Base 6.2.0
 _ZN18QQuickPopupPrivate18DefaultClosePolicyE@Base 6.2.0
 _ZN18QQuickPopupPrivate21prepareExitTransitionEv@Base 6.2.0
 _ZN18QQuickPopupPrivate22finalizeExitTransitionEv@Base 6.2.0
 _ZN18QQuickPopupPrivate22prepareEnterTransitionEv@Base 6.2.0
 _ZN18QQuickPopupPrivate23finalizeEnterTransitionEv@Base 6.2.0
 _ZN18QQuickPopupPrivate4initEv@Base 6.2.0
 _ZN18QQuickPopupPrivate6openedEv@Base 6.2.0
 _ZN18QQuickPopupPrivate8tryCloseERK7QPointF6QFlagsIN11QQuickPopup15ClosePolicyFlagEE@Base 6.2.0
 _ZN18QQuickPopupPrivate9setWindowEP12QQuickWindow@Base 6.2.0
 _ZN18QQuickPopupPrivateC1Ev@Base 6.2.0
 _ZN18QQuickPopupPrivateC2Ev@Base 6.2.0
 _ZN18QQuickThemePrivate8instanceE@Base 6.2.0
 _ZN19QQuickBusyIndicator10setRunningEb@Base 6.2.0
 _ZN19QQuickBusyIndicator10touchEventEP11QTouchEvent@Base 6.2.0
 _ZN19QQuickBusyIndicator11qt_metacallEN11QMetaObject4CallEiPPv@Base 6.2.0
 _ZN19QQuickBusyIndicator11qt_metacastEPKc@Base 6.2.0
 _ZN19QQuickBusyIndicator14runningChangedEv@Base 6.2.0
 _ZN19QQuickBusyIndicator16staticMetaObjectE@Base 6.2.0
 _ZN19QQuickBusyIndicatorC1EP10QQuickItem@Base 6.2.0
 _ZN19QQuickBusyIndicatorC2EP10QQuickItem@Base 6.2.0
 _ZN19QQuickCheckDelegate11qt_metacallEN11QMetaObject4CallEiPPv@Base 6.2.0
 _ZN19QQuickCheckDelegate11qt_metacastEPKc@Base 6.2.0
 _ZN19QQuickCheckDelegate11setTristateEb@Base 6.2.0
 _ZN19QQuickCheckDelegate12buttonChangeEN20QQuickAbstractButton12ButtonChangeE@Base 6.2.0
 _ZN19QQuickCheckDelegate13setCheckStateEN2Qt10CheckStateE@Base 6.2.0
 _ZN19QQuickCheckDelegate14nextCheckStateEv@Base 6.2.0
 _ZN19QQuickCheckDelegate15tristateChangedEv@Base 6.2.0
 _ZN19QQuickCheckDelegate16staticMetaObjectE@Base 6.2.0
 _ZN19QQuickCheckDelegate17checkStateChangedEv@Base 6.2.0
 _ZN19QQuickCheckDelegate21nextCheckStateChangedEv@Base 6.2.0
 _ZN19QQuickCheckDelegateC1EP10QQuickItem@Base 6.2.0
 _ZN19QQuickCheckDelegateC2EP10QQuickItem@Base 6.2.0
 _ZN19QQuickDialogPrivate10buttonRoleEP20QQuickAbstractButton@Base 6.2.0
 _ZN19QQuickDialogPrivate11handleClickEP20QQuickAbstractButton@Base 6.2.0
 _ZN19QQuickDialogPrivate12handleAcceptEv@Base 6.2.0
 _ZN19QQuickDialogPrivate12handleRejectEv@Base 6.2.0
 _ZN19QQuickMenuSeparator11qt_metacallEN11QMetaObject4CallEiPPv@Base 6.2.0
 _ZN19QQuickMenuSeparator11qt_metacastEPKc@Base 6.2.0
 _ZN19QQuickMenuSeparator16staticMetaObjectE@Base 6.2.0
 _ZN19QQuickMenuSeparatorC1EP10QQuickItem@Base 6.2.0
 _ZN19QQuickMenuSeparatorC2EP10QQuickItem@Base 6.2.0
 _ZN19QQuickPageIndicator10touchEventEP11QTouchEvent@Base 6.2.0
 _ZN19QQuickPageIndicator11qt_metacallEN11QMetaObject4CallEiPPv@Base 6.2.0
 _ZN19QQuickPageIndicator11qt_metacastEPKc@Base 6.2.0
 _ZN19QQuickPageIndicator11setDelegateEP13QQmlComponent@Base 6.2.0
 _ZN19QQuickPageIndicator12countChangedEv@Base 6.2.0
 _ZN19QQuickPageIndicator14setInteractiveEb@Base 6.2.0
 _ZN19QQuickPageIndicator15delegateChangedEv@Base 6.2.0
 _ZN19QQuickPageIndicator15setCurrentIndexEi@Base 6.2.0
 _ZN19QQuickPageIndicator16staticMetaObjectE@Base 6.2.0
 _ZN19QQuickPageIndicator17contentItemChangeEP10QQuickItemS1_@Base 6.2.0
 _ZN19QQuickPageIndicator18interactiveChangedEv@Base 6.2.0
 _ZN19QQuickPageIndicator19currentIndexChangedEv@Base 6.2.0
 _ZN19QQuickPageIndicator8setCountEi@Base 6.2.0
 _ZN19QQuickPageIndicatorC1EP10QQuickItem@Base 6.2.0
 _ZN19QQuickPageIndicatorC2EP10QQuickItem@Base 6.2.0
 _ZN19QQuickRadioDelegate11qt_metacallEN11QMetaObject4CallEiPPv@Base 6.2.0
 _ZN19QQuickRadioDelegate11qt_metacastEPKc@Base 6.2.0
 _ZN19QQuickRadioDelegate16staticMetaObjectE@Base 6.2.0
 _ZN19QQuickRadioDelegateC1EP10QQuickItem@Base 6.2.0
 _ZN19QQuickRadioDelegateC2EP10QQuickItem@Base 6.2.0
 _ZN19QQuickSwipeDelegate10touchEventEP11QTouchEvent@Base 6.2.0
 _ZN19QQuickSwipeDelegate11qt_metacallEN11QMetaObject4CallEiPPv@Base 6.2.0
 _ZN19QQuickSwipeDelegate11qt_metacastEPKc@Base 6.2.0
 _ZN19QQuickSwipeDelegate14geometryChangeERK6QRectFS2_@Base 6.2.0
 _ZN19QQuickSwipeDelegate14mouseMoveEventEP11QMouseEvent@Base 6.2.0
 _ZN19QQuickSwipeDelegate15mousePressEventEP11QMouseEvent@Base 6.2.0
 _ZN19QQuickSwipeDelegate16mouseUngrabEventEv@Base 6.2.0
 _ZN19QQuickSwipeDelegate16staticMetaObjectE@Base 6.2.0
 _ZN19QQuickSwipeDelegate17componentCompleteEv@Base 6.2.0
 _ZN19QQuickSwipeDelegate17mouseReleaseEventEP11QMouseEvent@Base 6.2.0
 _ZN19QQuickSwipeDelegate21childMouseEventFilterEP10QQuickItemP6QEvent@Base 6.2.0
 _ZN19QQuickSwipeDelegate21qmlAttachedPropertiesEP7QObject@Base 6.2.0
 _ZN19QQuickSwipeDelegateC1EP10QQuickItem@Base 6.2.0
 _ZN19QQuickSwipeDelegateC2EP10QQuickItem@Base 6.2.0
 _ZN19QQuickToolSeparator11qt_metacallEN11QMetaObject4CallEiPPv@Base 6.2.0
 _ZN19QQuickToolSeparator11qt_metacastEPKc@Base 6.2.0
 _ZN19QQuickToolSeparator14setOrientationEN2Qt11OrientationE@Base 6.2.0
 _ZN19QQuickToolSeparator16staticMetaObjectE@Base 6.2.0
 _ZN19QQuickToolSeparator18orientationChangedEv@Base 6.2.0
 _ZN19QQuickToolSeparatorC1EP10QQuickItem@Base 6.2.0
 _ZN19QQuickToolSeparatorC2EP10QQuickItem@Base 6.2.0
 _ZN20QQuickAbstractButton10itemChangeEN10QQuickItem10ItemChangeERKNS0_14ItemChangeDataE@Base 6.2.0
 _ZN20QQuickAbstractButton10setCheckedEb@Base 6.2.0
 _ZN20QQuickAbstractButton10setDisplayENS_7DisplayE@Base 6.2.0
 _ZN20QQuickAbstractButton10setPressedEb@Base 6.2.0
 _ZN20QQuickAbstractButton10timerEventEP11QTimerEvent@Base 6.2.0
 _ZN20QQuickAbstractButton11downChangedEv@Base 6.2.0
 _ZN20QQuickAbstractButton11iconChangedEv@Base 6.2.0
 _ZN20QQuickAbstractButton11qt_metacallEN11QMetaObject4CallEiPPv@Base 6.2.0
 _ZN20QQuickAbstractButton11qt_metacastEPKc@Base 6.2.0
 _ZN20QQuickAbstractButton11setShortcutERK12QKeySequence@Base 6.2.0
 _ZN20QQuickAbstractButton11textChangedEv@Base 6.2.0
 _ZN20QQuickAbstractButton12buttonChangeENS_12ButtonChangeE@Base 6.2.0
 _ZN20QQuickAbstractButton12pressAndHoldEv@Base 6.2.0
 _ZN20QQuickAbstractButton12setCheckableEb@Base 6.2.0
 _ZN20QQuickAbstractButton12setIndicatorEP10QQuickItem@Base 6.2.0
 _ZN20QQuickAbstractButton13actionChangedEv@Base 6.2.0
 _ZN20QQuickAbstractButton13doubleClickedEv@Base 6.2.0
 _ZN20QQuickAbstractButton13focusOutEventEP11QFocusEvent@Base 6.2.0
 _ZN20QQuickAbstractButton13keyPressEventEP9QKeyEvent@Base 6.2.0
 _ZN20QQuickAbstractButton13pressXChangedEv@Base 6.2.0
 _ZN20QQuickAbstractButton13pressYChangedEv@Base 6.2.0
 _ZN20QQuickAbstractButton13setAutoRepeatEb@Base 6.2.0
 _ZN20QQuickAbstractButton14checkedChangedEv@Base 6.2.0
 _ZN20QQuickAbstractButton14displayChangedEv@Base 6.2.0
 _ZN20QQuickAbstractButton14nextCheckStateEv@Base 6.2.0
 _ZN20QQuickAbstractButton14pressedChangedEv@Base 6.2.0
 _ZN20QQuickAbstractButton15keyReleaseEventEP9QKeyEvent@Base 6.2.0
 _ZN20QQuickAbstractButton15mousePressEventEP11QMouseEvent@Base 6.2.0
 _ZN20QQuickAbstractButton16checkableChangedEv@Base 6.2.0
 _ZN20QQuickAbstractButton16indicatorChangedEv@Base 6.2.0
 _ZN20QQuickAbstractButton16setAutoExclusiveEb@Base 6.2.0
 _ZN20QQuickAbstractButton16staticMetaObjectE@Base 6.2.0
 _ZN20QQuickAbstractButton17autoRepeatChangedEv@Base 6.2.0
 _ZN20QQuickAbstractButton17componentCompleteEv@Base 6.2.0
 _ZN20QQuickAbstractButton18setAutoRepeatDelayEi@Base 6.2.0
 _ZN20QQuickAbstractButton20autoExclusiveChangedEv@Base 6.2.0
 _ZN20QQuickAbstractButton21mouseDoubleClickEventEP11QMouseEvent@Base 6.2.0
 _ZN20QQuickAbstractButton21setAutoRepeatIntervalEi@Base 6.2.0
 _ZN20QQuickAbstractButton22autoRepeatDelayChangedEv@Base 6.2.0
 _ZN20QQuickAbstractButton25autoRepeatIntervalChangedEv@Base 6.2.0
 _ZN20QQuickAbstractButton26accessibilityActiveChangedEb@Base 6.2.0
 _ZN20QQuickAbstractButton29implicitIndicatorWidthChangedEv@Base 6.2.0
 _ZN20QQuickAbstractButton30implicitIndicatorHeightChangedEv@Base 6.2.0
 _ZN20QQuickAbstractButton5eventEP6QEvent@Base 6.2.0
 _ZN20QQuickAbstractButton6toggleEv@Base 6.2.0
 _ZN20QQuickAbstractButton7clickedEv@Base 6.2.0
 _ZN20QQuickAbstractButton7pressedEv@Base 6.2.0
 _ZN20QQuickAbstractButton7setDownEb@Base 6.2.0
 _ZN20QQuickAbstractButton7setIconERK10QQuickIcon@Base 6.2.0
 _ZN20QQuickAbstractButton7setTextERK7QString@Base 6.2.0
 _ZN20QQuickAbstractButton7toggledEv@Base 6.2.0
 _ZN20QQuickAbstractButton8canceledEv@Base 6.2.0
 _ZN20QQuickAbstractButton8releasedEv@Base 6.2.0
 _ZN20QQuickAbstractButton9resetDownEv@Base 6.2.0
 _ZN20QQuickAbstractButton9resetTextEv@Base 6.2.0
 _ZN20QQuickAbstractButton9setActionEP12QQuickAction@Base 6.2.0
 _ZN20QQuickAbstractButtonC1EP10QQuickItem@Base 6.2.0
 _ZN20QQuickAbstractButtonC1ER27QQuickAbstractButtonPrivateP10QQuickItem@Base 6.2.0
 _ZN20QQuickAbstractButtonC2EP10QQuickItem@Base 6.2.0
 _ZN20QQuickAbstractButtonC2ER27QQuickAbstractButtonPrivateP10QQuickItem@Base 6.2.0
 _ZN20QQuickAbstractButtonD0Ev@Base 6.2.0
 _ZN20QQuickAbstractButtonD1Ev@Base 6.2.0
 _ZN20QQuickAbstractButtonD2Ev@Base 6.2.0
 _ZN20QQuickControlPrivate10calcLocaleEPK10QQuickItem@Base 6.2.0
 _ZN20QQuickControlPrivate10handleMoveERK7QPointF@Base 6.2.0
 _ZN20QQuickControlPrivate10parentFontEPK10QQuickItem@Base 6.2.0
 _ZN20QQuickControlPrivate10updateFontERK5QFont@Base 6.2.0
 _ZN20QQuickControlPrivate11acceptTouchERK11QEventPoint@Base 6.2.0
 _ZN20QQuickControlPrivate11handlePressERK7QPointF@Base 6.2.0
 _ZN20QQuickControlPrivate11hideOldItemEP10QQuickItem@Base 6.2.0
 _ZN20QQuickControlPrivate11inheritFontERK5QFont@Base 6.2.0
 _ZN20QQuickControlPrivate11resolveFontEv@Base 6.2.0
 _ZN20QQuickControlPrivate11setTopInsetEdb@Base 6.2.0
 _ZN20QQuickControlPrivate12handleUngrabEv@Base 6.2.0
 _ZN20QQuickControlPrivate12mirrorChangeEv@Base 6.2.0
 _ZN20QQuickControlPrivate12setLeftInsetEdb@Base 6.2.0
 _ZN20QQuickControlPrivate12updateLocaleERK7QLocaleb@Base 6.2.0
 _ZN20QQuickControlPrivate13handleReleaseERK7QPointF@Base 6.2.0
 _ZN20QQuickControlPrivate13itemDestroyedEP10QQuickItem@Base 6.2.0
 _ZN20QQuickControlPrivate13resizeContentEv@Base 6.2.0
 _ZN20QQuickControlPrivate13setRightInsetEdb@Base 6.2.0
 _ZN20QQuickControlPrivate13setTopPaddingEdb@Base 6.2.0
 _ZN20QQuickControlPrivate14getContentItemEv@Base 6.2.0
 _ZN20QQuickControlPrivate14setBottomInsetEdb@Base 6.2.0
 _ZN20QQuickControlPrivate14setLeftPaddingEdb@Base 6.2.0
 _ZN20QQuickControlPrivate15setRightPaddingEdb@Base 6.2.0
 _ZN20QQuickControlPrivate15updateFontRecurEP10QQuickItemRK5QFont@Base 6.2.0
 _ZN20QQuickControlPrivate16calcHoverEnabledEPK10QQuickItem@Base 6.2.0
 _ZN20QQuickControlPrivate16cancelBackgroundEv@Base 6.2.0
 _ZN20QQuickControlPrivate16resizeBackgroundEv@Base 6.2.0
 _ZN20QQuickControlPrivate16setBottomPaddingEdb@Base 6.2.0
 _ZN20QQuickControlPrivate17cancelContentItemEv@Base 6.2.0
 _ZN20QQuickControlPrivate17executeBackgroundEb@Base 6.2.0
 _ZN20QQuickControlPrivate17updateLocaleRecurEP10QQuickItemRK7QLocale@Base 6.2.0
 _ZN20QQuickControlPrivate18accessibleAttachedEPK7QObject@Base 6.2.0
 _ZN20QQuickControlPrivate18executeContentItemEb@Base 6.2.0
 _ZN20QQuickControlPrivate18setVerticalPaddingEdb@Base 6.2.0
 _ZN20QQuickControlPrivate18updateHoverEnabledEbb@Base 6.2.0
 _ZN20QQuickControlPrivate19ImplicitSizeChangesE@Base 6.2.0
 _ZN20QQuickControlPrivate19itemGeometryChangedEP10QQuickItem20QQuickGeometryChangeRK6QRectF@Base 6.2.0
 _ZN20QQuickControlPrivate20setHorizontalPaddingEdb@Base 6.2.0
 _ZN20QQuickControlPrivate20updateBaselineOffsetEv@Base 6.2.0
 _ZN20QQuickControlPrivate21setContentItem_helperEP10QQuickItemb@Base 6.2.0
 _ZN20QQuickControlPrivate23addImplicitSizeListenerEP10QQuickItem6QFlagsIN17QQuickItemPrivate10ChangeTypeEE@Base 6.2.0
 _ZN20QQuickControlPrivate23addImplicitSizeListenerEP10QQuickItemP24QQuickItemChangeListener6QFlagsIN17QQuickItemPrivate10ChangeTypeEE@Base 6.2.0
 _ZN20QQuickControlPrivate23updateHoverEnabledRecurEP10QQuickItemb@Base 6.2.0
 _ZN20QQuickControlPrivate24itemImplicitWidthChangedEP10QQuickItem@Base 6.2.0
 _ZN20QQuickControlPrivate25itemImplicitHeightChangedEP10QQuickItem@Base 6.2.0
 _ZN20QQuickControlPrivate25updateImplicitContentSizeEv@Base 6.2.0
 _ZN20QQuickControlPrivate26accessibilityActiveChangedEb@Base 6.2.0
 _ZN20QQuickControlPrivate26removeImplicitSizeListenerEP10QQuickItem6QFlagsIN17QQuickItemPrivate10ChangeTypeEE@Base 6.2.0
 _ZN20QQuickControlPrivate26removeImplicitSizeListenerEP10QQuickItemP24QQuickItemChangeListener6QFlagsIN17QQuickItemPrivate10ChangeTypeEE@Base 6.2.0
 _ZN20QQuickControlPrivate26updateImplicitContentWidthEv@Base 6.2.0
 _ZN20QQuickControlPrivate27updateImplicitContentHeightEv@Base 6.2.0
 _ZN20QQuickControlPrivate4initEv@Base 6.2.0
 _ZN20QQuickControlPrivateC1Ev@Base 6.2.0
 _ZN20QQuickControlPrivateC2Ev@Base 6.2.0
 _ZN20QQuickControlPrivateD0Ev@Base 6.2.0
 _ZN20QQuickControlPrivateD1Ev@Base 6.2.0
 _ZN20QQuickControlPrivateD2Ev@Base 6.2.0
 _ZN20QQuickHeaderViewBase11qt_metacallEN11QMetaObject4CallEiPPv@Base 6.2.0
 _ZN20QQuickHeaderViewBase11qt_metacastEPKc@Base 6.2.0
 _ZN20QQuickHeaderViewBase11setTextRoleERK7QString@Base 6.2.0
 _ZN20QQuickHeaderViewBase15textRoleChangedEv@Base 6.2.0
 _ZN20QQuickHeaderViewBase16staticMetaObjectE@Base 6.2.0
 _ZN20QQuickHeaderViewBaseC1EN2Qt11OrientationEP10QQuickItem@Base 6.2.0
 _ZN20QQuickHeaderViewBaseC1ER27QQuickHeaderViewBasePrivateP10QQuickItem@Base 6.2.0
 _ZN20QQuickHeaderViewBaseC2EN2Qt11OrientationEP10QQuickItem@Base 6.2.0
 _ZN20QQuickHeaderViewBaseC2ER27QQuickHeaderViewBasePrivateP10QQuickItem@Base 6.2.0
 _ZN20QQuickHeaderViewBaseD0Ev@Base 6.2.0
 _ZN20QQuickHeaderViewBaseD1Ev@Base 6.2.0
 _ZN20QQuickHeaderViewBaseD2Ev@Base 6.2.0
 _ZN20QQuickMenuBarPrivate10createItemEP10QQuickMenu@Base 6.2.0
 _ZN20QQuickMenuBarPrivate11contentDataEv@Base 6.2.0
 _ZN20QQuickMenuBarPrivate11menus_clearEP16QQmlListPropertyI10QQuickMenuE@Base 6.2.0
 _ZN20QQuickMenuBarPrivate11menus_countEP16QQmlListPropertyI10QQuickMenuE@Base 6.2.0
 _ZN20QQuickMenuBarPrivate12activateItemEP17QQuickMenuBarItem@Base 6.2.0
 _ZN20QQuickMenuBarPrivate12menus_appendEP16QQmlListPropertyI10QQuickMenuEPS1_@Base 6.2.0
 _ZN20QQuickMenuBarPrivate13onItemHoveredEv@Base 6.2.0
 _ZN20QQuickMenuBarPrivate15beginCreateItemEP10QQuickMenu@Base 6.2.0
 _ZN20QQuickMenuBarPrivate15onItemTriggeredEv@Base 6.2.0
 _ZN20QQuickMenuBarPrivate16activateNextItemEv@Base 6.2.0
 _ZN20QQuickMenuBarPrivate17onMenuAboutToHideEv@Base 6.2.0
 _ZN20QQuickMenuBarPrivate17toggleCurrentMenuEbb@Base 6.2.0
 _ZN20QQuickMenuBarPrivate18completeCreateItemEv@Base 6.2.0
 _ZN20QQuickMenuBarPrivate18contentData_appendEP16QQmlListPropertyI7QObjectEPS1_@Base 6.2.0
 _ZN20QQuickMenuBarPrivate20activatePreviousItemEv@Base 6.2.0
 _ZN20QQuickMenuBarPrivate24itemImplicitWidthChangedEP10QQuickItem@Base 6.2.0
 _ZN20QQuickMenuBarPrivate25itemImplicitHeightChangedEP10QQuickItem@Base 6.2.0
 _ZN20QQuickMenuBarPrivate5menusEv@Base 6.2.0
 (subst)_ZN20QQuickMenuBarPrivate8menus_atEP16QQmlListPropertyI10QQuickMenuE{qptrdiff}@Base 6.2.0
 _ZN20QQuickSwitchDelegate10touchEventEP11QTouchEvent@Base 6.2.0
 _ZN20QQuickSwitchDelegate11qt_metacallEN11QMetaObject4CallEiPPv@Base 6.2.0
 _ZN20QQuickSwitchDelegate11qt_metacastEPKc@Base 6.2.0
 _ZN20QQuickSwitchDelegate11setPositionEd@Base 6.2.0
 _ZN20QQuickSwitchDelegate12buttonChangeEN20QQuickAbstractButton12ButtonChangeE@Base 6.2.0
 _ZN20QQuickSwitchDelegate12mirrorChangeEv@Base 6.2.0
 _ZN20QQuickSwitchDelegate14mouseMoveEventEP11QMouseEvent@Base 6.2.0
 _ZN20QQuickSwitchDelegate14nextCheckStateEv@Base 6.2.0
 _ZN20QQuickSwitchDelegate15positionChangedEv@Base 6.2.0
 _ZN20QQuickSwitchDelegate16staticMetaObjectE@Base 6.2.0
 _ZN20QQuickSwitchDelegate21visualPositionChangedEv@Base 6.2.0
 _ZN20QQuickSwitchDelegateC1EP10QQuickItem@Base 6.2.0
 _ZN20QQuickSwitchDelegateC2EP10QQuickItem@Base 6.2.0
 _ZN20QQuickTabBarAttached11qt_metacallEN11QMetaObject4CallEiPPv@Base 6.2.0
 _ZN20QQuickTabBarAttached11qt_metacastEPKc@Base 6.2.0
 _ZN20QQuickTabBarAttached12indexChangedEv@Base 6.2.0
 _ZN20QQuickTabBarAttached13tabBarChangedEv@Base 6.2.0
 _ZN20QQuickTabBarAttached15positionChangedEv@Base 6.2.0
 _ZN20QQuickTabBarAttached16staticMetaObjectE@Base 6.2.0
 _ZN20QQuickTabBarAttachedC1EP7QObject@Base 6.2.0
 _ZN20QQuickTabBarAttachedC2EP7QObject@Base 6.2.0
 _ZN20QQuickTumblerPrivate11endSetModelEv@Base 6.2.0
 _ZN20QQuickTumblerPrivate13beginSetModelEv@Base 6.2.0
 _ZN20QQuickTumblerPrivate13resetViewDataEv@Base 6.2.0
 _ZN20QQuickTumblerPrivate13setupViewDataEP10QQuickItem@Base 6.2.0
 _ZN20QQuickTumblerPrivate14itemChildAddedEP10QQuickItemS1_@Base 6.2.0
 _ZN20QQuickTumblerPrivate15setCurrentIndexEiNS_20PropertyChangeReasonE@Base 6.2.0
 _ZN20QQuickTumblerPrivate16itemChildRemovedEP10QQuickItemS1_@Base 6.2.0
 _ZN20QQuickTumblerPrivate16syncCurrentIndexEv@Base 6.2.0
 _ZN20QQuickTumblerPrivate17determineViewTypeEP10QQuickItem@Base 6.2.0
 _ZN20QQuickTumblerPrivate18disconnectFromViewEv@Base 6.2.0
 _ZN20QQuickTumblerPrivate19_q_updateItemWidthsEv@Base 6.2.0
 _ZN20QQuickTumblerPrivate19itemGeometryChangedEP10QQuickItem20QQuickGeometryChangeRK6QRectF@Base 6.2.0
 _ZN20QQuickTumblerPrivate19setWrapBasedOnCountEv@Base 6.2.0
 _ZN20QQuickTumblerPrivate20_q_updateItemHeightsEv@Base 6.2.0
 _ZN20QQuickTumblerPrivate21_q_onViewCountChangedEv@Base 6.2.0
 _ZN20QQuickTumblerPrivate22_q_onViewOffsetChangedEv@Base 6.2.0
 _ZN20QQuickTumblerPrivate22calculateDisplacementsEv@Base 6.2.0
 _ZN20QQuickTumblerPrivate22setPendingCurrentIndexEi@Base 6.2.0
 _ZN20QQuickTumblerPrivate24_q_onViewContentYChangedEv@Base 6.2.0
 _ZN20QQuickTumblerPrivate28_q_onViewCurrentIndexChangedEv@Base 6.2.0
 _ZN20QQuickTumblerPrivate28propertyChangeReasonToStringENS_20PropertyChangeReasonE@Base 6.2.0
 _ZN20QQuickTumblerPrivate29warnAboutIncorrectContentItemEv@Base 6.2.0
 _ZN20QQuickTumblerPrivate3getEP13QQuickTumbler@Base 6.2.0
 _ZN20QQuickTumblerPrivate7setWrapEbb@Base 6.2.0
 _ZN20QQuickTumblerPrivate8setCountEi@Base 6.2.0
 _ZN21QHeaderDataProxyModel11qt_metacallEN11QMetaObject4CallEiPPv@Base 6.2.0
 _ZN21QHeaderDataProxyModel11qt_metacastEPKc@Base 6.2.0
 _ZN21QHeaderDataProxyModel14setSourceModelEP18QAbstractItemModel@Base 6.2.0
 _ZN21QHeaderDataProxyModel16staticMetaObjectE@Base 6.2.0
 _ZN21QHeaderDataProxyModel7setDataERK11QModelIndexRK8QVarianti@Base 6.2.0
 _ZN21QHeaderDataProxyModelC1EP7QObject@Base 6.2.0
 _ZN21QHeaderDataProxyModelC2EP7QObject@Base 6.2.0
 _ZN21QHeaderDataProxyModelD0Ev@Base 6.2.0
 _ZN21QHeaderDataProxyModelD1Ev@Base 6.2.0
 _ZN21QHeaderDataProxyModelD2Ev@Base 6.2.0
 _ZN21QQuickDialogButtonBox11itemRemovedEiP10QQuickItem@Base 6.2.0
 _ZN21QQuickDialogButtonBox11qt_metacallEN11QMetaObject4CallEiPPv@Base 6.2.0
 _ZN21QQuickDialogButtonBox11qt_metacastEPKc@Base 6.2.0
 _ZN21QQuickDialogButtonBox11setDelegateEP13QQmlComponent@Base 6.2.0
 _ZN21QQuickDialogButtonBox11setPositionENS_8PositionE@Base 6.2.0
 _ZN21QQuickDialogButtonBox12setAlignmentE6QFlagsIN2Qt13AlignmentFlagEE@Base 6.2.0
 _ZN21QQuickDialogButtonBox12updatePolishEv@Base 6.2.0
 _ZN21QQuickDialogButtonBox13helpRequestedEv@Base 6.2.0
 _ZN21QQuickDialogButtonBox14geometryChangeERK6QRectFS2_@Base 6.2.0
 _ZN21QQuickDialogButtonBox14resetAlignmentEv@Base 6.2.0
 _ZN21QQuickDialogButtonBox15delegateChangedEv@Base 6.2.0
 _ZN21QQuickDialogButtonBox15positionChangedEv@Base 6.2.0
 _ZN21QQuickDialogButtonBox15setButtonLayoutEN21QPlatformDialogHelper12ButtonLayoutE@Base 6.2.0
 _ZN21QQuickDialogButtonBox16alignmentChangedEv@Base 6.2.0
 _ZN21QQuickDialogButtonBox16staticMetaObjectE@Base 6.2.0
 _ZN21QQuickDialogButtonBox17componentCompleteEv@Base 6.2.0
 _ZN21QQuickDialogButtonBox17contentItemChangeEP10QQuickItemS1_@Base 6.2.0
 _ZN21QQuickDialogButtonBox17resetButtonLayoutEv@Base 6.2.0
 _ZN21QQuickDialogButtonBox18setStandardButtonsE6QFlagsIN21QPlatformDialogHelper14StandardButtonEE@Base 6.2.0
 _ZN21QQuickDialogButtonBox19buttonLayoutChangedEv@Base 6.2.0
 _ZN21QQuickDialogButtonBox21qmlAttachedPropertiesEP7QObject@Base 6.2.0
 _ZN21QQuickDialogButtonBox22standardButtonsChangedEv@Base 6.2.0
 _ZN21QQuickDialogButtonBox5eventEP6QEvent@Base 6.2.0
 _ZN21QQuickDialogButtonBox5resetEv@Base 6.2.0
 _ZN21QQuickDialogButtonBox7appliedEv@Base 6.2.0
 _ZN21QQuickDialogButtonBox7clickedEP20QQuickAbstractButton@Base 6.2.0
 _ZN21QQuickDialogButtonBox8acceptedEv@Base 6.2.0
 _ZN21QQuickDialogButtonBox8rejectedEv@Base 6.2.0
 _ZN21QQuickDialogButtonBox9discardedEv@Base 6.2.0
 _ZN21QQuickDialogButtonBox9itemAddedEiP10QQuickItem@Base 6.2.0
 _ZN21QQuickDialogButtonBoxC1EP10QQuickItem@Base 6.2.0
 _ZN21QQuickDialogButtonBoxC2EP10QQuickItem@Base 6.2.0
 _ZN21QQuickDialogButtonBoxD0Ev@Base 6.2.0
 _ZN21QQuickDialogButtonBoxD1Ev@Base 6.2.0
 _ZN21QQuickDialogButtonBoxD2Ev@Base 6.2.0
 _ZN21QQuickIndicatorButton10setHoveredEb@Base 6.2.0
 _ZN21QQuickIndicatorButton10setPressedEb@Base 6.2.0
 _ZN21QQuickIndicatorButton11qt_metacallEN11QMetaObject4CallEiPPv@Base 6.2.0
 _ZN21QQuickIndicatorButton11qt_metacastEPKc@Base 6.2.0
 _ZN21QQuickIndicatorButton12setIndicatorEP10QQuickItem@Base 6.2.0
 _ZN21QQuickIndicatorButton14hoveredChangedEv@Base 6.2.0
 _ZN21QQuickIndicatorButton14pressedChangedEv@Base 6.2.0
 _ZN21QQuickIndicatorButton16indicatorChangedEv@Base 6.2.0
 _ZN21QQuickIndicatorButton16staticMetaObjectE@Base 6.2.0
 _ZN21QQuickIndicatorButton29implicitIndicatorWidthChangedEv@Base 6.2.0
 _ZN21QQuickIndicatorButton30implicitIndicatorHeightChangedEv@Base 6.2.0
 _ZN21QQuickIndicatorButtonC1EP7QObject@Base 6.2.0
 _ZN21QQuickIndicatorButtonC2EP7QObject@Base 6.2.0
 _ZN21QQuickOverlayAttached11qt_metacallEN11QMetaObject4CallEiPPv@Base 6.2.0
 _ZN21QQuickOverlayAttached11qt_metacastEPKc@Base 6.2.0
 _ZN21QQuickOverlayAttached11setModelessEP13QQmlComponent@Base 6.2.0
 _ZN21QQuickOverlayAttached12modalChangedEv@Base 6.2.0
 _ZN21QQuickOverlayAttached14overlayChangedEv@Base 6.2.0
 _ZN21QQuickOverlayAttached15modelessChangedEv@Base 6.2.0
 _ZN21QQuickOverlayAttached16staticMetaObjectE@Base 6.2.0
 _ZN21QQuickOverlayAttached7pressedEv@Base 6.2.0
 _ZN21QQuickOverlayAttached8releasedEv@Base 6.2.0
 _ZN21QQuickOverlayAttached8setModalEP13QQmlComponent@Base 6.2.0
 _ZN21QQuickOverlayAttachedC1EP7QObject@Base 6.2.0
 _ZN21QQuickOverlayAttachedC2EP7QObject@Base 6.2.0
 _ZN21QQuickRangeSliderNode10setHoveredEb@Base 6.2.0
 _ZN21QQuickRangeSliderNode10setPressedEb@Base 6.2.0
 _ZN21QQuickRangeSliderNode11qt_metacallEN11QMetaObject4CallEiPPv@Base 6.2.0
 _ZN21QQuickRangeSliderNode11qt_metacastEPKc@Base 6.2.0
 _ZN21QQuickRangeSliderNode12valueChangedEv@Base 6.2.0
 _ZN21QQuickRangeSliderNode13handleChangedEv@Base 6.2.0
 _ZN21QQuickRangeSliderNode14hoveredChangedEv@Base 6.2.0
 _ZN21QQuickRangeSliderNode14pressedChangedEv@Base 6.2.0
 _ZN21QQuickRangeSliderNode15positionChangedEv@Base 6.2.0
 _ZN21QQuickRangeSliderNode16staticMetaObjectE@Base 6.2.0
 _ZN21QQuickRangeSliderNode21visualPositionChangedEv@Base 6.2.0
 _ZN21QQuickRangeSliderNode26implicitHandleWidthChangedEv@Base 6.2.0
 _ZN21QQuickRangeSliderNode27implicitHandleHeightChangedEv@Base 6.2.0
 _ZN21QQuickRangeSliderNode5movedEv@Base 6.2.0
 _ZN21QQuickRangeSliderNode8decreaseEv@Base 6.2.0
 _ZN21QQuickRangeSliderNode8increaseEv@Base 6.2.0
 _ZN21QQuickRangeSliderNode8setValueEd@Base 6.2.0
 _ZN21QQuickRangeSliderNode9setHandleEP10QQuickItem@Base 6.2.0
 _ZN21QQuickRangeSliderNodeC1EdP17QQuickRangeSlider@Base 6.2.0
 _ZN21QQuickRangeSliderNodeC2EdP17QQuickRangeSlider@Base 6.2.0
 _ZN21QQuickRangeSliderNodeD0Ev@Base 6.2.0
 _ZN21QQuickRangeSliderNodeD1Ev@Base 6.2.0
 _ZN21QQuickRangeSliderNodeD2Ev@Base 6.2.0
 _ZN21QQuickScrollIndicator10touchEventEP11QTouchEvent@Base 6.2.0
 _ZN21QQuickScrollIndicator11qt_metacallEN11QMetaObject4CallEiPPv@Base 6.2.0
 _ZN21QQuickScrollIndicator11qt_metacastEPKc@Base 6.2.0
 _ZN21QQuickScrollIndicator11setPositionEd@Base 6.2.0
 _ZN21QQuickScrollIndicator11sizeChangedEv@Base 6.2.0
 _ZN21QQuickScrollIndicator13activeChangedEv@Base 6.2.0
 _ZN21QQuickScrollIndicator14setMinimumSizeEd@Base 6.2.0
 _ZN21QQuickScrollIndicator14setOrientationEN2Qt11OrientationE@Base 6.2.0
 _ZN21QQuickScrollIndicator15positionChangedEv@Base 6.2.0
 _ZN21QQuickScrollIndicator16staticMetaObjectE@Base 6.2.0
 _ZN21QQuickScrollIndicator17visualSizeChangedEv@Base 6.2.0
 _ZN21QQuickScrollIndicator18minimumSizeChangedEv@Base 6.2.0
 _ZN21QQuickScrollIndicator18orientationChangedEv@Base 6.2.0
 _ZN21QQuickScrollIndicator21qmlAttachedPropertiesEP7QObject@Base 6.2.0
 _ZN21QQuickScrollIndicator21visualPositionChangedEv@Base 6.2.0
 _ZN21QQuickScrollIndicator7setSizeEd@Base 6.2.0
 _ZN21QQuickScrollIndicator9setActiveEb@Base 6.2.0
 _ZN21QQuickScrollIndicatorC1EP10QQuickItem@Base 6.2.0
 _ZN21QQuickScrollIndicatorC2EP10QQuickItem@Base 6.2.0
 _ZN21QQuickShortcutContext7matcherEP7QObjectN2Qt15ShortcutContextE@Base 6.2.0
 _ZN21QQuickToolTipAttached10setTimeoutEi@Base 6.2.0
 _ZN21QQuickToolTipAttached10setVisibleEb@Base 6.2.0
 _ZN21QQuickToolTipAttached11qt_metacallEN11QMetaObject4CallEiPPv@Base 6.2.0
 _ZN21QQuickToolTipAttached11qt_metacastEPKc@Base 6.2.0
 _ZN21QQuickToolTipAttached11textChangedEv@Base 6.2.0
 _ZN21QQuickToolTipAttached12delayChangedEv@Base 6.2.0
 _ZN21QQuickToolTipAttached14timeoutChangedEv@Base 6.2.0
 _ZN21QQuickToolTipAttached14visibleChangedEv@Base 6.2.0
 _ZN21QQuickToolTipAttached16staticMetaObjectE@Base 6.2.0
 _ZN21QQuickToolTipAttached4hideEv@Base 6.2.0
 _ZN21QQuickToolTipAttached4showERK7QStringi@Base 6.2.0
 _ZN21QQuickToolTipAttached7setTextERK7QString@Base 6.2.0
 _ZN21QQuickToolTipAttached8setDelayEi@Base 6.2.0
 _ZN21QQuickToolTipAttachedC1EP7QObject@Base 6.2.0
 _ZN21QQuickToolTipAttachedC2EP7QObject@Base 6.2.0
 _ZN21QQuickTumblerAttached11qt_metacallEN11QMetaObject4CallEiPPv@Base 6.2.0
 _ZN21QQuickTumblerAttached11qt_metacastEPKc@Base 6.2.0
 _ZN21QQuickTumblerAttached16staticMetaObjectE@Base 6.2.0
 _ZN21QQuickTumblerAttached19displacementChangedEv@Base 6.2.0
 _ZN21QQuickTumblerAttachedC1EP7QObject@Base 6.2.0
 _ZN21QQuickTumblerAttachedC2EP7QObject@Base 6.2.0
 _ZN22QQuickContainerPrivate10insertItemEiP10QQuickItem@Base 6.2.0
 _ZN22QQuickContainerPrivate10removeItemEiP10QQuickItem@Base 6.2.0
 _ZN22QQuickContainerPrivate12reorderItemsEv@Base 6.2.0
 _ZN22QQuickContainerPrivate13itemDestroyedEP10QQuickItem@Base 6.2.0
 (subst)_ZN22QQuickContainerPrivate14contentData_atEP16QQmlListPropertyI7QObjectE{qptrdiff}@Base 6.2.0
 _ZN22QQuickContainerPrivate14itemChildAddedEP10QQuickItemS1_@Base 6.2.0
 _ZN22QQuickContainerPrivate17contentData_clearEP16QQmlListPropertyI7QObjectE@Base 6.2.0
 _ZN22QQuickContainerPrivate17contentData_countEP16QQmlListPropertyI7QObjectE@Base 6.2.0
 _ZN22QQuickContainerPrivate17itemParentChangedEP10QQuickItemS1_@Base 6.2.0
 (subst)_ZN22QQuickContainerPrivate18contentChildren_atEP16QQmlListPropertyI10QQuickItemE{qptrdiff}@Base 6.2.0
 _ZN22QQuickContainerPrivate18contentData_appendEP16QQmlListPropertyI7QObjectEPS1_@Base 6.2.0
 _ZN22QQuickContainerPrivate18updateContentWidthEv@Base 6.2.0
 _ZN22QQuickContainerPrivate19updateContentHeightEv@Base 6.2.0
 _ZN22QQuickContainerPrivate21contentChildren_clearEP16QQmlListPropertyI10QQuickItemE@Base 6.2.0
 _ZN22QQuickContainerPrivate21contentChildren_countEP16QQmlListPropertyI10QQuickItemE@Base 6.2.0
 _ZN22QQuickContainerPrivate22_q_currentIndexChangedEv@Base 6.2.0
 _ZN22QQuickContainerPrivate22contentChildren_appendEP16QQmlListPropertyI10QQuickItemEPS1_@Base 6.2.0
 _ZN22QQuickContainerPrivate23itemSiblingOrderChangedEP10QQuickItem@Base 6.2.0
 _ZN22QQuickContainerPrivate4initEv@Base 6.2.0
 _ZN22QQuickContainerPrivate7cleanupEv@Base 6.2.0
 _ZN22QQuickContainerPrivate8moveItemEiiP10QQuickItem@Base 6.2.0
 _ZN22QQuickPopupItemPrivate10setPaletteEP13QQuickPalette@Base 6.2.0
 _ZN22QQuickPopupItemPrivate11resolveFontEv@Base 6.2.0
 _ZN22QQuickPopupItemPrivate12resetPaletteEv@Base 6.2.0
 _ZN22QQuickPopupItemPrivate14getContentItemEv@Base 6.2.0
 _ZN22QQuickPopupItemPrivate16cancelBackgroundEv@Base 6.2.0
 _ZN22QQuickPopupItemPrivate17cancelContentItemEv@Base 6.2.0
 _ZN22QQuickPopupItemPrivate17executeBackgroundEb@Base 6.2.0
 _ZN22QQuickPopupItemPrivate18executeContentItemEb@Base 6.2.0
 _ZN22QQuickPopupItemPrivate20implicitWidthChangedEv@Base 6.2.0
 _ZN22QQuickPopupItemPrivate21implicitHeightChangedEv@Base 6.2.0
 _ZN22QQuickPopupItemPrivateC1EP11QQuickPopup@Base 6.2.0
 _ZN22QQuickPopupItemPrivateC2EP11QQuickPopup@Base 6.2.0
 _ZN22QQuickSplitViewPrivate10handleMoveERK7QPointF@Base 6.2.0
 _ZN22QQuickSplitViewPrivate11handlePressERK7QPointF@Base 6.2.0
 _ZN22QQuickSplitViewPrivate11setResizingEb@Base 6.2.0
 _ZN22QQuickSplitViewPrivate12resizeHandleEP10QQuickItem@Base 6.2.0
 _ZN22QQuickSplitViewPrivate12updatePolishEv@Base 6.2.0
 _ZN22QQuickSplitViewPrivate13createHandlesEv@Base 6.2.0
 _ZN22QQuickSplitViewPrivate13handleReleaseERK7QPointF@Base 6.2.0
 _ZN22QQuickSplitViewPrivate13requestLayoutEv@Base 6.2.0
 _ZN22QQuickSplitViewPrivate13resizeHandlesEv@Base 6.2.0
 _ZN22QQuickSplitViewPrivate14destroyHandlesEv@Base 6.2.0
 _ZN22QQuickSplitViewPrivate14getContentItemEv@Base 6.2.0
 _ZN22QQuickSplitViewPrivate15updateFillIndexEv@Base 6.2.0
 _ZN22QQuickSplitViewPrivate16createHandleItemEi@Base 6.2.0
 _ZN22QQuickSplitViewPrivate19layoutPositionItemsEPK10QQuickItem@Base 6.2.0
 _ZN22QQuickSplitViewPrivate19removeExcessHandlesEv@Base 6.2.0
 _ZN22QQuickSplitViewPrivate19updateHoveredHandleEP10QQuickItem@Base 6.2.0
 _ZN22QQuickSplitViewPrivate20layoutResizeFillItemEP10QQuickItemRdS2_i@Base 6.2.0
 _ZN22QQuickSplitViewPrivate21itemVisibilityChangedEP10QQuickItem@Base 6.2.0
 _ZN22QQuickSplitViewPrivate22layoutResizeSplitItemsERdS0_Ri@Base 6.2.0
 _ZN22QQuickSplitViewPrivate24itemImplicitWidthChangedEP10QQuickItem@Base 6.2.0
 _ZN22QQuickSplitViewPrivate24updateHandleVisibilitiesEv@Base 6.2.0
 _ZN22QQuickSplitViewPrivate25itemImplicitHeightChangedEP10QQuickItem@Base 6.2.0
 _ZN22QQuickSplitViewPrivate3getEP15QQuickSplitView@Base 6.2.0
 _ZN22QQuickSplitViewPrivate6layoutEv@Base 6.2.0
 _ZN22QQuickTextAreaAttached11qt_metacallEN11QMetaObject4CallEiPPv@Base 6.2.0
 _ZN22QQuickTextAreaAttached11qt_metacastEPKc@Base 6.2.0
 _ZN22QQuickTextAreaAttached12setFlickableEP14QQuickTextArea@Base 6.2.0
 _ZN22QQuickTextAreaAttached16flickableChangedEv@Base 6.2.0
 _ZN22QQuickTextAreaAttached16staticMetaObjectE@Base 6.2.0
 _ZN22QQuickTextAreaAttachedC1EP7QObject@Base 6.2.0
 _ZN22QQuickTextAreaAttachedC2EP7QObject@Base 6.2.0
 _ZN23QQuickApplicationWindow10classBeginEv@Base 6.2.0
 _ZN23QQuickApplicationWindow10setMenuBarEP10QQuickItem@Base 6.2.0
 _ZN23QQuickApplicationWindow11fontChangedEv@Base 6.2.0
 _ZN23QQuickApplicationWindow11qt_metacallEN11QMetaObject4CallEiPPv@Base 6.2.0
 _ZN23QQuickApplicationWindow11qt_metacastEPKc@Base 6.2.0
 _ZN23QQuickApplicationWindow11resetLocaleEv@Base 6.2.0
 _ZN23QQuickApplicationWindow11resizeEventEP12QResizeEvent@Base 6.2.0
 _ZN23QQuickApplicationWindow13footerChangedEv@Base 6.2.0
 _ZN23QQuickApplicationWindow13headerChangedEv@Base 6.2.0
 _ZN23QQuickApplicationWindow13localeChangedEv@Base 6.2.0
 _ZN23QQuickApplicationWindow13setBackgroundEP10QQuickItem@Base 6.2.0
 _ZN23QQuickApplicationWindow14menuBarChangedEv@Base 6.2.0
 _ZN23QQuickApplicationWindow16staticMetaObjectE@Base 6.2.0
 _ZN23QQuickApplicationWindow17backgroundChangedEv@Base 6.2.0
 _ZN23QQuickApplicationWindow17componentCompleteEv@Base 6.2.0
 _ZN23QQuickApplicationWindow21qmlAttachedPropertiesEP7QObject@Base 6.2.0
 _ZN23QQuickApplicationWindow25activeFocusControlChangedEv@Base 6.2.0
 _ZN23QQuickApplicationWindow7setFontERK5QFont@Base 6.2.0
 _ZN23QQuickApplicationWindow9resetFontEv@Base 6.2.0
 _ZN23QQuickApplicationWindow9setFooterEP10QQuickItem@Base 6.2.0
 _ZN23QQuickApplicationWindow9setHeaderEP10QQuickItem@Base 6.2.0
 _ZN23QQuickApplicationWindow9setLocaleERK7QLocale@Base 6.2.0
 _ZN23QQuickApplicationWindowC1EP7QWindow@Base 6.2.0
 _ZN23QQuickApplicationWindowC2EP7QWindow@Base 6.2.0
 _ZN23QQuickApplicationWindowD0Ev@Base 6.2.0
 _ZN23QQuickApplicationWindowD1Ev@Base 6.2.0
 _ZN23QQuickApplicationWindowD2Ev@Base 6.2.0
 _ZN23QQuickScrollBarAttached11qt_metacallEN11QMetaObject4CallEiPPv@Base 6.2.0
 _ZN23QQuickScrollBarAttached11qt_metacastEPKc@Base 6.2.0
 _ZN23QQuickScrollBarAttached11setVerticalEP15QQuickScrollBar@Base 6.2.0
 _ZN23QQuickScrollBarAttached13setHorizontalEP15QQuickScrollBar@Base 6.2.0
 _ZN23QQuickScrollBarAttached15verticalChangedEv@Base 6.2.0
 _ZN23QQuickScrollBarAttached16staticMetaObjectE@Base 6.2.0
 _ZN23QQuickScrollBarAttached17horizontalChangedEv@Base 6.2.0
 _ZN23QQuickScrollBarAttachedC1EP7QObject@Base 6.2.0
 _ZN23QQuickScrollBarAttachedC2EP7QObject@Base 6.2.0
 _ZN23QQuickScrollBarAttachedD0Ev@Base 6.2.0
 _ZN23QQuickScrollBarAttachedD1Ev@Base 6.2.0
 _ZN23QQuickScrollBarAttachedD2Ev@Base 6.2.0
 _ZN23QQuickSplitViewAttached11qt_metacallEN11QMetaObject4CallEiPPv@Base 6.2.0
 _ZN23QQuickSplitViewAttached11qt_metacastEPKc@Base 6.2.0
 _ZN23QQuickSplitViewAttached11viewChangedEv@Base 6.2.0
 _ZN23QQuickSplitViewAttached12setFillWidthEb@Base 6.2.0
 _ZN23QQuickSplitViewAttached13setFillHeightEb@Base 6.2.0
 _ZN23QQuickSplitViewAttached15setMaximumWidthEd@Base 6.2.0
 _ZN23QQuickSplitViewAttached15setMinimumWidthEd@Base 6.2.0
 _ZN23QQuickSplitViewAttached16fillWidthChangedEv@Base 6.2.0
 _ZN23QQuickSplitViewAttached16setMaximumHeightEd@Base 6.2.0
 _ZN23QQuickSplitViewAttached16setMinimumHeightEd@Base 6.2.0
 _ZN23QQuickSplitViewAttached16staticMetaObjectE@Base 6.2.0
 _ZN23QQuickSplitViewAttached17fillHeightChangedEv@Base 6.2.0
 _ZN23QQuickSplitViewAttached17resetMaximumWidthEv@Base 6.2.0
 _ZN23QQuickSplitViewAttached17resetMinimumWidthEv@Base 6.2.0
 _ZN23QQuickSplitViewAttached17setPreferredWidthEd@Base 6.2.0
 _ZN23QQuickSplitViewAttached18resetMaximumHeightEv@Base 6.2.0
 _ZN23QQuickSplitViewAttached18resetMinimumHeightEv@Base 6.2.0
 _ZN23QQuickSplitViewAttached18setPreferredHeightEd@Base 6.2.0
 _ZN23QQuickSplitViewAttached19maximumWidthChangedEv@Base 6.2.0
 _ZN23QQuickSplitViewAttached19minimumWidthChangedEv@Base 6.2.0
 _ZN23QQuickSplitViewAttached19resetPreferredWidthEv@Base 6.2.0
 _ZN23QQuickSplitViewAttached20maximumHeightChangedEv@Base 6.2.0
 _ZN23QQuickSplitViewAttached20minimumHeightChangedEv@Base 6.2.0
 _ZN23QQuickSplitViewAttached20resetPreferredHeightEv@Base 6.2.0
 _ZN23QQuickSplitViewAttached21preferredWidthChangedEv@Base 6.2.0
 _ZN23QQuickSplitViewAttached22preferredHeightChangedEv@Base 6.2.0
 _ZN23QQuickSplitViewAttachedC1EP7QObject@Base 6.2.0
 _ZN23QQuickSplitViewAttachedC2EP7QObject@Base 6.2.0
 _ZN23QQuickStackViewAttached10activatingEv@Base 6.2.0
 _ZN23QQuickStackViewAttached10setVisibleEb@Base 6.2.0
 _ZN23QQuickStackViewAttached11deactivatedEv@Base 6.2.0
 _ZN23QQuickStackViewAttached11qt_metacallEN11QMetaObject4CallEiPPv@Base 6.2.0
 _ZN23QQuickStackViewAttached11qt_metacastEPKc@Base 6.2.0
 _ZN23QQuickStackViewAttached11viewChangedEv@Base 6.2.0
 _ZN23QQuickStackViewAttached12deactivatingEv@Base 6.2.0
 _ZN23QQuickStackViewAttached12indexChangedEv@Base 6.2.0
 _ZN23QQuickStackViewAttached12resetVisibleEv@Base 6.2.0
 _ZN23QQuickStackViewAttached13statusChangedEv@Base 6.2.0
 _ZN23QQuickStackViewAttached14visibleChangedEv@Base 6.2.0
 _ZN23QQuickStackViewAttached16staticMetaObjectE@Base 6.2.0
 _ZN23QQuickStackViewAttached7removedEv@Base 6.2.0
 _ZN23QQuickStackViewAttached9activatedEv@Base 6.2.0
 _ZN23QQuickStackViewAttachedC1EP7QObject@Base 6.2.0
 _ZN23QQuickStackViewAttachedC2EP7QObject@Base 6.2.0
 _ZN23QQuickStackViewAttachedD0Ev@Base 6.2.0
 _ZN23QQuickStackViewAttachedD1Ev@Base 6.2.0
 _ZN23QQuickStackViewAttachedD2Ev@Base 6.2.0
 _ZN23QQuickSwipeViewAttached11qt_metacallEN11QMetaObject4CallEiPPv@Base 6.2.0
 _ZN23QQuickSwipeViewAttached11qt_metacastEPKc@Base 6.2.0
 _ZN23QQuickSwipeViewAttached11viewChangedEv@Base 6.2.0
 _ZN23QQuickSwipeViewAttached12indexChangedEv@Base 6.2.0
 _ZN23QQuickSwipeViewAttached16staticMetaObjectE@Base 6.2.0
 _ZN23QQuickSwipeViewAttached17isNextItemChangedEv@Base 6.2.0
 _ZN23QQuickSwipeViewAttached20isCurrentItemChangedEv@Base 6.2.0
 _ZN23QQuickSwipeViewAttached21isPreviousItemChangedEv@Base 6.2.0
 _ZN23QQuickSwipeViewAttachedC1EP7QObject@Base 6.2.0
 _ZN23QQuickSwipeViewAttachedC2EP7QObject@Base 6.2.0
 _ZN24QQuickSelectionRectangle11qt_metacallEN11QMetaObject4CallEiPPv@Base 6.2.0
 _ZN24QQuickSelectionRectangle11qt_metacastEPKc@Base 6.2.0
 _ZN24QQuickSelectionRectangle13activeChangedEv@Base 6.2.0
 _ZN24QQuickSelectionRectangle13targetChangedEv@Base 6.2.0
 _ZN24QQuickSelectionRectangle15draggingChangedEv@Base 6.2.0
 _ZN24QQuickSelectionRectangle16setSelectionModeENS_13SelectionModeE@Base 6.2.0
 _ZN24QQuickSelectionRectangle16setTopLeftHandleEP13QQmlComponent@Base 6.2.0
 _ZN24QQuickSelectionRectangle16staticMetaObjectE@Base 6.2.0
 _ZN24QQuickSelectionRectangle20selectionModeChangedEv@Base 6.2.0
 _ZN24QQuickSelectionRectangle20setBottomRightHandleEP13QQmlComponent@Base 6.2.0
 _ZN24QQuickSelectionRectangle20topLeftHandleChangedEv@Base 6.2.0
 _ZN24QQuickSelectionRectangle21qmlAttachedPropertiesEP7QObject@Base 6.2.0
 _ZN24QQuickSelectionRectangle24bottomRightHandleChangedEv@Base 6.2.0
 _ZN24QQuickSelectionRectangle6activeEv@Base 6.2.0
 _ZN24QQuickSelectionRectangle8draggingEv@Base 6.2.0
 _ZN24QQuickSelectionRectangle9setTargetEP10QQuickItem@Base 6.2.0
 _ZN24QQuickSelectionRectangleC1EP10QQuickItem@Base 6.2.0
 _ZN24QQuickSelectionRectangleC2EP10QQuickItem@Base 6.2.0
 _ZN24QQuickVerticalHeaderView11qt_metacallEN11QMetaObject4CallEiPPv@Base 6.2.0
 _ZN24QQuickVerticalHeaderView11qt_metacastEPKc@Base 6.2.0
 _ZN24QQuickVerticalHeaderView16staticMetaObjectE@Base 6.2.0
 _ZN24QQuickVerticalHeaderViewC1EP10QQuickItem@Base 6.2.0
 _ZN24QQuickVerticalHeaderViewC1ER31QQuickVerticalHeaderViewPrivateP10QQuickItem@Base 6.2.0
 _ZN24QQuickVerticalHeaderViewC2EP10QQuickItem@Base 6.2.0
 _ZN24QQuickVerticalHeaderViewC2ER31QQuickVerticalHeaderViewPrivateP10QQuickItem@Base 6.2.0
 _ZN24QQuickVerticalHeaderViewD0Ev@Base 6.2.0
 _ZN24QQuickVerticalHeaderViewD1Ev@Base 6.2.0
 _ZN24QQuickVerticalHeaderViewD2Ev@Base 6.2.0
 _ZN25QQuickActionGroupAttached11qt_metacallEN11QMetaObject4CallEiPPv@Base 6.2.0
 _ZN25QQuickActionGroupAttached11qt_metacastEPKc@Base 6.2.0
 _ZN25QQuickActionGroupAttached12groupChangedEv@Base 6.2.0
 _ZN25QQuickActionGroupAttached16staticMetaObjectE@Base 6.2.0
 _ZN25QQuickActionGroupAttached8setGroupEP17QQuickActionGroup@Base 6.2.0
 _ZN25QQuickActionGroupAttachedC1EP7QObject@Base 6.2.0
 _ZN25QQuickActionGroupAttachedC2EP7QObject@Base 6.2.0
 _ZN25QQuickButtonGroupAttached11qt_metacallEN11QMetaObject4CallEiPPv@Base 6.2.0
 _ZN25QQuickButtonGroupAttached11qt_metacastEPKc@Base 6.2.0
 _ZN25QQuickButtonGroupAttached12groupChangedEv@Base 6.2.0
 _ZN25QQuickButtonGroupAttached16staticMetaObjectE@Base 6.2.0
 _ZN25QQuickButtonGroupAttached8setGroupEP17QQuickButtonGroup@Base 6.2.0
 _ZN25QQuickButtonGroupAttachedC1EP7QObject@Base 6.2.0
 _ZN25QQuickButtonGroupAttachedC2EP7QObject@Base 6.2.0
 _ZN25QQuickSplitHandleAttached11qt_metacallEN11QMetaObject4CallEiPPv@Base 6.2.0
 _ZN25QQuickSplitHandleAttached11qt_metacastEPKc@Base 6.2.0
 _ZN25QQuickSplitHandleAttached14hoveredChangedEv@Base 6.2.0
 _ZN25QQuickSplitHandleAttached14pressedChangedEv@Base 6.2.0
 _ZN25QQuickSplitHandleAttached16staticMetaObjectE@Base 6.2.0
 _ZN25QQuickSplitHandleAttached21qmlAttachedPropertiesEP7QObject@Base 6.2.0
 _ZN25QQuickSplitHandleAttachedC1EP7QObject@Base 6.2.0
 _ZN25QQuickSplitHandleAttachedC2EP7QObject@Base 6.2.0
 _ZN26QQuickHorizontalHeaderView11qt_metacallEN11QMetaObject4CallEiPPv@Base 6.2.0
 _ZN26QQuickHorizontalHeaderView11qt_metacastEPKc@Base 6.2.0
 _ZN26QQuickHorizontalHeaderView16staticMetaObjectE@Base 6.2.0
 _ZN26QQuickHorizontalHeaderViewC1EP10QQuickItem@Base 6.2.0
 _ZN26QQuickHorizontalHeaderViewC2EP10QQuickItem@Base 6.2.0
 _ZN26QQuickHorizontalHeaderViewD0Ev@Base 6.2.0
 _ZN26QQuickHorizontalHeaderViewD1Ev@Base 6.2.0
 _ZN26QQuickHorizontalHeaderViewD2Ev@Base 6.2.0
 _ZN27QQuickAbstractButtonPrivate10handleMoveERK7QPointF@Base 6.2.0
 _ZN27QQuickAbstractButtonPrivate11handlePressERK7QPointF@Base 6.2.0
 _ZN27QQuickAbstractButtonPrivate12grabShortcutEv@Base 6.2.0
 _ZN27QQuickAbstractButtonPrivate12handleUngrabEv@Base 6.2.0
 _ZN27QQuickAbstractButtonPrivate12setMovePointERK7QPointF@Base 6.2.0
 _ZN27QQuickAbstractButtonPrivate13handleReleaseERK7QPointF@Base 6.2.0
 _ZN27QQuickAbstractButtonPrivate13setPressPointERK7QPointF@Base 6.2.0
 _ZN27QQuickAbstractButtonPrivate14ungrabShortcutEv@Base 6.2.0
 _ZN27QQuickAbstractButtonPrivate15cancelIndicatorEv@Base 6.2.0
 _ZN27QQuickAbstractButtonPrivate15stopPressRepeatEv@Base 6.2.0
 _ZN27QQuickAbstractButtonPrivate16actionTextChangeEv@Base 6.2.0
 _ZN27QQuickAbstractButtonPrivate16executeIndicatorEb@Base 6.2.0
 _ZN27QQuickAbstractButtonPrivate16startPressRepeatEv@Base 6.2.0
 _ZN27QQuickAbstractButtonPrivate16startRepeatDelayEv@Base 6.2.0
 _ZN27QQuickAbstractButtonPrivate16stopPressAndHoldEv@Base 6.2.0
 _ZN27QQuickAbstractButtonPrivate17startPressAndHoldEv@Base 6.2.0
 _ZN27QQuickAbstractButtonPrivate19updateEffectiveIconEv@Base 6.2.0
 _ZN27QQuickAbstractButtonPrivate23isPressAndHoldConnectedEv@Base 6.2.0
 _ZN27QQuickAbstractButtonPrivate24itemImplicitWidthChangedEP10QQuickItem@Base 6.2.0
 _ZN27QQuickAbstractButtonPrivate25itemImplicitHeightChangedEP10QQuickItem@Base 6.2.0
 _ZN27QQuickAbstractButtonPrivate5clickEv@Base 6.2.0
 _ZN27QQuickAbstractButtonPrivate6toggleEb@Base 6.2.0
 _ZN27QQuickAbstractButtonPrivate7setTextERK7QStringb@Base 6.2.0
 _ZN27QQuickAbstractButtonPrivate7triggerEv@Base 6.2.0
 _ZN27QQuickSwipeDelegateAttached10setPressedEb@Base 6.2.0
 _ZN27QQuickSwipeDelegateAttached11qt_metacallEN11QMetaObject4CallEiPPv@Base 6.2.0
 _ZN27QQuickSwipeDelegateAttached11qt_metacastEPKc@Base 6.2.0
 _ZN27QQuickSwipeDelegateAttached14pressedChangedEv@Base 6.2.0
 _ZN27QQuickSwipeDelegateAttached16staticMetaObjectE@Base 6.2.0
 _ZN27QQuickSwipeDelegateAttached7clickedEv@Base 6.2.0
 _ZN27QQuickSwipeDelegateAttachedC1EP7QObject@Base 6.2.0
 _ZN27QQuickSwipeDelegateAttachedC2EP7QObject@Base 6.2.0
 _ZN28QQuickDialogButtonBoxPrivate10buttonTextEN21QPlatformDialogHelper14StandardButtonE@Base 6.2.0
 _ZN28QQuickDialogButtonBoxPrivate11handleClickEv@Base 6.2.0
 _ZN28QQuickDialogButtonBoxPrivate12updateLayoutEv@Base 6.2.0
 _ZN28QQuickDialogButtonBoxPrivate13resizeContentEv@Base 6.2.0
 _ZN28QQuickDialogButtonBoxPrivate14updateLanguageEv@Base 6.2.0
 _ZN28QQuickDialogButtonBoxPrivate20createStandardButtonEN21QPlatformDialogHelper14StandardButtonE@Base 6.2.0
 _ZN28QQuickDialogButtonBoxPrivate21removeStandardButtonsEv@Base 6.2.0
 _ZN28QQuickDialogButtonBoxPrivate24itemImplicitWidthChangedEP10QQuickItem@Base 6.2.0
 _ZN28QQuickDialogButtonBoxPrivate25itemImplicitHeightChangedEP10QQuickItem@Base 6.2.0
 _ZN28QQuickPopupTransitionManager14transitionExitEv@Base 6.2.0
 _ZN28QQuickPopupTransitionManager15transitionEnterEv@Base 6.2.0
 _ZN28QQuickPopupTransitionManager8finishedEv@Base 6.2.0
 _ZN28QQuickPopupTransitionManagerC1EP18QQuickPopupPrivate@Base 6.2.0
 _ZN28QQuickPopupTransitionManagerC2EP18QQuickPopupPrivate@Base 6.2.0
 _ZN29QQuickDialogButtonBoxAttached11qt_metacallEN11QMetaObject4CallEiPPv@Base 6.2.0
 _ZN29QQuickDialogButtonBoxAttached11qt_metacastEPKc@Base 6.2.0
 _ZN29QQuickDialogButtonBoxAttached13setButtonRoleEN21QPlatformDialogHelper10ButtonRoleE@Base 6.2.0
 _ZN29QQuickDialogButtonBoxAttached16buttonBoxChangedEv@Base 6.2.0
 _ZN29QQuickDialogButtonBoxAttached16staticMetaObjectE@Base 6.2.0
 _ZN29QQuickDialogButtonBoxAttached17buttonRoleChangedEv@Base 6.2.0
 _ZN29QQuickDialogButtonBoxAttachedC1EP7QObject@Base 6.2.0
 _ZN29QQuickDialogButtonBoxAttachedC2EP7QObject@Base 6.2.0
 _ZN29QQuickScrollIndicatorAttached11qt_metacallEN11QMetaObject4CallEiPPv@Base 6.2.0
 _ZN29QQuickScrollIndicatorAttached11qt_metacastEPKc@Base 6.2.0
 _ZN29QQuickScrollIndicatorAttached11setVerticalEP21QQuickScrollIndicator@Base 6.2.0
 _ZN29QQuickScrollIndicatorAttached13setHorizontalEP21QQuickScrollIndicator@Base 6.2.0
 _ZN29QQuickScrollIndicatorAttached15verticalChangedEv@Base 6.2.0
 _ZN29QQuickScrollIndicatorAttached16staticMetaObjectE@Base 6.2.0
 _ZN29QQuickScrollIndicatorAttached17horizontalChangedEv@Base 6.2.0
 _ZN29QQuickScrollIndicatorAttachedC1EP7QObject@Base 6.2.0
 _ZN29QQuickScrollIndicatorAttachedC2EP7QObject@Base 6.2.0
 _ZN29QQuickScrollIndicatorAttachedD0Ev@Base 6.2.0
 _ZN29QQuickScrollIndicatorAttachedD1Ev@Base 6.2.0
 _ZN29QQuickScrollIndicatorAttachedD2Ev@Base 6.2.0
 _ZN30QQuickApplicationWindowPrivate10updateFontERK5QFont@Base 6.2.0
 _ZN30QQuickApplicationWindowPrivate11contentDataEv@Base 6.2.0
 _ZN30QQuickApplicationWindowPrivate11resolveFontEv@Base 6.2.0
 _ZN30QQuickApplicationWindowPrivate16cancelBackgroundEv@Base 6.2.0
 _ZN30QQuickApplicationWindowPrivate17executeBackgroundEb@Base 6.2.0
 _ZN30QQuickApplicationWindowPrivate18contentData_appendEP16QQmlListPropertyI7QObjectEPS1_@Base 6.2.0
 _ZN30QQuickApplicationWindowPrivate19itemGeometryChangedEP10QQuickItem20QQuickGeometryChangeRK6QRectF@Base 6.2.0
 _ZN30QQuickApplicationWindowPrivate20_q_updateActiveFocusEv@Base 6.2.0
 _ZN30QQuickApplicationWindowPrivate21itemVisibilityChangedEP10QQuickItem@Base 6.2.0
 _ZN30QQuickApplicationWindowPrivate21setActiveFocusControlEP10QQuickItem@Base 6.2.0
 _ZN30QQuickApplicationWindowPrivate24itemImplicitWidthChangedEP10QQuickItem@Base 6.2.0
 _ZN30QQuickApplicationWindowPrivate25itemImplicitHeightChangedEP10QQuickItem@Base 6.2.0
 _ZN30QQuickApplicationWindowPrivate8relayoutEv@Base 6.2.0
 _ZN31QQuickApplicationWindowAttached11qt_metacallEN11QMetaObject4CallEiPPv@Base 6.2.0
 _ZN31QQuickApplicationWindowAttached11qt_metacastEPKc@Base 6.2.0
 _ZN31QQuickApplicationWindowAttached13footerChangedEv@Base 6.2.0
 _ZN31QQuickApplicationWindowAttached13headerChangedEv@Base 6.2.0
 _ZN31QQuickApplicationWindowAttached13windowChangedEv@Base 6.2.0
 _ZN31QQuickApplicationWindowAttached14menuBarChangedEv@Base 6.2.0
 _ZN31QQuickApplicationWindowAttached16staticMetaObjectE@Base 6.2.0
 _ZN31QQuickApplicationWindowAttached18contentItemChangedEv@Base 6.2.0
 _ZN31QQuickApplicationWindowAttached25activeFocusControlChangedEv@Base 6.2.0
 _ZN31QQuickApplicationWindowAttachedC1EP7QObject@Base 6.2.0
 _ZN31QQuickApplicationWindowAttachedC2EP7QObject@Base 6.2.0
 _ZN32QQuickSelectionRectangleAttached10setControlEP24QQuickSelectionRectangle@Base 6.2.0
 _ZN32QQuickSelectionRectangleAttached11qt_metacallEN11QMetaObject4CallEiPPv@Base 6.2.0
 _ZN32QQuickSelectionRectangleAttached11qt_metacastEPKc@Base 6.2.0
 _ZN32QQuickSelectionRectangleAttached11setDraggingEb@Base 6.2.0
 _ZN32QQuickSelectionRectangleAttached14controlChangedEv@Base 6.2.0
 _ZN32QQuickSelectionRectangleAttached15draggingChangedEv@Base 6.2.0
 _ZN32QQuickSelectionRectangleAttached16staticMetaObjectE@Base 6.2.0
 _ZN32QQuickSelectionRectangleAttachedC1EP7QObject@Base 6.2.0
 _ZN32QQuickSelectionRectangleAttachedC2EP7QObject@Base 6.2.0
 _ZNK10QQuickDial10metaObjectEv@Base 6.2.0
 _ZNK10QQuickDial14accessibleRoleEv@Base 6.2.0
 _ZNK10QQuickDial2toEv@Base 6.2.0
 _ZNK10QQuickDial4fromEv@Base 6.2.0
 _ZNK10QQuickDial4liveEv@Base 6.2.0
 _ZNK10QQuickDial4wrapEv@Base 6.2.0
 _ZNK10QQuickDial5angleEv@Base 6.2.0
 _ZNK10QQuickDial5valueEv@Base 6.2.0
 _ZNK10QQuickDial6handleEv@Base 6.2.0
 _ZNK10QQuickDial8positionEv@Base 6.2.0
 _ZNK10QQuickDial8snapModeEv@Base 6.2.0
 _ZNK10QQuickDial8stepSizeEv@Base 6.2.0
 _ZNK10QQuickDial9inputModeEv@Base 6.2.0
 _ZNK10QQuickDial9isPressedEv@Base 6.2.0
 _ZNK10QQuickIcon14resolvedSourceEv@Base 6.2.1
 _ZNK10QQuickIcon4nameEv@Base 6.2.0
 _ZNK10QQuickIcon5cacheEv@Base 6.2.0
 _ZNK10QQuickIcon5colorEv@Base 6.2.0
 _ZNK10QQuickIcon5widthEv@Base 6.2.0
 _ZNK10QQuickIcon6heightEv@Base 6.2.0
 _ZNK10QQuickIcon6sourceEv@Base 6.2.0
 _ZNK10QQuickIcon7isEmptyEv@Base 6.2.0
 _ZNK10QQuickIcon7resolveERKS_@Base 6.2.0
 _ZNK10QQuickIconeqERKS_@Base 6.2.0
 _ZNK10QQuickIconneERKS_@Base 6.2.0
 _ZNK10QQuickMenu10metaObjectEv@Base 6.2.0
 _ZNK10QQuickMenu11defaultFontEv@Base 6.2.0
 _ZNK10QQuickMenu12contentModelEv@Base 6.2.0
 _ZNK10QQuickMenu12currentIndexEv@Base 6.2.0
 _ZNK10QQuickMenu14accessibleRoleEv@Base 6.2.0
 _ZNK10QQuickMenu5countEv@Base 6.2.0
 _ZNK10QQuickMenu5titleEv@Base 6.2.0
 _ZNK10QQuickMenu6itemAtEi@Base 6.2.0
 _ZNK10QQuickMenu6menuAtEi@Base 6.2.0
 _ZNK10QQuickMenu7cascadeEv@Base 6.2.0
 _ZNK10QQuickMenu7overlapEv@Base 6.2.0
 _ZNK10QQuickMenu8actionAtEi@Base 6.2.0
 _ZNK10QQuickMenu8delegateEv@Base 6.2.0
 _ZNK10QQuickPage10metaObjectEv@Base 6.2.0
 _ZNK10QQuickPage14accessibleRoleEv@Base 6.2.0
 _ZNK10QQuickPage19implicitFooterWidthEv@Base 6.2.0
 _ZNK10QQuickPage19implicitHeaderWidthEv@Base 6.2.0
 _ZNK10QQuickPage20implicitFooterHeightEv@Base 6.2.0
 _ZNK10QQuickPage20implicitHeaderHeightEv@Base 6.2.0
 _ZNK10QQuickPage5titleEv@Base 6.2.0
 _ZNK10QQuickPage6footerEv@Base 6.2.0
 _ZNK10QQuickPage6headerEv@Base 6.2.0
 _ZNK10QQuickPane10metaObjectEv@Base 6.2.0
 _ZNK10QQuickPane12contentWidthEv@Base 6.2.0
 _ZNK10QQuickPane13contentHeightEv@Base 6.2.0
 _ZNK10QQuickPane14accessibleRoleEv@Base 6.2.0
 _ZNK11QQuickFrame10metaObjectEv@Base 6.2.0
 _ZNK11QQuickFrame14accessibleRoleEv@Base 6.2.0
 _ZNK11QQuickLabel10backgroundEv@Base 6.2.0
 _ZNK11QQuickLabel10metaObjectEv@Base 6.2.0
 _ZNK11QQuickLabel10rightInsetEv@Base 6.2.0
 _ZNK11QQuickLabel11bottomInsetEv@Base 6.2.0
 _ZNK11QQuickLabel23implicitBackgroundWidthEv@Base 6.2.0
 _ZNK11QQuickLabel24implicitBackgroundHeightEv@Base 6.2.0
 _ZNK11QQuickLabel4fontEv@Base 6.2.0
 _ZNK11QQuickLabel8topInsetEv@Base 6.2.0
 _ZNK11QQuickLabel9leftInsetEv@Base 6.2.0
 _ZNK11QQuickPopup10backgroundEv@Base 6.2.0
 _ZNK11QQuickPopup10isMirroredEv@Base 6.2.0
 _ZNK11QQuickPopup10leftMarginEv@Base 6.2.0
 _ZNK11QQuickPopup10metaObjectEv@Base 6.2.0
 _ZNK11QQuickPopup10parentItemEv@Base 6.2.0
 _ZNK11QQuickPopup10rightInsetEv@Base 6.2.0
 _ZNK11QQuickPopup10topPaddingEv@Base 6.2.0
 _ZNK11QQuickPopup11bottomInsetEv@Base 6.2.0
 _ZNK11QQuickPopup11closePolicyEv@Base 6.2.0
 _ZNK11QQuickPopup11contentItemEv@Base 6.2.0
 _ZNK11QQuickPopup11defaultFontEv@Base 6.2.0
 _ZNK11QQuickPopup11leftPaddingEv@Base 6.2.0
 _ZNK11QQuickPopup11rightMarginEv@Base 6.2.0
 _ZNK11QQuickPopup12bottomMarginEv@Base 6.2.0
 _ZNK11QQuickPopup12contentWidthEv@Base 6.2.0
 _ZNK11QQuickPopup12rightPaddingEv@Base 6.2.0
 _ZNK11QQuickPopup13bottomPaddingEv@Base 6.2.0
 _ZNK11QQuickPopup13contentHeightEv@Base 6.2.0
 _ZNK11QQuickPopup13implicitWidthEv@Base 6.2.0
 _ZNK11QQuickPopup14accessibleNameEv@Base 6.2.0
 _ZNK11QQuickPopup14accessibleRoleEv@Base 6.2.0
 _ZNK11QQuickPopup14availableWidthEv@Base 6.2.0
 _ZNK11QQuickPopup14hasActiveFocusEv@Base 6.2.0
 _ZNK11QQuickPopup14implicitHeightEv@Base 6.2.0
 _ZNK11QQuickPopup15availableHeightEv@Base 6.2.0
 _ZNK11QQuickPopup15transformOriginEv@Base 6.2.0
 _ZNK11QQuickPopup15verticalPaddingEv@Base 6.2.0
 _ZNK11QQuickPopup17horizontalPaddingEv@Base 6.2.0
 _ZNK11QQuickPopup19isComponentCompleteEv@Base 6.2.0
 _ZNK11QQuickPopup1xEv@Base 6.2.0
 _ZNK11QQuickPopup1yEv@Base 6.2.0
 _ZNK11QQuickPopup1zEv@Base 6.2.0
 _ZNK11QQuickPopup20implicitContentWidthEv@Base 6.2.0
 _ZNK11QQuickPopup21implicitContentHeightEv@Base 6.2.0
 _ZNK11QQuickPopup23filtersChildMouseEventsEv@Base 6.2.0
 _ZNK11QQuickPopup23implicitBackgroundWidthEv@Base 6.2.0
 _ZNK11QQuickPopup24implicitBackgroundHeightEv@Base 6.2.0
 _ZNK11QQuickPopup3dimEv@Base 6.2.0
 _ZNK11QQuickPopup4clipEv@Base 6.2.0
 _ZNK11QQuickPopup4exitEv@Base 6.2.0
 _ZNK11QQuickPopup4fontEv@Base 6.2.0
 _ZNK11QQuickPopup5enterEv@Base 6.2.0
 _ZNK11QQuickPopup5scaleEv@Base 6.2.0
 _ZNK11QQuickPopup5widthEv@Base 6.2.0
 _ZNK11QQuickPopup6heightEv@Base 6.2.0
 _ZNK11QQuickPopup6localeEv@Base 6.2.0
 _ZNK11QQuickPopup6windowEv@Base 6.2.0
 _ZNK11QQuickPopup7isModalEv@Base 6.2.0
 _ZNK11QQuickPopup7marginsEv@Base 6.2.0
 _ZNK11QQuickPopup7opacityEv@Base 6.2.0
 _ZNK11QQuickPopup7paddingEv@Base 6.2.0
 _ZNK11QQuickPopup7spacingEv@Base 6.2.0
 _ZNK11QQuickPopup8hasFocusEv@Base 6.2.0
 _ZNK11QQuickPopup8isOpenedEv@Base 6.2.0
 _ZNK11QQuickPopup8positionEv@Base 6.2.0
 _ZNK11QQuickPopup8topInsetEv@Base 6.2.0
 _ZNK11QQuickPopup9isEnabledEv@Base 6.2.0
 _ZNK11QQuickPopup9isVisibleEv@Base 6.2.0
 _ZNK11QQuickPopup9leftInsetEv@Base 6.2.0
 _ZNK11QQuickPopup9popupItemEv@Base 6.2.0
 _ZNK11QQuickPopup9topMarginEv@Base 6.2.0
 _ZNK11QQuickSwipe10behindItemEv@Base 6.2.0
 _ZNK11QQuickSwipe10isCompleteEv@Base 6.2.0
 _ZNK11QQuickSwipe10metaObjectEv@Base 6.2.0
 _ZNK11QQuickSwipe10transitionEv@Base 6.2.0
 _ZNK11QQuickSwipe4leftEv@Base 6.2.0
 _ZNK11QQuickSwipe5rightEv@Base 6.2.0
 _ZNK11QQuickSwipe6behindEv@Base 6.2.0
 _ZNK11QQuickSwipe8leftItemEv@Base 6.2.0
 _ZNK11QQuickSwipe8positionEv@Base 6.2.0
 _ZNK11QQuickSwipe9isEnabledEv@Base 6.2.0
 _ZNK11QQuickSwipe9rightItemEv@Base 6.2.0
 _ZNK12QQuickAction10metaObjectEv@Base 6.2.0
 _ZNK12QQuickAction11isCheckableEv@Base 6.2.0
 _ZNK12QQuickAction4iconEv@Base 6.2.0
 _ZNK12QQuickAction4textEv@Base 6.2.0
 _ZNK12QQuickAction8shortcutEv@Base 6.2.0
 _ZNK12QQuickAction9isCheckedEv@Base 6.2.0
 _ZNK12QQuickAction9isEnabledEv@Base 6.2.0
 _ZNK12QQuickButton10metaObjectEv@Base 6.2.0
 _ZNK12QQuickButton11defaultFontEv@Base 6.2.0
 _ZNK12QQuickButton13isHighlightedEv@Base 6.2.0
 _ZNK12QQuickButton6isFlatEv@Base 6.2.0
 _ZNK12QQuickDialog10metaObjectEv@Base 6.2.0
 _ZNK12QQuickDialog14accessibleRoleEv@Base 6.2.0
 _ZNK12QQuickDialog14standardButtonEN21QPlatformDialogHelper14StandardButtonE@Base 6.2.0
 _ZNK12QQuickDialog15standardButtonsEv@Base 6.2.0
 _ZNK12QQuickDialog19implicitFooterWidthEv@Base 6.2.0
 _ZNK12QQuickDialog19implicitHeaderWidthEv@Base 6.2.0
 _ZNK12QQuickDialog20implicitFooterHeightEv@Base 6.2.0
 _ZNK12QQuickDialog20implicitHeaderHeightEv@Base 6.2.0
 _ZNK12QQuickDialog5titleEv@Base 6.2.0
 _ZNK12QQuickDialog6footerEv@Base 6.2.0
 _ZNK12QQuickDialog6headerEv@Base 6.2.0
 _ZNK12QQuickDialog6resultEv@Base 6.2.0
 _ZNK12QQuickDrawer10dragMarginEv@Base 6.2.0
 _ZNK12QQuickDrawer10metaObjectEv@Base 6.2.0
 _ZNK12QQuickDrawer13isInteractiveEv@Base 6.2.0
 _ZNK12QQuickDrawer4edgeEv@Base 6.2.0
 _ZNK12QQuickDrawer8positionEv@Base 6.2.0
 _ZNK12QQuickSlider10isVerticalEv@Base 6.2.0
 _ZNK12QQuickSlider10metaObjectEv@Base 6.2.0
 _ZNK12QQuickSlider11orientationEv@Base 6.2.0
 _ZNK12QQuickSlider12isHorizontalEv@Base 6.2.0
 _ZNK12QQuickSlider14accessibleRoleEv@Base 6.2.0
 _ZNK12QQuickSlider14visualPositionEv@Base 6.2.0
 _ZNK12QQuickSlider18touchDragThresholdEv@Base 6.2.0
 _ZNK12QQuickSlider19implicitHandleWidthEv@Base 6.2.0
 _ZNK12QQuickSlider20implicitHandleHeightEv@Base 6.2.0
 _ZNK12QQuickSlider2toEv@Base 6.2.0
 _ZNK12QQuickSlider4fromEv@Base 6.2.0
 _ZNK12QQuickSlider4liveEv@Base 6.2.0
 _ZNK12QQuickSlider5valueEv@Base 6.2.0
 _ZNK12QQuickSlider6handleEv@Base 6.2.0
 _ZNK12QQuickSlider7valueAtEd@Base 6.2.0
 _ZNK12QQuickSlider8positionEv@Base 6.2.0
 _ZNK12QQuickSlider8snapModeEv@Base 6.2.0
 _ZNK12QQuickSlider8stepSizeEv@Base 6.2.0
 _ZNK12QQuickSlider9isPressedEv@Base 6.2.0
 _ZNK12QQuickSwitch10metaObjectEv@Base 6.2.0
 _ZNK12QQuickSwitch11defaultFontEv@Base 6.2.0
 _ZNK12QQuickSwitch14visualPositionEv@Base 6.2.0
 _ZNK12QQuickSwitch8positionEv@Base 6.2.0
 _ZNK12QQuickTabBar10metaObjectEv@Base 6.2.0
 _ZNK12QQuickTabBar11defaultFontEv@Base 6.2.0
 _ZNK12QQuickTabBar14accessibleRoleEv@Base 6.2.0
 _ZNK12QQuickTabBar8positionEv@Base 6.2.0
 _ZNK12QQuickTabBar9isContentEP10QQuickItem@Base 6.2.0
 _ZNK13QQuickControl10backgroundEv@Base 6.2.0
 _ZNK13QQuickControl10isMirroredEv@Base 6.2.0
 _ZNK13QQuickControl10metaObjectEv@Base 6.2.0
 _ZNK13QQuickControl10rightInsetEv@Base 6.2.0
 _ZNK13QQuickControl10topPaddingEv@Base 6.2.0
 _ZNK13QQuickControl11bottomInsetEv@Base 6.2.0
 _ZNK13QQuickControl11contentItemEv@Base 6.2.0
 _ZNK13QQuickControl11defaultFontEv@Base 6.2.0
 _ZNK13QQuickControl11focusPolicyEv@Base 6.2.0
 _ZNK13QQuickControl11focusReasonEv@Base 6.2.0
 _ZNK13QQuickControl11leftPaddingEv@Base 6.2.0
 _ZNK13QQuickControl12rightPaddingEv@Base 6.2.0
 _ZNK13QQuickControl13bottomPaddingEv@Base 6.2.0
 _ZNK13QQuickControl14accessibleNameEv@Base 6.2.0
 _ZNK13QQuickControl14accessibleRoleEv@Base 6.2.0
 _ZNK13QQuickControl14availableWidthEv@Base 6.2.0
 _ZNK13QQuickControl14baselineOffsetEv@Base 6.2.0
 _ZNK13QQuickControl14hasVisualFocusEv@Base 6.2.0
 _ZNK13QQuickControl14isHoverEnabledEv@Base 6.2.0
 _ZNK13QQuickControl14isWheelEnabledEv@Base 6.2.0
 _ZNK13QQuickControl15availableHeightEv@Base 6.2.0
 _ZNK13QQuickControl15verticalPaddingEv@Base 6.2.0
 _ZNK13QQuickControl17horizontalPaddingEv@Base 6.2.0
 _ZNK13QQuickControl20implicitContentWidthEv@Base 6.2.0
 _ZNK13QQuickControl21implicitContentHeightEv@Base 6.2.0
 _ZNK13QQuickControl23implicitBackgroundWidthEv@Base 6.2.0
 _ZNK13QQuickControl24implicitBackgroundHeightEv@Base 6.2.0
 _ZNK13QQuickControl4fontEv@Base 6.2.0
 _ZNK13QQuickControl6localeEv@Base 6.2.0
 _ZNK13QQuickControl7paddingEv@Base 6.2.0
 _ZNK13QQuickControl7spacingEv@Base 6.2.0
 _ZNK13QQuickControl8topInsetEv@Base 6.2.0
 _ZNK13QQuickControl9isHoveredEv@Base 6.2.0
 _ZNK13QQuickControl9leftInsetEv@Base 6.2.0
 _ZNK13QQuickMenuBar10metaObjectEv@Base 6.2.0
 _ZNK13QQuickMenuBar11defaultFontEv@Base 6.2.0
 _ZNK13QQuickMenuBar14accessibleRoleEv@Base 6.2.0
 _ZNK13QQuickMenuBar6menuAtEi@Base 6.2.0
 _ZNK13QQuickMenuBar8delegateEv@Base 6.2.0
 _ZNK13QQuickMenuBar9isContentEP10QQuickItem@Base 6.2.0
 _ZNK13QQuickOverlay10metaObjectEv@Base 6.2.0
 _ZNK13QQuickOverlay5modalEv@Base 6.2.0
 _ZNK13QQuickOverlay8modelessEv@Base 6.2.0
 _ZNK13QQuickSpinBox10isEditableEv@Base 6.2.0
 _ZNK13QQuickSpinBox10metaObjectEv@Base 6.2.0
 _ZNK13QQuickSpinBox11defaultFontEv@Base 6.2.0
 _ZNK13QQuickSpinBox11displayTextEv@Base 6.2.0
 _ZNK13QQuickSpinBox13textFromValueEv@Base 6.2.0
 _ZNK13QQuickSpinBox13valueFromTextEv@Base 6.2.0
 _ZNK13QQuickSpinBox14accessibleRoleEv@Base 6.2.0
 _ZNK13QQuickSpinBox16inputMethodHintsEv@Base 6.2.0
 _ZNK13QQuickSpinBox22isInputMethodComposingEv@Base 6.2.0
 _ZNK13QQuickSpinBox2toEv@Base 6.2.0
 _ZNK13QQuickSpinBox2upEv@Base 6.2.0
 _ZNK13QQuickSpinBox4downEv@Base 6.2.0
 _ZNK13QQuickSpinBox4fromEv@Base 6.2.0
 _ZNK13QQuickSpinBox4wrapEv@Base 6.2.0
 _ZNK13QQuickSpinBox5valueEv@Base 6.2.0
 _ZNK13QQuickSpinBox8stepSizeEv@Base 6.2.0
 _ZNK13QQuickSpinBox9validatorEv@Base 6.2.0
 _ZNK13QQuickToolBar10metaObjectEv@Base 6.2.0
 _ZNK13QQuickToolBar11defaultFontEv@Base 6.2.0
 _ZNK13QQuickToolBar14accessibleRoleEv@Base 6.2.0
 _ZNK13QQuickToolBar8positionEv@Base 6.2.0
 _ZNK13QQuickToolTip10metaObjectEv@Base 6.2.0
 _ZNK13QQuickToolTip11defaultFontEv@Base 6.2.0
 _ZNK13QQuickToolTip14accessibleRoleEv@Base 6.2.0
 _ZNK13QQuickToolTip4textEv@Base 6.2.0
 _ZNK13QQuickToolTip5delayEv@Base 6.2.0
 _ZNK13QQuickToolTip7timeoutEv@Base 6.2.0
 _ZNK13QQuickTumbler10metaObjectEv@Base 6.2.0
 _ZNK13QQuickTumbler11currentItemEv@Base 6.2.0
 _ZNK13QQuickTumbler11defaultFontEv@Base 6.2.0
 _ZNK13QQuickTumbler12currentIndexEv@Base 6.2.0
 _ZNK13QQuickTumbler16visibleItemCountEv@Base 6.2.0
 _ZNK13QQuickTumbler4wrapEv@Base 6.2.0
 _ZNK13QQuickTumbler5countEv@Base 6.2.0
 _ZNK13QQuickTumbler5modelEv@Base 6.2.0
 _ZNK13QQuickTumbler8delegateEv@Base 6.2.0
 _ZNK13QQuickTumbler8isMovingEv@Base 6.2.0
 _ZNK14QQuickCheckBox10checkStateEv@Base 6.2.0
 _ZNK14QQuickCheckBox10isTristateEv@Base 6.2.0
 _ZNK14QQuickCheckBox10metaObjectEv@Base 6.2.0
 _ZNK14QQuickCheckBox11defaultFontEv@Base 6.2.0
 _ZNK14QQuickComboBox10isEditableEv@Base 6.2.0
 _ZNK14QQuickComboBox10metaObjectEv@Base 6.2.0
 _ZNK14QQuickComboBox11currentTextEv@Base 6.2.0
 _ZNK14QQuickComboBox11defaultFontEv@Base 6.2.0
 _ZNK14QQuickComboBox11displayTextEv@Base 6.2.0
 _ZNK14QQuickComboBox12currentIndexEv@Base 6.2.0
 _ZNK14QQuickComboBox12currentValueEv@Base 6.2.0
 _ZNK14QQuickComboBox12indexOfValueERK8QVariant@Base 6.2.0
 _ZNK14QQuickComboBox13delegateModelEv@Base 6.2.0
 _ZNK14QQuickComboBox14accessibleRoleEv@Base 6.2.0
 _ZNK14QQuickComboBox16highlightedIndexEv@Base 6.2.0
 _ZNK14QQuickComboBox16inputMethodHintsEv@Base 6.2.0
 _ZNK14QQuickComboBox17selectTextByMouseEv@Base 6.2.0
 _ZNK14QQuickComboBox18hasAcceptableInputEv@Base 6.2.0
 _ZNK14QQuickComboBox22implicitIndicatorWidthEv@Base 6.2.0
 _ZNK14QQuickComboBox22isInputMethodComposingEv@Base 6.2.0
 _ZNK14QQuickComboBox23implicitIndicatorHeightEv@Base 6.2.0
 _ZNK14QQuickComboBox26implicitContentWidthPolicyEv@Base 6.2.0
 _ZNK14QQuickComboBox4findERK7QString6QFlagsIN2Qt9MatchFlagEE@Base 6.2.0
 _ZNK14QQuickComboBox5countEv@Base 6.2.0
 _ZNK14QQuickComboBox5modelEv@Base 6.2.0
 _ZNK14QQuickComboBox5popupEv@Base 6.2.0
 _ZNK14QQuickComboBox6isDownEv@Base 6.2.0
 _ZNK14QQuickComboBox6isFlatEv@Base 6.2.0
 _ZNK14QQuickComboBox6textAtEi@Base 6.2.0
 _ZNK14QQuickComboBox7valueAtEi@Base 6.2.0
 _ZNK14QQuickComboBox8delegateEv@Base 6.2.0
 _ZNK14QQuickComboBox8editTextEv@Base 6.2.0
 _ZNK14QQuickComboBox8textRoleEv@Base 6.2.0
 _ZNK14QQuickComboBox9indicatorEv@Base 6.2.0
 _ZNK14QQuickComboBox9isPressedEv@Base 6.2.0
 _ZNK14QQuickComboBox9validatorEv@Base 6.2.0
 _ZNK14QQuickComboBox9valueRoleEv@Base 6.2.0
 _ZNK14QQuickGroupBox10metaObjectEv@Base 6.2.0
 _ZNK14QQuickGroupBox11defaultFontEv@Base 6.2.0
 _ZNK14QQuickGroupBox14accessibleRoleEv@Base 6.2.0
 _ZNK14QQuickGroupBox18implicitLabelWidthEv@Base 6.2.0
 _ZNK14QQuickGroupBox19implicitLabelHeightEv@Base 6.2.0
 _ZNK14QQuickGroupBox5labelEv@Base 6.2.0
 _ZNK14QQuickGroupBox5titleEv@Base 6.2.0
 _ZNK14QQuickMenuItem10metaObjectEv@Base 6.2.0
 _ZNK14QQuickMenuItem11defaultFontEv@Base 6.2.0
 _ZNK14QQuickMenuItem13isHighlightedEv@Base 6.2.0
 _ZNK14QQuickMenuItem14accessibleRoleEv@Base 6.2.0
 _ZNK14QQuickMenuItem4menuEv@Base 6.2.0
 _ZNK14QQuickMenuItem5arrowEv@Base 6.2.0
 _ZNK14QQuickMenuItem7subMenuEv@Base 6.2.0
 _ZNK14QQuickTextArea10backgroundEv@Base 6.2.0
 _ZNK14QQuickTextArea10metaObjectEv@Base 6.2.0
 _ZNK14QQuickTextArea10rightInsetEv@Base 6.2.0
 _ZNK14QQuickTextArea11bottomInsetEv@Base 6.2.0
 _ZNK14QQuickTextArea11focusReasonEv@Base 6.2.0
 _ZNK14QQuickTextArea14isHoverEnabledEv@Base 6.2.0
 _ZNK14QQuickTextArea15placeholderTextEv@Base 6.2.0
 _ZNK14QQuickTextArea20placeholderTextColorEv@Base 6.2.0
 _ZNK14QQuickTextArea23implicitBackgroundWidthEv@Base 6.2.0
 _ZNK14QQuickTextArea24implicitBackgroundHeightEv@Base 6.2.0
 _ZNK14QQuickTextArea4fontEv@Base 6.2.0
 _ZNK14QQuickTextArea8containsERK7QPointF@Base 6.2.0
 _ZNK14QQuickTextArea8topInsetEv@Base 6.2.0
 _ZNK14QQuickTextArea9isHoveredEv@Base 6.2.0
 _ZNK14QQuickTextArea9leftInsetEv@Base 6.2.0
 _ZNK15QQuickContainer10metaObjectEv@Base 6.2.0
 _ZNK15QQuickContainer11currentItemEv@Base 6.2.0
 _ZNK15QQuickContainer12contentModelEv@Base 6.2.0
 _ZNK15QQuickContainer12contentWidthEv@Base 6.2.0
 _ZNK15QQuickContainer12currentIndexEv@Base 6.2.0
 _ZNK15QQuickContainer13contentHeightEv@Base 6.2.0
 _ZNK15QQuickContainer5countEv@Base 6.2.0
 _ZNK15QQuickContainer6itemAtEi@Base 6.2.0
 _ZNK15QQuickContainer9isContentEP10QQuickItem@Base 6.2.0
 _ZNK15QQuickPopupItem10metaObjectEv@Base 6.2.0
 _ZNK15QQuickPopupItem11defaultFontEv@Base 6.2.0
 _ZNK15QQuickPopupItem14accessibleRoleEv@Base 6.2.0
 _ZNK15QQuickScrollBar10isVerticalEv@Base 6.2.0
 _ZNK15QQuickScrollBar10metaObjectEv@Base 6.2.0
 _ZNK15QQuickScrollBar10visualSizeEv@Base 6.2.0
 _ZNK15QQuickScrollBar11minimumSizeEv@Base 6.2.0
 _ZNK15QQuickScrollBar11orientationEv@Base 6.2.0
 _ZNK15QQuickScrollBar12isHorizontalEv@Base 6.2.0
 _ZNK15QQuickScrollBar13isInteractiveEv@Base 6.2.0
 _ZNK15QQuickScrollBar14accessibleRoleEv@Base 6.2.0
 _ZNK15QQuickScrollBar14visualPositionEv@Base 6.2.0
 _ZNK15QQuickScrollBar4sizeEv@Base 6.2.0
 _ZNK15QQuickScrollBar6policyEv@Base 6.2.0
 _ZNK15QQuickScrollBar8isActiveEv@Base 6.2.0
 _ZNK15QQuickScrollBar8positionEv@Base 6.2.0
 _ZNK15QQuickScrollBar8snapModeEv@Base 6.2.0
 _ZNK15QQuickScrollBar8stepSizeEv@Base 6.2.0
 _ZNK15QQuickScrollBar9isPressedEv@Base 6.2.0
 _ZNK15QQuickSplitView10isResizingEv@Base 6.2.0
 _ZNK15QQuickSplitView10metaObjectEv@Base 6.2.0
 _ZNK15QQuickSplitView11orientationEv@Base 6.2.0
 _ZNK15QQuickSplitView14accessibleRoleEv@Base 6.2.0
 _ZNK15QQuickSplitView9isContentEP10QQuickItem@Base 6.2.0
 _ZNK15QQuickStackView10metaObjectEv@Base 6.2.0
 _ZNK15QQuickStackView11currentItemEv@Base 6.2.0
 _ZNK15QQuickStackView11initialItemEv@Base 6.2.0
 _ZNK15QQuickStackView11replaceExitEv@Base 6.2.0
 _ZNK15QQuickStackView12replaceEnterEv@Base 6.2.0
 _ZNK15QQuickStackView14accessibleRoleEv@Base 6.2.0
 _ZNK15QQuickStackView5depthEv@Base 6.2.0
 _ZNK15QQuickStackView6isBusyEv@Base 6.2.0
 _ZNK15QQuickStackView7isEmptyEv@Base 6.2.0
 _ZNK15QQuickStackView7popExitEv@Base 6.2.0
 _ZNK15QQuickStackView8popEnterEv@Base 6.2.0
 _ZNK15QQuickStackView8pushExitEv@Base 6.2.0
 _ZNK15QQuickStackView9pushEnterEv@Base 6.2.0
 _ZNK15QQuickSwipeView10isVerticalEv@Base 6.2.0
 _ZNK15QQuickSwipeView10metaObjectEv@Base 6.2.0
 _ZNK15QQuickSwipeView11orientationEv@Base 6.2.0
 _ZNK15QQuickSwipeView12isHorizontalEv@Base 6.2.0
 _ZNK15QQuickSwipeView13isInteractiveEv@Base 6.2.0
 _ZNK15QQuickSwipeView14accessibleRoleEv@Base 6.2.0
 _ZNK15QQuickTabButton10metaObjectEv@Base 6.2.0
 _ZNK15QQuickTabButton11defaultFontEv@Base 6.2.0
 _ZNK15QQuickTabButton14accessibleRoleEv@Base 6.2.0
 _ZNK15QQuickTextField10backgroundEv@Base 6.2.0
 _ZNK15QQuickTextField10metaObjectEv@Base 6.2.0
 _ZNK15QQuickTextField10rightInsetEv@Base 6.2.0
 _ZNK15QQuickTextField11bottomInsetEv@Base 6.2.0
 _ZNK15QQuickTextField11focusReasonEv@Base 6.2.0
 _ZNK15QQuickTextField14isHoverEnabledEv@Base 6.2.0
 _ZNK15QQuickTextField15placeholderTextEv@Base 6.2.0
 _ZNK15QQuickTextField20placeholderTextColorEv@Base 6.2.0
 _ZNK15QQuickTextField23implicitBackgroundWidthEv@Base 6.2.0
 _ZNK15QQuickTextField24implicitBackgroundHeightEv@Base 6.2.0
 _ZNK15QQuickTextField4fontEv@Base 6.2.0
 _ZNK15QQuickTextField8topInsetEv@Base 6.2.0
 _ZNK15QQuickTextField9isHoveredEv@Base 6.2.0
 _ZNK15QQuickTextField9leftInsetEv@Base 6.2.0
 _ZNK16QQuickScrollView10metaObjectEv@Base 6.2.0
 _ZNK16QQuickScrollView14accessibleRoleEv@Base 6.2.0
 _ZNK16QQuickToolButton10metaObjectEv@Base 6.2.0
 _ZNK16QQuickToolButton11defaultFontEv@Base 6.2.0
 _ZNK17QQuickActionGroup10metaObjectEv@Base 6.2.0
 _ZNK17QQuickActionGroup11isExclusiveEv@Base 6.2.0
 _ZNK17QQuickActionGroup13checkedActionEv@Base 6.2.0
 _ZNK17QQuickActionGroup9isEnabledEv@Base 6.2.0
 _ZNK17QQuickButtonGroup10checkStateEv@Base 6.2.0
 _ZNK17QQuickButtonGroup10metaObjectEv@Base 6.2.0
 _ZNK17QQuickButtonGroup11isExclusiveEv@Base 6.2.0
 _ZNK17QQuickButtonGroup13checkedButtonEv@Base 6.2.0
 _ZNK17QQuickContentItem10metaObjectEv@Base 6.2.0
 _ZNK17QQuickDelayButton10metaObjectEv@Base 6.2.0
 _ZNK17QQuickDelayButton10transitionEv@Base 6.2.0
 _ZNK17QQuickDelayButton11defaultFontEv@Base 6.2.0
 _ZNK17QQuickDelayButton5delayEv@Base 6.2.0
 _ZNK17QQuickDelayButton8progressEv@Base 6.2.0
 _ZNK17QQuickMenuBarItem10metaObjectEv@Base 6.2.0
 _ZNK17QQuickMenuBarItem11defaultFontEv@Base 6.2.0
 _ZNK17QQuickMenuBarItem13isHighlightedEv@Base 6.2.0
 _ZNK17QQuickMenuBarItem14accessibleRoleEv@Base 6.2.0
 _ZNK17QQuickMenuBarItem4menuEv@Base 6.2.0
 _ZNK17QQuickMenuBarItem7menuBarEv@Base 6.2.0
 _ZNK17QQuickMenuPrivate10blockInputEP10QQuickItemRK7QPointF@Base 6.2.0
 _ZNK17QQuickMenuPrivate14currentSubMenuEv@Base 6.2.0
 _ZNK17QQuickMenuPrivate14defaultPaletteEv@Base 6.2.0
 _ZNK17QQuickMenuPrivate20firstEnabledMenuItemEv@Base 6.2.0
 _ZNK17QQuickMenuPrivate6itemAtEi@Base 6.2.0
 _ZNK17QQuickPanePrivate15getContentWidthEv@Base 6.2.0
 _ZNK17QQuickPanePrivate16getContentHeightEv@Base 6.2.0
 _ZNK17QQuickPanePrivate17contentChildItemsEv@Base 6.2.0
 _ZNK17QQuickProgressBar10metaObjectEv@Base 6.2.0
 _ZNK17QQuickProgressBar14accessibleRoleEv@Base 6.2.0
 _ZNK17QQuickProgressBar14visualPositionEv@Base 6.2.0
 _ZNK17QQuickProgressBar15isIndeterminateEv@Base 6.2.0
 _ZNK17QQuickProgressBar2toEv@Base 6.2.0
 _ZNK17QQuickProgressBar4fromEv@Base 6.2.0
 _ZNK17QQuickProgressBar5valueEv@Base 6.2.0
 _ZNK17QQuickProgressBar8positionEv@Base 6.2.0
 _ZNK17QQuickRadioButton10metaObjectEv@Base 6.2.0
 _ZNK17QQuickRadioButton11defaultFontEv@Base 6.2.0
 _ZNK17QQuickRadioButton14accessibleRoleEv@Base 6.2.0
 _ZNK17QQuickRangeSlider10isVerticalEv@Base 6.2.0
 _ZNK17QQuickRangeSlider10metaObjectEv@Base 6.2.0
 _ZNK17QQuickRangeSlider11orientationEv@Base 6.2.0
 _ZNK17QQuickRangeSlider12isHorizontalEv@Base 6.2.0
 _ZNK17QQuickRangeSlider14accessibleRoleEv@Base 6.2.0
 _ZNK17QQuickRangeSlider18touchDragThresholdEv@Base 6.2.0
 _ZNK17QQuickRangeSlider2toEv@Base 6.2.0
 _ZNK17QQuickRangeSlider4fromEv@Base 6.2.0
 _ZNK17QQuickRangeSlider4liveEv@Base 6.2.0
 _ZNK17QQuickRangeSlider5firstEv@Base 6.2.0
 _ZNK17QQuickRangeSlider6secondEv@Base 6.2.0
 _ZNK17QQuickRangeSlider7valueAtEd@Base 6.2.0
 _ZNK17QQuickRangeSlider8snapModeEv@Base 6.2.0
 _ZNK17QQuickRangeSlider8stepSizeEv@Base 6.2.0
 _ZNK17QQuickRoundButton10metaObjectEv@Base 6.2.0
 _ZNK17QQuickRoundButton6radiusEv@Base 6.2.0
 _ZNK18QQuickItemDelegate10metaObjectEv@Base 6.2.0
 _ZNK18QQuickItemDelegate11defaultFontEv@Base 6.2.0
 _ZNK18QQuickItemDelegate13isHighlightedEv@Base 6.2.0
 _ZNK18QQuickItemDelegate14accessibleRoleEv@Base 6.2.0
 _ZNK18QQuickPopupAnchors10metaObjectEv@Base 6.2.0
 _ZNK18QQuickPopupAnchors8centerInEv@Base 6.2.0
 _ZNK18QQuickPopupPrivate10blockInputEP10QQuickItemRK7QPointF@Base 6.2.0
 _ZNK18QQuickPopupPrivate10getMarginsEv@Base 6.2.0
 _ZNK18QQuickPopupPrivate14defaultPaletteEv@Base 6.2.0
 _ZNK18QQuickPopupPrivate8containsERK7QPointF@Base 6.2.0
 _ZNK19QQuickBusyIndicator10metaObjectEv@Base 6.2.0
 _ZNK19QQuickBusyIndicator14accessibleRoleEv@Base 6.2.0
 _ZNK19QQuickBusyIndicator9isRunningEv@Base 6.2.0
 _ZNK19QQuickCheckDelegate10checkStateEv@Base 6.2.0
 _ZNK19QQuickCheckDelegate10isTristateEv@Base 6.2.0
 _ZNK19QQuickCheckDelegate10metaObjectEv@Base 6.2.0
 _ZNK19QQuickCheckDelegate11defaultFontEv@Base 6.2.0
 _ZNK19QQuickCheckDelegate14accessibleRoleEv@Base 6.2.0
 _ZNK19QQuickMenuSeparator10metaObjectEv@Base 6.2.0
 _ZNK19QQuickMenuSeparator11defaultFontEv@Base 6.2.0
 _ZNK19QQuickMenuSeparator14accessibleRoleEv@Base 6.2.0
 _ZNK19QQuickPageIndicator10metaObjectEv@Base 6.2.0
 _ZNK19QQuickPageIndicator12currentIndexEv@Base 6.2.0
 _ZNK19QQuickPageIndicator13isInteractiveEv@Base 6.2.0
 _ZNK19QQuickPageIndicator14accessibleRoleEv@Base 6.2.0
 _ZNK19QQuickPageIndicator5countEv@Base 6.2.0
 _ZNK19QQuickPageIndicator8delegateEv@Base 6.2.0
 _ZNK19QQuickRadioDelegate10metaObjectEv@Base 6.2.0
 _ZNK19QQuickRadioDelegate11defaultFontEv@Base 6.2.0
 _ZNK19QQuickRadioDelegate14accessibleRoleEv@Base 6.2.0
 _ZNK19QQuickSwipeDelegate10metaObjectEv@Base 6.2.0
 _ZNK19QQuickSwipeDelegate11defaultFontEv@Base 6.2.0
 _ZNK19QQuickSwipeDelegate14accessibleRoleEv@Base 6.2.0
 _ZNK19QQuickSwipeDelegate5swipeEv@Base 6.2.0
 _ZNK19QQuickToolSeparator10isVerticalEv@Base 6.2.0
 _ZNK19QQuickToolSeparator10metaObjectEv@Base 6.2.0
 _ZNK19QQuickToolSeparator11defaultFontEv@Base 6.2.0
 _ZNK19QQuickToolSeparator11orientationEv@Base 6.2.0
 _ZNK19QQuickToolSeparator12isHorizontalEv@Base 6.2.0
 _ZNK19QQuickToolSeparator14accessibleRoleEv@Base 6.2.0
 _ZNK20QQuickAbstractButton10autoRepeatEv@Base 6.2.0
 _ZNK20QQuickAbstractButton10metaObjectEv@Base 6.2.0
 _ZNK20QQuickAbstractButton11isCheckableEv@Base 6.2.0
 _ZNK20QQuickAbstractButton13autoExclusiveEv@Base 6.2.0
 _ZNK20QQuickAbstractButton14accessibleRoleEv@Base 6.2.0
 _ZNK20QQuickAbstractButton15autoRepeatDelayEv@Base 6.2.0
 _ZNK20QQuickAbstractButton18autoRepeatIntervalEv@Base 6.2.0
 _ZNK20QQuickAbstractButton22implicitIndicatorWidthEv@Base 6.2.0
 _ZNK20QQuickAbstractButton23implicitIndicatorHeightEv@Base 6.2.0
 _ZNK20QQuickAbstractButton4iconEv@Base 6.2.0
 _ZNK20QQuickAbstractButton4textEv@Base 6.2.0
 _ZNK20QQuickAbstractButton6actionEv@Base 6.2.0
 _ZNK20QQuickAbstractButton6isDownEv@Base 6.2.0
 _ZNK20QQuickAbstractButton6pressXEv@Base 6.2.0
 _ZNK20QQuickAbstractButton6pressYEv@Base 6.2.0
 _ZNK20QQuickAbstractButton7displayEv@Base 6.2.0
 _ZNK20QQuickAbstractButton8shortcutEv@Base 6.2.0
 _ZNK20QQuickAbstractButton9indicatorEv@Base 6.2.0
 _ZNK20QQuickAbstractButton9isCheckedEv@Base 6.2.0
 _ZNK20QQuickAbstractButton9isPressedEv@Base 6.2.0
 _ZNK20QQuickControlPrivate14accessibleRoleEv@Base 6.2.0
 _ZNK20QQuickControlPrivate14defaultPaletteEv@Base 6.2.0
 _ZNK20QQuickControlPrivate15getContentWidthEv@Base 6.2.0
 _ZNK20QQuickControlPrivate16getContentHeightEv@Base 6.2.0
 _ZNK20QQuickHeaderViewBase10metaObjectEv@Base 6.2.0
 _ZNK20QQuickHeaderViewBase8textRoleEv@Base 6.2.0
 _ZNK20QQuickMenuBarPrivate14defaultPaletteEv@Base 6.2.0
 _ZNK20QQuickMenuBarPrivate15getContentWidthEv@Base 6.2.0
 _ZNK20QQuickMenuBarPrivate16getContentHeightEv@Base 6.2.0
 _ZNK20QQuickSwitchDelegate10metaObjectEv@Base 6.2.0
 _ZNK20QQuickSwitchDelegate11defaultFontEv@Base 6.2.0
 _ZNK20QQuickSwitchDelegate14visualPositionEv@Base 6.2.0
 _ZNK20QQuickSwitchDelegate8positionEv@Base 6.2.0
 _ZNK20QQuickTabBarAttached10metaObjectEv@Base 6.2.0
 _ZNK20QQuickTabBarAttached5indexEv@Base 6.2.0
 _ZNK20QQuickTabBarAttached6tabBarEv@Base 6.2.0
 _ZNK20QQuickTabBarAttached8positionEv@Base 6.2.0
 _ZNK20QQuickTumblerPrivate14defaultPaletteEv@Base 6.2.0
 _ZNK20QQuickTumblerPrivate25viewContentItemChildItemsEv@Base 6.2.0
 _ZNK21QHeaderDataProxyModel10metaObjectEv@Base 6.2.0
 _ZNK21QHeaderDataProxyModel11columnCountERK11QModelIndex@Base 6.2.0
 _ZNK21QHeaderDataProxyModel11hasChildrenERK11QModelIndex@Base 6.2.0
 _ZNK21QHeaderDataProxyModel11sourceModelEv@Base 6.2.0
 _ZNK21QHeaderDataProxyModel4dataERK11QModelIndexi@Base 6.2.0
 _ZNK21QHeaderDataProxyModel5indexEiiRK11QModelIndex@Base 6.2.0
 _ZNK21QHeaderDataProxyModel6parentERK11QModelIndex@Base 6.2.0
 _ZNK21QHeaderDataProxyModel7siblingEiiRK11QModelIndex@Base 6.2.0
 _ZNK21QHeaderDataProxyModel8rowCountERK11QModelIndex@Base 6.2.0
 _ZNK21QQuickDialogButtonBox10metaObjectEv@Base 6.2.0
 _ZNK21QQuickDialogButtonBox12buttonLayoutEv@Base 6.2.0
 _ZNK21QQuickDialogButtonBox14accessibleRoleEv@Base 6.2.0
 _ZNK21QQuickDialogButtonBox14standardButtonEN21QPlatformDialogHelper14StandardButtonE@Base 6.2.0
 _ZNK21QQuickDialogButtonBox15standardButtonsEv@Base 6.2.0
 _ZNK21QQuickDialogButtonBox8delegateEv@Base 6.2.0
 _ZNK21QQuickDialogButtonBox8positionEv@Base 6.2.0
 _ZNK21QQuickDialogButtonBox9alignmentEv@Base 6.2.0
 _ZNK21QQuickDialogButtonBox9isContentEP10QQuickItem@Base 6.2.0
 _ZNK21QQuickIndicatorButton10metaObjectEv@Base 6.2.0
 _ZNK21QQuickIndicatorButton22implicitIndicatorWidthEv@Base 6.2.0
 _ZNK21QQuickIndicatorButton23implicitIndicatorHeightEv@Base 6.2.0
 _ZNK21QQuickIndicatorButton9indicatorEv@Base 6.2.0
 _ZNK21QQuickIndicatorButton9isHoveredEv@Base 6.2.0
 _ZNK21QQuickIndicatorButton9isPressedEv@Base 6.2.0
 _ZNK21QQuickOverlayAttached10metaObjectEv@Base 6.2.0
 _ZNK21QQuickOverlayAttached5modalEv@Base 6.2.0
 _ZNK21QQuickOverlayAttached7overlayEv@Base 6.2.0
 _ZNK21QQuickOverlayAttached8modelessEv@Base 6.2.0
 _ZNK21QQuickRangeSliderNode10metaObjectEv@Base 6.2.0
 _ZNK21QQuickRangeSliderNode14visualPositionEv@Base 6.2.0
 _ZNK21QQuickRangeSliderNode19implicitHandleWidthEv@Base 6.2.0
 _ZNK21QQuickRangeSliderNode20implicitHandleHeightEv@Base 6.2.0
 _ZNK21QQuickRangeSliderNode5valueEv@Base 6.2.0
 _ZNK21QQuickRangeSliderNode6handleEv@Base 6.2.0
 _ZNK21QQuickRangeSliderNode8positionEv@Base 6.2.0
 _ZNK21QQuickRangeSliderNode9isHoveredEv@Base 6.2.0
 _ZNK21QQuickRangeSliderNode9isPressedEv@Base 6.2.0
 _ZNK21QQuickScrollIndicator10isVerticalEv@Base 6.2.0
 _ZNK21QQuickScrollIndicator10metaObjectEv@Base 6.2.0
 _ZNK21QQuickScrollIndicator10visualSizeEv@Base 6.2.0
 _ZNK21QQuickScrollIndicator11minimumSizeEv@Base 6.2.0
 _ZNK21QQuickScrollIndicator11orientationEv@Base 6.2.0
 _ZNK21QQuickScrollIndicator12isHorizontalEv@Base 6.2.0
 _ZNK21QQuickScrollIndicator14accessibleRoleEv@Base 6.2.0
 _ZNK21QQuickScrollIndicator14visualPositionEv@Base 6.2.0
 _ZNK21QQuickScrollIndicator4sizeEv@Base 6.2.0
 _ZNK21QQuickScrollIndicator8isActiveEv@Base 6.2.0
 _ZNK21QQuickScrollIndicator8positionEv@Base 6.2.0
 _ZNK21QQuickToolTipAttached10metaObjectEv@Base 6.2.0
 _ZNK21QQuickToolTipAttached4textEv@Base 6.2.0
 _ZNK21QQuickToolTipAttached5delayEv@Base 6.2.0
 _ZNK21QQuickToolTipAttached7timeoutEv@Base 6.2.0
 _ZNK21QQuickToolTipAttached7toolTipEv@Base 6.2.0
 _ZNK21QQuickToolTipAttached9isVisibleEv@Base 6.2.0
 _ZNK21QQuickTumblerAttached10metaObjectEv@Base 6.2.0
 _ZNK21QQuickTumblerAttached12displacementEv@Base 6.2.0
 _ZNK21QQuickTumblerAttached7tumblerEv@Base 6.2.0
 _ZNK22QQuickContainerPrivate6itemAtEi@Base 6.2.0
 _ZNK22QQuickPopupItemPrivate13parentPaletteEv@Base 6.2.0
 _ZNK22QQuickPopupItemPrivate14defaultPaletteEv@Base 6.2.0
 _ZNK22QQuickPopupItemPrivate15providesPaletteEv@Base 6.2.0
 _ZNK22QQuickPopupItemPrivate7paletteEv@Base 6.2.0
 _ZNK22QQuickSplitViewPrivate12isHorizontalEv@Base 6.2.0
 _ZNK22QQuickSplitViewPrivate15accumulatedSizeEii@Base 6.2.0
 _ZNK22QQuickSplitViewPrivate17effectiveSizeDataEPK17QQuickItemPrivatePK23QQuickSplitViewAttached@Base 6.2.0
 _ZNK22QQuickSplitViewPrivate24handleIndexForSplitIndexEi@Base 6.2.0
 _ZNK22QQuickTextAreaAttached10metaObjectEv@Base 6.2.0
 _ZNK22QQuickTextAreaAttached9flickableEv@Base 6.2.0
 _ZNK23QQuickApplicationWindow10backgroundEv@Base 6.2.0
 _ZNK23QQuickApplicationWindow10metaObjectEv@Base 6.2.0
 _ZNK23QQuickApplicationWindow11contentItemEv@Base 6.2.0
 _ZNK23QQuickApplicationWindow18activeFocusControlEv@Base 6.2.0
 _ZNK23QQuickApplicationWindow19isComponentCompleteEv@Base 6.2.0
 _ZNK23QQuickApplicationWindow4fontEv@Base 6.2.0
 _ZNK23QQuickApplicationWindow6footerEv@Base 6.2.0
 _ZNK23QQuickApplicationWindow6headerEv@Base 6.2.0
 _ZNK23QQuickApplicationWindow6localeEv@Base 6.2.0
 _ZNK23QQuickApplicationWindow7menuBarEv@Base 6.2.0
 _ZNK23QQuickScrollBarAttached10horizontalEv@Base 6.2.0
 _ZNK23QQuickScrollBarAttached10metaObjectEv@Base 6.2.0
 _ZNK23QQuickScrollBarAttached8verticalEv@Base 6.2.0
 _ZNK23QQuickSplitViewAttached10fillHeightEv@Base 6.2.0
 _ZNK23QQuickSplitViewAttached10metaObjectEv@Base 6.2.0
 _ZNK23QQuickSplitViewAttached12maximumWidthEv@Base 6.2.0
 _ZNK23QQuickSplitViewAttached12minimumWidthEv@Base 6.2.0
 _ZNK23QQuickSplitViewAttached13maximumHeightEv@Base 6.2.0
 _ZNK23QQuickSplitViewAttached13minimumHeightEv@Base 6.2.0
 _ZNK23QQuickSplitViewAttached14preferredWidthEv@Base 6.2.0
 _ZNK23QQuickSplitViewAttached15preferredHeightEv@Base 6.2.0
 _ZNK23QQuickSplitViewAttached4viewEv@Base 6.2.0
 _ZNK23QQuickSplitViewAttached9fillWidthEv@Base 6.2.0
 _ZNK23QQuickStackViewAttached10metaObjectEv@Base 6.2.0
 _ZNK23QQuickStackViewAttached4viewEv@Base 6.2.0
 _ZNK23QQuickStackViewAttached5indexEv@Base 6.2.0
 _ZNK23QQuickStackViewAttached6statusEv@Base 6.2.0
 _ZNK23QQuickStackViewAttached9isVisibleEv@Base 6.2.0
 _ZNK23QQuickSwipeViewAttached10isNextItemEv@Base 6.2.0
 _ZNK23QQuickSwipeViewAttached10metaObjectEv@Base 6.2.0
 _ZNK23QQuickSwipeViewAttached13isCurrentItemEv@Base 6.2.0
 _ZNK23QQuickSwipeViewAttached14isPreviousItemEv@Base 6.2.0
 _ZNK23QQuickSwipeViewAttached4viewEv@Base 6.2.0
 _ZNK23QQuickSwipeViewAttached5indexEv@Base 6.2.0
 _ZNK24QQuickSelectionRectangle10metaObjectEv@Base 6.2.0
 _ZNK24QQuickSelectionRectangle13selectionModeEv@Base 6.2.0
 _ZNK24QQuickSelectionRectangle13topLeftHandleEv@Base 6.2.0
 _ZNK24QQuickSelectionRectangle17bottomRightHandleEv@Base 6.2.0
 _ZNK24QQuickSelectionRectangle6targetEv@Base 6.2.0
 _ZNK24QQuickVerticalHeaderView10metaObjectEv@Base 6.2.0
 _ZNK25QQuickActionGroupAttached10metaObjectEv@Base 6.2.0
 _ZNK25QQuickActionGroupAttached5groupEv@Base 6.2.0
 _ZNK25QQuickButtonGroupAttached10metaObjectEv@Base 6.2.0
 _ZNK25QQuickButtonGroupAttached5groupEv@Base 6.2.0
 _ZNK25QQuickItemDelegatePrivate14defaultPaletteEv@Base 6.2.0
 _ZNK25QQuickSplitHandleAttached10metaObjectEv@Base 6.2.0
 _ZNK25QQuickSplitHandleAttached9isHoveredEv@Base 6.2.0
 _ZNK25QQuickSplitHandleAttached9isPressedEv@Base 6.2.0
 _ZNK26QQuickHorizontalHeaderView10metaObjectEv@Base 6.2.0
 _ZNK27QQuickAbstractButtonPrivate14acceptKeyClickEN2Qt3KeyE@Base 6.2.0
 _ZNK27QQuickAbstractButtonPrivate17findCheckedButtonEv@Base 6.2.0
 _ZNK27QQuickAbstractButtonPrivate20findExclusiveButtonsEv@Base 6.2.0
 _ZNK27QQuickSwipeDelegateAttached10metaObjectEv@Base 6.2.0
 _ZNK27QQuickSwipeDelegateAttached9isPressedEv@Base 6.2.0
 _ZNK28QQuickDialogButtonBoxPrivate15getContentWidthEv@Base 6.2.0
 _ZNK28QQuickDialogButtonBoxPrivate16getContentHeightEv@Base 6.2.0
 _ZNK29QQuickDialogButtonBoxAttached10buttonRoleEv@Base 6.2.0
 _ZNK29QQuickDialogButtonBoxAttached10metaObjectEv@Base 6.2.0
 _ZNK29QQuickDialogButtonBoxAttached9buttonBoxEv@Base 6.2.0
 _ZNK29QQuickScrollIndicatorAttached10horizontalEv@Base 6.2.0
 _ZNK29QQuickScrollIndicatorAttached10metaObjectEv@Base 6.2.0
 _ZNK29QQuickScrollIndicatorAttached8verticalEv@Base 6.2.0
 _ZNK31QQuickApplicationWindowAttached10metaObjectEv@Base 6.2.0
 _ZNK31QQuickApplicationWindowAttached11contentItemEv@Base 6.2.0
 _ZNK31QQuickApplicationWindowAttached18activeFocusControlEv@Base 6.2.0
 _ZNK31QQuickApplicationWindowAttached6footerEv@Base 6.2.0
 _ZNK31QQuickApplicationWindowAttached6headerEv@Base 6.2.0
 _ZNK31QQuickApplicationWindowAttached6windowEv@Base 6.2.0
 _ZNK31QQuickApplicationWindowAttached7menuBarEv@Base 6.2.0
 _ZNK32QQuickSelectionRectangleAttached10metaObjectEv@Base 6.2.0
 _ZNK32QQuickSelectionRectangleAttached7controlEv@Base 6.2.0
 _ZNK32QQuickSelectionRectangleAttached8draggingEv@Base 6.2.0
 _ZTI10QQuickDial@Base 6.2.0
 _ZTI10QQuickMenu@Base 6.2.0
 _ZTI10QQuickPage@Base 6.2.0
 _ZTI10QQuickPane@Base 6.2.0
 _ZTI11QQuickFrame@Base 6.2.0
 _ZTI11QQuickLabel@Base 6.2.0
 _ZTI11QQuickPopup@Base 6.2.0
 _ZTI11QQuickSwipe@Base 6.2.0
 _ZTI12QQuickAction@Base 6.2.0
 _ZTI12QQuickButton@Base 6.2.0
 _ZTI12QQuickDialog@Base 6.2.0
 _ZTI12QQuickDrawer@Base 6.2.0
 _ZTI12QQuickSlider@Base 6.2.0
 _ZTI12QQuickSwitch@Base 6.2.0
 _ZTI12QQuickTabBar@Base 6.2.0
 _ZTI13QQuickControl@Base 6.2.0
 _ZTI13QQuickMenuBar@Base 6.2.0
 _ZTI13QQuickOverlay@Base 6.2.0
 _ZTI13QQuickSpinBox@Base 6.2.0
 _ZTI13QQuickToolBar@Base 6.2.0
 _ZTI13QQuickToolTip@Base 6.2.0
 _ZTI13QQuickTumbler@Base 6.2.0
 _ZTI14QQuickCheckBox@Base 6.2.0
 _ZTI14QQuickComboBox@Base 6.2.0
 _ZTI14QQuickGroupBox@Base 6.2.0
 _ZTI14QQuickMenuItem@Base 6.2.0
 _ZTI14QQuickTextArea@Base 6.2.0
 _ZTI15QQuickContainer@Base 6.2.0
 _ZTI15QQuickPopupItem@Base 6.2.0
 _ZTI15QQuickScrollBar@Base 6.2.0
 _ZTI15QQuickSplitView@Base 6.2.0
 _ZTI15QQuickStackView@Base 6.2.0
 _ZTI15QQuickSwipeView@Base 6.2.0
 _ZTI15QQuickTabButton@Base 6.2.0
 _ZTI15QQuickTextField@Base 6.2.0
 _ZTI16QQuickScrollView@Base 6.2.0
 _ZTI16QQuickSelectable@Base 6.2.0
 _ZTI16QQuickToolButton@Base 6.2.0
 _ZTI17QQuickActionGroup@Base 6.2.0
 _ZTI17QQuickButtonGroup@Base 6.2.0
 _ZTI17QQuickContentItem@Base 6.2.0
 _ZTI17QQuickDelayButton@Base 6.2.0
 _ZTI17QQuickMenuBarItem@Base 6.2.0
 _ZTI17QQuickMenuPrivate@Base 6.2.0
 _ZTI17QQuickPanePrivate@Base 6.2.0
 _ZTI17QQuickProgressBar@Base 6.2.0
 _ZTI17QQuickRadioButton@Base 6.2.0
 _ZTI17QQuickRangeSlider@Base 6.2.0
 _ZTI17QQuickRoundButton@Base 6.2.0
 _ZTI17QQuickToolPrivate@Base 6.2.0
 _ZTI18QQuickFramePrivate@Base 6.2.0
 _ZTI18QQuickItemDelegate@Base 6.2.0
 _ZTI18QQuickPopupAnchors@Base 6.2.0
 _ZTI18QQuickPopupPrivate@Base 6.2.0
 _ZTI19QQuickBusyIndicator@Base 6.2.0
 _ZTI19QQuickCheckDelegate@Base 6.2.0
 _ZTI19QQuickDialogPrivate@Base 6.2.0
 _ZTI19QQuickMenuSeparator@Base 6.2.0
 _ZTI19QQuickPageIndicator@Base 6.2.0
 _ZTI19QQuickRadioDelegate@Base 6.2.0
 _ZTI19QQuickSwipeDelegate@Base 6.2.0
 _ZTI19QQuickToolSeparator@Base 6.2.0
 _ZTI20QQuickAbstractButton@Base 6.2.0
 _ZTI20QQuickControlPrivate@Base 6.2.0
 _ZTI20QQuickHeaderViewBase@Base 6.2.0
 _ZTI20QQuickMenuBarPrivate@Base 6.2.0
 _ZTI20QQuickSwitchDelegate@Base 6.2.0
 _ZTI20QQuickTabBarAttached@Base 6.2.0
 _ZTI20QQuickTumblerPrivate@Base 6.2.0
 _ZTI21QHeaderDataProxyModel@Base 6.2.0
 _ZTI21QQuickDialogButtonBox@Base 6.2.0
 _ZTI21QQuickIndicatorButton@Base 6.2.0
 _ZTI21QQuickOverlayAttached@Base 6.2.0
 _ZTI21QQuickRangeSliderNode@Base 6.2.0
 _ZTI21QQuickScrollIndicator@Base 6.2.0
 _ZTI21QQuickToolTipAttached@Base 6.2.0
 _ZTI21QQuickTumblerAttached@Base 6.2.0
 _ZTI22QQuickContainerPrivate@Base 6.2.0
 _ZTI22QQuickPopupItemPrivate@Base 6.2.0
 _ZTI22QQuickSplitViewPrivate@Base 6.2.0
 _ZTI22QQuickTabButtonPrivate@Base 6.2.0
 _ZTI22QQuickTextAreaAttached@Base 6.2.0
 _ZTI23QQuickApplicationWindow@Base 6.2.0
 _ZTI23QQuickScrollBarAttached@Base 6.2.0
 _ZTI23QQuickSplitViewAttached@Base 6.2.0
 _ZTI23QQuickStackViewAttached@Base 6.2.0
 _ZTI23QQuickSwipeViewAttached@Base 6.2.0
 _ZTI24QMutableSinglePointEvent@Base 6.2.0
 _ZTI24QQuickRadioButtonPrivate@Base 6.2.0
 _ZTI24QQuickSelectionRectangle@Base 6.2.0
 _ZTI24QQuickVerticalHeaderView@Base 6.2.0
 _ZTI25QQuickActionGroupAttached@Base 6.2.0
 _ZTI25QQuickButtonGroupAttached@Base 6.2.0
 _ZTI25QQuickItemDelegatePrivate@Base 6.2.0
 _ZTI25QQuickSplitHandleAttached@Base 6.2.0
 _ZTI26QQuickHorizontalHeaderView@Base 6.2.0
 _ZTI26QQuickMenuSeparatorPrivate@Base 6.2.0
 _ZTI26QQuickRadioDelegatePrivate@Base 6.2.0
 _ZTI26QQuickWindowQmlImplPrivate@Base 6.2.0
 _ZTI27QQuickAbstractButtonPrivate@Base 6.2.0
 _ZTI27QQuickSwipeDelegateAttached@Base 6.2.0
 _ZTI28QQuickDialogButtonBoxPrivate@Base 6.2.0
 _ZTI28QQuickPopupTransitionManager@Base 6.2.0
 _ZTI29QQuickDialogButtonBoxAttached@Base 6.2.0
 _ZTI29QQuickImplicitSizeItemPrivate@Base 6.2.0
 _ZTI29QQuickScrollIndicatorAttached@Base 6.2.0
 _ZTI30QQuickApplicationWindowPrivate@Base 6.2.0
 _ZTI31QQuickApplicationWindowAttached@Base 6.2.0
 _ZTI32QQuickSelectionRectangleAttached@Base 6.2.0
 _ZTI38QQuickItemViewTransitionChangeListener@Base 6.2.0
 _ZTS10QQuickDial@Base 6.2.0
 _ZTS10QQuickMenu@Base 6.2.0
 _ZTS10QQuickPage@Base 6.2.0
 _ZTS10QQuickPane@Base 6.2.0
 _ZTS11QQuickFrame@Base 6.2.0
 _ZTS11QQuickLabel@Base 6.2.0
 _ZTS11QQuickPopup@Base 6.2.0
 _ZTS11QQuickSwipe@Base 6.2.0
 _ZTS12QQuickAction@Base 6.2.0
 _ZTS12QQuickButton@Base 6.2.0
 _ZTS12QQuickDialog@Base 6.2.0
 _ZTS12QQuickDrawer@Base 6.2.0
 _ZTS12QQuickSlider@Base 6.2.0
 _ZTS12QQuickSwitch@Base 6.2.0
 _ZTS12QQuickTabBar@Base 6.2.0
 _ZTS13QQuickControl@Base 6.2.0
 _ZTS13QQuickMenuBar@Base 6.2.0
 _ZTS13QQuickOverlay@Base 6.2.0
 _ZTS13QQuickSpinBox@Base 6.2.0
 _ZTS13QQuickToolBar@Base 6.2.0
 _ZTS13QQuickToolTip@Base 6.2.0
 _ZTS13QQuickTumbler@Base 6.2.0
 _ZTS14QQuickCheckBox@Base 6.2.0
 _ZTS14QQuickComboBox@Base 6.2.0
 _ZTS14QQuickGroupBox@Base 6.2.0
 _ZTS14QQuickMenuItem@Base 6.2.0
 _ZTS14QQuickTextArea@Base 6.2.0
 _ZTS15QQuickContainer@Base 6.2.0
 _ZTS15QQuickPopupItem@Base 6.2.0
 _ZTS15QQuickScrollBar@Base 6.2.0
 _ZTS15QQuickSplitView@Base 6.2.0
 _ZTS15QQuickStackView@Base 6.2.0
 _ZTS15QQuickSwipeView@Base 6.2.0
 _ZTS15QQuickTabButton@Base 6.2.0
 _ZTS15QQuickTextField@Base 6.2.0
 _ZTS16QQuickScrollView@Base 6.2.0
 _ZTS16QQuickSelectable@Base 6.2.0
 _ZTS16QQuickToolButton@Base 6.2.0
 _ZTS17QQuickActionGroup@Base 6.2.0
 _ZTS17QQuickButtonGroup@Base 6.2.0
 _ZTS17QQuickContentItem@Base 6.2.0
 _ZTS17QQuickDelayButton@Base 6.2.0
 _ZTS17QQuickMenuBarItem@Base 6.2.0
 _ZTS17QQuickMenuPrivate@Base 6.2.0
 _ZTS17QQuickPanePrivate@Base 6.2.0
 _ZTS17QQuickProgressBar@Base 6.2.0
 _ZTS17QQuickRadioButton@Base 6.2.0
 _ZTS17QQuickRangeSlider@Base 6.2.0
 _ZTS17QQuickRoundButton@Base 6.2.0
 _ZTS17QQuickToolPrivate@Base 6.2.0
 _ZTS18QQuickFramePrivate@Base 6.2.0
 _ZTS18QQuickItemDelegate@Base 6.2.0
 _ZTS18QQuickPopupAnchors@Base 6.2.0
 _ZTS18QQuickPopupPrivate@Base 6.2.0
 _ZTS19QQuickBusyIndicator@Base 6.2.0
 _ZTS19QQuickCheckDelegate@Base 6.2.0
 _ZTS19QQuickDialogPrivate@Base 6.2.0
 _ZTS19QQuickMenuSeparator@Base 6.2.0
 _ZTS19QQuickPageIndicator@Base 6.2.0
 _ZTS19QQuickRadioDelegate@Base 6.2.0
 _ZTS19QQuickSwipeDelegate@Base 6.2.0
 _ZTS19QQuickToolSeparator@Base 6.2.0
 _ZTS20QQuickAbstractButton@Base 6.2.0
 _ZTS20QQuickControlPrivate@Base 6.2.0
 _ZTS20QQuickHeaderViewBase@Base 6.2.0
 _ZTS20QQuickMenuBarPrivate@Base 6.2.0
 _ZTS20QQuickSwitchDelegate@Base 6.2.0
 _ZTS20QQuickTabBarAttached@Base 6.2.0
 _ZTS20QQuickTumblerPrivate@Base 6.2.0
 _ZTS21QHeaderDataProxyModel@Base 6.2.0
 _ZTS21QQuickDialogButtonBox@Base 6.2.0
 _ZTS21QQuickIndicatorButton@Base 6.2.0
 _ZTS21QQuickOverlayAttached@Base 6.2.0
 _ZTS21QQuickRangeSliderNode@Base 6.2.0
 _ZTS21QQuickScrollIndicator@Base 6.2.0
 _ZTS21QQuickToolTipAttached@Base 6.2.0
 _ZTS21QQuickTumblerAttached@Base 6.2.0
 _ZTS22QQuickContainerPrivate@Base 6.2.0
 _ZTS22QQuickPopupItemPrivate@Base 6.2.0
 _ZTS22QQuickSplitViewPrivate@Base 6.2.0
 _ZTS22QQuickTabButtonPrivate@Base 6.2.0
 _ZTS22QQuickTextAreaAttached@Base 6.2.0
 _ZTS23QQuickApplicationWindow@Base 6.2.0
 _ZTS23QQuickScrollBarAttached@Base 6.2.0
 _ZTS23QQuickSplitViewAttached@Base 6.2.0
 _ZTS23QQuickStackViewAttached@Base 6.2.0
 _ZTS23QQuickSwipeViewAttached@Base 6.2.0
 _ZTS24QMutableSinglePointEvent@Base 6.2.0
 _ZTS24QQuickRadioButtonPrivate@Base 6.2.0
 _ZTS24QQuickSelectionRectangle@Base 6.2.0
 _ZTS24QQuickVerticalHeaderView@Base 6.2.0
 _ZTS25QQuickActionGroupAttached@Base 6.2.0
 _ZTS25QQuickButtonGroupAttached@Base 6.2.0
 _ZTS25QQuickItemDelegatePrivate@Base 6.2.0
 _ZTS25QQuickSplitHandleAttached@Base 6.2.0
 _ZTS26QQuickHorizontalHeaderView@Base 6.2.0
 _ZTS26QQuickMenuSeparatorPrivate@Base 6.2.0
 _ZTS26QQuickRadioDelegatePrivate@Base 6.2.0
 _ZTS26QQuickWindowQmlImplPrivate@Base 6.2.0
 _ZTS27QQuickAbstractButtonPrivate@Base 6.2.0
 _ZTS27QQuickSwipeDelegateAttached@Base 6.2.0
 _ZTS28QQuickDialogButtonBoxPrivate@Base 6.2.0
 _ZTS28QQuickPopupTransitionManager@Base 6.2.0
 _ZTS29QQuickDialogButtonBoxAttached@Base 6.2.0
 _ZTS29QQuickImplicitSizeItemPrivate@Base 6.2.0
 _ZTS29QQuickScrollIndicatorAttached@Base 6.2.0
 _ZTS30QQuickApplicationWindowPrivate@Base 6.2.0
 _ZTS31QQuickApplicationWindowAttached@Base 6.2.0
 _ZTS32QQuickSelectionRectangleAttached@Base 6.2.0
 _ZTS38QQuickItemViewTransitionChangeListener@Base 6.2.0
 _ZTV10QQuickDial@Base 6.2.0
 _ZTV10QQuickMenu@Base 6.2.0
 _ZTV10QQuickPage@Base 6.2.0
 _ZTV10QQuickPane@Base 6.2.0
 _ZTV11QQuickFrame@Base 6.2.0
 _ZTV11QQuickLabel@Base 6.2.0
 _ZTV11QQuickPopup@Base 6.2.0
 _ZTV11QQuickSwipe@Base 6.2.0
 _ZTV12QQuickAction@Base 6.2.0
 _ZTV12QQuickButton@Base 6.2.0
 _ZTV12QQuickDialog@Base 6.2.0
 _ZTV12QQuickDrawer@Base 6.2.0
 _ZTV12QQuickSlider@Base 6.2.0
 _ZTV12QQuickSwitch@Base 6.2.0
 _ZTV12QQuickTabBar@Base 6.2.0
 _ZTV13QQuickControl@Base 6.2.0
 _ZTV13QQuickMenuBar@Base 6.2.0
 _ZTV13QQuickOverlay@Base 6.2.0
 _ZTV13QQuickSpinBox@Base 6.2.0
 _ZTV13QQuickToolBar@Base 6.2.0
 _ZTV13QQuickToolTip@Base 6.2.0
 _ZTV13QQuickTumbler@Base 6.2.0
 _ZTV14QQuickCheckBox@Base 6.2.0
 _ZTV14QQuickComboBox@Base 6.2.0
 _ZTV14QQuickGroupBox@Base 6.2.0
 _ZTV14QQuickMenuItem@Base 6.2.0
 _ZTV14QQuickTextArea@Base 6.2.0
 _ZTV15QQuickContainer@Base 6.2.0
 _ZTV15QQuickPopupItem@Base 6.2.0
 _ZTV15QQuickScrollBar@Base 6.2.0
 _ZTV15QQuickSplitView@Base 6.2.0
 _ZTV15QQuickStackView@Base 6.2.0
 _ZTV15QQuickSwipeView@Base 6.2.0
 _ZTV15QQuickTabButton@Base 6.2.0
 _ZTV15QQuickTextField@Base 6.2.0
 _ZTV16QQuickScrollView@Base 6.2.0
 _ZTV16QQuickToolButton@Base 6.2.0
 _ZTV17QQuickActionGroup@Base 6.2.0
 _ZTV17QQuickButtonGroup@Base 6.2.0
 _ZTV17QQuickContentItem@Base 6.2.0
 _ZTV17QQuickDelayButton@Base 6.2.0
 _ZTV17QQuickMenuBarItem@Base 6.2.0
 _ZTV17QQuickMenuPrivate@Base 6.2.0
 _ZTV17QQuickPanePrivate@Base 6.2.0
 _ZTV17QQuickProgressBar@Base 6.2.0
 _ZTV17QQuickRadioButton@Base 6.2.0
 _ZTV17QQuickRangeSlider@Base 6.2.0
 _ZTV17QQuickRoundButton@Base 6.2.0
 _ZTV17QQuickToolPrivate@Base 6.2.0
 _ZTV18QQuickFramePrivate@Base 6.2.0
 _ZTV18QQuickItemDelegate@Base 6.2.0
 _ZTV18QQuickPopupAnchors@Base 6.2.0
 _ZTV18QQuickPopupPrivate@Base 6.2.0
 _ZTV19QQuickBusyIndicator@Base 6.2.0
 _ZTV19QQuickCheckDelegate@Base 6.2.0
 _ZTV19QQuickDialogPrivate@Base 6.2.0
 _ZTV19QQuickMenuSeparator@Base 6.2.0
 _ZTV19QQuickPageIndicator@Base 6.2.0
 _ZTV19QQuickRadioDelegate@Base 6.2.0
 _ZTV19QQuickSwipeDelegate@Base 6.2.0
 _ZTV19QQuickToolSeparator@Base 6.2.0
 _ZTV20QQuickAbstractButton@Base 6.2.0
 _ZTV20QQuickControlPrivate@Base 6.2.0
 _ZTV20QQuickHeaderViewBase@Base 6.2.0
 _ZTV20QQuickMenuBarPrivate@Base 6.2.0
 _ZTV20QQuickSwitchDelegate@Base 6.2.0
 _ZTV20QQuickTabBarAttached@Base 6.2.0
 _ZTV20QQuickTumblerPrivate@Base 6.2.0
 _ZTV21QHeaderDataProxyModel@Base 6.2.0
 _ZTV21QQuickDialogButtonBox@Base 6.2.0
 _ZTV21QQuickIndicatorButton@Base 6.2.0
 _ZTV21QQuickOverlayAttached@Base 6.2.0
 _ZTV21QQuickRangeSliderNode@Base 6.2.0
 _ZTV21QQuickScrollIndicator@Base 6.2.0
 _ZTV21QQuickToolTipAttached@Base 6.2.0
 _ZTV21QQuickTumblerAttached@Base 6.2.0
 _ZTV22QQuickContainerPrivate@Base 6.2.0
 _ZTV22QQuickPopupItemPrivate@Base 6.2.0
 _ZTV22QQuickSplitViewPrivate@Base 6.2.0
 _ZTV22QQuickTabButtonPrivate@Base 6.2.0
 _ZTV22QQuickTextAreaAttached@Base 6.2.0
 _ZTV23QQuickApplicationWindow@Base 6.2.0
 _ZTV23QQuickScrollBarAttached@Base 6.2.0
 _ZTV23QQuickSplitViewAttached@Base 6.2.0
 _ZTV23QQuickStackViewAttached@Base 6.2.0
 _ZTV23QQuickSwipeViewAttached@Base 6.2.0
 _ZTV24QMutableSinglePointEvent@Base 6.2.0
 _ZTV24QQuickRadioButtonPrivate@Base 6.2.0
 _ZTV24QQuickSelectionRectangle@Base 6.2.0
 _ZTV24QQuickVerticalHeaderView@Base 6.2.0
 _ZTV25QQuickActionGroupAttached@Base 6.2.0
 _ZTV25QQuickButtonGroupAttached@Base 6.2.0
 _ZTV25QQuickItemDelegatePrivate@Base 6.2.0
 _ZTV25QQuickSplitHandleAttached@Base 6.2.0
 _ZTV26QQuickHorizontalHeaderView@Base 6.2.0
 _ZTV26QQuickMenuSeparatorPrivate@Base 6.2.0
 _ZTV26QQuickRadioDelegatePrivate@Base 6.2.0
 _ZTV26QQuickWindowQmlImplPrivate@Base 6.2.0
 _ZTV27QQuickAbstractButtonPrivate@Base 6.2.0
 _ZTV27QQuickSwipeDelegateAttached@Base 6.2.0
 _ZTV28QQuickDialogButtonBoxPrivate@Base 6.2.0
 _ZTV28QQuickPopupTransitionManager@Base 6.2.0
 _ZTV29QQuickDialogButtonBoxAttached@Base 6.2.0
 _ZTV29QQuickImplicitSizeItemPrivate@Base 6.2.0
 _ZTV29QQuickScrollIndicatorAttached@Base 6.2.0
 _ZTV30QQuickApplicationWindowPrivate@Base 6.2.0
 _ZTV31QQuickApplicationWindowAttached@Base 6.2.0
 _ZTV32QQuickSelectionRectangleAttached@Base 6.2.0
 (optional=templinst)_ZZN9QtPrivate16QMetaTypeForTypeI4QUrlE10getCopyCtrEvENUlPKNS_18QMetaTypeInterfaceEPvPKvE_4_FUNES5_S6_S8_@Base 6.2.0
 (optional=templinst)_ZZN9QtPrivate16QMetaTypeForTypeI4QUrlE10getMoveCtrEvENUlPKNS_18QMetaTypeInterfaceEPvS6_E_4_FUNES5_S6_S6_@Base 6.2.0
 (optional=templinst)_ZZN9QtPrivate16QMetaTypeForTypeI4QUrlE13getDefaultCtrEvENUlPKNS_18QMetaTypeInterfaceEPvE_4_FUNES5_S6_@Base 6.2.0
 (optional=templinst)_ZZN9QtPrivate16QMetaTypeForTypeI4QUrlE7getDtorEvENUlPKNS_18QMetaTypeInterfaceEPvE_4_FUNES5_S6_@Base 6.2.0
 (optional=templinst)_ZZN9QtPrivate16QMetaTypeForTypeI7QLocaleE10getCopyCtrEvENUlPKNS_18QMetaTypeInterfaceEPvPKvE_4_FUNES5_S6_S8_@Base 6.2.0
 (optional=templinst)_ZZN9QtPrivate16QMetaTypeForTypeI7QLocaleE10getMoveCtrEvENUlPKNS_18QMetaTypeInterfaceEPvS6_E_4_FUNES5_S6_S6_@Base 6.2.0
 (optional=templinst)_ZZN9QtPrivate16QMetaTypeForTypeI7QLocaleE13getDefaultCtrEvENUlPKNS_18QMetaTypeInterfaceEPvE_4_FUNES5_S6_@Base 6.2.0
 (optional=templinst)_ZZN9QtPrivate16QMetaTypeForTypeI7QLocaleE7getDtorEvENUlPKNS_18QMetaTypeInterfaceEPvE_4_FUNES5_S6_@Base 6.2.0
 (optional=templinst)_ZZN9QtPrivate16QMetaTypeForTypeI7QStringE10getCopyCtrEvENUlPKNS_18QMetaTypeInterfaceEPvPKvE_4_FUNES5_S6_S8_@Base 6.2.0
 (optional=templinst)_ZZN9QtPrivate16QMetaTypeForTypeI7QStringE10getMoveCtrEvENUlPKNS_18QMetaTypeInterfaceEPvS6_E_4_FUNES5_S6_S6_@Base 6.2.0
 (optional=templinst)_ZZN9QtPrivate16QMetaTypeForTypeI7QStringE13getDefaultCtrEvENUlPKNS_18QMetaTypeInterfaceEPvE_4_FUNES5_S6_@Base 6.2.0
 (optional=templinst)_ZZN9QtPrivate16QMetaTypeForTypeI7QStringE7getDtorEvENUlPKNS_18QMetaTypeInterfaceEPvE_4_FUNES5_S6_@Base 6.2.0
 (optional=templinst)_ZZN9QtPrivate16QMetaTypeForTypeI8QVariantE10getCopyCtrEvENUlPKNS_18QMetaTypeInterfaceEPvPKvE_4_FUNES5_S6_S8_@Base 6.2.0
 (optional=templinst)_ZZN9QtPrivate16QMetaTypeForTypeI8QVariantE10getMoveCtrEvENUlPKNS_18QMetaTypeInterfaceEPvS6_E_4_FUNES5_S6_S6_@Base 6.2.0
 (optional=templinst)_ZZN9QtPrivate16QMetaTypeForTypeI8QVariantE13getDefaultCtrEvENUlPKNS_18QMetaTypeInterfaceEPvE_4_FUNES5_S6_@Base 6.2.0
 (optional=templinst)_ZZN9QtPrivate16QMetaTypeForTypeI8QVariantE7getDtorEvENUlPKNS_18QMetaTypeInterfaceEPvE_4_FUNES5_S6_@Base 6.2.0
 (optional=templinst)_ZZN9QtPrivate16QMetaTypeForTypeIP7QObjectE10getCopyCtrEvENUlPKNS_18QMetaTypeInterfaceEPvPKvE_4_FUNES6_S7_S9_@Base 6.2.0
 (optional=templinst)_ZZN9QtPrivate16QMetaTypeForTypeIP7QObjectE10getMoveCtrEvENUlPKNS_18QMetaTypeInterfaceEPvS7_E_4_FUNES6_S7_S7_@Base 6.2.0
 (optional=templinst)_ZZN9QtPrivate16QMetaTypeForTypeIP7QObjectE13getDefaultCtrEvENUlPKNS_18QMetaTypeInterfaceEPvE_4_FUNES6_S7_@Base 6.2.0
 (optional=templinst)_ZZN9QtPrivate16QMetaTypeForTypeIbE10getCopyCtrEvENUlPKNS_18QMetaTypeInterfaceEPvPKvE_4_FUNES4_S5_S7_@Base 6.2.0
 (optional=templinst)_ZZN9QtPrivate16QMetaTypeForTypeIbE10getMoveCtrEvENUlPKNS_18QMetaTypeInterfaceEPvS5_E_4_FUNES4_S5_S5_@Base 6.2.0
 (optional=templinst)_ZZN9QtPrivate16QMetaTypeForTypeIbE13getDefaultCtrEvENUlPKNS_18QMetaTypeInterfaceEPvE_4_FUNES4_S5_@Base 6.2.0
 (optional=templinst)_ZZN9QtPrivate16QMetaTypeForTypeIdE10getCopyCtrEvENUlPKNS_18QMetaTypeInterfaceEPvPKvE_4_FUNES4_S5_S7_@Base 6.2.0
 (optional=templinst)_ZZN9QtPrivate16QMetaTypeForTypeIdE10getMoveCtrEvENUlPKNS_18QMetaTypeInterfaceEPvS5_E_4_FUNES4_S5_S5_@Base 6.2.0
 (optional=templinst)_ZZN9QtPrivate16QMetaTypeForTypeIdE13getDefaultCtrEvENUlPKNS_18QMetaTypeInterfaceEPvE_4_FUNES4_S5_@Base 6.2.0
 (optional=templinst)_ZZN9QtPrivate16QMetaTypeForTypeIiE10getCopyCtrEvENUlPKNS_18QMetaTypeInterfaceEPvPKvE_4_FUNES4_S5_S7_@Base 6.2.0
 (optional=templinst)_ZZN9QtPrivate16QMetaTypeForTypeIiE10getMoveCtrEvENUlPKNS_18QMetaTypeInterfaceEPvS5_E_4_FUNES4_S5_S5_@Base 6.2.0
 (optional=templinst)_ZZN9QtPrivate16QMetaTypeForTypeIiE13getDefaultCtrEvENUlPKNS_18QMetaTypeInterfaceEPvE_4_FUNES4_S5_@Base 6.2.0
 (c++)"non-virtual thunk to QQuickAbstractButton::componentComplete()@Base" 6.2.0
 (c++)"non-virtual thunk to QQuickAbstractButton::~QQuickAbstractButton()@Base" 6.2.0
 (c++)"non-virtual thunk to QQuickAbstractButtonPrivate::itemImplicitHeightChanged(QQuickItem*)@Base" 6.2.0
 (c++)"non-virtual thunk to QQuickAbstractButtonPrivate::itemImplicitWidthChanged(QQuickItem*)@Base" 6.2.0
 (c++)"non-virtual thunk to QQuickApplicationWindow::classBegin()@Base" 6.2.0
 (c++)"non-virtual thunk to QQuickApplicationWindow::componentComplete()@Base" 6.2.0
 (c++)"non-virtual thunk to QQuickApplicationWindow::~QQuickApplicationWindow()@Base" 6.2.0
 (c++)"non-virtual thunk to QQuickApplicationWindowPrivate::itemGeometryChanged(QQuickItem*, QQuickGeometryChange, QRectF const&)@Base" 6.2.0
 (c++)"non-virtual thunk to QQuickApplicationWindowPrivate::itemImplicitHeightChanged(QQuickItem*)@Base" 6.2.0
 (c++)"non-virtual thunk to QQuickApplicationWindowPrivate::itemImplicitWidthChanged(QQuickItem*)@Base" 6.2.0
 (c++)"non-virtual thunk to QQuickApplicationWindowPrivate::itemVisibilityChanged(QQuickItem*)@Base" 6.2.0
 (c++)"non-virtual thunk to QQuickButtonGroup::classBegin()@Base" 6.2.0
 (c++)"non-virtual thunk to QQuickButtonGroup::componentComplete()@Base" 6.2.0
 (c++)"non-virtual thunk to QQuickButtonGroup::~QQuickButtonGroup()@Base" 6.2.0
 (c++)"non-virtual thunk to QQuickComboBox::componentComplete()@Base" 6.2.0
 (c++)"non-virtual thunk to QQuickComboBox::~QQuickComboBox()@Base" 6.2.0
 (c++)"non-virtual thunk to QQuickContainer::componentComplete()@Base" 6.2.0
 (c++)"non-virtual thunk to QQuickContainer::~QQuickContainer()@Base" 6.2.0
 (c++)"non-virtual thunk to QQuickContainerPrivate::itemChildAdded(QQuickItem*, QQuickItem*)@Base" 6.2.0
 (c++)"non-virtual thunk to QQuickContainerPrivate::itemDestroyed(QQuickItem*)@Base" 6.2.0
 (c++)"non-virtual thunk to QQuickContainerPrivate::itemParentChanged(QQuickItem*, QQuickItem*)@Base" 6.2.0
 (c++)"non-virtual thunk to QQuickContainerPrivate::itemSiblingOrderChanged(QQuickItem*)@Base" 6.2.0
 (c++)"non-virtual thunk to QQuickControl::classBegin()@Base" 6.2.0
 (c++)"non-virtual thunk to QQuickControl::componentComplete()@Base" 6.2.0
 (c++)"non-virtual thunk to QQuickControl::~QQuickControl()@Base" 6.2.0
 (c++)"non-virtual thunk to QQuickControlPrivate::accessibilityActiveChanged(bool)@Base" 6.2.0
 (c++)"non-virtual thunk to QQuickControlPrivate::defaultPalette() const@Base" 6.2.0
 (c++)"non-virtual thunk to QQuickControlPrivate::itemDestroyed(QQuickItem*)@Base" 6.2.0
 (c++)"non-virtual thunk to QQuickControlPrivate::itemGeometryChanged(QQuickItem*, QQuickGeometryChange, QRectF const&)@Base" 6.2.0
 (c++)"non-virtual thunk to QQuickControlPrivate::itemImplicitHeightChanged(QQuickItem*)@Base" 6.2.0
 (c++)"non-virtual thunk to QQuickControlPrivate::itemImplicitWidthChanged(QQuickItem*)@Base" 6.2.0
 (c++)"non-virtual thunk to QQuickControlPrivate::~QQuickControlPrivate()@Base" 6.2.0
 (c++)"non-virtual thunk to QQuickDial::componentComplete()@Base" 6.2.0
 (c++)"non-virtual thunk to QQuickDialogButtonBox::componentComplete()@Base" 6.2.0
 (c++)"non-virtual thunk to QQuickDialogButtonBox::~QQuickDialogButtonBox()@Base" 6.2.0
 (c++)"non-virtual thunk to QQuickDialogButtonBoxPrivate::itemImplicitHeightChanged(QQuickItem*)@Base" 6.2.0
 (c++)"non-virtual thunk to QQuickDialogButtonBoxPrivate::itemImplicitWidthChanged(QQuickItem*)@Base" 6.2.0
 (c++)"non-virtual thunk to QQuickGroupBox::componentComplete()@Base" 6.2.0
 (c++)"non-virtual thunk to QQuickGroupBox::~QQuickGroupBox()@Base" 6.2.0
 (c++)"non-virtual thunk to QQuickHeaderViewBase::~QQuickHeaderViewBase()@Base" 6.2.0
 (c++)"non-virtual thunk to QQuickHorizontalHeaderView::~QQuickHorizontalHeaderView()@Base" 6.2.0
 (c++)"non-virtual thunk to QQuickItemDelegatePrivate::defaultPalette() const@Base" 6.2.0
 (c++)"non-virtual thunk to QQuickLabel::classBegin()@Base" 6.2.0
 (c++)"non-virtual thunk to QQuickLabel::componentComplete()@Base" 6.2.0
 (c++)"non-virtual thunk to QQuickLabel::~QQuickLabel()@Base" 6.2.0
 (c++)"non-virtual thunk to QQuickMenu::componentComplete()@Base" 6.2.0
 (c++)"non-virtual thunk to QQuickMenu::~QQuickMenu()@Base" 6.2.0
 (c++)"non-virtual thunk to QQuickMenuBarPrivate::defaultPalette() const@Base" 6.2.0
 (c++)"non-virtual thunk to QQuickMenuBarPrivate::itemImplicitHeightChanged(QQuickItem*)@Base" 6.2.0
 (c++)"non-virtual thunk to QQuickMenuBarPrivate::itemImplicitWidthChanged(QQuickItem*)@Base" 6.2.0
 (c++)"non-virtual thunk to QQuickMenuItem::componentComplete()@Base" 6.2.0
 (c++)"non-virtual thunk to QQuickMenuPrivate::defaultPalette() const@Base" 6.2.0
 (c++)"non-virtual thunk to QQuickMenuPrivate::itemChildAdded(QQuickItem*, QQuickItem*)@Base" 6.2.0
 (c++)"non-virtual thunk to QQuickMenuPrivate::itemDestroyed(QQuickItem*)@Base" 6.2.0
 (c++)"non-virtual thunk to QQuickMenuPrivate::itemGeometryChanged(QQuickItem*, QQuickGeometryChange, QRectF const&)@Base" 6.2.0
 (c++)"non-virtual thunk to QQuickMenuPrivate::itemParentChanged(QQuickItem*, QQuickItem*)@Base" 6.2.0
 (c++)"non-virtual thunk to QQuickMenuPrivate::itemSiblingOrderChanged(QQuickItem*)@Base" 6.2.0
 (c++)"non-virtual thunk to QQuickOverlay::~QQuickOverlay()@Base" 6.2.0
 (c++)"non-virtual thunk to QQuickPage::componentComplete()@Base" 6.2.0
 (c++)"non-virtual thunk to QQuickPage::~QQuickPage()@Base" 6.2.0
 (c++)"non-virtual thunk to QQuickPane::componentComplete()@Base" 6.2.0
 (c++)"non-virtual thunk to QQuickPane::~QQuickPane()@Base" 6.2.0
 (c++)"non-virtual thunk to QQuickPanePrivate::itemImplicitHeightChanged(QQuickItem*)@Base" 6.2.0
 (c++)"non-virtual thunk to QQuickPanePrivate::itemImplicitWidthChanged(QQuickItem*)@Base" 6.2.0
 (c++)"non-virtual thunk to QQuickPopup::classBegin()@Base" 6.2.0
 (c++)"non-virtual thunk to QQuickPopup::componentComplete()@Base" 6.2.0
 (c++)"non-virtual thunk to QQuickPopup::~QQuickPopup()@Base" 6.2.0
 (c++)"non-virtual thunk to QQuickPopupAnchors::itemDestroyed(QQuickItem*)@Base" 6.2.0
 (c++)"non-virtual thunk to QQuickPopupAnchors::~QQuickPopupAnchors()@Base" 6.2.0
 (c++)"non-virtual thunk to QQuickPopupItemPrivate::defaultPalette() const@Base" 6.2.0
 (c++)"non-virtual thunk to QQuickPopupItemPrivate::palette() const@Base" 6.2.0
 (c++)"non-virtual thunk to QQuickPopupItemPrivate::parentPalette() const@Base" 6.2.0
 (c++)"non-virtual thunk to QQuickPopupItemPrivate::providesPalette() const@Base" 6.2.0
 (c++)"non-virtual thunk to QQuickPopupItemPrivate::resetPalette()@Base" 6.2.0
 (c++)"non-virtual thunk to QQuickPopupItemPrivate::setPalette(QQuickPalette*)@Base" 6.2.0
 (c++)"non-virtual thunk to QQuickPopupPrivate::defaultPalette() const@Base" 6.2.0
 (c++)"non-virtual thunk to QQuickPopupPrivate::itemDestroyed(QQuickItem*)@Base" 6.2.0
 (c++)"non-virtual thunk to QQuickProgressBar::componentComplete()@Base" 6.2.0
 (c++)"non-virtual thunk to QQuickRangeSlider::classBegin()@Base" 6.2.0
 (c++)"non-virtual thunk to QQuickRangeSlider::componentComplete()@Base" 6.2.0
 (c++)"non-virtual thunk to QQuickRangeSlider::~QQuickRangeSlider()@Base" 6.2.0
 (c++)"non-virtual thunk to QQuickScrollBar::classBegin()@Base" 6.2.0
 (c++)"non-virtual thunk to QQuickScrollBar::componentComplete()@Base" 6.2.0
 (c++)"non-virtual thunk to QQuickScrollView::componentComplete()@Base" 6.2.0
 (c++)"non-virtual thunk to QQuickSlider::componentComplete()@Base" 6.2.0
 (c++)"non-virtual thunk to QQuickSlider::~QQuickSlider()@Base" 6.2.0
 (c++)"non-virtual thunk to QQuickSpinBox::classBegin()@Base" 6.2.0
 (c++)"non-virtual thunk to QQuickSpinBox::componentComplete()@Base" 6.2.0
 (c++)"non-virtual thunk to QQuickSpinBox::~QQuickSpinBox()@Base" 6.2.0
 (c++)"non-virtual thunk to QQuickSplitView::componentComplete()@Base" 6.2.0
 (c++)"non-virtual thunk to QQuickSplitView::~QQuickSplitView()@Base" 6.2.0
 (c++)"non-virtual thunk to QQuickSplitViewPrivate::itemImplicitHeightChanged(QQuickItem*)@Base" 6.2.0
 (c++)"non-virtual thunk to QQuickSplitViewPrivate::itemImplicitWidthChanged(QQuickItem*)@Base" 6.2.0
 (c++)"non-virtual thunk to QQuickSplitViewPrivate::itemVisibilityChanged(QQuickItem*)@Base" 6.2.0
 (c++)"non-virtual thunk to QQuickStackView::componentComplete()@Base" 6.2.0
 (c++)"non-virtual thunk to QQuickStackView::~QQuickStackView()@Base" 6.2.0
 (c++)"non-virtual thunk to QQuickSwipeDelegate::componentComplete()@Base" 6.2.0
 (c++)"non-virtual thunk to QQuickTabBar::componentComplete()@Base" 6.2.0
 (c++)"non-virtual thunk to QQuickTextArea::classBegin()@Base" 6.2.0
 (c++)"non-virtual thunk to QQuickTextArea::componentComplete()@Base" 6.2.0
 (c++)"non-virtual thunk to QQuickTextArea::~QQuickTextArea()@Base" 6.2.0
 (c++)"non-virtual thunk to QQuickTextField::classBegin()@Base" 6.2.0
 (c++)"non-virtual thunk to QQuickTextField::componentComplete()@Base" 6.2.0
 (c++)"non-virtual thunk to QQuickTextField::~QQuickTextField()@Base" 6.2.0
 (c++)"non-virtual thunk to QQuickTumbler::componentComplete()@Base" 6.2.0
 (c++)"non-virtual thunk to QQuickTumbler::~QQuickTumbler()@Base" 6.2.0
 (c++)"non-virtual thunk to QQuickTumblerPrivate::defaultPalette() const@Base" 6.2.0
 (c++)"non-virtual thunk to QQuickTumblerPrivate::itemChildAdded(QQuickItem*, QQuickItem*)@Base" 6.2.0
 (c++)"non-virtual thunk to QQuickTumblerPrivate::itemChildRemoved(QQuickItem*, QQuickItem*)@Base" 6.2.0
 (c++)"non-virtual thunk to QQuickTumblerPrivate::itemGeometryChanged(QQuickItem*, QQuickGeometryChange, QRectF const&)@Base" 6.2.0
 (c++)"non-virtual thunk to QQuickVerticalHeaderView::~QQuickVerticalHeaderView()@Base" 6.2.0
