# SymbolsHelper-Confirmed: 6.2.2 amd64 hurd-i386 mips64el
libQt6Quick.so.6 libqt6quick6 #MINVER#
| libqt6quick6 #MINVER#, qt6-declarative-abi (= 6.2.2)
* Build-Depends-Packages: qt6-declarative-dev, qt6-declarative-private-dev
 _Z20qt_color_from_stringRKN3QV45ValueE@Base 6.2.0
 _Z23QQuick_initializeModulev@Base 6.2.0
 _Z23qsgnode_set_descriptionP7QSGNodeRK7QString@Base 6.2.0
 _Z23qtPositionAttributeNamev@Base 6.2.0
 _Z23qtTexCoordAttributeNamev@Base 6.2.0
 _Z26qml_register_types_QtQuickv@Base 6.2.0
 _Z33qt_quick_shortcut_context_matcherv@Base 6.2.0
 _Z37qt_quick_set_shortcut_context_matcherPFbP7QObjectN2Qt15ShortcutContextEE@Base 6.2.0
 _ZGVZN9QMetaType21registerConverterImplI5QListI4QUrlE9QIterableI13QMetaSequenceEEEbSt8functionIFbPKvPvEES_S_E10unregister@Base 6.2.0
 _ZGVZN9QMetaType21registerConverterImplI5QListI7QPointFE9QIterableI13QMetaSequenceEEEbSt8functionIFbPKvPvEES_S_E10unregister@Base 6.2.0
 _ZGVZN9QMetaType21registerConverterImplI5QListI9QPolygonFE9QIterableI13QMetaSequenceEEEbSt8functionIFbPKvPvEES_S_E10unregister@Base 6.2.0
 _ZGVZN9QMetaType21registerConverterImplI5QListIP7QObjectE9QIterableI13QMetaSequenceEEEbSt8functionIFbPKvPvEES_S_E10unregister@Base 6.2.0
 _ZGVZN9QMetaType21registerConverterImplI5QListIS1_I7QPointFEE9QIterableI13QMetaSequenceEEEbSt8functionIFbPKvPvEES_S_E10unregister@Base 6.2.0
 _ZGVZN9QMetaType21registerConverterImplI5QListIiE9QIterableI13QMetaSequenceEEEbSt8functionIFbPKvPvEES_S_E10unregister@Base 6.2.0
 _ZGVZN9QMetaType23registerMutableViewImplI5QListI4QUrlE9QIterableI13QMetaSequenceEEEbSt8functionIFbPvS8_EES_S_E10unregister@Base 6.2.0
 _ZGVZN9QMetaType23registerMutableViewImplI5QListI7QPointFE9QIterableI13QMetaSequenceEEEbSt8functionIFbPvS8_EES_S_E10unregister@Base 6.2.0
 _ZGVZN9QMetaType23registerMutableViewImplI5QListI9QPolygonFE9QIterableI13QMetaSequenceEEEbSt8functionIFbPvS8_EES_S_E10unregister@Base 6.2.0
 _ZGVZN9QMetaType23registerMutableViewImplI5QListIP7QObjectE9QIterableI13QMetaSequenceEEEbSt8functionIFbPvS9_EES_S_E10unregister@Base 6.2.0
 _ZGVZN9QMetaType23registerMutableViewImplI5QListIS1_I7QPointFEE9QIterableI13QMetaSequenceEEEbSt8functionIFbPvS9_EES_S_E10unregister@Base 6.2.0
 _ZGVZN9QMetaType23registerMutableViewImplI5QListIiE9QIterableI13QMetaSequenceEEEbSt8functionIFbPvS7_EES_S_E10unregister@Base 6.2.0
 _ZN10QQuickDrag11axisChangedEv@Base 6.2.0
 _ZN10QQuickDrag11qt_metacallEN11QMetaObject4CallEiPPv@Base 6.2.0
 _ZN10QQuickDrag11qt_metacastEPKc@Base 6.2.0
 _ZN10QQuickDrag11resetTargetEv@Base 6.2.0
 _ZN10QQuickDrag11setSmoothedEb@Base 6.2.0
 _ZN10QQuickDrag12setThresholdEd@Base 6.2.0
 _ZN10QQuickDrag13activeChangedEv@Base 6.2.0
 _ZN10QQuickDrag13targetChangedEv@Base 6.2.0
 _ZN10QQuickDrag14resetThresholdEv@Base 6.2.0
 _ZN10QQuickDrag15maximumXChangedEv@Base 6.2.0
 _ZN10QQuickDrag15maximumYChangedEv@Base 6.2.0
 _ZN10QQuickDrag15minimumXChangedEv@Base 6.2.0
 _ZN10QQuickDrag15minimumYChangedEv@Base 6.2.0
 _ZN10QQuickDrag15smoothedChangedEv@Base 6.2.0
 _ZN10QQuickDrag16staticMetaObjectE@Base 6.2.0
 _ZN10QQuickDrag16thresholdChangedEv@Base 6.2.0
 _ZN10QQuickDrag17setFilterChildrenEb@Base 6.2.0
 _ZN10QQuickDrag21filterChildrenChangedEv@Base 6.2.0
 _ZN10QQuickDrag21qmlAttachedPropertiesEP7QObject@Base 6.2.0
 _ZN10QQuickDrag7setAxisENS_4AxisE@Base 6.2.0
 _ZN10QQuickDrag7setXmaxEd@Base 6.2.0
 _ZN10QQuickDrag7setXminEd@Base 6.2.0
 _ZN10QQuickDrag7setYmaxEd@Base 6.2.0
 _ZN10QQuickDrag7setYminEd@Base 6.2.0
 _ZN10QQuickDrag9setActiveEb@Base 6.2.0
 _ZN10QQuickDrag9setTargetEP10QQuickItem@Base 6.2.0
 _ZN10QQuickDragC1EP7QObject@Base 6.2.0
 _ZN10QQuickDragC2EP7QObject@Base 6.2.0
 _ZN10QQuickDragD0Ev@Base 6.2.0
 _ZN10QQuickDragD1Ev@Base 6.2.0
 _ZN10QQuickDragD2Ev@Base 6.2.0
 _ZN10QQuickFlow11flowChangedEv@Base 6.2.0
 _ZN10QQuickFlow11qt_metacallEN11QMetaObject4CallEiPPv@Base 6.2.0
 _ZN10QQuickFlow11qt_metacastEPKc@Base 6.2.0
 _ZN10QQuickFlow13doPositioningEP6QSizeF@Base 6.2.0
 _ZN10QQuickFlow16staticMetaObjectE@Base 6.2.0
 _ZN10QQuickFlow18setLayoutDirectionEN2Qt15LayoutDirectionE@Base 6.2.0
 _ZN10QQuickFlow22layoutDirectionChangedEv@Base 6.2.0
 _ZN10QQuickFlow24reportConflictingAnchorsEv@Base 6.2.0
 _ZN10QQuickFlow31effectiveLayoutDirectionChangedEv@Base 6.2.0
 _ZN10QQuickFlow7setFlowENS_4FlowE@Base 6.2.0
 _ZN10QQuickFlowC1EP10QQuickItem@Base 6.2.0
 _ZN10QQuickFlowC2EP10QQuickItem@Base 6.2.0
 _ZN10QQuickGrid10setColumnsEi@Base 6.2.0
 _ZN10QQuickGrid11flowChangedEv@Base 6.2.0
 _ZN10QQuickGrid11qt_metacallEN11QMetaObject4CallEiPPv@Base 6.2.0
 _ZN10QQuickGrid11qt_metacastEPKc@Base 6.2.0
 _ZN10QQuickGrid11rowsChangedEv@Base 6.2.0
 _ZN10QQuickGrid13doPositioningEP6QSizeF@Base 6.2.0
 _ZN10QQuickGrid13setHItemAlignENS_10HAlignmentE@Base 6.2.0
 _ZN10QQuickGrid13setRowSpacingEd@Base 6.2.0
 _ZN10QQuickGrid13setVItemAlignENS_10VAlignmentE@Base 6.2.0
 _ZN10QQuickGrid14columnsChangedEv@Base 6.2.0
 _ZN10QQuickGrid16setColumnSpacingEd@Base 6.2.0
 _ZN10QQuickGrid16staticMetaObjectE@Base 6.2.0
 _ZN10QQuickGrid17rowSpacingChangedEv@Base 6.2.0
 _ZN10QQuickGrid18setLayoutDirectionEN2Qt15LayoutDirectionE@Base 6.2.0
 _ZN10QQuickGrid20columnSpacingChangedEv@Base 6.2.0
 _ZN10QQuickGrid22layoutDirectionChangedEv@Base 6.2.0
 _ZN10QQuickGrid24reportConflictingAnchorsEv@Base 6.2.0
 _ZN10QQuickGrid24verticalAlignmentChangedENS_10VAlignmentE@Base 6.2.0
 _ZN10QQuickGrid26horizontalAlignmentChangedENS_10HAlignmentE@Base 6.2.0
 _ZN10QQuickGrid31effectiveLayoutDirectionChangedEv@Base 6.2.0
 _ZN10QQuickGrid35effectiveHorizontalAlignmentChangedENS_10HAlignmentE@Base 6.2.0
 _ZN10QQuickGrid7setFlowENS_4FlowE@Base 6.2.0
 _ZN10QQuickGrid7setRowsEi@Base 6.2.0
 _ZN10QQuickGridC1EP10QQuickItem@Base 6.2.0
 _ZN10QQuickGridC2EP10QQuickItem@Base 6.2.0
 _ZN10QQuickItem10classBeginEv@Base 6.2.0
 _ZN10QQuickItem10itemChangeENS_10ItemChangeERKNS_14ItemChangeDataE@Base 6.2.0
 _ZN10QQuickItem10resetWidthEv@Base 6.2.0
 _ZN10QQuickItem10setEnabledEb@Base 6.2.0
 _ZN10QQuickItem10setOpacityEd@Base 6.2.0
 _ZN10QQuickItem10setVisibleEb@Base 6.2.0
 _ZN10QQuickItem10stackAfterEPKS_@Base 6.2.0
 _ZN10QQuickItem10touchEventEP11QTouchEvent@Base 6.2.0
 _ZN10QQuickItem10wheelEventEP11QWheelEvent@Base 6.2.0
 _ZN10QQuickItem11clipChangedEb@Base 6.2.0
 _ZN10QQuickItem11grabToImageERK5QSize@Base 6.2.0
 _ZN10QQuickItem11grabToImageERK8QJSValueRK5QSize@Base 6.2.0
 _ZN10QQuickItem11qt_metacallEN11QMetaObject4CallEiPPv@Base 6.2.0
 _ZN10QQuickItem11qt_metacastEPKc@Base 6.2.0
 _ZN10QQuickItem11resetHeightEv@Base 6.2.0
 _ZN10QQuickItem11setPositionERK7QPointF@Base 6.2.0
 _ZN10QQuickItem11setRotationEd@Base 6.2.0
 _ZN10QQuickItem11stackBeforeEPKS_@Base 6.2.0
 _ZN10QQuickItem11ungrabMouseEv@Base 6.2.0
 _ZN10QQuickItem11unsetCursorEv@Base 6.2.0
 _ZN10QQuickItem12childrenRectEv@Base 6.2.0
 _ZN10QQuickItem12focusChangedEb@Base 6.2.0
 _ZN10QQuickItem12focusInEventEP11QFocusEvent@Base 6.2.0
 _ZN10QQuickItem12scaleChangedEv@Base 6.2.0
 _ZN10QQuickItem12stateChangedERK7QString@Base 6.2.0
 _ZN10QQuickItem12updatePolishEv@Base 6.2.0
 _ZN10QQuickItem12widthChangedEv@Base 6.2.0
 _ZN10QQuickItem13bindableWidthEv@Base 6.2.0
 _ZN10QQuickItem13dragMoveEventEP14QDragMoveEvent@Base 6.2.0
 _ZN10QQuickItem13focusOutEventEP11QFocusEvent@Base 6.2.0
 _ZN10QQuickItem13heightChangedEv@Base 6.2.0
 _ZN10QQuickItem13keyPressEventEP9QKeyEvent@Base 6.2.0
 _ZN10QQuickItem13parentChangedEPS_@Base 6.2.0
 _ZN10QQuickItem13setParentItemEPS_@Base 6.2.0
 _ZN10QQuickItem13smoothChangedEb@Base 6.2.0
 _ZN10QQuickItem13windowChangedEP12QQuickWindow@Base 6.2.0
 _ZN10QQuickItem14bindableHeightEv@Base 6.2.0
 _ZN10QQuickItem14dragEnterEventEP15QDragEnterEvent@Base 6.2.0
 _ZN10QQuickItem14dragLeaveEventEP15QDragLeaveEvent@Base 6.2.0
 _ZN10QQuickItem14enabledChangedEv@Base 6.2.0
 _ZN10QQuickItem14geometryChangeERK6QRectFS2_@Base 6.2.0
 _ZN10QQuickItem14hoverMoveEventEP11QHoverEvent@Base 6.2.0
 _ZN10QQuickItem14mouseMoveEventEP11QMouseEvent@Base 6.2.0
 _ZN10QQuickItem14opacityChangedEv@Base 6.2.0
 _ZN10QQuickItem14paletteChangedEv@Base 6.2.0
 _ZN10QQuickItem14paletteCreatedEv@Base 6.2.0
 _ZN10QQuickItem14visibleChangedEv@Base 6.2.0
 _ZN10QQuickItem15childrenChangedEv@Base 6.2.0
 _ZN10QQuickItem15grabTouchPointsERK5QListIiE@Base 6.2.0
 _ZN10QQuickItem15hoverEnterEventEP11QHoverEvent@Base 6.2.0
 _ZN10QQuickItem15hoverLeaveEventEP11QHoverEvent@Base 6.2.0
 _ZN10QQuickItem15keyReleaseEventEP9QKeyEvent@Base 6.2.0
 _ZN10QQuickItem15mousePressEventEP11QMouseEvent@Base 6.2.0
 _ZN10QQuickItem15rotationChangedEv@Base 6.2.0
 _ZN10QQuickItem15setAntialiasingEb@Base 6.2.0
 _ZN10QQuickItem15setImplicitSizeEdd@Base 6.2.0
 _ZN10QQuickItem15updatePaintNodeEP7QSGNodePNS_19UpdatePaintNodeDataE@Base 6.2.0
 _ZN10QQuickItem16forceActiveFocusEN2Qt11FocusReasonE@Base 6.2.0
 _ZN10QQuickItem16forceActiveFocusEv@Base 6.2.0
 _ZN10QQuickItem16inputMethodEventEP17QInputMethodEvent@Base 6.2.0
 _ZN10QQuickItem16mouseUngrabEventEv@Base 6.2.0
 _ZN10QQuickItem16releaseResourcesEv@Base 6.2.0
 _ZN10QQuickItem16setImplicitWidthEd@Base 6.2.0
 _ZN10QQuickItem16setKeepMouseGrabEb@Base 6.2.0
 _ZN10QQuickItem16setKeepTouchGrabEb@Base 6.2.0
 _ZN10QQuickItem16staticMetaObjectE@Base 6.2.0
 _ZN10QQuickItem16touchUngrabEventEv@Base 6.2.0
 _ZN10QQuickItem17componentCompleteEv@Base 6.2.0
 _ZN10QQuickItem17mouseReleaseEventEP11QMouseEvent@Base 6.2.0
 _ZN10QQuickItem17resetAntialiasingEv@Base 6.2.0
 _ZN10QQuickItem17setBaselineOffsetEd@Base 6.2.0
 _ZN10QQuickItem17setImplicitHeightEd@Base 6.2.0
 _ZN10QQuickItem17ungrabTouchPointsEv@Base 6.2.0
 _ZN10QQuickItem17updateInputMethodE6QFlagsIN2Qt16InputMethodQueryEE@Base 6.2.0
 _ZN10QQuickItem18activeFocusChangedEb@Base 6.2.0
 _ZN10QQuickItem18setContainmentMaskEP7QObject@Base 6.2.0
 _ZN10QQuickItem18setTransformOriginENS_15TransformOriginE@Base 6.2.0
 _ZN10QQuickItem19UpdatePaintNodeDataC1Ev@Base 6.2.0
 _ZN10QQuickItem19UpdatePaintNodeDataC2Ev@Base 6.2.0
 _ZN10QQuickItem19antialiasingChangedEb@Base 6.2.0
 _ZN10QQuickItem19childrenRectChangedERK6QRectF@Base 6.2.0
 _ZN10QQuickItem19setActiveFocusOnTabEb@Base 6.2.0
 _ZN10QQuickItem20implicitWidthChangedEv@Base 6.2.0
 _ZN10QQuickItem20nextItemInFocusChainEb@Base 6.2.0
 _ZN10QQuickItem20setAcceptHoverEventsEb@Base 6.2.0
 _ZN10QQuickItem20setAcceptTouchEventsEb@Base 6.2.0
 _ZN10QQuickItem21baselineOffsetChangedEd@Base 6.2.0
 _ZN10QQuickItem21childMouseEventFilterEPS_P6QEvent@Base 6.2.0
 _ZN10QQuickItem21implicitHeightChangedEv@Base 6.2.0
 _ZN10QQuickItem21mouseDoubleClickEventEP11QMouseEvent@Base 6.2.0
 _ZN10QQuickItem22containmentMaskChangedEv@Base 6.2.0
 _ZN10QQuickItem22transformOriginChangedENS_15TransformOriginE@Base 6.2.0
 _ZN10QQuickItem22visibleChildrenChangedEv@Base 6.2.0
 _ZN10QQuickItem23activeFocusOnTabChangedEb@Base 6.2.0
 _ZN10QQuickItem23setAcceptedMouseButtonsE6QFlagsIN2Qt11MouseButtonEE@Base 6.2.0
 _ZN10QQuickItem23setTransformOriginPointERK7QPointF@Base 6.2.0
 _ZN10QQuickItem26setFiltersChildMouseEventsEb@Base 6.2.0
 _ZN10QQuickItem4setXEd@Base 6.2.0
 _ZN10QQuickItem4setYEd@Base 6.2.0
 _ZN10QQuickItem4setZEd@Base 6.2.0
 _ZN10QQuickItem5eventEP6QEvent@Base 6.2.0
 _ZN10QQuickItem6polishEv@Base 6.2.0
 _ZN10QQuickItem6updateEv@Base 6.2.0
 _ZN10QQuickItem7setClipEb@Base 6.2.0
 _ZN10QQuickItem7setFlagENS_4FlagEb@Base 6.2.0
 _ZN10QQuickItem7setSizeERK6QSizeF@Base 6.2.0
 _ZN10QQuickItem8setFlagsE6QFlagsINS_4FlagEE@Base 6.2.0
 _ZN10QQuickItem8setFocusEb@Base 6.2.0
 _ZN10QQuickItem8setFocusEbN2Qt11FocusReasonE@Base 6.2.0
 _ZN10QQuickItem8setScaleEd@Base 6.2.0
 _ZN10QQuickItem8setStateERK7QString@Base 6.2.0
 _ZN10QQuickItem8setWidthEd@Base 6.2.0
 _ZN10QQuickItem8xChangedEv@Base 6.2.0
 _ZN10QQuickItem8yChangedEv@Base 6.2.0
 _ZN10QQuickItem8zChangedEv@Base 6.2.0
 _ZN10QQuickItem9bindableXEv@Base 6.2.0
 _ZN10QQuickItem9bindableYEv@Base 6.2.0
 _ZN10QQuickItem9dropEventEP10QDropEvent@Base 6.2.0
 _ZN10QQuickItem9grabMouseEv@Base 6.2.0
 _ZN10QQuickItem9setCursorERK7QCursor@Base 6.2.0
 _ZN10QQuickItem9setHeightEd@Base 6.2.0
 _ZN10QQuickItem9setSmoothEb@Base 6.2.0
 _ZN10QQuickItem9transformEv@Base 6.2.0
 _ZN10QQuickItemC1EPS_@Base 6.2.0
 _ZN10QQuickItemC1ER17QQuickItemPrivatePS_@Base 6.2.0
 _ZN10QQuickItemC2EPS_@Base 6.2.0
 _ZN10QQuickItemC2ER17QQuickItemPrivatePS_@Base 6.2.0
 _ZN10QQuickItemD0Ev@Base 6.2.0
 _ZN10QQuickItemD1Ev@Base 6.2.0
 _ZN10QQuickItemD2Ev@Base 6.2.0
 _ZN10QQuickPath10classBeginEv@Base 6.2.0
 _ZN10QQuickPath10createPathERK7QPointFS2_RK5QListI7QStringERdRS3_INS_14AttributePointEEPb@Base 6.2.0
 _ZN10QQuickPath11interpolateER5QListINS_14AttributePointEEiRK7QStringd@Base 6.2.0
 _ZN10QQuickPath11interpolateEiRK7QStringd@Base 6.2.0
 _ZN10QQuickPath11processPathEv@Base 6.2.0
 _ZN10QQuickPath11qt_metacallEN11QMetaObject4CallEiPPv@Base 6.2.0
 _ZN10QQuickPath11qt_metacastEPKc@Base 6.2.0
 _ZN10QQuickPath12pathElementsEv@Base 6.2.0
 _ZN10QQuickPath12scaleChangedEv@Base 6.2.0
 _ZN10QQuickPath13startXChangedEv@Base 6.2.0
 _ZN10QQuickPath13startYChangedEv@Base 6.2.0
 _ZN10QQuickPath15createShapePathERK7QPointFS2_RdPb@Base 6.2.0
 _ZN10QQuickPath15forwardsPointAtERK12QPainterPathRKdRK5QListINS_14AttributePointEER18QQuickCachedBezierdPd@Base 6.2.0
 (subst)_ZN10QQuickPath15pathElements_atEP16QQmlListPropertyI17QQuickPathElementE{qptrdiff}@Base 6.2.0
 _ZN10QQuickPath16backwardsPointAtERK12QPainterPathRKdRK5QListINS_14AttributePointEER18QQuickCachedBezierdPd@Base 6.2.0
 _ZN10QQuickPath16gatherAttributesEv@Base 6.2.0
 _ZN10QQuickPath16staticMetaObjectE@Base 6.2.0
 _ZN10QQuickPath17componentCompleteEv@Base 6.2.0
 _ZN10QQuickPath17sequentialPointAtERK12QPainterPathRKdRK5QListINS_14AttributePointEER18QQuickCachedBezierdPd@Base 6.2.0
 _ZN10QQuickPath18pathElements_clearEP16QQmlListPropertyI17QQuickPathElementE@Base 6.2.0
 _ZN10QQuickPath18pathElements_countEP16QQmlListPropertyI17QQuickPathElementE@Base 6.2.0
 _ZN10QQuickPath19connectPathElementsEv@Base 6.2.0
 _ZN10QQuickPath19pathElements_appendEP16QQmlListPropertyI17QQuickPathElementEPS1_@Base 6.2.0
 _ZN10QQuickPath22disconnectPathElementsEv@Base 6.2.0
 _ZN10QQuickPath7changedEv@Base 6.2.0
 _ZN10QQuickPath8endpointER5QListINS_14AttributePointEERK7QString@Base 6.2.0
 _ZN10QQuickPath8endpointERK7QString@Base 6.2.0
 _ZN10QQuickPath8setScaleERK6QSizeF@Base 6.2.0
 _ZN10QQuickPath9setStartXEd@Base 6.2.0
 _ZN10QQuickPath9setStartYEd@Base 6.2.0
 _ZN10QQuickPathC1EP7QObject@Base 6.2.0
 _ZN10QQuickPathC1ER17QQuickPathPrivateP7QObject@Base 6.2.0
 _ZN10QQuickPathC2EP7QObject@Base 6.2.0
 _ZN10QQuickPathC2ER17QQuickPathPrivateP7QObject@Base 6.2.0
 _ZN10QQuickPathD0Ev@Base 6.2.0
 _ZN10QQuickPathD1Ev@Base 6.2.0
 _ZN10QQuickPathD2Ev@Base 6.2.0
 _ZN10QQuickText10itemChangeEN10QQuickItem10ItemChangeERKNS0_14ItemChangeDataE@Base 6.2.0
 _ZN10QQuickText10setBaseUrlERK4QUrl@Base 6.2.0
 _ZN10QQuickText10setPaddingEd@Base 6.2.0
 _ZN10QQuickText11fontChangedERK5QFont@Base 6.2.0
 _ZN10QQuickText11forceLayoutEv@Base 6.2.0
 _ZN10QQuickText11lineLaidOutEP14QQuickTextLine@Base 6.2.0
 _ZN10QQuickText11linkHoveredERK7QString@Base 6.2.0
 _ZN10QQuickText11qt_metacallEN11QMetaObject4CallEiPPv@Base 6.2.0
 _ZN10QQuickText11qt_metacastEPKc@Base 6.2.0
 _ZN10QQuickText11resetHAlignEv@Base 6.2.0
 _ZN10QQuickText11setWrapModeENS_8WrapModeE@Base 6.2.0
 _ZN10QQuickText11textChangedERK7QString@Base 6.2.0
 _ZN10QQuickText12colorChangedEv@Base 6.2.0
 _ZN10QQuickText12resetBaseUrlEv@Base 6.2.0
 _ZN10QQuickText12resetPaddingEv@Base 6.2.0
 _ZN10QQuickText12setElideModeENS_13TextElideModeE@Base 6.2.0
 _ZN10QQuickText12setLinkColorERK6QColor@Base 6.2.0
 _ZN10QQuickText12styleChangedENS_9TextStyleE@Base 6.2.0
 _ZN10QQuickText12updatePolishEv@Base 6.2.0
 _ZN10QQuickText13linkActivatedERK7QString@Base 6.2.0
 _ZN10QQuickText13setLineHeightEd@Base 6.2.0
 _ZN10QQuickText13setRenderTypeENS_10RenderTypeE@Base 6.2.0
 _ZN10QQuickText13setStyleColorERK6QColor@Base 6.2.0
 _ZN10QQuickText13setTextFormatENS_10TextFormatE@Base 6.2.0
 _ZN10QQuickText13setTopPaddingEd@Base 6.2.0
 _ZN10QQuickText14baseUrlChangedEv@Base 6.2.0
 _ZN10QQuickText14geometryChangeERK6QRectFS2_@Base 6.2.0
 _ZN10QQuickText14hoverMoveEventEP11QHoverEvent@Base 6.2.0
 _ZN10QQuickText14paddingChangedEv@Base 6.2.0
 _ZN10QQuickText14q_updateLayoutEv@Base 6.2.0
 _ZN10QQuickText14setLeftPaddingEd@Base 6.2.0
 _ZN10QQuickText15fontInfoChangedEv@Base 6.2.0
 _ZN10QQuickText15hoverEnterEventEP11QHoverEvent@Base 6.2.0
 _ZN10QQuickText15hoverLeaveEventEP11QHoverEvent@Base 6.2.0
 _ZN10QQuickText15mousePressEventEP11QMouseEvent@Base 6.2.0
 _ZN10QQuickText15resetTopPaddingEv@Base 6.2.0
 _ZN10QQuickText15setFontSizeModeENS_12FontSizeModeE@Base 6.2.0
 _ZN10QQuickText15setRightPaddingEd@Base 6.2.0
 _ZN10QQuickText15updatePaintNodeEP7QSGNodePN10QQuickItem19UpdatePaintNodeDataE@Base 6.2.0
 _ZN10QQuickText15wrapModeChangedEv@Base 6.2.0
 _ZN10QQuickText16elideModeChangedENS_13TextElideModeE@Base 6.2.0
 _ZN10QQuickText16lineCountChangedEv@Base 6.2.0
 _ZN10QQuickText16linkColorChangedEv@Base 6.2.0
 _ZN10QQuickText16resetLeftPaddingEv@Base 6.2.0
 _ZN10QQuickText16setBottomPaddingEd@Base 6.2.0
 _ZN10QQuickText16staticMetaObjectE@Base 6.2.0
 _ZN10QQuickText16truncatedChangedEv@Base 6.2.0
 _ZN10QQuickText17componentCompleteEv@Base 6.2.0
 _ZN10QQuickText17lineHeightChangedEd@Base 6.2.0
 _ZN10QQuickText17mouseReleaseEventEP11QMouseEvent@Base 6.2.0
 _ZN10QQuickText17renderTypeChangedEv@Base 6.2.0
 _ZN10QQuickText17resetRightPaddingEv@Base 6.2.0
 _ZN10QQuickText17setLineHeightModeENS_14LineHeightModeE@Base 6.2.0
 _ZN10QQuickText17styleColorChangedEv@Base 6.2.0
 _ZN10QQuickText17textFormatChangedENS_10TextFormatE@Base 6.2.0
 _ZN10QQuickText17topPaddingChangedEv@Base 6.2.0
 _ZN10QQuickText17triggerPreprocessEv@Base 6.2.0
 _ZN10QQuickText18contentSizeChangedEv@Base 6.2.0
 _ZN10QQuickText18leftPaddingChangedEv@Base 6.2.0
 _ZN10QQuickText18resetBottomPaddingEv@Base 6.2.0
 _ZN10QQuickText19contentWidthChangedEd@Base 6.2.0
 _ZN10QQuickText19fontSizeModeChangedEv@Base 6.2.0
 _ZN10QQuickText19rightPaddingChangedEv@Base 6.2.0
 _ZN10QQuickText19setMaximumLineCountEi@Base 6.2.0
 _ZN10QQuickText19setMinimumPixelSizeEi@Base 6.2.0
 _ZN10QQuickText19setMinimumPointSizeEi@Base 6.2.0
 _ZN10QQuickText20bottomPaddingChangedEv@Base 6.2.0
 _ZN10QQuickText20contentHeightChangedEd@Base 6.2.0
 _ZN10QQuickText20invalidateFontCachesEv@Base 6.2.0
 _ZN10QQuickText20setRenderTypeQualityEi@Base 6.2.0
 _ZN10QQuickText21imageDownloadFinishedEv@Base 6.2.0
 _ZN10QQuickText21lineHeightModeChangedENS_14LineHeightModeE@Base 6.2.0
 _ZN10QQuickText21resetMaximumLineCountEv@Base 6.2.0
 _ZN10QQuickText23maximumLineCountChangedEv@Base 6.2.0
 _ZN10QQuickText23minimumPixelSizeChangedEv@Base 6.2.0
 _ZN10QQuickText23minimumPointSizeChangedEv@Base 6.2.0
 _ZN10QQuickText24renderTypeQualityChangedEv@Base 6.2.0
 _ZN10QQuickText24verticalAlignmentChangedENS_10VAlignmentE@Base 6.2.0
 _ZN10QQuickText26horizontalAlignmentChangedENS_10HAlignmentE@Base 6.2.0
 _ZN10QQuickText35effectiveHorizontalAlignmentChangedEv@Base 6.2.0
 _ZN10QQuickText7setFontERK5QFont@Base 6.2.0
 _ZN10QQuickText7setTextERK7QString@Base 6.2.0
 _ZN10QQuickText8setColorERK6QColor@Base 6.2.0
 _ZN10QQuickText8setStyleENS_9TextStyleE@Base 6.2.0
 _ZN10QQuickText9setHAlignENS_10HAlignmentE@Base 6.2.0
 _ZN10QQuickText9setVAlignENS_10VAlignmentE@Base 6.2.0
 _ZN10QQuickTextC1EP10QQuickItem@Base 6.2.0
 _ZN10QQuickTextC1ER17QQuickTextPrivateP10QQuickItem@Base 6.2.0
 _ZN10QQuickTextC2EP10QQuickItem@Base 6.2.0
 _ZN10QQuickTextC2ER17QQuickTextPrivateP10QQuickItem@Base 6.2.0
 _ZN10QQuickTextD0Ev@Base 6.2.0
 _ZN10QQuickTextD1Ev@Base 6.2.0
 _ZN10QQuickTextD2Ev@Base 6.2.0
 _ZN10QQuickView10setContentERK4QUrlP13QQmlComponentP7QObject@Base 6.2.0
 _ZN10QQuickView10timerEventEP11QTimerEvent@Base 6.2.0
 _ZN10QQuickView11qt_metacallEN11QMetaObject4CallEiPPv@Base 6.2.0
 _ZN10QQuickView11qt_metacastEPKc@Base 6.2.0
 _ZN10QQuickView11resizeEventEP12QResizeEvent@Base 6.2.0
 _ZN10QQuickView13keyPressEventEP9QKeyEvent@Base 6.2.0
 _ZN10QQuickView13setResizeModeENS_10ResizeModeE@Base 6.2.0
 _ZN10QQuickView13statusChangedENS_6StatusE@Base 6.2.0
 _ZN10QQuickView14mouseMoveEventEP11QMouseEvent@Base 6.2.0
 _ZN10QQuickView15continueExecuteEv@Base 6.2.0
 _ZN10QQuickView15keyReleaseEventEP9QKeyEvent@Base 6.2.0
 _ZN10QQuickView15mousePressEventEP11QMouseEvent@Base 6.2.0
 _ZN10QQuickView16staticMetaObjectE@Base 6.2.0
 _ZN10QQuickView17mouseReleaseEventEP11QMouseEvent@Base 6.2.0
 _ZN10QQuickView20setInitialPropertiesERK4QMapI7QString8QVariantE@Base 6.2.0
 _ZN10QQuickView9setSourceERK4QUrl@Base 6.2.0
 _ZN10QQuickViewC1EP10QQmlEngineP7QWindow@Base 6.2.0
 _ZN10QQuickViewC1EP7QWindow@Base 6.2.0
 _ZN10QQuickViewC1ERK4QUrlP19QQuickRenderControl@Base 6.2.0
 _ZN10QQuickViewC1ERK4QUrlP7QWindow@Base 6.2.0
 _ZN10QQuickViewC2EP10QQmlEngineP7QWindow@Base 6.2.0
 _ZN10QQuickViewC2EP7QWindow@Base 6.2.0
 _ZN10QQuickViewC2ERK4QUrlP19QQuickRenderControl@Base 6.2.0
 _ZN10QQuickViewC2ERK4QUrlP7QWindow@Base 6.2.0
 _ZN10QQuickViewD0Ev@Base 6.2.0
 _ZN10QQuickViewD1Ev@Base 6.2.0
 _ZN10QQuickViewD2Ev@Base 6.2.0
 _ZN10QSGContext10setBackendERK7QString@Base 6.2.0
 _ZN10QSGContext11qt_metacallEN11QMetaObject4CallEiPPv@Base 6.2.0
 _ZN10QSGContext11qt_metacastEPKc@Base 6.2.0
 _ZN10QSGContext16staticMetaObjectE@Base 6.2.0
 _ZN10QSGContext17rendererInterfaceEP16QSGRenderContext@Base 6.2.0
 _ZN10QSGContext19createWindowManagerEv@Base 6.2.0
 _ZN10QSGContext20createDefaultContextEv@Base 6.2.0
 _ZN10QSGContext21createAnimationDriverEP7QObject@Base 6.2.0
 _ZN10QSGContext22createShaderEffectNodeEP16QSGRenderContext@Base 6.2.0
 _ZN10QSGContext24renderContextInitializedEP16QSGRenderContext@Base 6.2.0
 _ZN10QSGContext24renderContextInvalidatedEP16QSGRenderContext@Base 6.2.0
 _ZN10QSGContext27createInternalRectangleNodeERK6QRectFRK6QColor@Base 6.2.0
 _ZN10QSGContext29createTextureFactoryFromImageERK6QImage@Base 6.2.0
 _ZN10QSGContext34createGuiThreadShaderEffectManagerEv@Base 6.2.0
 _ZN10QSGContext7backendEv@Base 6.2.0
 _ZN10QSGContextC1EP7QObject@Base 6.2.0
 _ZN10QSGContextC2EP7QObject@Base 6.2.0
 _ZN10QSGContextD0Ev@Base 6.2.0
 _ZN10QSGContextD1Ev@Base 6.2.0
 _ZN10QSGContextD2Ev@Base 6.2.0
 _ZN10QSGTexture11qt_metacallEN11QMetaObject4CallEiPPv@Base 6.2.0
 _ZN10QSGTexture11qt_metacastEPKc@Base 6.2.0
 _ZN10QSGTexture12setFilteringENS_9FilteringE@Base 6.2.0
 _ZN10QSGTexture16staticMetaObjectE@Base 6.2.0
 _ZN10QSGTexture18setAnisotropyLevelENS_15AnisotropyLevelE@Base 6.2.0
 _ZN10QSGTexture18setMipmapFilteringENS_9FilteringE@Base 6.2.0
 _ZN10QSGTexture19setVerticalWrapModeENS_8WrapModeE@Base 6.2.0
 _ZN10QSGTexture21setHorizontalWrapModeENS_8WrapModeE@Base 6.2.0
 _ZN10QSGTexture23commitTextureOperationsEP4QRhiP23QRhiResourceUpdateBatch@Base 6.2.0
 _ZN10QSGTextureC1ER17QSGTexturePrivate@Base 6.2.0
 _ZN10QSGTextureC1Ev@Base 6.2.0
 _ZN10QSGTextureC2ER17QSGTexturePrivate@Base 6.2.0
 _ZN10QSGTextureC2Ev@Base 6.2.0
 _ZN10QSGTextureD0Ev@Base 6.2.0
 _ZN10QSGTextureD1Ev@Base 6.2.0
 _ZN10QSGTextureD2Ev@Base 6.2.0
 _ZN11QQuickCurve11qt_metacallEN11QMetaObject4CallEiPPv@Base 6.2.0
 _ZN11QQuickCurve11qt_metacastEPKc@Base 6.2.0
 _ZN11QQuickCurve12hasRelativeXEv@Base 6.2.0
 _ZN11QQuickCurve12hasRelativeYEv@Base 6.2.0
 _ZN11QQuickCurve12setRelativeXEd@Base 6.2.0
 _ZN11QQuickCurve12setRelativeYEd@Base 6.2.0
 _ZN11QQuickCurve16relativeXChangedEv@Base 6.2.0
 _ZN11QQuickCurve16relativeYChangedEv@Base 6.2.0
 _ZN11QQuickCurve16staticMetaObjectE@Base 6.2.0
 _ZN11QQuickCurve4hasXEv@Base 6.2.0
 _ZN11QQuickCurve4hasYEv@Base 6.2.0
 _ZN11QQuickCurve4setXEd@Base 6.2.0
 _ZN11QQuickCurve4setYEd@Base 6.2.0
 _ZN11QQuickCurve8xChangedEv@Base 6.2.0
 _ZN11QQuickCurve8yChangedEv@Base 6.2.0
 _ZN11QQuickImage11qt_metacallEN11QMetaObject4CallEiPPv@Base 6.2.0
 _ZN11QQuickImage11qt_metacastEPKc@Base 6.2.0
 _ZN11QQuickImage11setFillModeENS_8FillModeE@Base 6.2.0
 _ZN11QQuickImage12pixmapChangeEv@Base 6.2.0
 _ZN11QQuickImage13mipmapChangedEb@Base 6.2.0
 _ZN11QQuickImage14geometryChangeERK6QRectFS2_@Base 6.2.0
 _ZN11QQuickImage15fillModeChangedEv@Base 6.2.0
 _ZN11QQuickImage15updatePaintNodeEP7QSGNodePN10QQuickItem19UpdatePaintNodeDataE@Base 6.2.0
 _ZN11QQuickImage16releaseResourcesEv@Base 6.2.0
 _ZN11QQuickImage16staticMetaObjectE@Base 6.2.0
 _ZN11QQuickImage20autoTransformChangedEv@Base 6.2.0
 _ZN11QQuickImage20invalidateSceneGraphEv@Base 6.2.0
 _ZN11QQuickImage20setVerticalAlignmentENS_10VAlignmentE@Base 6.2.0
 _ZN11QQuickImage21updatePaintedGeometryEv@Base 6.2.0
 _ZN11QQuickImage22paintedGeometryChangedEv@Base 6.2.0
 _ZN11QQuickImage22setHorizontalAlignmentENS_10HAlignmentE@Base 6.2.0
 _ZN11QQuickImage24verticalAlignmentChangedENS_10VAlignmentE@Base 6.2.0
 _ZN11QQuickImage26horizontalAlignmentChangedENS_10HAlignmentE@Base 6.2.0
 _ZN11QQuickImage9setMipmapEb@Base 6.2.0
 _ZN11QQuickImageC1EP10QQuickItem@Base 6.2.0
 _ZN11QQuickImageC1ER18QQuickImagePrivateP10QQuickItem@Base 6.2.0
 _ZN11QQuickImageC2EP10QQuickItem@Base 6.2.0
 _ZN11QQuickImageC2ER18QQuickImagePrivateP10QQuickItem@Base 6.2.0
 _ZN11QQuickImageD0Ev@Base 6.2.0
 _ZN11QQuickImageD1Ev@Base 6.2.0
 _ZN11QQuickImageD2Ev@Base 6.2.0
 _ZN11QQuickPinch11qt_metacallEN11QMetaObject4CallEiPPv@Base 6.2.0
 _ZN11QQuickPinch11qt_metacastEPKc@Base 6.2.0
 _ZN11QQuickPinch13activeChangedEv@Base 6.2.0
 _ZN11QQuickPinch13targetChangedEv@Base 6.2.0
 _ZN11QQuickPinch15dragAxisChangedEv@Base 6.2.0
 _ZN11QQuickPinch15maximumXChangedEv@Base 6.2.0
 _ZN11QQuickPinch15maximumYChangedEv@Base 6.2.0
 _ZN11QQuickPinch15minimumXChangedEv@Base 6.2.0
 _ZN11QQuickPinch15minimumYChangedEv@Base 6.2.0
 _ZN11QQuickPinch16staticMetaObjectE@Base 6.2.0
 _ZN11QQuickPinch19maximumScaleChangedEv@Base 6.2.0
 _ZN11QQuickPinch19minimumScaleChangedEv@Base 6.2.0
 _ZN11QQuickPinch22maximumRotationChangedEv@Base 6.2.0
 _ZN11QQuickPinch22minimumRotationChangedEv@Base 6.2.0
 _ZN11QQuickPinchC1Ev@Base 6.2.0
 _ZN11QQuickPinchC2Ev@Base 6.2.0
 _ZN11QQuickScale11qt_metacallEN11QMetaObject4CallEiPPv@Base 6.2.0
 _ZN11QQuickScale11qt_metacastEPKc@Base 6.2.0
 _ZN11QQuickScale12scaleChangedEv@Base 6.2.0
 _ZN11QQuickScale13originChangedEv@Base 6.2.0
 _ZN11QQuickScale13xScaleChangedEv@Base 6.2.0
 _ZN11QQuickScale13yScaleChangedEv@Base 6.2.0
 _ZN11QQuickScale13zScaleChangedEv@Base 6.2.0
 _ZN11QQuickScale16staticMetaObjectE@Base 6.2.0
 _ZN11QQuickScale9setOriginERK9QVector3D@Base 6.2.0
 _ZN11QQuickScale9setXScaleEd@Base 6.2.0
 _ZN11QQuickScale9setYScaleEd@Base 6.2.0
 _ZN11QQuickScale9setZScaleEd@Base 6.2.0
 _ZN11QQuickScaleC1EP7QObject@Base 6.2.0
 _ZN11QQuickScaleC2EP7QObject@Base 6.2.0
 _ZN11QQuickScaleD0Ev@Base 6.2.0
 _ZN11QQuickScaleD1Ev@Base 6.2.0
 _ZN11QQuickScaleD2Ev@Base 6.2.0
 _ZN11QQuickState10setExtendsERK7QString@Base 6.2.0
 _ZN11QQuickState11qt_metacallEN11QMetaObject4CallEiPPv@Base 6.2.0
 _ZN11QQuickState11qt_metacastEPKc@Base 6.2.0
 _ZN11QQuickState13setStateGroupEP16QQuickStateGroup@Base 6.2.0
 _ZN11QQuickState16staticMetaObjectE@Base 6.2.0
 _ZN11QQuickState20addEntryToRevertListERK17QQuickStateAction@Base 6.2.0
 _ZN11QQuickState22addEntriesToRevertListERK5QListI17QQuickStateActionE@Base 6.2.0
 _ZN11QQuickState23changeValueInRevertListEP7QObjectRK7QStringRK8QVariant@Base 6.2.0
 _ZN11QQuickState25changeBindingInRevertListEP7QObjectRK7QString14QQmlAnyBinding@Base 6.2.0
 _ZN11QQuickState25removeEntryFromRevertListEP7QObjectRK7QString@Base 6.2.0
 _ZN11QQuickState30removeAllEntriesFromRevertListEP7QObject@Base 6.2.0
 _ZN11QQuickState5applyEP16QQuickTransitionPS_@Base 6.2.0
 _ZN11QQuickState6cancelEv@Base 6.2.0
 _ZN11QQuickState7changesEv@Base 6.2.0
 _ZN11QQuickState7setNameERK7QString@Base 6.2.0
 _ZN11QQuickState7setWhenEb@Base 6.2.0
 _ZN11QQuickState9completedEv@Base 6.2.0
 _ZN11QQuickStateC1EP7QObject@Base 6.2.0
 _ZN11QQuickStateC2EP7QObject@Base 6.2.0
 _ZN11QQuickStateD0Ev@Base 6.2.0
 _ZN11QQuickStateD1Ev@Base 6.2.0
 _ZN11QQuickStateD2Ev@Base 6.2.0
 _ZN11QQuickStatelsEP20QQuickStateOperation@Base 6.2.0
 _ZN11QSGClipNode11setClipRectERK6QRectF@Base 6.2.0
 _ZN11QSGClipNode16setIsRectangularEb@Base 6.2.0
 _ZN11QSGClipNodeC1Ev@Base 6.2.0
 _ZN11QSGClipNodeC2Ev@Base 6.2.0
 _ZN11QSGClipNodeD0Ev@Base 6.2.0
 _ZN11QSGClipNodeD1Ev@Base 6.2.0
 _ZN11QSGClipNodeD2Ev@Base 6.2.0
 _ZN11QSGGeometry12setLineWidthEf@Base 6.2.0
 _ZN11QSGGeometry14setDrawingModeEj@Base 6.2.0
 _ZN11QSGGeometry18markIndexDataDirtyEv@Base 6.2.0
 _ZN11QSGGeometry18updateRectGeometryEPS_RK6QRectF@Base 6.2.0
 _ZN11QSGGeometry19markVertexDataDirtyEv@Base 6.2.0
 _ZN11QSGGeometry19setIndexDataPatternENS_11DataPatternE@Base 6.2.0
 _ZN11QSGGeometry20setVertexDataPatternENS_11DataPatternE@Base 6.2.0
 _ZN11QSGGeometry25defaultAttributes_Point2DEv@Base 6.2.0
 _ZN11QSGGeometry25updateColoredRectGeometryEPS_RK6QRectF@Base 6.2.0
 _ZN11QSGGeometry26updateTexturedRectGeometryEPS_RK6QRectFS3_@Base 6.2.0
 _ZN11QSGGeometry32defaultAttributes_ColoredPoint2DEv@Base 6.2.0
 _ZN11QSGGeometry33defaultAttributes_TexturedPoint2DEv@Base 6.2.0
 _ZN11QSGGeometry8allocateEii@Base 6.2.0
 _ZN11QSGGeometry9Attribute23createWithAttributeTypeEiiiNS_13AttributeTypeE@Base 6.2.0
 _ZN11QSGGeometry9Attribute6createEiiib@Base 6.2.0
 _ZN11QSGGeometry9indexDataEv@Base 6.2.0
 _ZN11QSGGeometryC1ERKNS_12AttributeSetEiii@Base 6.2.0
 _ZN11QSGGeometryC2ERKNS_12AttributeSetEiii@Base 6.2.0
 _ZN11QSGGeometryD0Ev@Base 6.2.0
 _ZN11QSGGeometryD1Ev@Base 6.2.0
 _ZN11QSGGeometryD2Ev@Base 6.2.0
 _ZN11QSGMaterial7setFlagE6QFlagsINS_4FlagEEb@Base 6.2.0
 _ZN11QSGMaterialC1Ev@Base 6.2.0
 _ZN11QSGMaterialC2Ev@Base 6.2.0
 _ZN11QSGMaterialD0Ev@Base 6.2.0
 _ZN11QSGMaterialD1Ev@Base 6.2.0
 _ZN11QSGMaterialD2Ev@Base 6.2.0
 _ZN11QSGRenderer10preprocessEv@Base 6.2.0
 _ZN11QSGRenderer11nodeChangedEP7QSGNode6QFlagsINS0_13DirtyStateBitEE@Base 6.2.0
 _ZN11QSGRenderer11renderSceneEv@Base 6.2.0
 _ZN11QSGRenderer12renderInlineEv@Base 6.2.0
 _ZN11QSGRenderer13prepareInlineEv@Base 6.2.0
 _ZN11QSGRenderer14setNodeUpdaterEP14QSGNodeUpdater@Base 6.2.0
 _ZN11QSGRenderer17renderSceneInlineEv@Base 6.2.0
 _ZN11QSGRenderer18prepareSceneInlineEv@Base 6.2.0
 _ZN11QSGRenderer20addNodesToPreprocessEP7QSGNode@Base 6.2.0
 _ZN11QSGRenderer23removeNodesToPreprocessEP7QSGNode@Base 6.2.0
 _ZN11QSGRendererC1EP16QSGRenderContext@Base 6.2.0
 _ZN11QSGRendererC2EP16QSGRenderContext@Base 6.2.0
 _ZN11QSGRendererD0Ev@Base 6.2.0
 _ZN11QSGRendererD1Ev@Base 6.2.0
 _ZN11QSGRendererD2Ev@Base 6.2.0
 _ZN11QSGRhiLayer11invalidatedEv@Base 6.2.0
 _ZN11QSGRhiLayer11qt_metacallEN11QMetaObject4CallEiPPv@Base 6.2.0
 _ZN11QSGRhiLayer11qt_metacastEPKc@Base 6.2.0
 _ZN11QSGRhiLayer12setRecursiveEb@Base 6.2.0
 _ZN11QSGRhiLayer13setHasMipmapsEb@Base 6.2.0
 _ZN11QSGRhiLayer13updateTextureEv@Base 6.2.0
 _ZN11QSGRhiLayer14scheduleUpdateEv@Base 6.2.0
 _ZN11QSGRhiLayer16markDirtyTextureEv@Base 6.2.0
 _ZN11QSGRhiLayer16releaseResourcesEv@Base 6.2.0
 _ZN11QSGRhiLayer16staticMetaObjectE@Base 6.2.0
 _ZN11QSGRhiLayer17setMirrorVerticalEb@Base 6.2.0
 _ZN11QSGRhiLayer19setMirrorHorizontalEb@Base 6.2.0
 _ZN11QSGRhiLayer23commitTextureOperationsEP4QRhiP23QRhiResourceUpdateBatch@Base 6.2.0
 _ZN11QSGRhiLayer4grabEv@Base 6.2.0
 _ZN11QSGRhiLayer7setItemEP7QSGNode@Base 6.2.0
 _ZN11QSGRhiLayer7setLiveEb@Base 6.2.0
 _ZN11QSGRhiLayer7setRectERK6QRectF@Base 6.2.0
 _ZN11QSGRhiLayer7setSizeERK5QSize@Base 6.2.0
 _ZN11QSGRhiLayer9setFormatEj@Base 6.2.0
 _ZN11QSGRhiLayerC1EP16QSGRenderContext@Base 6.2.0
 _ZN11QSGRhiLayerC2EP16QSGRenderContext@Base 6.2.0
 _ZN11QSGRhiLayerD0Ev@Base 6.2.0
 _ZN11QSGRhiLayerD1Ev@Base 6.2.0
 _ZN11QSGRhiLayerD2Ev@Base 6.2.0
 _ZN11QSGRootNode16notifyNodeChangeEP7QSGNode6QFlagsINS0_13DirtyStateBitEE@Base 6.2.0
 _ZN11QSGRootNodeC1Ev@Base 6.2.0
 _ZN11QSGRootNodeC2Ev@Base 6.2.0
 _ZN11QSGRootNodeD0Ev@Base 6.2.0
 _ZN11QSGRootNodeD1Ev@Base 6.2.0
 _ZN11QSGRootNodeD2Ev@Base 6.2.0
 _ZN12QQuickColumn11qt_metacallEN11QMetaObject4CallEiPPv@Base 6.2.0
 _ZN12QQuickColumn11qt_metacastEPKc@Base 6.2.0
 _ZN12QQuickColumn13doPositioningEP6QSizeF@Base 6.2.0
 _ZN12QQuickColumn16staticMetaObjectE@Base 6.2.0
 _ZN12QQuickColumn24reportConflictingAnchorsEv@Base 6.2.0
 _ZN12QQuickColumnC1EP10QQuickItem@Base 6.2.0
 _ZN12QQuickColumnC2EP10QQuickItem@Base 6.2.0
 _ZN12QQuickLoader10itemChangeEN10QQuickItem10ItemChangeERKNS0_14ItemChangeDataE@Base 6.2.0
 _ZN12QQuickLoader11itemChangedEv@Base 6.2.0
 _ZN12QQuickLoader11qt_metacallEN11QMetaObject4CallEiPPv@Base 6.2.0
 _ZN12QQuickLoader11qt_metacastEPKc@Base 6.2.0
 _ZN12QQuickLoader13activeChangedEv@Base 6.2.0
 _ZN12QQuickLoader13sourceChangedEv@Base 6.2.0
 _ZN12QQuickLoader13statusChangedEv@Base 6.2.0
 _ZN12QQuickLoader14geometryChangeERK6QRectFS2_@Base 6.2.0
 _ZN12QQuickLoader14loadFromSourceEv@Base 6.2.0
 _ZN12QQuickLoader15progressChangedEv@Base 6.2.0
 _ZN12QQuickLoader15setAsynchronousEb@Base 6.2.0
 _ZN12QQuickLoader16staticMetaObjectE@Base 6.2.0
 _ZN12QQuickLoader17componentCompleteEv@Base 6.2.0
 _ZN12QQuickLoader18setSourceComponentEP13QQmlComponent@Base 6.2.0
 _ZN12QQuickLoader19asynchronousChangedEv@Base 6.2.0
 _ZN12QQuickLoader20resetSourceComponentEv@Base 6.2.0
 _ZN12QQuickLoader22sourceComponentChangedEv@Base 6.2.0
 _ZN12QQuickLoader23loadFromSourceComponentEv@Base 6.2.0
 _ZN12QQuickLoader6loadedEv@Base 6.2.0
 _ZN12QQuickLoader9setActiveEb@Base 6.2.0
 _ZN12QQuickLoader9setSourceEP14QQmlV4Function@Base 6.2.0
 _ZN12QQuickLoader9setSourceERK4QUrl@Base 6.2.0
 _ZN12QQuickLoader9setSourceERK4QUrlb@Base 6.2.0
 _ZN12QQuickLoaderC1EP10QQuickItem@Base 6.2.0
 _ZN12QQuickLoaderC2EP10QQuickItem@Base 6.2.0
 _ZN12QQuickLoaderD0Ev@Base 6.2.0
 _ZN12QQuickLoaderD1Ev@Base 6.2.0
 _ZN12QQuickLoaderD2Ev@Base 6.2.0
 _ZN12QQuickPixmap10purgeCacheEv@Base 6.2.0
 _ZN12QQuickPixmap15connectFinishedEP7QObjectPKc@Base 6.2.0
 _ZN12QQuickPixmap15connectFinishedEP7QObjecti@Base 6.2.0
 _ZN12QQuickPixmap17itemGrabberSchemeE@Base 6.2.0
 _ZN12QQuickPixmap23connectDownloadProgressEP7QObjectPKc@Base 6.2.0
 _ZN12QQuickPixmap23connectDownloadProgressEP7QObjecti@Base 6.2.0
 _ZN12QQuickPixmap4loadEP10QQmlEngineRK4QUrl6QFlagsINS_6OptionEE@Base 6.2.0
 _ZN12QQuickPixmap4loadEP10QQmlEngineRK4QUrl@Base 6.2.0
 _ZN12QQuickPixmap4loadEP10QQmlEngineRK4QUrlRK5QRectRK5QSize6QFlagsINS_6OptionEE@Base 6.2.0
 _ZN12QQuickPixmap4loadEP10QQmlEngineRK4QUrlRK5QRectRK5QSize6QFlagsINS_6OptionEERK26QQuickImageProviderOptionsii@Base 6.2.0
 _ZN12QQuickPixmap4loadEP10QQmlEngineRK4QUrlRK5QRectRK5QSize@Base 6.2.0
 _ZN12QQuickPixmap5clearEP7QObject@Base 6.2.0
 _ZN12QQuickPixmap5clearEv@Base 6.2.0
 _ZN12QQuickPixmap8isCachedERK4QUrlRK5QRectRK5QSizeiRK26QQuickImageProviderOptions@Base 6.2.0
 _ZN12QQuickPixmap8setImageERK6QImage@Base 6.2.0
 _ZN12QQuickPixmap9setPixmapERKS_@Base 6.2.0
 _ZN12QQuickPixmapC1EP10QQmlEngineRK4QUrl@Base 6.2.0
 _ZN12QQuickPixmapC1EP10QQmlEngineRK4QUrlRK5QRectRK5QSize@Base 6.2.0
 _ZN12QQuickPixmapC1ERK4QUrlRK6QImage@Base 6.2.0
 _ZN12QQuickPixmapC1Ev@Base 6.2.0
 _ZN12QQuickPixmapC2EP10QQmlEngineRK4QUrl@Base 6.2.0
 _ZN12QQuickPixmapC2EP10QQmlEngineRK4QUrlRK5QRectRK5QSize@Base 6.2.0
 _ZN12QQuickPixmapC2ERK4QUrlRK6QImage@Base 6.2.0
 _ZN12QQuickPixmapC2Ev@Base 6.2.0
 _ZN12QQuickPixmapD1Ev@Base 6.2.0
 _ZN12QQuickPixmapD2Ev@Base 6.2.0
 _ZN12QQuickScreen11qt_metacallEN11QMetaObject4CallEiPPv@Base 6.2.0
 _ZN12QQuickScreen11qt_metacastEPKc@Base 6.2.0
 _ZN12QQuickScreen16staticMetaObjectE@Base 6.2.0
 _ZN12QQuickSprite11qt_metacallEN11QMetaObject4CallEiPPv@Base 6.2.0
 _ZN12QQuickSprite11qt_metacastEPKc@Base 6.2.0
 _ZN12QQuickSprite13frameXChangedEi@Base 6.2.0
 _ZN12QQuickSprite13frameYChangedEi@Base 6.2.0
 _ZN12QQuickSprite13sourceChangedE4QUrl@Base 6.2.0
 _ZN12QQuickSprite14reverseChangedEb@Base 6.2.0
 _ZN12QQuickSprite16frameRateChangedEd@Base 6.2.0
 _ZN12QQuickSprite16frameSyncChangedEb@Base 6.2.0
 _ZN12QQuickSprite16staticMetaObjectE@Base 6.2.0
 _ZN12QQuickSprite17frameCountChangedEi@Base 6.2.0
 _ZN12QQuickSprite17frameWidthChangedEi@Base 6.2.0
 _ZN12QQuickSprite17startImageLoadingEv@Base 6.2.0
 _ZN12QQuickSprite18frameHeightChangedEi@Base 6.2.0
 _ZN12QQuickSprite20frameDurationChangedEi@Base 6.2.0
 _ZN12QQuickSprite25frameRateVariationChangedEd@Base 6.2.0
 _ZN12QQuickSprite29frameDurationVariationChangedEi@Base 6.2.0
 _ZN12QQuickSpriteC1EP7QObject@Base 6.2.0
 _ZN12QQuickSpriteC2EP7QObject@Base 6.2.0
 _ZN12QQuickSpriteD0Ev@Base 6.2.0
 _ZN12QQuickSpriteD1Ev@Base 6.2.0
 _ZN12QQuickSpriteD2Ev@Base 6.2.0
 _ZN12QQuickWindow10closeEventEP11QCloseEvent@Base 6.2.0
 _ZN12QQuickWindow10grabWindowEv@Base 6.2.0
 _ZN12QQuickWindow10wheelEventEP11QWheelEvent@Base 6.2.0
 _ZN12QQuickWindow11exposeEventEP12QExposeEvent@Base 6.2.0
 _ZN12QQuickWindow11graphicsApiEv@Base 6.2.0
 _ZN12QQuickWindow11maybeUpdateEv@Base 6.2.0
 _ZN12QQuickWindow11qt_metacallEN11QMetaObject4CallEiPPv@Base 6.2.0
 _ZN12QQuickWindow11qt_metacastEPKc@Base 6.2.0
 _ZN12QQuickWindow11resizeEventEP12QResizeEvent@Base 6.2.0
 _ZN12QQuickWindow11tabletEventEP12QTabletEvent@Base 6.2.0
 _ZN12QQuickWindow12colorChangedERK6QColor@Base 6.2.0
 _ZN12QQuickWindow12focusInEventEP11QFocusEvent@Base 6.2.0
 _ZN12QQuickWindow12frameSwappedEv@Base 6.2.0
 _ZN12QQuickWindow13afterFrameEndEv@Base 6.2.0
 _ZN12QQuickWindow13focusOutEventEP11QFocusEvent@Base 6.2.0
 _ZN12QQuickWindow13keyPressEventEP9QKeyEvent@Base 6.2.0
 _ZN12QQuickWindow14afterAnimatingEv@Base 6.2.0
 _ZN12QQuickWindow14afterRenderingEv@Base 6.2.0
 _ZN12QQuickWindow14mouseMoveEventEP11QMouseEvent@Base 6.2.0
 _ZN12QQuickWindow14paletteChangedEv@Base 6.2.0
 _ZN12QQuickWindow14paletteCreatedEv@Base 6.2.0
 _ZN12QQuickWindow14setGraphicsApiEN20QSGRendererInterface11GraphicsApiE@Base 6.2.0
 _ZN12QQuickWindow14textRenderTypeEv@Base 6.2.0
 _ZN12QQuickWindow15beforeRenderingEv@Base 6.2.0
 _ZN12QQuickWindow15keyReleaseEventEP9QKeyEvent@Base 6.2.0
 _ZN12QQuickWindow15mousePressEventEP11QMouseEvent@Base 6.2.0
 _ZN12QQuickWindow15sceneGraphErrorENS_15SceneGraphErrorERK7QString@Base 6.2.0
 _ZN12QQuickWindow15setRenderTargetERK18QQuickRenderTarget@Base 6.2.0
 _ZN12QQuickWindow16beforeFrameBeginEv@Base 6.2.0
 _ZN12QQuickWindow16releaseResourcesEv@Base 6.2.0
 _ZN12QQuickWindow16runJobsAfterSwapEv@Base 6.2.0
 _ZN12QQuickWindow16staticMetaObjectE@Base 6.2.0
 _ZN12QQuickWindow17cleanupSceneGraphEv@Base 6.2.0
 _ZN12QQuickWindow17graphicsStateInfoEv@Base 6.2.0
 _ZN12QQuickWindow17mouseReleaseEventEP11QMouseEvent@Base 6.2.0
 _ZN12QQuickWindow17sceneGraphBackendEv@Base 6.2.0
 _ZN12QQuickWindow17scheduleRenderJobEP9QRunnableNS_11RenderStageE@Base 6.2.0
 _ZN12QQuickWindow17setGraphicsDeviceERK20QQuickGraphicsDevice@Base 6.2.0
 _ZN12QQuickWindow17setTextRenderTypeENS_14TextRenderTypeE@Base 6.2.0
 _ZN12QQuickWindow18afterSynchronizingEv@Base 6.2.0
 _ZN12QQuickWindow18physicalDpiChangedEv@Base 6.2.0
 _ZN12QQuickWindow19beforeSynchronizingEv@Base 6.2.0
 _ZN12QQuickWindow19endExternalCommandsEv@Base 6.2.0
 _ZN12QQuickWindow19handleScreenChangedEP7QScreen@Base 6.2.0
 _ZN12QQuickWindow20setSceneGraphBackendERK7QString@Base 6.2.0
 _ZN12QQuickWindow21beginExternalCommandsEv@Base 6.2.0
 _ZN12QQuickWindow21hasDefaultAlphaBufferEv@Base 6.2.0
 _ZN12QQuickWindow21mouseDoubleClickEventEP11QMouseEvent@Base 6.2.0
 _ZN12QQuickWindow21sceneGraphAboutToStopEv@Base 6.2.0
 _ZN12QQuickWindow21sceneGraphInitializedEv@Base 6.2.0
 _ZN12QQuickWindow21sceneGraphInvalidatedEv@Base 6.2.0
 _ZN12QQuickWindow21setDefaultAlphaBufferEb@Base 6.2.0
 _ZN12QQuickWindow21setPersistentGraphicsEb@Base 6.2.0
 _ZN12QQuickWindow22activeFocusItemChangedEv@Base 6.2.0
 _ZN12QQuickWindow23setPersistentSceneGraphEb@Base 6.2.0
 _ZN12QQuickWindow24afterRenderPassRecordingEv@Base 6.2.0
 _ZN12QQuickWindow24setGraphicsConfigurationERK27QQuickGraphicsConfiguration@Base 6.2.0
 _ZN12QQuickWindow25beforeRenderPassRecordingEv@Base 6.2.0
 _ZN12QQuickWindow25setTransientParent_helperEPS_@Base 6.2.0
 _ZN12QQuickWindow29handleApplicationStateChangedEN2Qt16ApplicationStateE@Base 6.2.0
 _ZN12QQuickWindow5eventEP6QEvent@Base 6.2.0
 _ZN12QQuickWindow6updateEv@Base 6.2.0
 _ZN12QQuickWindow7closingEP16QQuickCloseEvent@Base 6.2.0
 _ZN12QQuickWindow8setColorERK6QColor@Base 6.2.0
 _ZN12QQuickWindow9hideEventEP10QHideEvent@Base 6.2.0
 _ZN12QQuickWindow9showEventEP10QShowEvent@Base 6.2.0
 _ZN12QQuickWindowC1EP19QQuickRenderControl@Base 6.2.0
 _ZN12QQuickWindowC1EP7QWindow@Base 6.2.0
 _ZN12QQuickWindowC1ER19QQuickWindowPrivateP19QQuickRenderControl@Base 6.2.0
 _ZN12QQuickWindowC1ER19QQuickWindowPrivateP7QWindow@Base 6.2.0
 _ZN12QQuickWindowC2EP19QQuickRenderControl@Base 6.2.0
 _ZN12QQuickWindowC2EP7QWindow@Base 6.2.0
 _ZN12QQuickWindowC2ER19QQuickWindowPrivateP19QQuickRenderControl@Base 6.2.0
 _ZN12QQuickWindowC2ER19QQuickWindowPrivateP7QWindow@Base 6.2.0
 _ZN12QQuickWindowD0Ev@Base 6.2.0
 _ZN12QQuickWindowD1Ev@Base 6.2.0
 _ZN12QQuickWindowD2Ev@Base 6.2.0
 _ZN12QSGImageNode15rebuildGeometryEP11QSGGeometryP10QSGTextureRK6QRectFS4_6QFlagsINS_31TextureCoordinatesTransformFlagEE@Base 6.2.0
 _ZN13QMetaSequence12MetaSequenceI5QListI4QUrlEE5valueE@Base 6.2.0
 _ZN13QMetaSequence12MetaSequenceI5QListI7QPointFEE5valueE@Base 6.2.0
 _ZN13QMetaSequence12MetaSequenceI5QListI9QPolygonFEE5valueE@Base 6.2.0
 _ZN13QMetaSequence12MetaSequenceI5QListIP7QObjectEE5valueE@Base 6.2.0
 _ZN13QMetaSequence12MetaSequenceI5QListIS1_I7QPointFEEE5valueE@Base 6.2.0
 _ZN13QMetaSequence12MetaSequenceI5QListIiEE5valueE@Base 6.2.0
 _ZN13QQuickAnchors10classBeginEv@Base 6.2.0
 _ZN13QQuickAnchors10resetRightEv@Base 6.2.0
 _ZN13QQuickAnchors10setMarginsEd@Base 6.2.0
 _ZN13QQuickAnchors10topChangedEv@Base 6.2.0
 _ZN13QQuickAnchors11fillChangedEv@Base 6.2.0
 _ZN13QQuickAnchors11leftChangedEv@Base 6.2.0
 _ZN13QQuickAnchors11qt_metacallEN11QMetaObject4CallEiPPv@Base 6.2.0
 _ZN13QQuickAnchors11qt_metacastEPKc@Base 6.2.0
 _ZN13QQuickAnchors11resetBottomEv@Base 6.2.0
 _ZN13QQuickAnchors11setBaselineERK16QQuickAnchorLine@Base 6.2.0
 _ZN13QQuickAnchors11setCenterInEP10QQuickItem@Base 6.2.0
 _ZN13QQuickAnchors12rightChangedEv@Base 6.2.0
 _ZN13QQuickAnchors12setTopMarginEd@Base 6.2.0
 _ZN13QQuickAnchors13bottomChangedEv@Base 6.2.0
 _ZN13QQuickAnchors13resetBaselineEv@Base 6.2.0
 _ZN13QQuickAnchors13resetCenterInEv@Base 6.2.0
 _ZN13QQuickAnchors13setLeftMarginEd@Base 6.2.0
 _ZN13QQuickAnchors14marginsChangedEv@Base 6.2.0
 _ZN13QQuickAnchors14resetTopMarginEv@Base 6.2.0
 _ZN13QQuickAnchors14setRightMarginEd@Base 6.2.0
 _ZN13QQuickAnchors15baselineChangedEv@Base 6.2.0
 _ZN13QQuickAnchors15centerInChangedEv@Base 6.2.0
 _ZN13QQuickAnchors15resetLeftMarginEv@Base 6.2.0
 _ZN13QQuickAnchors15setBottomMarginEd@Base 6.2.0
 _ZN13QQuickAnchors16resetRightMarginEv@Base 6.2.0
 _ZN13QQuickAnchors16staticMetaObjectE@Base 6.2.0
 _ZN13QQuickAnchors16topMarginChangedEv@Base 6.2.0
 _ZN13QQuickAnchors17componentCompleteEv@Base 6.2.0
 _ZN13QQuickAnchors17leftMarginChangedEv@Base 6.2.0
 _ZN13QQuickAnchors17resetBottomMarginEv@Base 6.2.0
 _ZN13QQuickAnchors17setBaselineOffsetEd@Base 6.2.0
 _ZN13QQuickAnchors17setVerticalCenterERK16QQuickAnchorLine@Base 6.2.0
 _ZN13QQuickAnchors18rightMarginChangedEv@Base 6.2.0
 _ZN13QQuickAnchors19bottomMarginChangedEv@Base 6.2.0
 _ZN13QQuickAnchors19resetVerticalCenterEv@Base 6.2.0
 _ZN13QQuickAnchors19setHorizontalCenterERK16QQuickAnchorLine@Base 6.2.0
 _ZN13QQuickAnchors20centerAlignedChangedEv@Base 6.2.0
 _ZN13QQuickAnchors20setAlignWhenCenteredEb@Base 6.2.0
 _ZN13QQuickAnchors21baselineOffsetChangedEv@Base 6.2.0
 _ZN13QQuickAnchors21resetHorizontalCenterEv@Base 6.2.0
 _ZN13QQuickAnchors21verticalCenterChangedEv@Base 6.2.0
 _ZN13QQuickAnchors23horizontalCenterChangedEv@Base 6.2.0
 _ZN13QQuickAnchors23setVerticalCenterOffsetEd@Base 6.2.0
 _ZN13QQuickAnchors25setHorizontalCenterOffsetEd@Base 6.2.0
 _ZN13QQuickAnchors27verticalCenterOffsetChangedEv@Base 6.2.0
 _ZN13QQuickAnchors29horizontalCenterOffsetChangedEv@Base 6.2.0
 _ZN13QQuickAnchors6setTopERK16QQuickAnchorLine@Base 6.2.0
 _ZN13QQuickAnchors7setFillEP10QQuickItem@Base 6.2.0
 _ZN13QQuickAnchors7setLeftERK16QQuickAnchorLine@Base 6.2.0
 _ZN13QQuickAnchors8mirroredEv@Base 6.2.0
 _ZN13QQuickAnchors8resetTopEv@Base 6.2.0
 _ZN13QQuickAnchors8setRightERK16QQuickAnchorLine@Base 6.2.0
 _ZN13QQuickAnchors9resetFillEv@Base 6.2.0
 _ZN13QQuickAnchors9resetLeftEv@Base 6.2.0
 _ZN13QQuickAnchors9setBottomERK16QQuickAnchorLine@Base 6.2.0
 _ZN13QQuickAnchorsC1EP10QQuickItemP7QObject@Base 6.2.0
 _ZN13QQuickAnchorsC2EP10QQuickItemP7QObject@Base 6.2.0
 _ZN13QQuickAnchorsD0Ev@Base 6.2.0
 _ZN13QQuickAnchorsD1Ev@Base 6.2.0
 _ZN13QQuickAnchorsD2Ev@Base 6.2.0
 _ZN13QQuickPalette11qt_metacallEN11QMetaObject4CallEiPPv@Base 6.2.0
 _ZN13QQuickPalette11qt_metacastEPKc@Base 6.2.0
 _ZN13QQuickPalette11setDisabledEP16QQuickColorGroup@Base 6.2.0
 _ZN13QQuickPalette11setInactiveEP16QQuickColorGroup@Base 6.2.0
 _ZN13QQuickPalette12fromQPaletteE8QPalette@Base 6.2.0
 _ZN13QQuickPalette13activeChangedEv@Base 6.2.0
 (optional=templinst)_ZN13QQuickPalette13setColorGroupEN8QPalette10ColorGroupERK8QPointerI16QQuickColorGroupEMS_FvvE@Base 6.2.0
 _ZN13QQuickPalette14inheritPaletteERK8QPalette@Base 6.2.0
 _ZN13QQuickPalette15disabledChangedEv@Base 6.2.0
 _ZN13QQuickPalette15inactiveChangedEv@Base 6.2.0
 _ZN13QQuickPalette15setCurrentGroupEN8QPalette10ColorGroupE@Base 6.2.0
 _ZN13QQuickPalette16staticMetaObjectE@Base 6.2.0
 _ZN13QQuickPalette18registerColorGroupEP16QQuickColorGroupN8QPalette10ColorGroupE@Base 6.2.0
 _ZN13QQuickPalette18setPaletteProviderEPK29QQuickAbstractPaletteProvider@Base 6.2.0
 _ZN13QQuickPalette5resetEv@Base 6.2.0
 _ZN13QQuickPalette9setActiveEP16QQuickColorGroup@Base 6.2.0
 _ZN13QQuickPaletteC1EP7QObject@Base 6.2.0
 _ZN13QQuickPaletteC2EP7QObject@Base 6.2.0
 _ZN13QQuickPathArc10setRadiusXEd@Base 6.2.0
 _ZN13QQuickPathArc10setRadiusYEd@Base 6.2.0
 _ZN13QQuickPathArc11qt_metacallEN11QMetaObject4CallEiPPv@Base 6.2.0
 _ZN13QQuickPathArc11qt_metacastEPKc@Base 6.2.0
 _ZN13QQuickPathArc12setDirectionENS_12ArcDirectionE@Base 6.2.0
 _ZN13QQuickPathArc14radiusXChangedEv@Base 6.2.0
 _ZN13QQuickPathArc14radiusYChangedEv@Base 6.2.0
 _ZN13QQuickPathArc14setUseLargeArcEb@Base 6.2.0
 _ZN13QQuickPathArc16directionChangedEv@Base 6.2.0
 _ZN13QQuickPathArc16setXAxisRotationEd@Base 6.2.0
 _ZN13QQuickPathArc16staticMetaObjectE@Base 6.2.0
 _ZN13QQuickPathArc18useLargeArcChangedEv@Base 6.2.0
 _ZN13QQuickPathArc20xAxisRotationChangedEv@Base 6.2.0
 _ZN13QQuickPathArc9addToPathER12QPainterPathRK14QQuickPathData@Base 6.2.0
 _ZN13QQuickPathSvg11pathChangedEv@Base 6.2.0
 _ZN13QQuickPathSvg11qt_metacallEN11QMetaObject4CallEiPPv@Base 6.2.0
 _ZN13QQuickPathSvg11qt_metacastEPKc@Base 6.2.0
 _ZN13QQuickPathSvg16staticMetaObjectE@Base 6.2.0
 _ZN13QQuickPathSvg7setPathERK7QString@Base 6.2.0
 _ZN13QQuickPathSvg9addToPathER12QPainterPathRK14QQuickPathData@Base 6.2.0
 _ZN13QSGNodeDumper13visitChildrenEP7QSGNode@Base 6.2.0
 _ZN13QSGNodeDumper4dumpEP7QSGNode@Base 6.2.0
 _ZN13QSGNodeDumper9visitNodeEP7QSGNode@Base 6.2.0
 _ZN13QSGRenderLoop10s_instanceE@Base 6.2.0
 _ZN13QSGRenderLoop11qt_metacallEN11QMetaObject4CallEiPPv@Base 6.2.0
 _ZN13QSGRenderLoop11qt_metacastEPKc@Base 6.2.0
 _ZN13QSGRenderLoop11setInstanceEPS_@Base 6.2.0
 _ZN13QSGRenderLoop14timeToIncubateEv@Base 6.2.0
 _ZN13QSGRenderLoop16staticMetaObjectE@Base 6.2.0
 _ZN13QSGRenderLoop28handleContextCreationFailureEP12QQuickWindow@Base 6.2.0
 _ZN13QSGRenderLoop7cleanupEv@Base 6.2.0
 _ZN13QSGRenderLoop7postJobEP12QQuickWindowP9QRunnable@Base 6.2.0
 _ZN13QSGRenderLoop8instanceEv@Base 6.2.0
 _ZN13QSGRenderLoopD0Ev@Base 6.2.0
 _ZN13QSGRenderLoopD1Ev@Base 6.2.0
 _ZN13QSGRenderLoopD2Ev@Base 6.2.0
 _ZN13QSGRenderNode11RenderStateD0Ev@Base 6.2.0
 _ZN13QSGRenderNode11RenderStateD1Ev@Base 6.2.0
 _ZN13QSGRenderNode11RenderStateD2Ev@Base 6.2.0
 _ZN13QSGRenderNode16releaseResourcesEv@Base 6.2.0
 _ZN13QSGRenderNode7prepareEv@Base 6.2.0
 _ZN13QSGRenderNodeC1Ev@Base 6.2.0
 _ZN13QSGRenderNodeC2Ev@Base 6.2.0
 _ZN13QSGRenderNodeD0Ev@Base 6.2.0
 _ZN13QSGRenderNodeD1Ev@Base 6.2.0
 _ZN13QSGRenderNodeD2Ev@Base 6.2.0
 _ZN13QSGRhiSupport10destroyRhiEP4QRhi@Base 6.2.0
 _ZN13QSGRhiSupport11rifResourceEN20QSGRendererInterface8ResourceEPK23QSGDefaultRenderContextPK12QQuickWindow@Base 6.2.0
 _ZN13QSGRhiSupport13applySettingsEv@Base 6.2.0
 _ZN13QSGRhiSupport13grabOffscreenEP12QQuickWindow@Base 6.2.0
 _ZN13QSGRhiSupport15checkEnvQSgInfoEv@Base 6.2.0
 _ZN13QSGRhiSupport17instance_internalEv@Base 6.2.0
 _ZN13QSGRhiSupport19prepareWindowForRhiEP12QQuickWindow@Base 6.2.0
 _ZN13QSGRhiSupport21defaultVulkanInstanceEv@Base 6.2.0
 _ZN13QSGRhiSupport22adjustToPlatformQuirksEv@Base 6.2.0
 _ZN13QSGRhiSupport26grabAndBlockInCurrentFrameEP4QRhiP17QRhiCommandBufferP11QRhiTexture@Base 6.2.0
 _ZN13QSGRhiSupport27maybeCreateOffscreenSurfaceEP7QWindow@Base 6.2.0
 _ZN13QSGRhiSupport28cleanupDefaultVulkanInstanceEv@Base 6.2.0
 _ZN13QSGRhiSupport33chooseSampleCountForWindowWithRhiEP7QWindowP4QRhi@Base 6.2.0
 _ZN13QSGRhiSupport8instanceEv@Base 6.2.0
 _ZN13QSGRhiSupport9configureEN20QSGRendererInterface11GraphicsApiE@Base 6.2.0
 _ZN13QSGRhiSupport9createRhiEP12QQuickWindowP17QOffscreenSurface@Base 6.2.0
 _ZN13QSGRhiSupportC1Ev@Base 6.2.0
 _ZN13QSGRhiSupportC2Ev@Base 6.2.0
 _ZN14QQuickAnimator10transitionER5QListI17QQuickStateActionERS0_I12QQmlPropertyEN23QQuickAbstractAnimation19TransitionDirectionEP7QObject@Base 6.2.0
 _ZN14QQuickAnimator11fromChangedEd@Base 6.2.0
 _ZN14QQuickAnimator11qt_metacallEN11QMetaObject4CallEiPPv@Base 6.2.0
 _ZN14QQuickAnimator11qt_metacastEPKc@Base 6.2.0
 _ZN14QQuickAnimator11setDurationEi@Base 6.2.0
 _ZN14QQuickAnimator13easingChangedERK12QEasingCurve@Base 6.2.0
 _ZN14QQuickAnimator13setTargetItemEP10QQuickItem@Base 6.2.0
 _ZN14QQuickAnimator15durationChangedEi@Base 6.2.0
 _ZN14QQuickAnimator16staticMetaObjectE@Base 6.2.0
 _ZN14QQuickAnimator17targetItemChangedEP10QQuickItem@Base 6.2.0
 _ZN14QQuickAnimator5setToEd@Base 6.2.0
 _ZN14QQuickAnimator7setFromEd@Base 6.2.0
 _ZN14QQuickAnimator9setEasingERK12QEasingCurve@Base 6.2.0
 _ZN14QQuickAnimator9toChangedEd@Base 6.2.0
 _ZN14QQuickAnimatorC1EP7QObject@Base 6.2.0
 _ZN14QQuickAnimatorC1ER21QQuickAnimatorPrivateP7QObject@Base 6.2.0
 _ZN14QQuickAnimatorC2EP7QObject@Base 6.2.0
 _ZN14QQuickAnimatorC2ER21QQuickAnimatorPrivateP7QObject@Base 6.2.0
 _ZN14QQuickBehavior10setEnabledEb@Base 6.2.0
 _ZN14QQuickBehavior11qt_metacallEN11QMetaObject4CallEiPPv@Base 6.2.0
 _ZN14QQuickBehavior11qt_metacastEPKc@Base 6.2.0
 _ZN14QQuickBehavior12setAnimationEP23QQuickAbstractAnimation@Base 6.2.0
 _ZN14QQuickBehavior14enabledChangedEv@Base 6.2.0
 _ZN14QQuickBehavior16staticMetaObjectE@Base 6.2.0
 _ZN14QQuickBehavior18componentFinalizedEv@Base 6.2.0
 _ZN14QQuickBehavior18targetValueChangedEv@Base 6.2.0
 _ZN14QQuickBehavior21targetPropertyChangedEv@Base 6.2.0
 _ZN14QQuickBehavior5writeERK8QVariant@Base 6.2.0
 _ZN14QQuickBehavior8bindableEP16QUntypedBindableS0_@Base 6.2.0
 _ZN14QQuickBehavior9animationEv@Base 6.2.0
 _ZN14QQuickBehavior9setTargetERK12QQmlProperty@Base 6.2.0
 _ZN14QQuickBehaviorC1EP7QObject@Base 6.2.0
 _ZN14QQuickBehaviorC2EP7QObject@Base 6.2.0
 _ZN14QQuickBehaviorD0Ev@Base 6.2.0
 _ZN14QQuickBehaviorD1Ev@Base 6.2.0
 _ZN14QQuickBehaviorD2Ev@Base 6.2.0
 _ZN14QQuickDragAxis10setEnabledEb@Base 6.2.0
 _ZN14QQuickDragAxis10setMaximumEd@Base 6.2.0
 _ZN14QQuickDragAxis10setMinimumEd@Base 6.2.0
 _ZN14QQuickDragAxis11qt_metacallEN11QMetaObject4CallEiPPv@Base 6.2.0
 _ZN14QQuickDragAxis11qt_metacastEPKc@Base 6.2.0
 _ZN14QQuickDragAxis14enabledChangedEv@Base 6.2.0
 _ZN14QQuickDragAxis14maximumChangedEv@Base 6.2.0
 _ZN14QQuickDragAxis14minimumChangedEv@Base 6.2.0
 _ZN14QQuickDragAxis16staticMetaObjectE@Base 6.2.0
 _ZN14QQuickDragAxisC1Ev@Base 6.2.0
 _ZN14QQuickDragAxisC2Ev@Base 6.2.0
 _ZN14QQuickDropArea11keysChangedEv@Base 6.2.0
 _ZN14QQuickDropArea11qt_metacallEN11QMetaObject4CallEiPPv@Base 6.2.0
 _ZN14QQuickDropArea11qt_metacastEPKc@Base 6.2.0
 _ZN14QQuickDropArea13dragMoveEventEP14QDragMoveEvent@Base 6.2.0
 _ZN14QQuickDropArea13sourceChangedEv@Base 6.2.0
 _ZN14QQuickDropArea14dragEnterEventEP15QDragEnterEvent@Base 6.2.0
 _ZN14QQuickDropArea14dragLeaveEventEP15QDragLeaveEvent@Base 6.2.0
 _ZN14QQuickDropArea15positionChangedEP15QQuickDragEvent@Base 6.2.1
 _ZN14QQuickDropArea16staticMetaObjectE@Base 6.2.0
 _ZN14QQuickDropArea19containsDragChangedEv@Base 6.2.0
 _ZN14QQuickDropArea4dragEv@Base 6.2.0
 _ZN14QQuickDropArea6exitedEv@Base 6.2.0
 _ZN14QQuickDropArea7droppedEP15QQuickDragEvent@Base 6.2.1
 _ZN14QQuickDropArea7enteredEP15QQuickDragEvent@Base 6.2.1
 _ZN14QQuickDropArea7setKeysERK5QListI7QStringE@Base 6.2.0
 _ZN14QQuickDropArea9dropEventEP10QDropEvent@Base 6.2.0
 _ZN14QQuickDropAreaC1EP10QQuickItem@Base 6.2.0
 _ZN14QQuickDropAreaC2EP10QQuickItem@Base 6.2.0
 _ZN14QQuickDropAreaD0Ev@Base 6.2.0
 _ZN14QQuickDropAreaD1Ev@Base 6.2.0
 _ZN14QQuickDropAreaD2Ev@Base 6.2.0
 _ZN14QQuickFlipable11backChangedEv@Base 6.2.0
 _ZN14QQuickFlipable11qt_metacallEN11QMetaObject4CallEiPPv@Base 6.2.0
 _ZN14QQuickFlipable11qt_metacastEPKc@Base 6.2.0
 _ZN14QQuickFlipable11sideChangedEv@Base 6.2.0
 _ZN14QQuickFlipable12frontChangedEv@Base 6.2.0
 _ZN14QQuickFlipable12updatePolishEv@Base 6.2.0
 _ZN14QQuickFlipable15retransformBackEv@Base 6.2.0
 _ZN14QQuickFlipable16staticMetaObjectE@Base 6.2.0
 _ZN14QQuickFlipable4backEv@Base 6.2.0
 _ZN14QQuickFlipable7setBackEP10QQuickItem@Base 6.2.0
 _ZN14QQuickFlipable8setFrontEP10QQuickItem@Base 6.2.0
 _ZN14QQuickFlipableC1EP10QQuickItem@Base 6.2.0
 _ZN14QQuickFlipableC2EP10QQuickItem@Base 6.2.0
 _ZN14QQuickFlipableD0Ev@Base 6.2.0
 _ZN14QQuickFlipableD1Ev@Base 6.2.0
 _ZN14QQuickFlipableD2Ev@Base 6.2.0
 _ZN14QQuickGradient11qt_metacallEN11QMetaObject4CallEiPPv@Base 6.2.0
 _ZN14QQuickGradient11qt_metacastEPKc@Base 6.2.0
 _ZN14QQuickGradient14setOrientationENS_11OrientationE@Base 6.2.0
 _ZN14QQuickGradient16staticMetaObjectE@Base 6.2.0
 _ZN14QQuickGradient18orientationChangedEv@Base 6.2.0
 _ZN14QQuickGradient5stopsEv@Base 6.2.0
 _ZN14QQuickGradient7updatedEv@Base 6.2.0
 _ZN14QQuickGradient8doUpdateEv@Base 6.2.0
 _ZN14QQuickGradientC1EP7QObject@Base 6.2.0
 _ZN14QQuickGradientC2EP7QObject@Base 6.2.0
 _ZN14QQuickGradientD0Ev@Base 6.2.0
 _ZN14QQuickGradientD1Ev@Base 6.2.0
 _ZN14QQuickGradientD2Ev@Base 6.2.0
 _ZN14QQuickGridMesh11qt_metacallEN11QMetaObject4CallEiPPv@Base 6.2.0
 _ZN14QQuickGridMesh11qt_metacastEPKc@Base 6.2.0
 _ZN14QQuickGridMesh13setResolutionERK5QSize@Base 6.2.0
 _ZN14QQuickGridMesh14updateGeometryEP11QSGGeometryiiRK6QRectFS4_@Base 6.2.0
 _ZN14QQuickGridMesh16staticMetaObjectE@Base 6.2.0
 _ZN14QQuickGridMesh17resolutionChangedEv@Base 6.2.0
 _ZN14QQuickGridMesh18validateAttributesERK5QListI10QByteArrayEPi@Base 6.2.0
 _ZN14QQuickGridMeshC1EP7QObject@Base 6.2.0
 _ZN14QQuickGridMeshC2EP7QObject@Base 6.2.0
 _ZN14QQuickGridView11flowChangedEv@Base 6.2.0
 _ZN14QQuickGridView11qt_metacallEN11QMetaObject4CallEiPPv@Base 6.2.0
 _ZN14QQuickGridView11qt_metacastEPKc@Base 6.2.0
 _ZN14QQuickGridView11setSnapModeENS_8SnapModeE@Base 6.2.0
 _ZN14QQuickGridView12setCellWidthEd@Base 6.2.0
 _ZN14QQuickGridView13keyPressEventEP9QKeyEvent@Base 6.2.0
 _ZN14QQuickGridView13setCellHeightEd@Base 6.2.0
 _ZN14QQuickGridView13viewportMovedE6QFlagsIN2Qt11OrientationEE@Base 6.2.0
 _ZN14QQuickGridView14geometryChangeERK6QRectFS2_@Base 6.2.0
 _ZN14QQuickGridView15snapModeChangedEv@Base 6.2.0
 _ZN14QQuickGridView16cellWidthChangedEv@Base 6.2.0
 _ZN14QQuickGridView16staticMetaObjectE@Base 6.2.0
 _ZN14QQuickGridView17cellHeightChangedEv@Base 6.2.0
 _ZN14QQuickGridView18moveCurrentIndexUpEv@Base 6.2.0
 _ZN14QQuickGridView20moveCurrentIndexDownEv@Base 6.2.0
 _ZN14QQuickGridView20moveCurrentIndexLeftEv@Base 6.2.0
 _ZN14QQuickGridView21moveCurrentIndexRightEv@Base 6.2.0
 _ZN14QQuickGridView21qmlAttachedPropertiesEP7QObject@Base 6.2.0
 _ZN14QQuickGridView24setHighlightMoveDurationEi@Base 6.2.0
 _ZN14QQuickGridView28highlightMoveDurationChangedEv@Base 6.2.0
 _ZN14QQuickGridView30setHighlightFollowsCurrentItemEb@Base 6.2.0
 _ZN14QQuickGridView7setFlowENS_4FlowE@Base 6.2.0
 _ZN14QQuickGridView8initItemEiP7QObject@Base 6.2.0
 _ZN14QQuickGridViewC1EP10QQuickItem@Base 6.2.0
 _ZN14QQuickGridViewC2EP10QQuickItem@Base 6.2.0
 _ZN14QQuickGridViewD0Ev@Base 6.2.0
 _ZN14QQuickGridViewD1Ev@Base 6.2.0
 _ZN14QQuickGridViewD2Ev@Base 6.2.0
 _ZN14QQuickItemView11animStoppedEv@Base 6.2.0
 _ZN14QQuickItemView11createdItemEiP7QObject@Base 6.2.0
 _ZN14QQuickItemView11forceLayoutEv@Base 6.2.0
 _ZN14QQuickItemView11qt_metacallEN11QMetaObject4CallEiPPv@Base 6.2.0
 _ZN14QQuickItemView11qt_metacastEPKc@Base 6.2.0
 _ZN14QQuickItemView11setContentXEd@Base 6.2.0
 _ZN14QQuickItemView11setContentYEd@Base 6.2.0
 _ZN14QQuickItemView11setDelegateEP13QQmlComponent@Base 6.2.0
 _ZN14QQuickItemView12countChangedEv@Base 6.2.0
 _ZN14QQuickItemView12modelChangedEv@Base 6.2.0
 _ZN14QQuickItemView12modelUpdatedERK13QQmlChangeSetb@Base 6.2.0
 _ZN14QQuickItemView12onItemPooledEiP7QObject@Base 6.2.0
 _ZN14QQuickItemView12onItemReusedEiP7QObject@Base 6.2.0
 _ZN14QQuickItemView12setHighlightEP13QQmlComponent@Base 6.2.0
 _ZN14QQuickItemView12updatePolishEv@Base 6.2.0
 _ZN14QQuickItemView13footerChangedEv@Base 6.2.0
 _ZN14QQuickItemView13headerChangedEv@Base 6.2.0
 _ZN14QQuickItemView13setReuseItemsEb@Base 6.2.0
 _ZN14QQuickItemView14destroyRemovedEv@Base 6.2.0
 _ZN14QQuickItemView14destroyingItemEP7QObject@Base 6.2.0
 _ZN14QQuickItemView14geometryChangeERK6QRectFS2_@Base 6.2.0
 _ZN14QQuickItemView14setCacheBufferEi@Base 6.2.0
 _ZN14QQuickItemView14setWrapEnabledEb@Base 6.2.0
 _ZN14QQuickItemView15delegateChangedEv@Base 6.2.0
 _ZN14QQuickItemView15setCurrentIndexEi@Base 6.2.0
 _ZN14QQuickItemView16highlightChangedEv@Base 6.2.0
 _ZN14QQuickItemView16setAddTransitionEP16QQuickTransition@Base 6.2.0
 _ZN14QQuickItemView16staticMetaObjectE@Base 6.2.0
 _ZN14QQuickItemView17componentCompleteEv@Base 6.2.0
 _ZN14QQuickItemView17footerItemChangedEv@Base 6.2.0
 _ZN14QQuickItemView17headerItemChangedEv@Base 6.2.0
 _ZN14QQuickItemView17positionViewAtEndEv@Base 6.2.0
 _ZN14QQuickItemView17reuseItemsChangedEv@Base 6.2.0
 _ZN14QQuickItemView17setMoveTransitionEP16QQuickTransition@Base 6.2.0
 _ZN14QQuickItemView18cacheBufferChangedEv@Base 6.2.0
 _ZN14QQuickItemView18currentItemChangedEv@Base 6.2.0
 _ZN14QQuickItemView18setLayoutDirectionEN2Qt15LayoutDirectionE@Base 6.2.0
 _ZN14QQuickItemView19currentIndexChangedEv@Base 6.2.0
 _ZN14QQuickItemView19positionViewAtIndexEii@Base 6.2.0
 _ZN14QQuickItemView19setDisplayMarginEndEi@Base 6.2.0
 _ZN14QQuickItemView19setRemoveTransitionEP16QQuickTransition@Base 6.2.0
 _ZN14QQuickItemView20addTransitionChangedEv@Base 6.2.0
 _ZN14QQuickItemView20highlightItemChangedEv@Base 6.2.0
 _ZN14QQuickItemView21moveTransitionChangedEv@Base 6.2.0
 _ZN14QQuickItemView21setHighlightRangeModeENS_18HighlightRangeModeE@Base 6.2.0
 _ZN14QQuickItemView21setPopulateTransitionEP16QQuickTransition@Base 6.2.0
 _ZN14QQuickItemView22layoutDirectionChangedEv@Base 6.2.0
 _ZN14QQuickItemView22setDisplacedTransitionEP16QQuickTransition@Base 6.2.0
 _ZN14QQuickItemView22trackedPositionChangedEv@Base 6.2.0
 _ZN14QQuickItemView23displayMarginEndChangedEv@Base 6.2.0
 _ZN14QQuickItemView23positionViewAtBeginningEv@Base 6.2.0
 _ZN14QQuickItemView23removeTransitionChangedEv@Base 6.2.0
 _ZN14QQuickItemView23setKeyNavigationEnabledEb@Base 6.2.0
 _ZN14QQuickItemView24setHighlightMoveDurationEi@Base 6.2.0
 _ZN14QQuickItemView24setPreferredHighlightEndEd@Base 6.2.0
 _ZN14QQuickItemView25highlightRangeModeChangedEv@Base 6.2.0
 _ZN14QQuickItemView25keyNavigationWrapsChangedEv@Base 6.2.0
 _ZN14QQuickItemView25populateTransitionChangedEv@Base 6.2.0
 _ZN14QQuickItemView25setAddDisplacedTransitionEP16QQuickTransition@Base 6.2.0
 _ZN14QQuickItemView25setDisplayMarginBeginningEi@Base 6.2.0
 _ZN14QQuickItemView26displacedTransitionChangedEv@Base 6.2.0
 _ZN14QQuickItemView26resetPreferredHighlightEndEv@Base 6.2.0
 _ZN14QQuickItemView26setMoveDisplacedTransitionEP16QQuickTransition@Base 6.2.0
 _ZN14QQuickItemView26setPreferredHighlightBeginEd@Base 6.2.0
 _ZN14QQuickItemView26setVerticalLayoutDirectionENS_23VerticalLayoutDirectionE@Base 6.2.0
 _ZN14QQuickItemView27keyNavigationEnabledChangedEv@Base 6.2.0
 _ZN14QQuickItemView28highlightMoveDurationChangedEv@Base 6.2.0
 _ZN14QQuickItemView28preferredHighlightEndChangedEv@Base 6.2.0
 _ZN14QQuickItemView28resetPreferredHighlightBeginEv@Base 6.2.0
 _ZN14QQuickItemView28setRemoveDisplacedTransitionEP16QQuickTransition@Base 6.2.0
 _ZN14QQuickItemView29addDisplacedTransitionChangedEv@Base 6.2.0
 _ZN14QQuickItemView29displayMarginBeginningChangedEv@Base 6.2.0
 _ZN14QQuickItemView30moveDisplacedTransitionChangedEv@Base 6.2.0
 _ZN14QQuickItemView30preferredHighlightBeginChangedEv@Base 6.2.0
 _ZN14QQuickItemView30setHighlightFollowsCurrentItemEb@Base 6.2.0
 _ZN14QQuickItemView30verticalLayoutDirectionChangedEv@Base 6.2.0
 _ZN14QQuickItemView31effectiveLayoutDirectionChangedEv@Base 6.2.0
 _ZN14QQuickItemView32removeDisplacedTransitionChangedEv@Base 6.2.0
 _ZN14QQuickItemView34highlightFollowsCurrentItemChangedEv@Base 6.2.0
 _ZN14QQuickItemView8initItemEiP7QObject@Base 6.2.0
 _ZN14QQuickItemView8setModelERK8QVariant@Base 6.2.0
 _ZN14QQuickItemView9setFooterEP13QQmlComponent@Base 6.2.0
 _ZN14QQuickItemView9setHeaderEP13QQmlComponent@Base 6.2.0
 _ZN14QQuickItemViewC1ER22QQuickFlickablePrivateP10QQuickItem@Base 6.2.0
 _ZN14QQuickItemViewC2ER22QQuickFlickablePrivateP10QQuickItem@Base 6.2.0
 _ZN14QQuickItemViewD0Ev@Base 6.2.0
 _ZN14QQuickItemViewD1Ev@Base 6.2.0
 _ZN14QQuickItemViewD2Ev@Base 6.2.0
 _ZN14QQuickListView10setSpacingEd@Base 6.2.0
 _ZN14QQuickListView11qt_metacallEN11QMetaObject4CallEiPPv@Base 6.2.0
 _ZN14QQuickListView11qt_metacastEPKc@Base 6.2.0
 _ZN14QQuickListView11setSnapModeENS_8SnapModeE@Base 6.2.0
 _ZN14QQuickListView13keyPressEventEP9QKeyEvent@Base 6.2.0
 _ZN14QQuickListView13viewportMovedE6QFlagsIN2Qt11OrientationEE@Base 6.2.0
 _ZN14QQuickListView14geometryChangeERK6QRectFS2_@Base 6.2.0
 _ZN14QQuickListView14setOrientationENS_11OrientationE@Base 6.2.0
 _ZN14QQuickListView14spacingChangedEv@Base 6.2.0
 _ZN14QQuickListView15sectionCriteriaEv@Base 6.2.0
 _ZN14QQuickListView15snapModeChangedEv@Base 6.2.0
 _ZN14QQuickListView16staticMetaObjectE@Base 6.2.0
 _ZN14QQuickListView18orientationChangedEv@Base 6.2.0
 _ZN14QQuickListView20setFooterPositioningENS_17FooterPositioningE@Base 6.2.0
 _ZN14QQuickListView20setHeaderPositioningENS_17HeaderPositioningE@Base 6.2.0
 _ZN14QQuickListView21currentSectionChangedEv@Base 6.2.0
 _ZN14QQuickListView21decrementCurrentIndexEv@Base 6.2.0
 _ZN14QQuickListView21incrementCurrentIndexEv@Base 6.2.0
 _ZN14QQuickListView21qmlAttachedPropertiesEP7QObject@Base 6.2.0
 _ZN14QQuickListView24footerPositioningChangedEv@Base 6.2.0
 _ZN14QQuickListView24headerPositioningChangedEv@Base 6.2.0
 _ZN14QQuickListView24setHighlightMoveDurationEi@Base 6.2.0
 _ZN14QQuickListView24setHighlightMoveVelocityEd@Base 6.2.0
 _ZN14QQuickListView26setHighlightResizeDurationEi@Base 6.2.0
 _ZN14QQuickListView26setHighlightResizeVelocityEd@Base 6.2.0
 _ZN14QQuickListView28highlightMoveVelocityChangedEv@Base 6.2.0
 _ZN14QQuickListView30highlightResizeDurationChangedEv@Base 6.2.0
 _ZN14QQuickListView30highlightResizeVelocityChangedEv@Base 6.2.0
 _ZN14QQuickListView30setHighlightFollowsCurrentItemEb@Base 6.2.0
 _ZN14QQuickListView8initItemEiP7QObject@Base 6.2.0
 _ZN14QQuickListViewC1EP10QQuickItem@Base 6.2.0
 _ZN14QQuickListViewC2EP10QQuickItem@Base 6.2.0
 _ZN14QQuickListViewD0Ev@Base 6.2.0
 _ZN14QQuickListViewD1Ev@Base 6.2.0
 _ZN14QQuickListViewD2Ev@Base 6.2.0
 _ZN14QQuickPathLine11qt_metacallEN11QMetaObject4CallEiPPv@Base 6.2.0
 _ZN14QQuickPathLine11qt_metacastEPKc@Base 6.2.0
 _ZN14QQuickPathLine16staticMetaObjectE@Base 6.2.0
 _ZN14QQuickPathLine9addToPathER12QPainterPathRK14QQuickPathData@Base 6.2.0
 _ZN14QQuickPathMove11qt_metacallEN11QMetaObject4CallEiPPv@Base 6.2.0
 _ZN14QQuickPathMove11qt_metacastEPKc@Base 6.2.0
 _ZN14QQuickPathMove16staticMetaObjectE@Base 6.2.0
 _ZN14QQuickPathMove9addToPathER12QPainterPathRK14QQuickPathData@Base 6.2.0
 _ZN14QQuickPathQuad11qt_metacallEN11QMetaObject4CallEiPPv@Base 6.2.0
 _ZN14QQuickPathQuad11qt_metacastEPKc@Base 6.2.0
 _ZN14QQuickPathQuad11setControlXEd@Base 6.2.0
 _ZN14QQuickPathQuad11setControlYEd@Base 6.2.0
 _ZN14QQuickPathQuad15controlXChangedEv@Base 6.2.0
 _ZN14QQuickPathQuad15controlYChangedEv@Base 6.2.0
 _ZN14QQuickPathQuad16staticMetaObjectE@Base 6.2.0
 _ZN14QQuickPathQuad19hasRelativeControlXEv@Base 6.2.0
 _ZN14QQuickPathQuad19hasRelativeControlYEv@Base 6.2.0
 _ZN14QQuickPathQuad19setRelativeControlXEd@Base 6.2.0
 _ZN14QQuickPathQuad19setRelativeControlYEd@Base 6.2.0
 _ZN14QQuickPathQuad23relativeControlXChangedEv@Base 6.2.0
 _ZN14QQuickPathQuad23relativeControlYChangedEv@Base 6.2.0
 _ZN14QQuickPathQuad9addToPathER12QPainterPathRK14QQuickPathData@Base 6.2.0
 _ZN14QQuickPathText11fontChangedEv@Base 6.2.0
 _ZN14QQuickPathText11qt_metacallEN11QMetaObject4CallEiPPv@Base 6.2.0
 _ZN14QQuickPathText11qt_metacastEPKc@Base 6.2.0
 _ZN14QQuickPathText11textChangedEv@Base 6.2.0
 _ZN14QQuickPathText16staticMetaObjectE@Base 6.2.0
 _ZN14QQuickPathText8xChangedEv@Base 6.2.0
 _ZN14QQuickPathText8yChangedEv@Base 6.2.0
 _ZN14QQuickPathText9addToPathER12QPainterPath@Base 6.2.0
 _ZN14QQuickPathView10flickEndedEv@Base 6.2.0
 _ZN14QQuickPathView11createdItemEiP7QObject@Base 6.2.0
 _ZN14QQuickPathView11dragStartedEv@Base 6.2.0
 _ZN14QQuickPathView11pathChangedEv@Base 6.2.0
 _ZN14QQuickPathView11pathUpdatedEv@Base 6.2.0
 _ZN14QQuickPathView11qt_metacallEN11QMetaObject4CallEiPPv@Base 6.2.0
 _ZN14QQuickPathView11qt_metacastEPKc@Base 6.2.0
 _ZN14QQuickPathView11setDelegateEP13QQmlComponent@Base 6.2.0
 _ZN14QQuickPathView11setSnapModeENS_8SnapModeE@Base 6.2.0
 _ZN14QQuickPathView12countChangedEv@Base 6.2.0
 _ZN14QQuickPathView12flickStartedEv@Base 6.2.0
 _ZN14QQuickPathView12modelChangedEv@Base 6.2.0
 _ZN14QQuickPathView12modelUpdatedERK13QQmlChangeSetb@Base 6.2.0
 _ZN14QQuickPathView12setHighlightEP13QQmlComponent@Base 6.2.0
 _ZN14QQuickPathView12updatePolishEv@Base 6.2.0
 _ZN14QQuickPathView13movementEndedEv@Base 6.2.0
 _ZN14QQuickPathView13movingChangedEv@Base 6.2.0
 _ZN14QQuickPathView13offsetChangedEv@Base 6.2.0
 _ZN14QQuickPathView13setDragMarginEd@Base 6.2.0
 _ZN14QQuickPathView14destroyingItemEP7QObject@Base 6.2.0
 _ZN14QQuickPathView14mouseMoveEventEP11QMouseEvent@Base 6.2.0
 _ZN14QQuickPathView14movementEndingEv@Base 6.2.0
 _ZN14QQuickPathView14setInteractiveEb@Base 6.2.0
 _ZN14QQuickPathView15delegateChangedEv@Base 6.2.0
 _ZN14QQuickPathView15draggingChangedEv@Base 6.2.0
 _ZN14QQuickPathView15flickingChangedEv@Base 6.2.0
 _ZN14QQuickPathView15mousePressEventEP11QMouseEvent@Base 6.2.0
 _ZN14QQuickPathView15movementStartedEv@Base 6.2.0
 _ZN14QQuickPathView15setCurrentIndexEi@Base 6.2.0
 _ZN14QQuickPathView15snapModeChangedEv@Base 6.2.0
 _ZN14QQuickPathView16highlightChangedEv@Base 6.2.0
 _ZN14QQuickPathView16mouseUngrabEventEv@Base 6.2.0
 _ZN14QQuickPathView16setPathItemCountEi@Base 6.2.0
 _ZN14QQuickPathView16staticMetaObjectE@Base 6.2.0
 _ZN14QQuickPathView17componentCompleteEv@Base 6.2.0
 _ZN14QQuickPathView17dragMarginChangedEv@Base 6.2.0
 _ZN14QQuickPathView17mouseReleaseEventEP11QMouseEvent@Base 6.2.0
 _ZN14QQuickPathView17setCacheItemCountEi@Base 6.2.0
 _ZN14QQuickPathView18currentItemChangedEv@Base 6.2.0
 _ZN14QQuickPathView18interactiveChangedEv@Base 6.2.0
 _ZN14QQuickPathView18resetPathItemCountEv@Base 6.2.0
 _ZN14QQuickPathView19currentIndexChangedEv@Base 6.2.0
 _ZN14QQuickPathView19positionViewAtIndexEii@Base 6.2.0
 _ZN14QQuickPathView19snapPositionChangedEv@Base 6.2.0
 _ZN14QQuickPathView20highlightItemChangedEv@Base 6.2.0
 _ZN14QQuickPathView20pathItemCountChangedEv@Base 6.2.0
 _ZN14QQuickPathView20setFlickDecelerationEd@Base 6.2.0
 _ZN14QQuickPathView20setMovementDirectionENS_17MovementDirectionE@Base 6.2.0
 _ZN14QQuickPathView21cacheItemCountChangedEv@Base 6.2.0
 _ZN14QQuickPathView21childMouseEventFilterEP10QQuickItemP6QEvent@Base 6.2.0
 _ZN14QQuickPathView21decrementCurrentIndexEv@Base 6.2.0
 _ZN14QQuickPathView21incrementCurrentIndexEv@Base 6.2.0
 _ZN14QQuickPathView21qmlAttachedPropertiesEP7QObject@Base 6.2.0
 _ZN14QQuickPathView21setHighlightRangeModeENS_18HighlightRangeModeE@Base 6.2.0
 _ZN14QQuickPathView23setMaximumFlickVelocityEd@Base 6.2.0
 _ZN14QQuickPathView24flickDecelerationChangedEv@Base 6.2.0
 _ZN14QQuickPathView24movementDirectionChangedEv@Base 6.2.0
 _ZN14QQuickPathView24setHighlightMoveDurationEi@Base 6.2.0
 _ZN14QQuickPathView24setPreferredHighlightEndEd@Base 6.2.0
 _ZN14QQuickPathView25highlightRangeModeChangedEv@Base 6.2.0
 _ZN14QQuickPathView26setPreferredHighlightBeginEd@Base 6.2.0
 _ZN14QQuickPathView27maximumFlickVelocityChangedEv@Base 6.2.0
 _ZN14QQuickPathView28highlightMoveDurationChangedEv@Base 6.2.0
 _ZN14QQuickPathView28preferredHighlightEndChangedEv@Base 6.2.0
 _ZN14QQuickPathView30preferredHighlightBeginChangedEv@Base 6.2.0
 _ZN14QQuickPathView6refillEv@Base 6.2.0
 _ZN14QQuickPathView6tickedEv@Base 6.2.0
 _ZN14QQuickPathView7setPathEP10QQuickPath@Base 6.2.0
 _ZN14QQuickPathView8initItemEiP7QObject@Base 6.2.0
 _ZN14QQuickPathView8setModelERK8QVariant@Base 6.2.0
 _ZN14QQuickPathView9dragEndedEv@Base 6.2.0
 _ZN14QQuickPathView9setOffsetEd@Base 6.2.0
 _ZN14QQuickPathViewC1EP10QQuickItem@Base 6.2.0
 _ZN14QQuickPathViewC2EP10QQuickItem@Base 6.2.0
 _ZN14QQuickPathViewD0Ev@Base 6.2.0
 _ZN14QQuickPathViewD1Ev@Base 6.2.0
 _ZN14QQuickPathViewD2Ev@Base 6.2.0
 _ZN14QQuickProfiler10initializeEP7QObject@Base 6.2.0
 _ZN14QQuickProfiler10s_instanceE@Base 6.2.0
 _ZN14QQuickProfiler11qt_metacallEN11QMetaObject4CallEiPPv@Base 6.2.0
 _ZN14QQuickProfiler11qt_metacastEPKc@Base 6.2.0
 _ZN14QQuickProfiler14reportDataImplEv@Base 6.2.0
 _ZN14QQuickProfiler15featuresEnabledE@Base 6.2.0
 _ZN14QQuickProfiler16staticMetaObjectE@Base 6.2.0
 _ZN14QQuickProfiler17stopProfilingImplEv@Base 6.2.0
 _ZN14QQuickProfiler18startProfilingImplEy@Base 6.2.0
 _ZN14QQuickProfiler25registerAnimationCallbackEv@Base 6.2.0
 _ZN14QQuickProfiler8setTimerERK13QElapsedTimer@Base 6.2.0
 _ZN14QQuickProfiler9dataReadyERK5QListI18QQuickProfilerDataE@Base 6.2.0
 _ZN14QQuickProfilerC1EP7QObject@Base 6.2.0
 _ZN14QQuickProfilerC2EP7QObject@Base 6.2.0
 _ZN14QQuickProfilerD0Ev@Base 6.2.0
 _ZN14QQuickProfilerD1Ev@Base 6.2.0
 _ZN14QQuickProfilerD2Ev@Base 6.2.0
 _ZN14QQuickRepeater10itemChangeEN10QQuickItem10ItemChangeERKNS0_14ItemChangeDataE@Base 6.2.0
 _ZN14QQuickRepeater10regenerateEv@Base 6.2.0
 _ZN14QQuickRepeater11createdItemEiP7QObject@Base 6.2.0
 _ZN14QQuickRepeater11itemRemovedEiP10QQuickItem@Base 6.2.0
 _ZN14QQuickRepeater11qt_metacallEN11QMetaObject4CallEiPPv@Base 6.2.0
 _ZN14QQuickRepeater11qt_metacastEPKc@Base 6.2.0
 _ZN14QQuickRepeater11setDelegateEP13QQmlComponent@Base 6.2.0
 _ZN14QQuickRepeater12countChangedEv@Base 6.2.0
 _ZN14QQuickRepeater12modelChangedEv@Base 6.2.0
 _ZN14QQuickRepeater12modelUpdatedERK13QQmlChangeSetb@Base 6.2.0
 _ZN14QQuickRepeater15delegateChangedEv@Base 6.2.0
 _ZN14QQuickRepeater16staticMetaObjectE@Base 6.2.0
 _ZN14QQuickRepeater17componentCompleteEv@Base 6.2.0
 _ZN14QQuickRepeater5clearEv@Base 6.2.0
 _ZN14QQuickRepeater8initItemEiP7QObject@Base 6.2.0
 _ZN14QQuickRepeater8setModelERK8QVariant@Base 6.2.0
 _ZN14QQuickRepeater9itemAddedEiP10QQuickItem@Base 6.2.0
 _ZN14QQuickRepeaterC1EP10QQuickItem@Base 6.2.0
 _ZN14QQuickRepeaterC2EP10QQuickItem@Base 6.2.0
 _ZN14QQuickRepeaterD0Ev@Base 6.2.0
 _ZN14QQuickRepeaterD1Ev@Base 6.2.0
 _ZN14QQuickRepeaterD2Ev@Base 6.2.0
 _ZN14QQuickRootItem11qt_metacallEN11QMetaObject4CallEiPPv@Base 6.2.0
 _ZN14QQuickRootItem11qt_metacastEPKc@Base 6.2.0
 _ZN14QQuickRootItem16staticMetaObjectE@Base 6.2.0
 _ZN14QQuickRootItemC1Ev@Base 6.2.0
 _ZN14QQuickRootItemC2Ev@Base 6.2.0
 _ZN14QQuickRotation11axisChangedEv@Base 6.2.0
 _ZN14QQuickRotation11qt_metacallEN11QMetaObject4CallEiPPv@Base 6.2.0
 _ZN14QQuickRotation11qt_metacastEPKc@Base 6.2.0
 _ZN14QQuickRotation12angleChangedEv@Base 6.2.0
 _ZN14QQuickRotation13originChangedEv@Base 6.2.0
 _ZN14QQuickRotation16staticMetaObjectE@Base 6.2.0
 _ZN14QQuickRotation7setAxisEN2Qt4AxisE@Base 6.2.0
 _ZN14QQuickRotation7setAxisERK9QVector3D@Base 6.2.0
 _ZN14QQuickRotation8setAngleEd@Base 6.2.0
 _ZN14QQuickRotation9setOriginERK9QVector3D@Base 6.2.0
 _ZN14QQuickRotationC1EP7QObject@Base 6.2.0
 _ZN14QQuickRotationC2EP7QObject@Base 6.2.0
 _ZN14QQuickRotationD0Ev@Base 6.2.0
 _ZN14QQuickRotationD1Ev@Base 6.2.0
 _ZN14QQuickRotationD2Ev@Base 6.2.0
 _ZN14QQuickTextEdit10selectWordEv@Base 6.2.0
 _ZN14QQuickTextEdit10setBaseUrlERK4QUrl@Base 6.2.0
 _ZN14QQuickTextEdit10setPaddingEd@Base 6.2.0
 _ZN14QQuickTextEdit10updateSizeEv@Base 6.2.0
 _ZN14QQuickTextEdit11fontChangedERK5QFont@Base 6.2.0
 _ZN14QQuickTextEdit11linkHoveredERK7QString@Base 6.2.0
 _ZN14QQuickTextEdit11qt_metacallEN11QMetaObject4CallEiPPv@Base 6.2.0
 _ZN14QQuickTextEdit11qt_metacastEPKc@Base 6.2.0
 _ZN14QQuickTextEdit11resetHAlignEv@Base 6.2.0
 _ZN14QQuickTextEdit11setReadOnlyEb@Base 6.2.0
 _ZN14QQuickTextEdit11setWrapModeENS_8WrapModeE@Base 6.2.0
 _ZN14QQuickTextEdit11textChangedEv@Base 6.2.0
 _ZN14QQuickTextEdit12colorChangedERK6QColor@Base 6.2.0
 _ZN14QQuickTextEdit12createCursorEv@Base 6.2.0
 _ZN14QQuickTextEdit12focusInEventEP11QFocusEvent@Base 6.2.0
 _ZN14QQuickTextEdit12resetBaseUrlEv@Base 6.2.0
 _ZN14QQuickTextEdit12resetPaddingEv@Base 6.2.0
 _ZN14QQuickTextEdit12textDocumentEv@Base 6.2.0
 _ZN14QQuickTextEdit12updateCursorEv@Base 6.2.0
 _ZN14QQuickTextEdit12updatePolishEv@Base 6.2.0
 _ZN14QQuickTextEdit13focusOutEventEP11QFocusEvent@Base 6.2.0
 _ZN14QQuickTextEdit13isRightToLeftEii@Base 6.2.0
 _ZN14QQuickTextEdit13keyPressEventEP9QKeyEvent@Base 6.2.0
 _ZN14QQuickTextEdit13linkActivatedERK7QString@Base 6.2.0
 _ZN14QQuickTextEdit13q_linkHoveredERK7QString@Base 6.2.0
 _ZN14QQuickTextEdit13q_textChangedEv@Base 6.2.0
 _ZN14QQuickTextEdit13setRenderTypeENS_10RenderTypeE@Base 6.2.0
 _ZN14QQuickTextEdit13setTextFormatENS_10TextFormatE@Base 6.2.0
 _ZN14QQuickTextEdit13setTextMarginEd@Base 6.2.0
 _ZN14QQuickTextEdit13setTopPaddingEd@Base 6.2.0
 _ZN14QQuickTextEdit14baseUrlChangedEv@Base 6.2.0
 _ZN14QQuickTextEdit14canRedoChangedEv@Base 6.2.0
 _ZN14QQuickTextEdit14canUndoChangedEv@Base 6.2.0
 _ZN14QQuickTextEdit14geometryChangeERK6QRectFS2_@Base 6.2.0
 _ZN14QQuickTextEdit14hoverMoveEventEP11QHoverEvent@Base 6.2.0
 _ZN14QQuickTextEdit14mouseMoveEventEP11QMouseEvent@Base 6.2.0
 _ZN14QQuickTextEdit14paddingChangedEv@Base 6.2.0
 _ZN14QQuickTextEdit14setLeftPaddingEd@Base 6.2.0
 _ZN14QQuickTextEdit15canPasteChangedEv@Base 6.2.0
 _ZN14QQuickTextEdit15editingFinishedEv@Base 6.2.0
 _ZN14QQuickTextEdit15hoverEnterEventEP11QHoverEvent@Base 6.2.0
 _ZN14QQuickTextEdit15hoverLeaveEventEP11QHoverEvent@Base 6.2.0
 _ZN14QQuickTextEdit15invalidateBlockERK10QTextBlock@Base 6.2.0
 _ZN14QQuickTextEdit15keyReleaseEventEP9QKeyEvent@Base 6.2.0
 _ZN14QQuickTextEdit15mousePressEventEP11QMouseEvent@Base 6.2.0
 _ZN14QQuickTextEdit15q_markerHoveredEb@Base 6.2.0
 _ZN14QQuickTextEdit15readOnlyChangedEb@Base 6.2.0
 _ZN14QQuickTextEdit15resetTopPaddingEv@Base 6.2.0
 _ZN14QQuickTextEdit15setFocusOnPressEb@Base 6.2.0
 _ZN14QQuickTextEdit15setRightPaddingEd@Base 6.2.0
 _ZN14QQuickTextEdit15updatePaintNodeEP7QSGNodePN10QQuickItem19UpdatePaintNodeDataE@Base 6.2.0
 _ZN14QQuickTextEdit15updateSelectionEv@Base 6.2.0
 _ZN14QQuickTextEdit15wrapModeChangedEv@Base 6.2.0
 _ZN14QQuickTextEdit16inputMethodEventEP17QInputMethodEvent@Base 6.2.0
 _ZN14QQuickTextEdit16lineCountChangedEv@Base 6.2.0
 _ZN14QQuickTextEdit16q_contentsChangeEiii@Base 6.2.0
 _ZN14QQuickTextEdit16resetLeftPaddingEv@Base 6.2.0
 _ZN14QQuickTextEdit16setBottomPaddingEd@Base 6.2.0
 _ZN14QQuickTextEdit16setCursorVisibleEb@Base 6.2.0
 _ZN14QQuickTextEdit16setOverwriteModeEb@Base 6.2.0
 _ZN14QQuickTextEdit16setSelectByMouseEb@Base 6.2.0
 _ZN14QQuickTextEdit16staticMetaObjectE@Base 6.2.0
 _ZN14QQuickTextEdit16updateTotalLinesEv@Base 6.2.0
 _ZN14QQuickTextEdit17componentCompleteEv@Base 6.2.0
 _ZN14QQuickTextEdit17mouseReleaseEventEP11QMouseEvent@Base 6.2.0
 _ZN14QQuickTextEdit17q_canPasteChangedEv@Base 6.2.0
 _ZN14QQuickTextEdit17q_updateAlignmentEv@Base 6.2.0
 _ZN14QQuickTextEdit17renderTypeChangedEv@Base 6.2.0
 _ZN14QQuickTextEdit17resetRightPaddingEv@Base 6.2.0
 _ZN14QQuickTextEdit17setCursorDelegateEP13QQmlComponent@Base 6.2.0
 _ZN14QQuickTextEdit17setCursorPositionEi@Base 6.2.0
 _ZN14QQuickTextEdit17setSelectionColorERK6QColor@Base 6.2.0
 _ZN14QQuickTextEdit17textFormatChangedENS_10TextFormatE@Base 6.2.0
 _ZN14QQuickTextEdit17textMarginChangedEd@Base 6.2.0
 _ZN14QQuickTextEdit17topPaddingChangedEv@Base 6.2.0
 _ZN14QQuickTextEdit17triggerPreprocessEv@Base 6.2.0
 _ZN14QQuickTextEdit18contentSizeChangedEv@Base 6.2.0
 _ZN14QQuickTextEdit18leftPaddingChangedEv@Base 6.2.0
 _ZN14QQuickTextEdit18moveCursorDelegateEv@Base 6.2.0
 _ZN14QQuickTextEdit18preeditTextChangedEv@Base 6.2.0
 _ZN14QQuickTextEdit18resetBottomPaddingEv@Base 6.2.0
 _ZN14QQuickTextEdit18setTabStopDistanceEd@Base 6.2.0
 _ZN14QQuickTextEdit19moveCursorSelectionEi@Base 6.2.0
 _ZN14QQuickTextEdit19moveCursorSelectionEiNS_13SelectionModeE@Base 6.2.0
 _ZN14QQuickTextEdit19rightPaddingChangedEv@Base 6.2.0
 _ZN14QQuickTextEdit19selectedTextChangedEv@Base 6.2.0
 _ZN14QQuickTextEdit19selectionEndChangedEv@Base 6.2.0
 _ZN14QQuickTextEdit19setInputMethodHintsE6QFlagsIN2Qt15InputMethodHintEE@Base 6.2.0
 _ZN14QQuickTextEdit19setSelectByKeyboardEb@Base 6.2.0
 _ZN14QQuickTextEdit19updateWholeDocumentEv@Base 6.2.0
 _ZN14QQuickTextEdit20bottomPaddingChangedEv@Base 6.2.0
 _ZN14QQuickTextEdit20cursorVisibleChangedEb@Base 6.2.0
 _ZN14QQuickTextEdit20invalidateFontCachesEv@Base 6.2.0
 _ZN14QQuickTextEdit20overwriteModeChangedEb@Base 6.2.0
 _ZN14QQuickTextEdit20selectByMouseChangedEb@Base 6.2.0
 _ZN14QQuickTextEdit20setSelectedTextColorERK6QColor@Base 6.2.0
 _ZN14QQuickTextEdit21cursorDelegateChangedEv@Base 6.2.0
 _ZN14QQuickTextEdit21cursorPositionChangedEv@Base 6.2.0
 _ZN14QQuickTextEdit21mouseDoubleClickEventEP11QMouseEvent@Base 6.2.0
 _ZN14QQuickTextEdit21selectionColorChangedERK6QColor@Base 6.2.0
 _ZN14QQuickTextEdit21selectionStartChangedEv@Base 6.2.0
 _ZN14QQuickTextEdit21setMouseSelectionModeENS_13SelectionModeE@Base 6.2.0
 _ZN14QQuickTextEdit22cursorRectangleChangedEv@Base 6.2.0
 _ZN14QQuickTextEdit22markDirtyNodesForRangeEiii@Base 6.2.0
 _ZN14QQuickTextEdit22setPersistentSelectionEb@Base 6.2.0
 _ZN14QQuickTextEdit22tabStopDistanceChangedEd@Base 6.2.0
 _ZN14QQuickTextEdit23inputMethodHintsChangedEv@Base 6.2.0
 _ZN14QQuickTextEdit23selectByKeyboardChangedEb@Base 6.2.0
 _ZN14QQuickTextEdit24selectedTextColorChangedERK6QColor@Base 6.2.0
 _ZN14QQuickTextEdit24verticalAlignmentChangedENS_10VAlignmentE@Base 6.2.0
 _ZN14QQuickTextEdit25activeFocusOnPressChangedEb@Base 6.2.0
 _ZN14QQuickTextEdit25mouseSelectionModeChangedENS_13SelectionModeE@Base 6.2.0
 _ZN14QQuickTextEdit26horizontalAlignmentChangedENS_10HAlignmentE@Base 6.2.0
 _ZN14QQuickTextEdit26persistentSelectionChangedEb@Base 6.2.0
 _ZN14QQuickTextEdit27inputMethodComposingChangedEv@Base 6.2.0
 _ZN14QQuickTextEdit35effectiveHorizontalAlignmentChangedEv@Base 6.2.0
 _ZN14QQuickTextEdit3cutEv@Base 6.2.0
 _ZN14QQuickTextEdit4copyEv@Base 6.2.0
 _ZN14QQuickTextEdit4redoEv@Base 6.2.0
 _ZN14QQuickTextEdit4undoEv@Base 6.2.0
 _ZN14QQuickTextEdit5clearEv@Base 6.2.0
 _ZN14QQuickTextEdit5eventEP6QEvent@Base 6.2.0
 _ZN14QQuickTextEdit5pasteEv@Base 6.2.0
 _ZN14QQuickTextEdit6appendERK7QString@Base 6.2.0
 _ZN14QQuickTextEdit6insertEiRK7QString@Base 6.2.0
 _ZN14QQuickTextEdit6removeEii@Base 6.2.0
 _ZN14QQuickTextEdit6selectEii@Base 6.2.0
 _ZN14QQuickTextEdit7setFontERK5QFont@Base 6.2.0
 _ZN14QQuickTextEdit7setTextERK7QString@Base 6.2.0
 _ZN14QQuickTextEdit8deselectEv@Base 6.2.0
 _ZN14QQuickTextEdit8setColorERK6QColor@Base 6.2.0
 _ZN14QQuickTextEdit9selectAllEv@Base 6.2.0
 _ZN14QQuickTextEdit9setHAlignENS_10HAlignmentE@Base 6.2.0
 _ZN14QQuickTextEdit9setVAlignENS_10VAlignmentE@Base 6.2.0
 _ZN14QQuickTextEditC1EP10QQuickItem@Base 6.2.0
 _ZN14QQuickTextEditC1ER21QQuickTextEditPrivateP10QQuickItem@Base 6.2.0
 _ZN14QQuickTextEditC2EP10QQuickItem@Base 6.2.0
 _ZN14QQuickTextEditC2ER21QQuickTextEditPrivateP10QQuickItem@Base 6.2.0
 _ZN14QQuickTextNode11clearCursorEv@Base 6.2.0
 _ZN14QQuickTextNode13addTextLayoutERK7QPointFP11QTextLayoutRK6QColorN10QQuickText9TextStyleES7_S7_S7_S7_iiii@Base 6.2.0
 _ZN14QQuickTextNode13deleteContentEv@Base 6.2.0
 _ZN14QQuickTextNode15addTextDocumentERK7QPointFP13QTextDocumentRK6QColorN10QQuickText9TextStyleES7_S7_S7_S7_ii@Base 6.2.0
 _ZN14QQuickTextNode16addRectangleNodeERK6QRectFRK6QColor@Base 6.2.0
 _ZN14QQuickTextNode8addImageERK6QRectFRK6QImage@Base 6.2.0
 _ZN14QQuickTextNode9addGlyphsERK7QPointFRK9QGlyphRunRK6QColorN10QQuickText9TextStyleES8_P7QSGNode@Base 6.2.0
 _ZN14QQuickTextNode9setCursorERK6QRectFRK6QColor@Base 6.2.0
 _ZN14QQuickTextNodeC1EP10QQuickItem@Base 6.2.0
 _ZN14QQuickTextNodeC2EP10QQuickItem@Base 6.2.0
 _ZN14QQuickTextNodeD0Ev@Base 6.2.0
 _ZN14QQuickTextNodeD1Ev@Base 6.2.0
 _ZN14QQuickTextNodeD2Ev@Base 6.2.0
 _ZN14QQuickTimeLine11qt_metacallEN11QMetaObject4CallEiPPv@Base 6.2.0
 _ZN14QQuickTimeLine11qt_metacastEPKc@Base 6.2.0
 _ZN14QQuickTimeLine11setSyncModeENS_8SyncModeE@Base 6.2.0
 _ZN14QQuickTimeLine12setSyncPointEi@Base 6.2.0
 _ZN14QQuickTimeLine13accelDistanceER19QQuickTimeLineValuedd@Base 6.2.0
 _ZN14QQuickTimeLine16staticMetaObjectE@Base 6.2.0
 _ZN14QQuickTimeLine17updateCurrentTimeEi@Base 6.2.0
 _ZN14QQuickTimeLine3setER19QQuickTimeLineValued@Base 6.2.0
 _ZN14QQuickTimeLine4moveER19QQuickTimeLineValuedRK12QEasingCurvei@Base 6.2.0
 _ZN14QQuickTimeLine4moveER19QQuickTimeLineValuedi@Base 6.2.0
 _ZN14QQuickTimeLine4syncER19QQuickTimeLineValue@Base 6.2.0
 _ZN14QQuickTimeLine4syncER19QQuickTimeLineValueS1_@Base 6.2.0
 _ZN14QQuickTimeLine5accelER19QQuickTimeLineValuedd@Base 6.2.0
 _ZN14QQuickTimeLine5accelER19QQuickTimeLineValueddd@Base 6.2.0
 _ZN14QQuickTimeLine5clearEv@Base 6.2.0
 _ZN14QQuickTimeLine5pauseER20QQuickTimeLineObjecti@Base 6.2.0
 _ZN14QQuickTimeLine5resetER19QQuickTimeLineValue@Base 6.2.0
 _ZN14QQuickTimeLine6moveByER19QQuickTimeLineValuedRK12QEasingCurvei@Base 6.2.0
 _ZN14QQuickTimeLine6moveByER19QQuickTimeLineValuedi@Base 6.2.0
 _ZN14QQuickTimeLine6removeEP20QQuickTimeLineObject@Base 6.2.0
 _ZN14QQuickTimeLine7updatedEv@Base 6.2.0
 _ZN14QQuickTimeLine8callbackERK22QQuickTimeLineCallback@Base 6.2.0
 _ZN14QQuickTimeLine8completeEv@Base 6.2.0
 _ZN14QQuickTimeLine9completedEv@Base 6.2.0
 _ZN14QQuickTimeLineC1EP7QObject@Base 6.2.0
 _ZN14QQuickTimeLineC2EP7QObject@Base 6.2.0
 _ZN14QQuickTimeLineD0Ev@Base 6.2.0
 _ZN14QQuickTimeLineD1Ev@Base 6.2.0
 _ZN14QQuickTimeLineD2Ev@Base 6.2.0
 _ZN14QSGNodeUpdater12updateStatesEP7QSGNode@Base 6.2.0
 _ZN14QSGNodeUpdater13enterClipNodeEP11QSGClipNode@Base 6.2.0
 _ZN14QSGNodeUpdater13leaveClipNodeEP11QSGClipNode@Base 6.2.0
 _ZN14QSGNodeUpdater13visitChildrenEP7QSGNode@Base 6.2.0
 _ZN14QSGNodeUpdater15enterRenderNodeEP13QSGRenderNode@Base 6.2.0
 _ZN14QSGNodeUpdater15leaveRenderNodeEP13QSGRenderNode@Base 6.2.0
 _ZN14QSGNodeUpdater16enterOpacityNodeEP14QSGOpacityNode@Base 6.2.0
 _ZN14QSGNodeUpdater16leaveOpacityNodeEP14QSGOpacityNode@Base 6.2.0
 _ZN14QSGNodeUpdater17enterGeometryNodeEP15QSGGeometryNode@Base 6.2.0
 _ZN14QSGNodeUpdater17leaveGeometryNodeEP15QSGGeometryNode@Base 6.2.0
 _ZN14QSGNodeUpdater18enterTransformNodeEP16QSGTransformNode@Base 6.2.0
 _ZN14QSGNodeUpdater18leaveTransformNodeEP16QSGTransformNode@Base 6.2.0
 _ZN14QSGNodeUpdater9visitNodeEP7QSGNode@Base 6.2.0
 _ZN14QSGNodeUpdaterC1Ev@Base 6.2.0
 _ZN14QSGNodeUpdaterC2Ev@Base 6.2.0
 _ZN14QSGNodeUpdaterD0Ev@Base 6.2.0
 _ZN14QSGNodeUpdaterD1Ev@Base 6.2.0
 _ZN14QSGNodeUpdaterD2Ev@Base 6.2.0
 _ZN14QSGNodeVisitor13visitChildrenEP7QSGNode@Base 6.2.0
 _ZN14QSGNodeVisitor9visitNodeEP7QSGNode@Base 6.2.0
 _ZN14QSGNodeVisitorD0Ev@Base 6.2.0
 _ZN14QSGNodeVisitorD1Ev@Base 6.2.0
 _ZN14QSGNodeVisitorD2Ev@Base 6.2.0
 _ZN14QSGOpacityNode10setOpacityEd@Base 6.2.0
 _ZN14QSGOpacityNode18setCombinedOpacityEd@Base 6.2.0
 _ZN14QSGOpacityNodeC1Ev@Base 6.2.0
 _ZN14QSGOpacityNodeC2Ev@Base 6.2.0
 _ZN14QSGOpacityNodeD0Ev@Base 6.2.0
 _ZN14QSGOpacityNodeD1Ev@Base 6.2.0
 _ZN14QSGOpacityNodeD2Ev@Base 6.2.0
 _ZN15QQuickAnchorSet10resetRightEv@Base 6.2.0
 _ZN15QQuickAnchorSet11qt_metacallEN11QMetaObject4CallEiPPv@Base 6.2.0
 _ZN15QQuickAnchorSet11qt_metacastEPKc@Base 6.2.0
 _ZN15QQuickAnchorSet11resetBottomEv@Base 6.2.0
 _ZN15QQuickAnchorSet11setBaselineERK16QQmlScriptString@Base 6.2.0
 _ZN15QQuickAnchorSet13resetBaselineEv@Base 6.2.0
 _ZN15QQuickAnchorSet16staticMetaObjectE@Base 6.2.0
 _ZN15QQuickAnchorSet17setVerticalCenterERK16QQmlScriptString@Base 6.2.0
 _ZN15QQuickAnchorSet19resetVerticalCenterEv@Base 6.2.0
 _ZN15QQuickAnchorSet19setHorizontalCenterERK16QQmlScriptString@Base 6.2.0
 _ZN15QQuickAnchorSet21resetHorizontalCenterEv@Base 6.2.0
 _ZN15QQuickAnchorSet6setTopERK16QQmlScriptString@Base 6.2.0
 _ZN15QQuickAnchorSet7setLeftERK16QQmlScriptString@Base 6.2.0
 _ZN15QQuickAnchorSet8resetTopEv@Base 6.2.0
 _ZN15QQuickAnchorSet8setRightERK16QQmlScriptString@Base 6.2.0
 _ZN15QQuickAnchorSet9resetLeftEv@Base 6.2.0
 _ZN15QQuickAnchorSet9setBottomERK16QQmlScriptString@Base 6.2.0
 _ZN15QQuickAnchorSetC1EP7QObject@Base 6.2.0
 _ZN15QQuickAnchorSetC2EP7QObject@Base 6.2.0
 _ZN15QQuickAnchorSetD0Ev@Base 6.2.0
 _ZN15QQuickAnchorSetD1Ev@Base 6.2.0
 _ZN15QQuickAnchorSetD2Ev@Base 6.2.0
 _ZN15QQuickFlickable10flickEndedEv@Base 6.2.0
 _ZN15QQuickFlickable10setReboundEP16QQuickTransition@Base 6.2.0
 _ZN15QQuickFlickable10timerEventEP11QTimerEvent@Base 6.2.0
 _ZN15QQuickFlickable10touchEventEP11QTouchEvent@Base 6.2.0
 _ZN15QQuickFlickable10wheelEventEP11QWheelEvent@Base 6.2.0
 _ZN15QQuickFlickable11cancelFlickEv@Base 6.2.0
 _ZN15QQuickFlickable11dragStartedEv@Base 6.2.0
 _ZN15QQuickFlickable11qt_metacallEN11QMetaObject4CallEiPPv@Base 6.2.0
 _ZN15QQuickFlickable11qt_metacastEPKc@Base 6.2.0
 _ZN15QQuickFlickable11setContentXEd@Base 6.2.0
 _ZN15QQuickFlickable11setContentYEd@Base 6.2.0
 _ZN15QQuickFlickable11visibleAreaEv@Base 6.2.0
 _ZN15QQuickFlickable12flickStartedEv@Base 6.2.0
 _ZN15QQuickFlickable12setTopMarginEd@Base 6.2.0
 _ZN15QQuickFlickable13atXEndChangedEv@Base 6.2.0
 _ZN15QQuickFlickable13atYEndChangedEv@Base 6.2.0
 _ZN15QQuickFlickable13flickableDataEv@Base 6.2.0
 _ZN15QQuickFlickable13movementEndedEv@Base 6.2.0
 _ZN15QQuickFlickable13movingChangedEv@Base 6.2.0
 _ZN15QQuickFlickable13resizeContentEdd7QPointF@Base 6.2.0
 _ZN15QQuickFlickable13setLeftMarginEd@Base 6.2.0
 _ZN15QQuickFlickable13setPressDelayEi@Base 6.2.0
 _ZN15QQuickFlickable13viewportMovedE6QFlagsIN2Qt11OrientationEE@Base 6.2.0
 _ZN15QQuickFlickable14geometryChangeERK6QRectFS2_@Base 6.2.0
 _ZN15QQuickFlickable14mouseMoveEventEP11QMouseEvent@Base 6.2.0
 _ZN15QQuickFlickable14movementEndingEbb@Base 6.2.0
 _ZN15QQuickFlickable14movementEndingEv@Base 6.2.0
 _ZN15QQuickFlickable14originXChangedEv@Base 6.2.0
 _ZN15QQuickFlickable14originYChangedEv@Base 6.2.0
 _ZN15QQuickFlickable14reboundChangedEv@Base 6.2.0
 _ZN15QQuickFlickable14returnToBoundsEv@Base 6.2.0
 _ZN15QQuickFlickable14setInteractiveEb@Base 6.2.0
 _ZN15QQuickFlickable14setRightMarginEd@Base 6.2.0
 _ZN15QQuickFlickable15contentXChangedEv@Base 6.2.0
 _ZN15QQuickFlickable15contentYChangedEv@Base 6.2.0
 _ZN15QQuickFlickable15draggingChangedEv@Base 6.2.0
 _ZN15QQuickFlickable15flickingChangedEv@Base 6.2.0
 _ZN15QQuickFlickable15mousePressEventEP11QMouseEvent@Base 6.2.0
 _ZN15QQuickFlickable15movementStartedEv@Base 6.2.0
 _ZN15QQuickFlickable15setBottomMarginEd@Base 6.2.0
 _ZN15QQuickFlickable15setContentWidthEd@Base 6.2.0
 _ZN15QQuickFlickable15setPixelAlignedEb@Base 6.2.0
 _ZN15QQuickFlickable16mouseUngrabEventEv@Base 6.2.0
 _ZN15QQuickFlickable16movementStartingEv@Base 6.2.0
 _ZN15QQuickFlickable16setContentHeightEd@Base 6.2.0
 _ZN15QQuickFlickable16staticMetaObjectE@Base 6.2.0
 _ZN15QQuickFlickable16topMarginChangedEv@Base 6.2.0
 _ZN15QQuickFlickable17componentCompleteEv@Base 6.2.0
 _ZN15QQuickFlickable17flickableChildrenEv@Base 6.2.0
 _ZN15QQuickFlickable17leftMarginChangedEv@Base 6.2.0
 _ZN15QQuickFlickable17mouseReleaseEventEP11QMouseEvent@Base 6.2.0
 _ZN15QQuickFlickable17pressDelayChangedEv@Base 6.2.0
 _ZN15QQuickFlickable17setBoundsBehaviorE6QFlagsINS_18BoundsBehaviorFlagEE@Base 6.2.0
 _ZN15QQuickFlickable17setBoundsMovementENS_14BoundsMovementE@Base 6.2.0
 _ZN15QQuickFlickable17timelineCompletedEv@Base 6.2.0
 _ZN15QQuickFlickable18filterPointerEventEP10QQuickItemP13QPointerEvent@Base 6.2.0
 _ZN15QQuickFlickable18interactiveChangedEv@Base 6.2.0
 _ZN15QQuickFlickable18rightMarginChangedEv@Base 6.2.0
 _ZN15QQuickFlickable18setSynchronousDragEb@Base 6.2.0
 _ZN15QQuickFlickable19atXBeginningChangedEv@Base 6.2.0
 _ZN15QQuickFlickable19atYBeginningChangedEv@Base 6.2.0
 _ZN15QQuickFlickable19bottomMarginChangedEv@Base 6.2.0
 _ZN15QQuickFlickable19contentWidthChangedEv@Base 6.2.0
 _ZN15QQuickFlickable19isAtBoundaryChangedEv@Base 6.2.0
 _ZN15QQuickFlickable19pixelAlignedChangedEv@Base 6.2.0
 _ZN15QQuickFlickable20contentHeightChangedEv@Base 6.2.0
 _ZN15QQuickFlickable20setFlickDecelerationEd@Base 6.2.0
 _ZN15QQuickFlickable21boundsBehaviorChangedEv@Base 6.2.0
 _ZN15QQuickFlickable21boundsMovementChangedEv@Base 6.2.0
 _ZN15QQuickFlickable21childMouseEventFilterEP10QQuickItemP6QEvent@Base 6.2.0
 _ZN15QQuickFlickable21setFlickableDirectionENS_18FlickableDirectionE@Base 6.2.0
 _ZN15QQuickFlickable22synchronousDragChangedEv@Base 6.2.0
 _ZN15QQuickFlickable23movingVerticallyChangedEv@Base 6.2.0
 _ZN15QQuickFlickable23setMaximumFlickVelocityEd@Base 6.2.0
 _ZN15QQuickFlickable23verticalVelocityChangedEv@Base 6.2.0
 _ZN15QQuickFlickable24flickDecelerationChangedEv@Base 6.2.0
 _ZN15QQuickFlickable24verticalOvershootChangedEv@Base 6.2.0
 _ZN15QQuickFlickable25draggingVerticallyChangedEv@Base 6.2.0
 _ZN15QQuickFlickable25flickableDirectionChangedEv@Base 6.2.0
 _ZN15QQuickFlickable25flickingVerticallyChangedEv@Base 6.2.0
 _ZN15QQuickFlickable25horizontalVelocityChangedEv@Base 6.2.0
 _ZN15QQuickFlickable25movingHorizontallyChangedEv@Base 6.2.0
 _ZN15QQuickFlickable25velocityTimelineCompletedEv@Base 6.2.0
 _ZN15QQuickFlickable26horizontalOvershootChangedEv@Base 6.2.0
 _ZN15QQuickFlickable27draggingHorizontallyChangedEv@Base 6.2.0
 _ZN15QQuickFlickable27flickingHorizontallyChangedEv@Base 6.2.0
 _ZN15QQuickFlickable27maximumFlickVelocityChangedEv@Base 6.2.0
 _ZN15QQuickFlickable5flickEdd@Base 6.2.0
 _ZN15QQuickFlickable9dragEndedEv@Base 6.2.0
 _ZN15QQuickFlickableC1EP10QQuickItem@Base 6.2.0
 _ZN15QQuickFlickableC1ER22QQuickFlickablePrivateP10QQuickItem@Base 6.2.0
 _ZN15QQuickFlickableC2EP10QQuickItem@Base 6.2.0
 _ZN15QQuickFlickableC2ER22QQuickFlickablePrivateP10QQuickItem@Base 6.2.0
 _ZN15QQuickFlickableD0Ev@Base 6.2.0
 _ZN15QQuickFlickableD1Ev@Base 6.2.0
 _ZN15QQuickFlickableD2Ev@Base 6.2.0
 _ZN15QQuickFontEnums16staticMetaObjectE@Base 6.2.0
 _ZN15QQuickImageBase10itemChangeEN10QQuickItem10ItemChangeERKNS0_14ItemChangeDataE@Base 6.2.0
 _ZN15QQuickImageBase10loadPixmapERK4QUrl6QFlagsINS_16LoadPixmapOptionEE@Base 6.2.0
 _ZN15QQuickImageBase11qt_metacallEN11QMetaObject4CallEiPPv@Base 6.2.0
 _ZN15QQuickImageBase11qt_metacastEPKc@Base 6.2.0
 _ZN15QQuickImageBase12cacheChangedEv@Base 6.2.0
 _ZN15QQuickImageBase12loadEmptyUrlEv@Base 6.2.0
 _ZN15QQuickImageBase12pixmapChangeEv@Base 6.2.0
 _ZN15QQuickImageBase13mirrorChangedEv@Base 6.2.0
 _ZN15QQuickImageBase13setColorSpaceERK11QColorSpace@Base 6.2.0
 _ZN15QQuickImageBase13setSourceSizeERK5QSize@Base 6.2.0
 _ZN15QQuickImageBase13sourceChangedERK4QUrl@Base 6.2.0
 _ZN15QQuickImageBase13statusChangedENS_6StatusE@Base 6.2.0
 _ZN15QQuickImageBase15progressChangedEd@Base 6.2.0
 _ZN15QQuickImageBase15requestFinishedEv@Base 6.2.0
 _ZN15QQuickImageBase15requestProgressExx@Base 6.2.0
 _ZN15QQuickImageBase15resetSourceSizeEv@Base 6.2.0
 _ZN15QQuickImageBase15setAsynchronousEb@Base 6.2.0
 _ZN15QQuickImageBase15setCurrentFrameEi@Base 6.2.0
 _ZN15QQuickImageBase16setAutoTransformEb@Base 6.2.0
 _ZN15QQuickImageBase16staticMetaObjectE@Base 6.2.0
 _ZN15QQuickImageBase17colorSpaceChangedEv@Base 6.2.0
 _ZN15QQuickImageBase17componentCompleteEv@Base 6.2.0
 _ZN15QQuickImageBase17frameCountChangedEv@Base 6.2.0
 _ZN15QQuickImageBase17setSourceClipRectERK6QRectF@Base 6.2.0
 _ZN15QQuickImageBase17sourceSizeChangedEv@Base 6.2.0
 _ZN15QQuickImageBase18resolve2xLocalFileERK4QUrldPS0_Pd@Base 6.2.0
 _ZN15QQuickImageBase19asynchronousChangedEv@Base 6.2.0
 _ZN15QQuickImageBase19currentFrameChangedEv@Base 6.2.0
 _ZN15QQuickImageBase19resetSourceClipRectEv@Base 6.2.0
 _ZN15QQuickImageBase19setMirrorVerticallyEb@Base 6.2.0
 _ZN15QQuickImageBase21sourceClipRectChangedEv@Base 6.2.0
 _ZN15QQuickImageBase23mirrorVerticallyChangedEv@Base 6.2.0
 _ZN15QQuickImageBase4loadEv@Base 6.2.0
 _ZN15QQuickImageBase8setCacheEb@Base 6.2.0
 _ZN15QQuickImageBase9setMirrorEb@Base 6.2.0
 _ZN15QQuickImageBase9setSourceERK4QUrl@Base 6.2.0
 _ZN15QQuickImageBaseC1EP10QQuickItem@Base 6.2.0
 _ZN15QQuickImageBaseC1ER22QQuickImageBasePrivateP10QQuickItem@Base 6.2.0
 _ZN15QQuickImageBaseC2EP10QQuickItem@Base 6.2.0
 _ZN15QQuickImageBaseC2ER22QQuickImageBasePrivateP10QQuickItem@Base 6.2.0
 _ZN15QQuickImageBaseD0Ev@Base 6.2.0
 _ZN15QQuickImageBaseD1Ev@Base 6.2.0
 _ZN15QQuickImageBaseD2Ev@Base 6.2.0
 _ZN15QQuickItemLayer10classBeginEv@Base 6.2.0
 _ZN15QQuickItemLayer10deactivateEv@Base 6.2.0
 _ZN15QQuickItemLayer10setEnabledEb@Base 6.2.0
 _ZN15QQuickItemLayer10setSamplesEi@Base 6.2.0
 _ZN15QQuickItemLayer11nameChangedERK10QByteArray@Base 6.2.0
 _ZN15QQuickItemLayer11qt_metacallEN11QMetaObject4CallEiPPv@Base 6.2.0
 _ZN15QQuickItemLayer11qt_metacastEPKc@Base 6.2.0
 _ZN15QQuickItemLayer11setWrapModeEN24QQuickShaderEffectSource8WrapModeE@Base 6.2.0
 _ZN15QQuickItemLayer11sizeChangedERK5QSize@Base 6.2.0
 _ZN15QQuickItemLayer12updateMatrixEv@Base 6.2.0
 _ZN15QQuickItemLayer13effectChangedEP13QQmlComponent@Base 6.2.0
 _ZN15QQuickItemLayer13formatChangedEN24QQuickShaderEffectSource6FormatE@Base 6.2.0
 _ZN15QQuickItemLayer13mipmapChangedEb@Base 6.2.0
 _ZN15QQuickItemLayer13setSourceRectERK6QRectF@Base 6.2.0
 _ZN15QQuickItemLayer13smoothChangedEb@Base 6.2.0
 _ZN15QQuickItemLayer13updateOpacityEv@Base 6.2.0
 _ZN15QQuickItemLayer14activateEffectEv@Base 6.2.0
 _ZN15QQuickItemLayer14enabledChangedEb@Base 6.2.0
 _ZN15QQuickItemLayer14samplesChangedEi@Base 6.2.0
 _ZN15QQuickItemLayer14updateGeometryEv@Base 6.2.0
 _ZN15QQuickItemLayer15wrapModeChangedEN24QQuickShaderEffectSource8WrapModeE@Base 6.2.0
 _ZN15QQuickItemLayer16deactivateEffectEv@Base 6.2.0
 _ZN15QQuickItemLayer16staticMetaObjectE@Base 6.2.0
 _ZN15QQuickItemLayer17componentCompleteEv@Base 6.2.0
 _ZN15QQuickItemLayer17itemParentChangedEP10QQuickItemS1_@Base 6.2.0
 _ZN15QQuickItemLayer17sourceRectChangedERK6QRectF@Base 6.2.0
 _ZN15QQuickItemLayer18itemOpacityChangedEP10QQuickItem@Base 6.2.0
 _ZN15QQuickItemLayer19itemGeometryChangedEP10QQuickItem20QQuickGeometryChangeRK6QRectF@Base 6.2.0
 _ZN15QQuickItemLayer19setTextureMirroringEN24QQuickShaderEffectSource16TextureMirroringE@Base 6.2.0
 _ZN15QQuickItemLayer21itemVisibilityChangedEP10QQuickItem@Base 6.2.0
 _ZN15QQuickItemLayer23itemSiblingOrderChangedEP10QQuickItem@Base 6.2.0
 _ZN15QQuickItemLayer23textureMirroringChangedEN24QQuickShaderEffectSource16TextureMirroringE@Base 6.2.0
 _ZN15QQuickItemLayer7setNameERK10QByteArray@Base 6.2.0
 _ZN15QQuickItemLayer7setSizeERK5QSize@Base 6.2.0
 _ZN15QQuickItemLayer7updateZEv@Base 6.2.0
 _ZN15QQuickItemLayer8activateEv@Base 6.2.0
 _ZN15QQuickItemLayer9setEffectEP13QQmlComponent@Base 6.2.0
 _ZN15QQuickItemLayer9setFormatEN24QQuickShaderEffectSource6FormatE@Base 6.2.0
 _ZN15QQuickItemLayer9setMipmapEb@Base 6.2.0
 _ZN15QQuickItemLayer9setSmoothEb@Base 6.2.0
 _ZN15QQuickItemLayerC1EP10QQuickItem@Base 6.2.0
 _ZN15QQuickItemLayerC2EP10QQuickItem@Base 6.2.0
 _ZN15QQuickItemLayerD0Ev@Base 6.2.0
 _ZN15QQuickItemLayerD1Ev@Base 6.2.0
 _ZN15QQuickItemLayerD2Ev@Base 6.2.0
 _ZN15QQuickMatrix4x411qt_metacallEN11QMetaObject4CallEiPPv@Base 6.2.0
 _ZN15QQuickMatrix4x411qt_metacastEPKc@Base 6.2.0
 _ZN15QQuickMatrix4x413matrixChangedEv@Base 6.2.0
 _ZN15QQuickMatrix4x416staticMetaObjectE@Base 6.2.0
 _ZN15QQuickMatrix4x49setMatrixERK10QMatrix4x4@Base 6.2.0
 _ZN15QQuickMatrix4x4C1EP7QObject@Base 6.2.0
 _ZN15QQuickMatrix4x4C2EP7QObject@Base 6.2.0
 _ZN15QQuickMatrix4x4D0Ev@Base 6.2.0
 _ZN15QQuickMatrix4x4D1Ev@Base 6.2.0
 _ZN15QQuickMatrix4x4D2Ev@Base 6.2.0
 _ZN15QQuickMouseArea10itemChangeEN10QQuickItem10ItemChangeERKNS0_14ItemChangeDataE@Base 6.2.0
 _ZN15QQuickMouseArea10setEnabledEb@Base 6.2.0
 _ZN15QQuickMouseArea10setHoveredEb@Base 6.2.0
 _ZN15QQuickMouseArea10setPressedEN2Qt11MouseButtonEbNS0_16MouseEventSourceE@Base 6.2.0
 _ZN15QQuickMouseArea10timerEventEP11QTimerEvent@Base 6.2.0
 _ZN15QQuickMouseArea10wheelEventEP11QWheelEvent@Base 6.2.0
 _ZN15QQuickMouseArea11qt_metacallEN11QMetaObject4CallEiPPv@Base 6.2.0
 _ZN15QQuickMouseArea11qt_metacastEPKc@Base 6.2.0
 _ZN15QQuickMouseArea11ungrabMouseEv@Base 6.2.0
 _ZN15QQuickMouseArea12pressAndHoldEP16QQuickMouseEvent@Base 6.2.0
 _ZN15QQuickMouseArea13doubleClickedEP16QQuickMouseEvent@Base 6.2.0
 _ZN15QQuickMouseArea13mouseXChangedEP16QQuickMouseEvent@Base 6.2.0
 _ZN15QQuickMouseArea13mouseYChangedEP16QQuickMouseEvent@Base 6.2.0
 _ZN15QQuickMouseArea14enabledChangedEv@Base 6.2.0
 _ZN15QQuickMouseArea14geometryChangeERK6QRectFS2_@Base 6.2.0
 _ZN15QQuickMouseArea14hoverMoveEventEP11QHoverEvent@Base 6.2.0
 _ZN15QQuickMouseArea14hoveredChangedEv@Base 6.2.0
 _ZN15QQuickMouseArea14mouseMoveEventEP11QMouseEvent@Base 6.2.0
 _ZN15QQuickMouseArea14pressedChangedEv@Base 6.2.0
 _ZN15QQuickMouseArea14sendMouseEventEP11QMouseEvent@Base 6.2.0
 _ZN15QQuickMouseArea14setCursorShapeEN2Qt11CursorShapeE@Base 6.2.0
 _ZN15QQuickMouseArea15hoverEnterEventEP11QHoverEvent@Base 6.2.0
 _ZN15QQuickMouseArea15hoverLeaveEventEP11QHoverEvent@Base 6.2.0
 _ZN15QQuickMouseArea15mousePressEventEP11QMouseEvent@Base 6.2.0
 _ZN15QQuickMouseArea15positionChangedEP16QQuickMouseEvent@Base 6.2.0
 _ZN15QQuickMouseArea15setHoverEnabledEb@Base 6.2.0
 _ZN15QQuickMouseArea15updatePaintNodeEP7QSGNodePN10QQuickItem19UpdatePaintNodeDataE@Base 6.2.0
 _ZN15QQuickMouseArea16mouseUngrabEventEv@Base 6.2.0
 _ZN15QQuickMouseArea16staticMetaObjectE@Base 6.2.0
 _ZN15QQuickMouseArea16touchUngrabEventEv@Base 6.2.0
 _ZN15QQuickMouseArea17mouseReleaseEventEP11QMouseEvent@Base 6.2.0
 _ZN15QQuickMouseArea18cursorShapeChangedEv@Base 6.2.0
 _ZN15QQuickMouseArea18setAcceptedButtonsE6QFlagsIN2Qt11MouseButtonEE@Base 6.2.0
 _ZN15QQuickMouseArea18setPreventStealingEb@Base 6.2.0
 _ZN15QQuickMouseArea19hoverEnabledChangedEv@Base 6.2.0
 _ZN15QQuickMouseArea20containsPressChangedEv@Base 6.2.0
 _ZN15QQuickMouseArea21childMouseEventFilterEP10QQuickItemP6QEvent@Base 6.2.0
 _ZN15QQuickMouseArea21mouseDoubleClickEventEP11QMouseEvent@Base 6.2.0
 _ZN15QQuickMouseArea21pressedButtonsChangedEv@Base 6.2.0
 _ZN15QQuickMouseArea22acceptedButtonsChangedEv@Base 6.2.0
 _ZN15QQuickMouseArea22preventStealingChangedEv@Base 6.2.0
 _ZN15QQuickMouseArea23setPressAndHoldIntervalEi@Base 6.2.0
 _ZN15QQuickMouseArea23setScrollGestureEnabledEb@Base 6.2.0
 _ZN15QQuickMouseArea25resetPressAndHoldIntervalEv@Base 6.2.0
 _ZN15QQuickMouseArea26setPropagateComposedEventsEb@Base 6.2.0
 _ZN15QQuickMouseArea27pressAndHoldIntervalChangedEv@Base 6.2.0
 _ZN15QQuickMouseArea27scrollGestureEnabledChangedEv@Base 6.2.0
 _ZN15QQuickMouseArea30propagateComposedEventsChangedEv@Base 6.2.0
 _ZN15QQuickMouseArea4dragEv@Base 6.2.0
 _ZN15QQuickMouseArea5wheelEP16QQuickWheelEvent@Base 6.2.0
 _ZN15QQuickMouseArea6exitedEv@Base 6.2.0
 _ZN15QQuickMouseArea7clickedEP16QQuickMouseEvent@Base 6.2.0
 _ZN15QQuickMouseArea7enteredEv@Base 6.2.0
 _ZN15QQuickMouseArea7pressedEP16QQuickMouseEvent@Base 6.2.0
 _ZN15QQuickMouseArea8canceledEv@Base 6.2.0
 _ZN15QQuickMouseArea8releasedEP16QQuickMouseEvent@Base 6.2.0
 _ZN15QQuickMouseAreaC1EP10QQuickItem@Base 6.2.0
 _ZN15QQuickMouseAreaC2EP10QQuickItem@Base 6.2.0
 _ZN15QQuickMouseAreaD0Ev@Base 6.2.0
 _ZN15QQuickMouseAreaD1Ev@Base 6.2.0
 _ZN15QQuickMouseAreaD2Ev@Base 6.2.0
 _ZN15QQuickPathCubic11qt_metacallEN11QMetaObject4CallEiPPv@Base 6.2.0
 _ZN15QQuickPathCubic11qt_metacastEPKc@Base 6.2.0
 _ZN15QQuickPathCubic12setControl1XEd@Base 6.2.0
 _ZN15QQuickPathCubic12setControl1YEd@Base 6.2.0
 _ZN15QQuickPathCubic12setControl2XEd@Base 6.2.0
 _ZN15QQuickPathCubic12setControl2YEd@Base 6.2.0
 _ZN15QQuickPathCubic16control1XChangedEv@Base 6.2.0
 _ZN15QQuickPathCubic16control1YChangedEv@Base 6.2.0
 _ZN15QQuickPathCubic16control2XChangedEv@Base 6.2.0
 _ZN15QQuickPathCubic16control2YChangedEv@Base 6.2.0
 _ZN15QQuickPathCubic16staticMetaObjectE@Base 6.2.0
 _ZN15QQuickPathCubic20hasRelativeControl1XEv@Base 6.2.0
 _ZN15QQuickPathCubic20hasRelativeControl1YEv@Base 6.2.0
 _ZN15QQuickPathCubic20hasRelativeControl2XEv@Base 6.2.0
 _ZN15QQuickPathCubic20hasRelativeControl2YEv@Base 6.2.0
 _ZN15QQuickPathCubic20setRelativeControl1XEd@Base 6.2.0
 _ZN15QQuickPathCubic20setRelativeControl1YEd@Base 6.2.0
 _ZN15QQuickPathCubic20setRelativeControl2XEd@Base 6.2.0
 _ZN15QQuickPathCubic20setRelativeControl2YEd@Base 6.2.0
 _ZN15QQuickPathCubic24relativeControl1XChangedEv@Base 6.2.0
 _ZN15QQuickPathCubic24relativeControl1YChangedEv@Base 6.2.0
 _ZN15QQuickPathCubic24relativeControl2XChangedEv@Base 6.2.0
 _ZN15QQuickPathCubic24relativeControl2YChangedEv@Base 6.2.0
 _ZN15QQuickPathCubic9addToPathER12QPainterPathRK14QQuickPathData@Base 6.2.0
 _ZN15QQuickPinchArea10clearPinchEP11QTouchEvent@Base 6.2.0
 _ZN15QQuickPinchArea10itemChangeEN10QQuickItem10ItemChangeERKNS0_14ItemChangeDataE@Base 6.2.0
 _ZN15QQuickPinchArea10setEnabledEb@Base 6.2.0
 _ZN15QQuickPinchArea10touchEventEP11QTouchEvent@Base 6.2.0
 _ZN15QQuickPinchArea11cancelPinchEP11QTouchEvent@Base 6.2.0
 _ZN15QQuickPinchArea11qt_metacallEN11QMetaObject4CallEiPPv@Base 6.2.0
 _ZN15QQuickPinchArea11qt_metacastEPKc@Base 6.2.0
 _ZN15QQuickPinchArea11updatePinchEP11QTouchEventb@Base 6.2.0
 _ZN15QQuickPinchArea12pinchStartedEP16QQuickPinchEvent@Base 6.2.0
 _ZN15QQuickPinchArea12pinchUpdatedEP16QQuickPinchEvent@Base 6.2.0
 _ZN15QQuickPinchArea13pinchFinishedEP16QQuickPinchEvent@Base 6.2.0
 _ZN15QQuickPinchArea14enabledChangedEv@Base 6.2.0
 _ZN15QQuickPinchArea14geometryChangeERK6QRectFS2_@Base 6.2.0
 _ZN15QQuickPinchArea16staticMetaObjectE@Base 6.2.0
 _ZN15QQuickPinchArea17updatePinchTargetEv@Base 6.2.0
 _ZN15QQuickPinchArea21childMouseEventFilterEP10QQuickItemP6QEvent@Base 6.2.0
 _ZN15QQuickPinchArea5eventEP6QEvent@Base 6.2.0
 _ZN15QQuickPinchArea5pinchEv@Base 6.2.0
 _ZN15QQuickPinchArea9smartZoomEP16QQuickPinchEvent@Base 6.2.0
 _ZN15QQuickPinchAreaC1EP10QQuickItem@Base 6.2.0
 _ZN15QQuickPinchAreaC2EP10QQuickItem@Base 6.2.0
 _ZN15QQuickPinchAreaD0Ev@Base 6.2.0
 _ZN15QQuickPinchAreaD1Ev@Base 6.2.0
 _ZN15QQuickPinchAreaD2Ev@Base 6.2.0
 _ZN15QQuickRectangle11qt_metacallEN11QMetaObject4CallEiPPv@Base 6.2.0
 _ZN15QQuickRectangle11qt_metacastEPKc@Base 6.2.0
 _ZN15QQuickRectangle11setGradientERK8QJSValue@Base 6.2.0
 _ZN15QQuickRectangle12colorChangedEv@Base 6.2.0
 _ZN15QQuickRectangle13radiusChangedEv@Base 6.2.0
 _ZN15QQuickRectangle13resetGradientEv@Base 6.2.0
 _ZN15QQuickRectangle15updatePaintNodeEP7QSGNodePN10QQuickItem19UpdatePaintNodeDataE@Base 6.2.0
 _ZN15QQuickRectangle16staticMetaObjectE@Base 6.2.0
 _ZN15QQuickRectangle6borderEv@Base 6.2.0
 _ZN15QQuickRectangle8doUpdateEv@Base 6.2.0
 _ZN15QQuickRectangle8setColorERK6QColor@Base 6.2.0
 _ZN15QQuickRectangle9setRadiusEd@Base 6.2.0
 _ZN15QQuickRectangleC1EP10QQuickItem@Base 6.2.0
 _ZN15QQuickRectangleC2EP10QQuickItem@Base 6.2.0
 _ZN15QQuickScaleGrid11qt_metacallEN11QMetaObject4CallEiPPv@Base 6.2.0
 _ZN15QQuickScaleGrid11qt_metacastEPKc@Base 6.2.0
 _ZN15QQuickScaleGrid13borderChangedEv@Base 6.2.0
 _ZN15QQuickScaleGrid16staticMetaObjectE@Base 6.2.0
 _ZN15QQuickScaleGrid16topBorderChangedEv@Base 6.2.0
 _ZN15QQuickScaleGrid17leftBorderChangedEv@Base 6.2.0
 _ZN15QQuickScaleGrid18rightBorderChangedEv@Base 6.2.0
 _ZN15QQuickScaleGrid19bottomBorderChangedEv@Base 6.2.0
 _ZN15QQuickScaleGrid6setTopEi@Base 6.2.0
 _ZN15QQuickScaleGrid7setLeftEi@Base 6.2.0
 _ZN15QQuickScaleGrid8setRightEi@Base 6.2.0
 _ZN15QQuickScaleGrid9setBottomEi@Base 6.2.0
 _ZN15QQuickScaleGridC1EP7QObject@Base 6.2.0
 _ZN15QQuickScaleGridC2EP7QObject@Base 6.2.0
 _ZN15QQuickScaleGridD0Ev@Base 6.2.0
 _ZN15QQuickScaleGridD1Ev@Base 6.2.0
 _ZN15QQuickScaleGridD2Ev@Base 6.2.0
 _ZN15QQuickSvgParser7pathArcER12QPainterPathdddiidddd@Base 6.2.0
 _ZN15QQuickTableView11forceLayoutEv@Base 6.2.0
 _ZN15QQuickTableView11qt_metacallEN11QMetaObject4CallEiPPv@Base 6.2.0
 _ZN15QQuickTableView11qt_metacastEPKc@Base 6.2.0
 _ZN15QQuickTableView11rowsChangedEv@Base 6.2.0
 _ZN15QQuickTableView11setDelegateEP13QQmlComponent@Base 6.2.0
 _ZN15QQuickTableView11setSyncViewEPS_@Base 6.2.0
 _ZN15QQuickTableView12modelChangedEv@Base 6.2.0
 _ZN15QQuickTableView13setReuseItemsEb@Base 6.2.0
 _ZN15QQuickTableView13setRowSpacingEd@Base 6.2.0
 _ZN15QQuickTableView13topRowChangedEv@Base 6.2.0
 _ZN15QQuickTableView13viewportMovedE6QFlagsIN2Qt11OrientationEE@Base 6.2.0
 _ZN15QQuickTableView14columnsChangedEv@Base 6.2.0
 _ZN15QQuickTableView14geometryChangeERK6QRectFS2_@Base 6.2.0
 _ZN15QQuickTableView15delegateChangedEv@Base 6.2.0
 _ZN15QQuickTableView15setContentWidthEd@Base 6.2.0
 _ZN15QQuickTableView15syncViewChangedEv@Base 6.2.0
 _ZN15QQuickTableView16bottomRowChangedEv@Base 6.2.0
 _ZN15QQuickTableView16setColumnSpacingEd@Base 6.2.0
 _ZN15QQuickTableView16setContentHeightEd@Base 6.2.0
 _ZN15QQuickTableView16setSyncDirectionE6QFlagsIN2Qt11OrientationEE@Base 6.2.0
 _ZN15QQuickTableView16staticMetaObjectE@Base 6.2.0
 _ZN15QQuickTableView17componentCompleteEv@Base 6.2.0
 _ZN15QQuickTableView17leftColumnChangedEv@Base 6.2.0
 _ZN15QQuickTableView17positionViewAtRowEi6QFlagsIN2Qt13AlignmentFlagEEd@Base 6.2.0
 _ZN15QQuickTableView17reuseItemsChangedEv@Base 6.2.0
 _ZN15QQuickTableView17rowSpacingChangedEv@Base 6.2.0
 _ZN15QQuickTableView17setSelectionModelEP19QItemSelectionModel@Base 6.2.0
 _ZN15QQuickTableView18positionViewAtCellERK6QPoint6QFlagsIN2Qt13AlignmentFlagEERK7QPointF@Base 6.2.0
 _ZN15QQuickTableView18positionViewAtCellEii6QFlagsIN2Qt13AlignmentFlagEERK7QPointF@Base 6.2.0
 _ZN15QQuickTableView18rightColumnChangedEv@Base 6.2.0
 _ZN15QQuickTableView20columnSpacingChangedEv@Base 6.2.0
 _ZN15QQuickTableView20positionViewAtColumnEi6QFlagsIN2Qt13AlignmentFlagEEd@Base 6.2.0
 _ZN15QQuickTableView20setRowHeightProviderERK8QJSValue@Base 6.2.0
 _ZN15QQuickTableView20syncDirectionChangedEv@Base 6.2.0
 _ZN15QQuickTableView21qmlAttachedPropertiesEP7QObject@Base 6.2.0
 _ZN15QQuickTableView21selectionModelChangedEv@Base 6.2.0
 _ZN15QQuickTableView22setColumnWidthProviderERK8QJSValue@Base 6.2.0
 _ZN15QQuickTableView24rowHeightProviderChangedEv@Base 6.2.0
 _ZN15QQuickTableView26columnWidthProviderChangedEv@Base 6.2.0
 _ZN15QQuickTableView8setModelERK8QVariant@Base 6.2.0
 _ZN15QQuickTableViewC1EP10QQuickItem@Base 6.2.0
 _ZN15QQuickTableViewC1ER22QQuickTableViewPrivateP10QQuickItem@Base 6.2.0
 _ZN15QQuickTableViewC2EP10QQuickItem@Base 6.2.0
 _ZN15QQuickTableViewC2ER22QQuickTableViewPrivateP10QQuickItem@Base 6.2.0
 _ZN15QQuickTableViewD0Ev@Base 6.2.0
 _ZN15QQuickTableViewD1Ev@Base 6.2.0
 _ZN15QQuickTableViewD2Ev@Base 6.2.0
 _ZN15QQuickTextInput10selectWordEv@Base 6.2.0
 _ZN15QQuickTextInput10setPaddingEd@Base 6.2.0
 _ZN15QQuickTextInput10textEditedEv@Base 6.2.0
 _ZN15QQuickTextInput10timerEventEP11QTimerEvent@Base 6.2.0
 _ZN15QQuickTextInput11fontChangedERK5QFont@Base 6.2.0
 _ZN15QQuickTextInput11qt_metacallEN11QMetaObject4CallEiPPv@Base 6.2.0
 _ZN15QQuickTextInput11qt_metacastEPKc@Base 6.2.0
 _ZN15QQuickTextInput11resetHAlignEv@Base 6.2.0
 _ZN15QQuickTextInput11setEchoModeENS_8EchoModeE@Base 6.2.0
 _ZN15QQuickTextInput11setReadOnlyEb@Base 6.2.0
 _ZN15QQuickTextInput11setWrapModeENS_8WrapModeE@Base 6.2.0
 _ZN15QQuickTextInput11textChangedEv@Base 6.2.0
 _ZN15QQuickTextInput12colorChangedEv@Base 6.2.0
 _ZN15QQuickTextInput12createCursorEv@Base 6.2.0
 _ZN15QQuickTextInput12focusInEventEP11QFocusEvent@Base 6.2.0
 _ZN15QQuickTextInput12resetPaddingEv@Base 6.2.0
 _ZN15QQuickTextInput12setInputMaskERK7QString@Base 6.2.0
 _ZN15QQuickTextInput12setMaxLengthEi@Base 6.2.0
 _ZN15QQuickTextInput12setValidatorEP10QValidator@Base 6.2.0
 _ZN15QQuickTextInput12updatePolishEv@Base 6.2.0
 _ZN15QQuickTextInput13ensureVisibleEi@Base 6.2.0
 _ZN15QQuickTextInput13focusOutEventEP11QFocusEvent@Base 6.2.0
 _ZN15QQuickTextInput13isRightToLeftEii@Base 6.2.0
 _ZN15QQuickTextInput13keyPressEventEP9QKeyEvent@Base 6.2.0
 _ZN15QQuickTextInput13setAutoScrollEb@Base 6.2.0
 _ZN15QQuickTextInput13setRenderTypeENS_10RenderTypeE@Base 6.2.0
 _ZN15QQuickTextInput13setTopPaddingEd@Base 6.2.0
 _ZN15QQuickTextInput14canRedoChangedEv@Base 6.2.0
 _ZN15QQuickTextInput14canUndoChangedEv@Base 6.2.0
 _ZN15QQuickTextInput14geometryChangeERK6QRectFS2_@Base 6.2.0
 _ZN15QQuickTextInput14mouseMoveEventEP11QMouseEvent@Base 6.2.0
 _ZN15QQuickTextInput14paddingChangedEv@Base 6.2.0
 _ZN15QQuickTextInput14setLeftPaddingEd@Base 6.2.0
 _ZN15QQuickTextInput15canPasteChangedEv@Base 6.2.0
 _ZN15QQuickTextInput15echoModeChangedENS_8EchoModeE@Base 6.2.0
 _ZN15QQuickTextInput15editingFinishedEv@Base 6.2.0
 _ZN15QQuickTextInput15mousePressEventEP11QMouseEvent@Base 6.2.0
 _ZN15QQuickTextInput15readOnlyChangedEb@Base 6.2.0
 _ZN15QQuickTextInput15resetTopPaddingEv@Base 6.2.0
 _ZN15QQuickTextInput15setFocusOnPressEb@Base 6.2.0
 _ZN15QQuickTextInput15setRightPaddingEd@Base 6.2.0
 _ZN15QQuickTextInput15updatePaintNodeEP7QSGNodePN10QQuickItem19UpdatePaintNodeDataE@Base 6.2.0
 _ZN15QQuickTextInput15wrapModeChangedEv@Base 6.2.0
 _ZN15QQuickTextInput16inputMaskChangedERK7QString@Base 6.2.0
 _ZN15QQuickTextInput16inputMethodEventEP17QInputMethodEvent@Base 6.2.0
 _ZN15QQuickTextInput16mouseUngrabEventEv@Base 6.2.0
 _ZN15QQuickTextInput16resetLeftPaddingEv@Base 6.2.0
 _ZN15QQuickTextInput16selectionChangedEv@Base 6.2.0
 _ZN15QQuickTextInput16setBottomPaddingEd@Base 6.2.0
 _ZN15QQuickTextInput16setCursorVisibleEb@Base 6.2.0
 _ZN15QQuickTextInput16setOverwriteModeEb@Base 6.2.0
 _ZN15QQuickTextInput16setSelectByMouseEb@Base 6.2.0
 _ZN15QQuickTextInput16staticMetaObjectE@Base 6.2.0
 _ZN15QQuickTextInput16validatorChangedEv@Base 6.2.0
 _ZN15QQuickTextInput17autoScrollChangedEb@Base 6.2.0
 _ZN15QQuickTextInput17componentCompleteEv@Base 6.2.0
 _ZN15QQuickTextInput17ensureActiveFocusEN2Qt11FocusReasonE@Base 6.2.0
 _ZN15QQuickTextInput17mouseReleaseEventEP11QMouseEvent@Base 6.2.0
 _ZN15QQuickTextInput17q_canPasteChangedEv@Base 6.2.0
 _ZN15QQuickTextInput17q_updateAlignmentEv@Base 6.2.0
 _ZN15QQuickTextInput17renderTypeChangedEv@Base 6.2.0
 _ZN15QQuickTextInput17resetRightPaddingEv@Base 6.2.0
 _ZN15QQuickTextInput17setCursorDelegateEP13QQmlComponent@Base 6.2.0
 _ZN15QQuickTextInput17setCursorPositionEi@Base 6.2.0
 _ZN15QQuickTextInput17setSelectionColorERK6QColor@Base 6.2.0
 _ZN15QQuickTextInput17topPaddingChangedEv@Base 6.2.0
 _ZN15QQuickTextInput17triggerPreprocessEv@Base 6.2.0
 _ZN15QQuickTextInput18contentSizeChangedEv@Base 6.2.0
 _ZN15QQuickTextInput18displayTextChangedEv@Base 6.2.0
 _ZN15QQuickTextInput18leftPaddingChangedEv@Base 6.2.0
 _ZN15QQuickTextInput18preeditTextChangedEv@Base 6.2.0
 _ZN15QQuickTextInput18q_validatorChangedEv@Base 6.2.0
 _ZN15QQuickTextInput18resetBottomPaddingEv@Base 6.2.0
 _ZN15QQuickTextInput19moveCursorSelectionEi@Base 6.2.0
 _ZN15QQuickTextInput19moveCursorSelectionEiNS_13SelectionModeE@Base 6.2.0
 _ZN15QQuickTextInput19rightPaddingChangedEv@Base 6.2.0
 _ZN15QQuickTextInput19selectedTextChangedEv@Base 6.2.0
 _ZN15QQuickTextInput19selectionEndChangedEv@Base 6.2.0
 _ZN15QQuickTextInput19setInputMethodHintsE6QFlagsIN2Qt15InputMethodHintEE@Base 6.2.0
 _ZN15QQuickTextInput20bottomPaddingChangedEv@Base 6.2.0
 _ZN15QQuickTextInput20cursorVisibleChangedEb@Base 6.2.0
 _ZN15QQuickTextInput20invalidateFontCachesEv@Base 6.2.0
 _ZN15QQuickTextInput20maximumLengthChangedEi@Base 6.2.0
 _ZN15QQuickTextInput20overwriteModeChangedEb@Base 6.2.0
 _ZN15QQuickTextInput20selectByMouseChangedEb@Base 6.2.0
 _ZN15QQuickTextInput20setPasswordCharacterERK7QString@Base 6.2.0
 _ZN15QQuickTextInput20setPasswordMaskDelayEi@Base 6.2.0
 _ZN15QQuickTextInput20setSelectedTextColorERK6QColor@Base 6.2.0
 _ZN15QQuickTextInput21cursorDelegateChangedEv@Base 6.2.0
 _ZN15QQuickTextInput21cursorPositionChangedEv@Base 6.2.0
 _ZN15QQuickTextInput21mouseDoubleClickEventEP11QMouseEvent@Base 6.2.0
 _ZN15QQuickTextInput21selectionColorChangedEv@Base 6.2.0
 _ZN15QQuickTextInput21selectionStartChangedEv@Base 6.2.0
 _ZN15QQuickTextInput21setMouseSelectionModeENS_13SelectionModeE@Base 6.2.0
 _ZN15QQuickTextInput21updateCursorRectangleEb@Base 6.2.0
 _ZN15QQuickTextInput22acceptableInputChangedEv@Base 6.2.0
 _ZN15QQuickTextInput22cursorRectangleChangedEv@Base 6.2.0
 _ZN15QQuickTextInput22resetPasswordMaskDelayEv@Base 6.2.0
 _ZN15QQuickTextInput22setPersistentSelectionEb@Base 6.2.0
 _ZN15QQuickTextInput23inputMethodHintsChangedEv@Base 6.2.0
 _ZN15QQuickTextInput24passwordCharacterChangedEv@Base 6.2.0
 _ZN15QQuickTextInput24passwordMaskDelayChangedEi@Base 6.2.0
 _ZN15QQuickTextInput24selectedTextColorChangedEv@Base 6.2.0
 _ZN15QQuickTextInput24verticalAlignmentChangedENS_10VAlignmentE@Base 6.2.0
 _ZN15QQuickTextInput25activeFocusOnPressChangedEb@Base 6.2.0
 _ZN15QQuickTextInput25mouseSelectionModeChangedENS_13SelectionModeE@Base 6.2.0
 _ZN15QQuickTextInput26horizontalAlignmentChangedENS_10HAlignmentE@Base 6.2.0
 _ZN15QQuickTextInput26persistentSelectionChangedEv@Base 6.2.0
 _ZN15QQuickTextInput27inputMethodComposingChangedEv@Base 6.2.0
 _ZN15QQuickTextInput35effectiveHorizontalAlignmentChangedEv@Base 6.2.0
 _ZN15QQuickTextInput3cutEv@Base 6.2.0
 _ZN15QQuickTextInput4copyEv@Base 6.2.0
 _ZN15QQuickTextInput4redoEv@Base 6.2.0
 _ZN15QQuickTextInput4undoEv@Base 6.2.0
 _ZN15QQuickTextInput5clearEv@Base 6.2.0
 _ZN15QQuickTextInput5eventEP6QEvent@Base 6.2.0
 _ZN15QQuickTextInput5pasteEv@Base 6.2.0
 _ZN15QQuickTextInput6insertEiRK7QString@Base 6.2.0
 _ZN15QQuickTextInput6removeEii@Base 6.2.0
 _ZN15QQuickTextInput6selectEii@Base 6.2.0
 _ZN15QQuickTextInput7setFontERK5QFont@Base 6.2.0
 _ZN15QQuickTextInput7setTextERK7QString@Base 6.2.0
 _ZN15QQuickTextInput8acceptedEv@Base 6.2.0
 _ZN15QQuickTextInput8deselectEv@Base 6.2.0
 _ZN15QQuickTextInput8setColorERK6QColor@Base 6.2.0
 _ZN15QQuickTextInput9selectAllEv@Base 6.2.0
 _ZN15QQuickTextInput9setHAlignENS_10HAlignmentE@Base 6.2.0
 _ZN15QQuickTextInput9setVAlignENS_10VAlignmentE@Base 6.2.0
 _ZN15QQuickTextInputC1EP10QQuickItem@Base 6.2.0
 _ZN15QQuickTextInputC1ER22QQuickTextInputPrivateP10QQuickItem@Base 6.2.0
 _ZN15QQuickTextInputC2EP10QQuickItem@Base 6.2.0
 _ZN15QQuickTextInputC2ER22QQuickTextInputPrivateP10QQuickItem@Base 6.2.0
 _ZN15QQuickTextInputD0Ev@Base 6.2.0
 _ZN15QQuickTextInputD1Ev@Base 6.2.0
 _ZN15QQuickTextInputD2Ev@Base 6.2.0
 _ZN15QQuickTransform11qt_metacallEN11QMetaObject4CallEiPPv@Base 6.2.0
 _ZN15QQuickTransform11qt_metacastEPKc@Base 6.2.0
 _ZN15QQuickTransform12appendToItemEP10QQuickItem@Base 6.2.0
 _ZN15QQuickTransform13prependToItemEP10QQuickItem@Base 6.2.0
 _ZN15QQuickTransform16staticMetaObjectE@Base 6.2.0
 _ZN15QQuickTransform6updateEv@Base 6.2.0
 _ZN15QQuickTransformC1EP7QObject@Base 6.2.0
 _ZN15QQuickTransformC1ER22QQuickTransformPrivateP7QObject@Base 6.2.0
 _ZN15QQuickTransformC2EP7QObject@Base 6.2.0
 _ZN15QQuickTransformC2ER22QQuickTransformPrivateP7QObject@Base 6.2.0
 _ZN15QQuickTransformD0Ev@Base 6.2.0
 _ZN15QQuickTransformD1Ev@Base 6.2.0
 _ZN15QQuickTransformD2Ev@Base 6.2.0
 _ZN15QQuickTranslate11qt_metacallEN11QMetaObject4CallEiPPv@Base 6.2.0
 _ZN15QQuickTranslate11qt_metacastEPKc@Base 6.2.0
 _ZN15QQuickTranslate16staticMetaObjectE@Base 6.2.0
 _ZN15QQuickTranslate4setXEd@Base 6.2.0
 _ZN15QQuickTranslate4setYEd@Base 6.2.0
 _ZN15QQuickTranslate8xChangedEv@Base 6.2.0
 _ZN15QQuickTranslate8yChangedEv@Base 6.2.0
 _ZN15QQuickTranslateC1EP7QObject@Base 6.2.0
 _ZN15QQuickTranslateC2EP7QObject@Base 6.2.0
 _ZN15QQuickTranslateD0Ev@Base 6.2.0
 _ZN15QQuickTranslateD1Ev@Base 6.2.0
 _ZN15QQuickTranslateD2Ev@Base 6.2.0
 _ZN15QQuickXAnimator11qt_metacallEN11QMetaObject4CallEiPPv@Base 6.2.0
 _ZN15QQuickXAnimator11qt_metacastEPKc@Base 6.2.0
 _ZN15QQuickXAnimator16staticMetaObjectE@Base 6.2.0
 _ZN15QQuickXAnimatorC1EP7QObject@Base 6.2.0
 _ZN15QQuickXAnimatorC2EP7QObject@Base 6.2.0
 _ZN15QQuickYAnimator11qt_metacallEN11QMetaObject4CallEiPPv@Base 6.2.0
 _ZN15QQuickYAnimator11qt_metacastEPKc@Base 6.2.0
 _ZN15QQuickYAnimator16staticMetaObjectE@Base 6.2.0
 _ZN15QQuickYAnimatorC1EP7QObject@Base 6.2.0
 _ZN15QQuickYAnimatorC2EP7QObject@Base 6.2.0
 _ZN15QSGGeometryNode11setMaterialEP11QSGMaterial@Base 6.2.0
 _ZN15QSGGeometryNode14setRenderOrderEi@Base 6.2.0
 _ZN15QSGGeometryNode17setOpaqueMaterialEP11QSGMaterial@Base 6.2.0
 _ZN15QSGGeometryNode19setInheritedOpacityEd@Base 6.2.0
 _ZN15QSGGeometryNodeC1ER22QSGGeometryNodePrivate@Base 6.2.0
 _ZN15QSGGeometryNodeC1Ev@Base 6.2.0
 _ZN15QSGGeometryNodeC2ER22QSGGeometryNodePrivate@Base 6.2.0
 _ZN15QSGGeometryNodeC2Ev@Base 6.2.0
 _ZN15QSGGeometryNodeD0Ev@Base 6.2.0
 _ZN15QSGGeometryNodeD1Ev@Base 6.2.0
 _ZN15QSGGeometryNodeD2Ev@Base 6.2.0
 _ZN15QSGPlainTexture10setTextureEP11QRhiTexture@Base 6.2.0
 _ZN15QSGPlainTexture11qt_metacallEN11QMetaObject4CallEiPPv@Base 6.2.0
 _ZN15QSGPlainTexture11qt_metacastEPKc@Base 6.2.0
 _ZN15QSGPlainTexture16staticMetaObjectE@Base 6.2.0
 _ZN15QSGPlainTexture23commitTextureOperationsEP4QRhiP23QRhiResourceUpdateBatch@Base 6.2.0
 _ZN15QSGPlainTexture27setTextureFromNativeTextureEP4QRhiyiRK5QSize6QFlagsIN12QQuickWindow19CreateTextureOptionEES5_IN19QQuickWindowPrivate28TextureFromNativeTextureFlagEE@Base 6.2.0
 _ZN15QSGPlainTexture8setImageERK6QImage@Base 6.2.0
 _ZN15QSGPlainTextureC1ER22QSGPlainTexturePrivate@Base 6.2.0
 _ZN15QSGPlainTextureC1Ev@Base 6.2.0
 _ZN15QSGPlainTextureC2ER22QSGPlainTexturePrivate@Base 6.2.0
 _ZN15QSGPlainTextureC2Ev@Base 6.2.0
 _ZN15QSGPlainTextureD0Ev@Base 6.2.0
 _ZN15QSGPlainTextureD1Ev@Base 6.2.0
 _ZN15QSGPlainTextureD2Ev@Base 6.2.0
 _ZN16QNativeInterface16QSGOpenGLTexture10fromNativeEjP12QQuickWindowRK5QSize6QFlagsINS1_19CreateTextureOptionEE@Base 6.2.0
 _ZN16QNativeInterface16QSGOpenGLTexture21fromNativeExternalOESEjP12QQuickWindowRK5QSize6QFlagsINS1_19CreateTextureOptionEE@Base 6.2.0
 _ZN16QNativeInterface16QSGOpenGLTextureD0Ev@Base 6.2.0
 _ZN16QNativeInterface16QSGOpenGLTextureD1Ev@Base 6.2.0
 _ZN16QNativeInterface16QSGOpenGLTextureD2Ev@Base 6.2.0
 (arch-bits=64|arch=linux-any)_ZN16QNativeInterface16QSGVulkanTexture10fromNativeEP9VkImage_T13VkImageLayoutP12QQuickWindowRK5QSize6QFlagsINS4_19CreateTextureOptionEE@Base 6.2.0
 (arch-bits=32|arch=linux-any)_ZN16QNativeInterface16QSGVulkanTexture10fromNativeEy13VkImageLayoutP12QQuickWindowRK5QSize6QFlagsINS2_19CreateTextureOptionEE@Base 6.2.0
 (arch=linux-any)_ZN16QNativeInterface16QSGVulkanTextureD0Ev@Base 6.2.0
 (arch=linux-any)_ZN16QNativeInterface16QSGVulkanTextureD1Ev@Base 6.2.0
 (arch=linux-any)_ZN16QNativeInterface16QSGVulkanTextureD2Ev@Base 6.2.0
 _ZN16QQuickAnchorLine16staticMetaObjectE@Base 6.2.0
 _ZN16QQuickCloseEvent11qt_metacallEN11QMetaObject4CallEiPPv@Base 6.2.0
 _ZN16QQuickCloseEvent11qt_metacastEPKc@Base 6.2.0
 _ZN16QQuickCloseEvent16staticMetaObjectE@Base 6.2.0
 _ZN16QQuickColorGroup10midChangedEv@Base 6.2.0
 _ZN16QQuickColorGroup10resetColorEN8QPalette9ColorRoleEMS_FvvE@Base 6.2.0
 _ZN16QQuickColorGroup10resetLightEv@Base 6.2.0
 _ZN16QQuickColorGroup11baseChangedEv@Base 6.2.0
 _ZN16QQuickColorGroup11darkChangedEv@Base 6.2.0
 _ZN16QQuickColorGroup11linkChangedEv@Base 6.2.0
 _ZN16QQuickColorGroup11qt_metacallEN11QMetaObject4CallEiPPv@Base 6.2.0
 _ZN16QQuickColorGroup11qt_metacastEPKc@Base 6.2.0
 _ZN16QQuickColorGroup11resetButtonEv@Base 6.2.0
 _ZN16QQuickColorGroup11resetShadowEv@Base 6.2.0
 _ZN16QQuickColorGroup11resetWindowEv@Base 6.2.0
 _ZN16QQuickColorGroup11setGroupTagEN8QPalette10ColorGroupE@Base 6.2.0
 _ZN16QQuickColorGroup11setMidlightERK6QColor@Base 6.2.0
 _ZN16QQuickColorGroup11textChangedEv@Base 6.2.0
 _ZN16QQuickColorGroup12lightChangedEv@Base 6.2.0
 _ZN16QQuickColorGroup12setHighlightERK6QColor@Base 6.2.0
 _ZN16QQuickColorGroup13buttonChangedEv@Base 6.2.0
 _ZN16QQuickColorGroup13colorProviderEv@Base 6.2.0
 _ZN16QQuickColorGroup13resetMidlightEv@Base 6.2.0
 _ZN16QQuickColorGroup13setBrightTextERK6QColor@Base 6.2.0
 _ZN16QQuickColorGroup13setButtonTextERK6QColor@Base 6.2.0
 _ZN16QQuickColorGroup13setWindowTextERK6QColor@Base 6.2.0
 _ZN16QQuickColorGroup13shadowChangedEv@Base 6.2.0
 _ZN16QQuickColorGroup13windowChangedEv@Base 6.2.0
 _ZN16QQuickColorGroup14resetHighlightEv@Base 6.2.0
 _ZN16QQuickColorGroup14setLinkVisitedERK6QColor@Base 6.2.0
 _ZN16QQuickColorGroup14setToolTipBaseERK6QColor@Base 6.2.0
 _ZN16QQuickColorGroup14setToolTipTextERK6QColor@Base 6.2.0
 _ZN16QQuickColorGroup15midlightChangedEv@Base 6.2.0
 _ZN16QQuickColorGroup15resetBrightTextEv@Base 6.2.0
 _ZN16QQuickColorGroup15resetButtonTextEv@Base 6.2.0
 _ZN16QQuickColorGroup15resetWindowTextEv@Base 6.2.0
 _ZN16QQuickColorGroup16createWithParentER13QQuickPalette@Base 6.2.0
 _ZN16QQuickColorGroup16highlightChangedEv@Base 6.2.0
 _ZN16QQuickColorGroup16resetLinkVisitedEv@Base 6.2.0
 _ZN16QQuickColorGroup16resetToolTipBaseEv@Base 6.2.0
 _ZN16QQuickColorGroup16resetToolTipTextEv@Base 6.2.0
 _ZN16QQuickColorGroup16setAlternateBaseERK6QColor@Base 6.2.0
 _ZN16QQuickColorGroup16staticMetaObjectE@Base 6.2.0
 _ZN16QQuickColorGroup17brightTextChangedEv@Base 6.2.0
 _ZN16QQuickColorGroup17buttonTextChangedEv@Base 6.2.0
 _ZN16QQuickColorGroup17windowTextChangedEv@Base 6.2.0
 _ZN16QQuickColorGroup18linkVisitedChangedEv@Base 6.2.0
 _ZN16QQuickColorGroup18resetAlternateBaseEv@Base 6.2.0
 _ZN16QQuickColorGroup18setHighlightedTextERK6QColor@Base 6.2.0
 _ZN16QQuickColorGroup18setPlaceholderTextERK6QColor@Base 6.2.0
 _ZN16QQuickColorGroup18toolTipBaseChangedEv@Base 6.2.0
 _ZN16QQuickColorGroup18toolTipTextChangedEv@Base 6.2.0
 _ZN16QQuickColorGroup20alternateBaseChangedEv@Base 6.2.0
 _ZN16QQuickColorGroup20resetHighlightedTextEv@Base 6.2.0
 _ZN16QQuickColorGroup20resetPlaceholderTextEv@Base 6.2.0
 _ZN16QQuickColorGroup22highlightedTextChangedEv@Base 6.2.0
 _ZN16QQuickColorGroup22placeholderTextChangedEv@Base 6.2.0
 _ZN16QQuickColorGroup6setMidERK6QColor@Base 6.2.0
 _ZN16QQuickColorGroup7changedEv@Base 6.2.0
 _ZN16QQuickColorGroup7setBaseERK6QColor@Base 6.2.0
 _ZN16QQuickColorGroup7setDarkERK6QColor@Base 6.2.0
 _ZN16QQuickColorGroup7setLinkERK6QColor@Base 6.2.0
 _ZN16QQuickColorGroup7setTextERK6QColor@Base 6.2.0
 _ZN16QQuickColorGroup8resetMidEv@Base 6.2.0
 _ZN16QQuickColorGroup8setColorEN8QPalette9ColorRoleE6QColorMS_FvvE@Base 6.2.0
 _ZN16QQuickColorGroup8setLightERK6QColor@Base 6.2.0
 _ZN16QQuickColorGroup9resetBaseEv@Base 6.2.0
 _ZN16QQuickColorGroup9resetDarkEv@Base 6.2.0
 _ZN16QQuickColorGroup9resetLinkEv@Base 6.2.0
 _ZN16QQuickColorGroup9resetTextEv@Base 6.2.0
 _ZN16QQuickColorGroup9setButtonERK6QColor@Base 6.2.0
 _ZN16QQuickColorGroup9setShadowERK6QColor@Base 6.2.0
 _ZN16QQuickColorGroup9setWindowERK6QColor@Base 6.2.0
 _ZN16QQuickColorGroupC1EP7QObject@Base 6.2.0
 _ZN16QQuickColorGroupC1ER13QQuickPalette@Base 6.2.0
 _ZN16QQuickColorGroupC2EP7QObject@Base 6.2.0
 _ZN16QQuickColorGroupC2ER13QQuickPalette@Base 6.2.0
 _ZN16QQuickFocusScope11qt_metacallEN11QMetaObject4CallEiPPv@Base 6.2.0
 _ZN16QQuickFocusScope11qt_metacastEPKc@Base 6.2.0
 _ZN16QQuickFocusScope16staticMetaObjectE@Base 6.2.0
 _ZN16QQuickFocusScopeC1EP10QQuickItem@Base 6.2.0
 _ZN16QQuickFocusScopeC2EP10QQuickItem@Base 6.2.0
 _ZN16QQuickFocusScopeD0Ev@Base 6.2.0
 _ZN16QQuickFocusScopeD1Ev@Base 6.2.0
 _ZN16QQuickFocusScopeD2Ev@Base 6.2.0
 _ZN16QQuickFontLoader11fontChangedEv@Base 6.2.0
 _ZN16QQuickFontLoader11nameChangedEv@Base 6.2.0
 _ZN16QQuickFontLoader11qt_metacallEN11QMetaObject4CallEiPPv@Base 6.2.0
 _ZN16QQuickFontLoader11qt_metacastEPKc@Base 6.2.0
 _ZN16QQuickFontLoader13sourceChangedEv@Base 6.2.0
 _ZN16QQuickFontLoader13statusChangedEv@Base 6.2.0
 _ZN16QQuickFontLoader14updateFontInfoEi@Base 6.2.0
 _ZN16QQuickFontLoader16staticMetaObjectE@Base 6.2.0
 _ZN16QQuickFontLoader9setSourceERK4QUrl@Base 6.2.0
 _ZN16QQuickFontLoaderC1EP7QObject@Base 6.2.0
 _ZN16QQuickFontLoaderC2EP7QObject@Base 6.2.0
 _ZN16QQuickFontLoaderD0Ev@Base 6.2.0
 _ZN16QQuickFontLoaderD1Ev@Base 6.2.0
 _ZN16QQuickFontLoaderD2Ev@Base 6.2.0
 _ZN16QQuickMouseEvent11qt_metacallEN11QMetaObject4CallEiPPv@Base 6.2.0
 _ZN16QQuickMouseEvent11qt_metacastEPKc@Base 6.2.0
 _ZN16QQuickMouseEvent16staticMetaObjectE@Base 6.2.0
 _ZN16QQuickPinchEvent11qt_metacallEN11QMetaObject4CallEiPPv@Base 6.2.0
 _ZN16QQuickPinchEvent11qt_metacastEPKc@Base 6.2.0
 _ZN16QQuickPinchEvent16staticMetaObjectE@Base 6.2.0
 _ZN16QQuickScreenInfo11nameChangedEv@Base 6.2.0
 _ZN16QQuickScreenInfo11qt_metacallEN11QMetaObject4CallEiPPv@Base 6.2.0
 _ZN16QQuickScreenInfo11qt_metacastEPKc@Base 6.2.0
 _ZN16QQuickScreenInfo12modelChangedEv@Base 6.2.0
 _ZN16QQuickScreenInfo12widthChangedEv@Base 6.2.0
 _ZN16QQuickScreenInfo13heightChangedEv@Base 6.2.0
 _ZN16QQuickScreenInfo15virtualXChangedEv@Base 6.2.0
 _ZN16QQuickScreenInfo15virtualYChangedEv@Base 6.2.0
 _ZN16QQuickScreenInfo16setWrappedScreenEP7QScreen@Base 6.2.0
 _ZN16QQuickScreenInfo16staticMetaObjectE@Base 6.2.0
 _ZN16QQuickScreenInfo18orientationChangedEv@Base 6.2.0
 _ZN16QQuickScreenInfo19manufacturerChangedEv@Base 6.2.0
 _ZN16QQuickScreenInfo19pixelDensityChangedEv@Base 6.2.0
 _ZN16QQuickScreenInfo19serialNumberChangedEv@Base 6.2.0
 _ZN16QQuickScreenInfo22desktopGeometryChangedEv@Base 6.2.0
 _ZN16QQuickScreenInfo23devicePixelRatioChangedEv@Base 6.2.0
 _ZN16QQuickScreenInfo25primaryOrientationChangedEv@Base 6.2.0
 _ZN16QQuickScreenInfo26logicalPixelDensityChangedEv@Base 6.2.0
 _ZN16QQuickScreenInfoC1EP7QObjectP7QScreen@Base 6.2.0
 _ZN16QQuickScreenInfoC2EP7QObjectP7QScreen@Base 6.2.0
 _ZN16QQuickStateGroup10classBeginEv@Base 6.2.0
 _ZN16QQuickStateGroup11qt_metacallEN11QMetaObject4CallEiPPv@Base 6.2.0
 _ZN16QQuickStateGroup11qt_metacastEPKc@Base 6.2.0
 _ZN16QQuickStateGroup11removeStateEP11QQuickState@Base 6.2.0
 _ZN16QQuickStateGroup12stateChangedERK7QString@Base 6.2.0
 _ZN16QQuickStateGroup14statesPropertyEv@Base 6.2.0
 _ZN16QQuickStateGroup15updateAutoStateEv@Base 6.2.0
 _ZN16QQuickStateGroup16staticMetaObjectE@Base 6.2.0
 _ZN16QQuickStateGroup17componentCompleteEv@Base 6.2.0
 _ZN16QQuickStateGroup19transitionsPropertyEv@Base 6.2.0
 _ZN16QQuickStateGroup20stateAboutToCompleteEv@Base 6.2.0
 _ZN16QQuickStateGroup8setStateERK7QString@Base 6.2.0
 _ZN16QQuickStateGroupC1EP7QObject@Base 6.2.0
 _ZN16QQuickStateGroupC2EP7QObject@Base 6.2.0
 _ZN16QQuickStateGroupD0Ev@Base 6.2.0
 _ZN16QQuickStateGroupD1Ev@Base 6.2.0
 _ZN16QQuickStateGroupD2Ev@Base 6.2.0
 _ZN16QQuickTapHandler10setPressedEbbP13QPointerEventR11QEventPoint@Base 6.2.0
 _ZN16QQuickTapHandler10timerEventEP11QTimerEvent@Base 6.2.0
 _ZN16QQuickTapHandler11longPressedEv@Base 6.2.0
 _ZN16QQuickTapHandler11qt_metacallEN11QMetaObject4CallEiPPv@Base 6.2.0
 _ZN16QQuickTapHandler11qt_metacastEPKc@Base 6.2.0
 _ZN16QQuickTapHandler12doubleTappedE11QEventPointN2Qt11MouseButtonE@Base 6.2.0
 _ZN16QQuickTapHandler12singleTappedE11QEventPointN2Qt11MouseButtonE@Base 6.2.0
 _ZN16QQuickTapHandler13onGrabChangedEP20QQuickPointerHandlerN15QPointingDevice14GrabTransitionEP13QPointerEventR11QEventPoint@Base 6.2.0
 _ZN16QQuickTapHandler14pressedChangedEv@Base 6.2.0
 _ZN16QQuickTapHandler14updateTimeHeldEv@Base 6.2.0
 _ZN16QQuickTapHandler15tapCountChangedEv@Base 6.2.0
 _ZN16QQuickTapHandler15timeHeldChangedEv@Base 6.2.0
 _ZN16QQuickTapHandler15wantsEventPointEPK13QPointerEventRK11QEventPoint@Base 6.2.0
 _ZN16QQuickTapHandler16handleEventPointEP13QPointerEventR11QEventPoint@Base 6.2.0
 _ZN16QQuickTapHandler16setGesturePolicyENS_13GesturePolicyE@Base 6.2.0
 _ZN16QQuickTapHandler16staticMetaObjectE@Base 6.2.0
 _ZN16QQuickTapHandler18m_multiTapIntervalE@Base 6.2.0
 _ZN16QQuickTapHandler20gesturePolicyChangedEv@Base 6.2.0
 _ZN16QQuickTapHandler21setLongPressThresholdEd@Base 6.2.0
 _ZN16QQuickTapHandler22connectPreRenderSignalEb@Base 6.2.0
 _ZN16QQuickTapHandler25longPressThresholdChangedEv@Base 6.2.0
 _ZN16QQuickTapHandler30m_touchMultiTapDistanceSquaredE@Base 6.2.0
 _ZN16QQuickTapHandler32m_mouseMultiClickDistanceSquaredE@Base 6.2.0
 _ZN16QQuickTapHandler6tappedE11QEventPointN2Qt11MouseButtonE@Base 6.2.0
 _ZN16QQuickTapHandlerC1EP10QQuickItem@Base 6.2.0
 _ZN16QQuickTapHandlerC2EP10QQuickItem@Base 6.2.0
 _ZN16QQuickTouchPoint10setPointIdEi@Base 6.2.0
 _ZN16QQuickTouchPoint10setPressedEb@Base 6.2.0
 _ZN16QQuickTouchPoint11areaChangedEv@Base 6.2.0
 _ZN16QQuickTouchPoint11qt_metacallEN11QMetaObject4CallEiPPv@Base 6.2.0
 _ZN16QQuickTouchPoint11qt_metacastEPKc@Base 6.2.0
 _ZN16QQuickTouchPoint11setPositionE7QPointF@Base 6.2.0
 _ZN16QQuickTouchPoint11setPressureEd@Base 6.2.0
 _ZN16QQuickTouchPoint11setRotationEd@Base 6.2.0
 _ZN16QQuickTouchPoint11setUniqueIdERK23QPointingDeviceUniqueId@Base 6.2.0
 _ZN16QQuickTouchPoint11setVelocityERK9QVector2D@Base 6.2.0
 _ZN16QQuickTouchPoint12setPreviousXEd@Base 6.2.0
 _ZN16QQuickTouchPoint12setPreviousYEd@Base 6.2.0
 _ZN16QQuickTouchPoint13sceneXChangedEv@Base 6.2.0
 _ZN16QQuickTouchPoint13sceneYChangedEv@Base 6.2.0
 _ZN16QQuickTouchPoint13startXChangedEv@Base 6.2.0
 _ZN16QQuickTouchPoint13startYChangedEv@Base 6.2.0
 _ZN16QQuickTouchPoint14pointIdChangedEv@Base 6.2.0
 _ZN16QQuickTouchPoint14pressedChangedEv@Base 6.2.0
 _ZN16QQuickTouchPoint15pressureChangedEv@Base 6.2.0
 _ZN16QQuickTouchPoint15rotationChangedEv@Base 6.2.0
 _ZN16QQuickTouchPoint15uniqueIdChangedEv@Base 6.2.0
 _ZN16QQuickTouchPoint15velocityChangedEv@Base 6.2.0
 _ZN16QQuickTouchPoint16previousXChangedEv@Base 6.2.0
 _ZN16QQuickTouchPoint16previousYChangedEv@Base 6.2.0
 _ZN16QQuickTouchPoint16staticMetaObjectE@Base 6.2.0
 _ZN16QQuickTouchPoint19setEllipseDiametersERK6QSizeF@Base 6.2.0
 _ZN16QQuickTouchPoint23ellipseDiametersChangedEv@Base 6.2.0
 _ZN16QQuickTouchPoint7setAreaERK6QRectF@Base 6.2.0
 _ZN16QQuickTouchPoint8xChangedEv@Base 6.2.0
 _ZN16QQuickTouchPoint8yChangedEv@Base 6.2.0
 _ZN16QQuickTouchPoint9setSceneXEd@Base 6.2.0
 _ZN16QQuickTouchPoint9setSceneYEd@Base 6.2.0
 _ZN16QQuickTouchPoint9setStartXEd@Base 6.2.0
 _ZN16QQuickTouchPoint9setStartYEd@Base 6.2.0
 _ZN16QQuickTransition10animationsEv@Base 6.2.0
 _ZN16QQuickTransition10setEnabledEb@Base 6.2.0
 _ZN16QQuickTransition10setToStateERK7QString@Base 6.2.0
 _ZN16QQuickTransition11fromChangedEv@Base 6.2.0
 _ZN16QQuickTransition11qt_metacallEN11QMetaObject4CallEiPPv@Base 6.2.0
 _ZN16QQuickTransition11qt_metacastEPKc@Base 6.2.0
 _ZN16QQuickTransition11setReversedEb@Base 6.2.0
 _ZN16QQuickTransition12setFromStateERK7QString@Base 6.2.0
 _ZN16QQuickTransition13setReversibleEb@Base 6.2.0
 _ZN16QQuickTransition14enabledChangedEv@Base 6.2.0
 _ZN16QQuickTransition14runningChangedEv@Base 6.2.0
 _ZN16QQuickTransition16staticMetaObjectE@Base 6.2.0
 _ZN16QQuickTransition17reversibleChangedEv@Base 6.2.0
 _ZN16QQuickTransition7prepareER5QListI17QQuickStateActionERS0_I12QQmlPropertyEP23QQuickTransitionManagerP7QObject@Base 6.2.0
 _ZN16QQuickTransition9toChangedEv@Base 6.2.0
 _ZN16QQuickTransitionC1EP7QObject@Base 6.2.0
 _ZN16QQuickTransitionC2EP7QObject@Base 6.2.0
 _ZN16QQuickTransitionD0Ev@Base 6.2.0
 _ZN16QQuickTransitionD1Ev@Base 6.2.0
 _ZN16QQuickTransitionD2Ev@Base 6.2.0
 _ZN16QSGAreaAllocator10deallocateERK5QRect@Base 6.2.0
 _ZN16QSGAreaAllocator11deserializeEPKci@Base 6.2.0
 _ZN16QSGAreaAllocator14allocateInNodeERK5QSizeR6QPointRK5QRectP20QSGAreaAllocatorNode@Base 6.2.0
 _ZN16QSGAreaAllocator16deallocateInNodeERK6QPointP20QSGAreaAllocatorNode@Base 6.2.0
 _ZN16QSGAreaAllocator22mergeNodeWithNeighborsEP20QSGAreaAllocatorNode@Base 6.2.0
 _ZN16QSGAreaAllocator8allocateERK5QSize@Base 6.2.0
 _ZN16QSGAreaAllocator9serializeEv@Base 6.2.0
 _ZN16QSGAreaAllocatorC1ERK5QSize@Base 6.2.0
 _ZN16QSGAreaAllocatorC2ERK5QSize@Base 6.2.0
 _ZN16QSGAreaAllocatorD1Ev@Base 6.2.0
 _ZN16QSGAreaAllocatorD2Ev@Base 6.2.0
 _ZN16QSGBatchRenderer8Renderer11nodeChangedEP7QSGNode6QFlagsINS1_13DirtyStateBitEE@Base 6.2.0
 _ZN16QSGBatchRenderer8Renderer11tagSubRootsEPNS_4NodeE@Base 6.2.0
 _ZN16QSGBatchRenderer8Renderer11uploadBatchEPNS_5BatchE@Base 6.2.0
 _ZN16QSGBatchRenderer8Renderer12checkOverlapEiiRKNS_4RectE@Base 6.2.0
 _ZN16QSGBatchRenderer8Renderer12dummyTextureEv@Base 6.2.0
 _ZN16QSGBatchRenderer8Renderer12nodeWasAddedEP7QSGNodePNS_4NodeE@Base 6.2.0
 _ZN16QSGBatchRenderer8Renderer12renderInlineEv@Base 6.2.0
 _ZN16QSGBatchRenderer8Renderer13batchRootInfoEPNS_4NodeE@Base 6.2.0
 _ZN16QSGBatchRenderer8Renderer13endRenderPassEPNS0_17RenderPassContextE@Base 6.2.0
 _ZN16QSGBatchRenderer8Renderer13prepareInlineEv@Base 6.2.0
 _ZN16QSGBatchRenderer8Renderer14checkLineWidthEP11QSGGeometry@Base 6.2.0
 _ZN16QSGBatchRenderer8Renderer14cleanupBatchesEP11QDataBufferIPNS_5BatchEE@Base 6.2.0
 _ZN16QSGBatchRenderer8Renderer14nodeWasRemovedEPNS_4NodeE@Base 6.2.0
 _ZN16QSGBatchRenderer8Renderer14releaseElementEPNS_7ElementEb@Base 6.2.1
 _ZN16QSGBatchRenderer8Renderer15beginRenderPassEPNS0_17RenderPassContextE@Base 6.2.0
 _ZN16QSGBatchRenderer8Renderer15changeBatchRootEPNS_4NodeES2_@Base 6.2.0
 _ZN16QSGBatchRenderer8Renderer15updateClipStateEPK11QSGClipNodePNS_5BatchE@Base 6.2.0
 _ZN16QSGBatchRenderer8Renderer16buildRenderListsEP7QSGNode@Base 6.2.0
 _ZN16QSGBatchRenderer8Renderer16recordRenderPassEPNS0_17RenderPassContextE@Base 6.2.0
 _ZN16QSGBatchRenderer8Renderer17prepareRenderPassEPNS0_17RenderPassContextE@Base 6.2.0
 _ZN16QSGBatchRenderer8Renderer17registerBatchRootEPNS_4NodeES2_@Base 6.2.0
 _ZN16QSGBatchRenderer8Renderer17renderMergedBatchEPNS0_19PreparedRenderBatchEb@Base 6.2.0
 _ZN16QSGBatchRenderer8Renderer18enqueueStencilDrawEPKNS_5BatchE@Base 6.2.0
 _ZN16QSGBatchRenderer8Renderer18nodeWasTransformedEPNS_4NodeEPi@Base 6.2.0
 _ZN16QSGBatchRenderer8Renderer18setActiveRhiShaderEP17QSGMaterialShaderPNS_19ShaderManagerShaderE@Base 6.2.0
 _ZN16QSGBatchRenderer8Renderer19ensurePipelineStateEPNS_7ElementEPKNS_19ShaderManagerShaderEb@Base 6.2.0
 _ZN16QSGBatchRenderer8Renderer19prepareAlphaBatchesEv@Base 6.2.0
 _ZN16QSGBatchRenderer8Renderer19renderRhiRenderNodeEPKNS_5BatchE@Base 6.2.0
 _ZN16QSGBatchRenderer8Renderer19renderUnmergedBatchEPNS0_19PreparedRenderBatchEb@Base 6.2.0
 _ZN16QSGBatchRenderer8Renderer19setGraphicsPipelineEP17QRhiCommandBufferPKNS_5BatchEPNS_7ElementEb@Base 6.2.0
 _ZN16QSGBatchRenderer8Renderer19uploadMergedElementEPNS_7ElementEiPPcS4_S4_PvPi@Base 6.2.0
 _ZN16QSGBatchRenderer8Renderer20buildStencilPipelineEPKNS_5BatchEb@Base 6.2.0
 _ZN16QSGBatchRenderer8Renderer20nodeChangedBatchRootEPNS_4NodeES2_@Base 6.2.0
 _ZN16QSGBatchRenderer8Renderer20prepareOpaqueBatchesEv@Base 6.2.0
 _ZN16QSGBatchRenderer8Renderer20prepareRhiRenderNodeEPNS_5BatchEPNS0_19PreparedRenderBatchE@Base 6.2.0
 _ZN16QSGBatchRenderer8Renderer20setVisualizationModeERK10QByteArray@Base 6.2.0
 _ZN16QSGBatchRenderer8Renderer21deleteRemovedElementsEv@Base 6.2.0
 _ZN16QSGBatchRenderer8Renderer21turnNodeIntoBatchRootEPNS_4NodeE@Base 6.2.0
 _ZN16QSGBatchRenderer8Renderer22releaseCachedResourcesEv@Base 6.2.0
 _ZN16QSGBatchRenderer8Renderer24destroyGraphicsResourcesEv@Base 6.2.0
 _ZN16QSGBatchRenderer8Renderer24prepareRenderMergedBatchEPNS_5BatchEPNS0_19PreparedRenderBatchE@Base 6.2.0
 _ZN16QSGBatchRenderer8Renderer24updateMaterialStaticDataEPNS_19ShaderManagerShaderERN17QSGMaterialShader11RenderStateEP11QSGMaterialPNS_5BatchEPb@Base 6.2.0
 _ZN16QSGBatchRenderer8Renderer25invalidateAndRecycleBatchEPNS_5BatchE@Base 6.2.0
 _ZN16QSGBatchRenderer8Renderer25removeBatchRootFromParentEPNS_4NodeE@Base 6.2.0
 _ZN16QSGBatchRenderer8Renderer25updateMaterialDynamicDataEPNS_19ShaderManagerShaderERN17QSGMaterialShader11RenderStateEP11QSGMaterialPKNS_5BatchEPNS_7ElementEii@Base 6.2.1
 _ZN16QSGBatchRenderer8Renderer26prepareRenderUnmergedBatchEPNS_5BatchEPNS0_19PreparedRenderBatchE@Base 6.2.0
 _ZN16QSGBatchRenderer8Renderer27buildRenderListsFromScratchEv@Base 6.2.0
 _ZN16QSGBatchRenderer8Renderer29applyClipStateToGraphicsStateEv@Base 6.2.0
 _ZN16QSGBatchRenderer8Renderer30buildRenderListsForTaggedRootsEv@Base 6.2.0
 _ZN16QSGBatchRenderer8Renderer3mapEPNS_6BufferEib@Base 6.2.0
 _ZN16QSGBatchRenderer8Renderer41invalidateBatchAndOverlappingRenderOrdersEPNS_5BatchE@Base 6.2.0
 _ZN16QSGBatchRenderer8Renderer5unmapEPNS_6BufferEb@Base 6.2.0
 _ZN16QSGBatchRenderer8Renderer6renderEv@Base 6.2.0
 _ZN16QSGBatchRenderer8RendererC1EP23QSGDefaultRenderContextN20QSGRendererInterface10RenderModeE@Base 6.2.0
 _ZN16QSGBatchRenderer8RendererC2EP23QSGDefaultRenderContextN20QSGRendererInterface10RenderModeE@Base 6.2.0
 _ZN16QSGBatchRenderer8RendererD0Ev@Base 6.2.0
 _ZN16QSGBatchRenderer8RendererD1Ev@Base 6.2.0
 _ZN16QSGBatchRenderer8RendererD2Ev@Base 6.2.0
 _ZN16QSGContextPlugin11qt_metacallEN11QMetaObject4CallEiPPv@Base 6.2.0
 _ZN16QSGContextPlugin11qt_metacastEPKc@Base 6.2.0
 _ZN16QSGContextPlugin16staticMetaObjectE@Base 6.2.0
 _ZN16QSGContextPluginC1EP7QObject@Base 6.2.0
 _ZN16QSGContextPluginC2EP7QObject@Base 6.2.0
 _ZN16QSGContextPluginD0Ev@Base 6.2.0
 _ZN16QSGContextPluginD1Ev@Base 6.2.0
 _ZN16QSGContextPluginD2Ev@Base 6.2.0
 _ZN16QSGNinePatchNode15rebuildGeometryEP10QSGTextureP11QSGGeometryRK9QVector4DRK6QRectFd@Base 6.2.0
 _ZN16QSGNodeVisitorEx13visitChildrenEP7QSGNode@Base 6.2.0
 _ZN16QSGRenderContext10initializeEPKNS_10InitParamsE@Base 6.2.0
 _ZN16QSGRenderContext10invalidateEv@Base 6.2.0
 _ZN16QSGRenderContext10preprocessEv@Base 6.2.0
 _ZN16QSGRenderContext11initializedEv@Base 6.2.0
 _ZN16QSGRenderContext11invalidatedEv@Base 6.2.0
 _ZN16QSGRenderContext11prepareSyncEdP17QRhiCommandBufferRK27QQuickGraphicsConfiguration@Base 6.2.0
 _ZN16QSGRenderContext11qt_metacallEN11QMetaObject4CallEiPPv@Base 6.2.0
 _ZN16QSGRenderContext11qt_metacastEPKc@Base 6.2.0
 _ZN16QSGRenderContext12endNextFrameEP11QSGRenderer@Base 6.2.0
 _ZN16QSGRenderContext14beginNextFrameEP11QSGRendererPFvPvES4_S2_@Base 6.2.0
 _ZN16QSGRenderContext15endNextRhiFrameEP11QSGRenderer@Base 6.2.0
 _ZN16QSGRenderContext16staticMetaObjectE@Base 6.2.0
 _ZN16QSGRenderContext17beginNextRhiFrameEP11QSGRendererP16QRhiRenderTargetP24QRhiRenderPassDescriptorP17QRhiCommandBufferPFvPvESA_S8_@Base 6.2.0
 _ZN16QSGRenderContext17textureForFactoryEP20QQuickTextureFactoryP12QQuickWindow@Base 6.2.0
 _ZN16QSGRenderContext18renderNextRhiFrameEP11QSGRenderer@Base 6.2.0
 _ZN16QSGRenderContext23distanceFieldGlyphCacheERK8QRawFonti@Base 6.2.0
 _ZN16QSGRenderContext23textureFactoryDestroyedEP7QObject@Base 6.2.0
 _ZN16QSGRenderContext28registerFontengineForCleanupEP11QFontEngine@Base 6.2.0
 _ZN16QSGRenderContext7endSyncEv@Base 6.2.0
 _ZN16QSGRenderContextC1EP10QSGContext@Base 6.2.0
 _ZN16QSGRenderContextC2EP10QSGContext@Base 6.2.0
 _ZN16QSGRenderContextD0Ev@Base 6.2.0
 _ZN16QSGRenderContextD1Ev@Base 6.2.0
 _ZN16QSGRenderContextD2Ev@Base 6.2.0
 _ZN16QSGTransformNode17setCombinedMatrixERK10QMatrix4x4@Base 6.2.0
 _ZN16QSGTransformNode9setMatrixERK10QMatrix4x4@Base 6.2.0
 _ZN16QSGTransformNodeC1Ev@Base 6.2.0
 _ZN16QSGTransformNodeC2Ev@Base 6.2.0
 _ZN16QSGTransformNodeD0Ev@Base 6.2.0
 _ZN16QSGTransformNodeD1Ev@Base 6.2.0
 _ZN16QSGTransformNodeD2Ev@Base 6.2.0
 _ZN17QQuickAnimatorJob10initializeEP24QQuickAnimatorController@Base 6.2.0
 _ZN17QQuickAnimatorJob9setTargetEP10QQuickItem@Base 6.2.0
 _ZN17QQuickAnimatorJobC1Ev@Base 6.2.0
 _ZN17QQuickAnimatorJobC2Ev@Base 6.2.0
 _ZN17QQuickApplication11qt_metacallEN11QMetaObject4CallEiPPv@Base 6.2.0
 _ZN17QQuickApplication11qt_metacastEPKc@Base 6.2.0
 _ZN17QQuickApplication12stateChangedEN2Qt16ApplicationStateE@Base 6.2.0
 _ZN17QQuickApplication13activeChangedEv@Base 6.2.0
 _ZN17QQuickApplication13updateScreensEv@Base 6.2.0
 _ZN17QQuickApplication14screensChangedEv@Base 6.2.0
 _ZN17QQuickApplication14setDisplayNameERK7QString@Base 6.2.0
 _ZN17QQuickApplication16staticMetaObjectE@Base 6.2.0
 _ZN17QQuickApplication18displayNameChangedEv@Base 6.2.0
 _ZN17QQuickApplication22layoutDirectionChangedEv@Base 6.2.0
 _ZN17QQuickApplication7screensEv@Base 6.2.0
 _ZN17QQuickApplicationC1EP7QObject@Base 6.2.0
 _ZN17QQuickApplicationC2EP7QObject@Base 6.2.0
 _ZN17QQuickApplicationD0Ev@Base 6.2.0
 _ZN17QQuickApplicationD1Ev@Base 6.2.0
 _ZN17QQuickApplicationD2Ev@Base 6.2.0
 _ZN17QQuickBorderImage11qt_metacallEN11QMetaObject4CallEiPPv@Base 6.2.0
 _ZN17QQuickBorderImage11qt_metacastEPKc@Base 6.2.0
 _ZN17QQuickBorderImage12pixmapChangeEv@Base 6.2.0
 _ZN17QQuickBorderImage15requestFinishedEv@Base 6.2.0
 _ZN17QQuickBorderImage15updatePaintNodeEP7QSGNodePN10QQuickItem19UpdatePaintNodeDataE@Base 6.2.0
 _ZN17QQuickBorderImage16staticMetaObjectE@Base 6.2.0
 _ZN17QQuickBorderImage17sourceSizeChangedEv@Base 6.2.0
 _ZN17QQuickBorderImage18sciRequestFinishedEv@Base 6.2.0
 _ZN17QQuickBorderImage18setGridScaledImageERK21QQuickGridScaledImage@Base 6.2.0
 _ZN17QQuickBorderImage19setVerticalTileModeENS_8TileModeE@Base 6.2.0
 _ZN17QQuickBorderImage21setHorizontalTileModeENS_8TileModeE@Base 6.2.0
 _ZN17QQuickBorderImage23verticalTileModeChangedEv@Base 6.2.0
 _ZN17QQuickBorderImage25horizontalTileModeChangedEv@Base 6.2.0
 _ZN17QQuickBorderImage4loadEv@Base 6.2.0
 _ZN17QQuickBorderImage6borderEv@Base 6.2.0
 _ZN17QQuickBorderImage8doUpdateEv@Base 6.2.0
 _ZN17QQuickBorderImage9setSourceERK4QUrl@Base 6.2.0
 _ZN17QQuickBorderImageC1EP10QQuickItem@Base 6.2.0
 _ZN17QQuickBorderImageC2EP10QQuickItem@Base 6.2.0
 _ZN17QQuickBorderImageD0Ev@Base 6.2.0
 _ZN17QQuickBorderImageD1Ev@Base 6.2.0
 _ZN17QQuickBorderImageD2Ev@Base 6.2.0
 _ZN17QQuickDragHandler11qt_metacallEN11QMetaObject4CallEiPPv@Base 6.2.0
 _ZN17QQuickDragHandler11qt_metacastEPKc@Base 6.2.0
 _ZN17QQuickDragHandler11setSnapModeENS_8SnapModeE@Base 6.2.0
 _ZN17QQuickDragHandler13onGrabChangedEP20QQuickPointerHandlerN15QPointingDevice14GrabTransitionEP13QPointerEventR11QEventPoint@Base 6.2.0
 _ZN17QQuickDragHandler15onActiveChangedEv@Base 6.2.0
 _ZN17QQuickDragHandler15snapModeChangedEv@Base 6.2.0
 _ZN17QQuickDragHandler16staticMetaObjectE@Base 6.2.0
 _ZN17QQuickDragHandler17wantsPointerEventEP13QPointerEvent@Base 6.2.0
 _ZN17QQuickDragHandler18enforceConstraintsEv@Base 6.2.0
 _ZN17QQuickDragHandler18translationChangedEv@Base 6.2.0
 _ZN17QQuickDragHandler20setActiveTranslationERK9QVector2D@Base 6.2.0
 _ZN17QQuickDragHandler22enforceAxisConstraintsEP7QPointF@Base 6.2.0
 _ZN17QQuickDragHandler22handlePointerEventImplEP13QPointerEvent@Base 6.2.0
 _ZN17QQuickDragHandler22targetCentroidPositionEv@Base 6.2.0
 _ZN17QQuickDragHandler24setPersistentTranslationERK9QVector2D@Base 6.2.0
 _ZN17QQuickDragHandlerC1EP10QQuickItem@Base 6.2.0
 _ZN17QQuickDragHandlerC2EP10QQuickItem@Base 6.2.0
 _ZN17QQuickFontMetrics11fontChangedERK5QFont@Base 6.2.0
 _ZN17QQuickFontMetrics11qt_metacallEN11QMetaObject4CallEiPPv@Base 6.2.0
 _ZN17QQuickFontMetrics11qt_metacastEPKc@Base 6.2.0
 _ZN17QQuickFontMetrics16staticMetaObjectE@Base 6.2.0
 _ZN17QQuickFontMetrics7setFontERK5QFont@Base 6.2.0
 _ZN17QQuickFontMetricsC1EP7QObject@Base 6.2.0
 _ZN17QQuickFontMetricsC2EP7QObject@Base 6.2.0
 _ZN17QQuickFontMetricsD0Ev@Base 6.2.0
 _ZN17QQuickFontMetricsD1Ev@Base 6.2.0
 _ZN17QQuickFontMetricsD2Ev@Base 6.2.0
 _ZN17QQuickItemPrivate10data_clearEP16QQmlListPropertyI7QObjectE@Base 6.2.0
 _ZN17QQuickItemPrivate10data_countEP16QQmlListPropertyI7QObjectE@Base 6.2.0
 _ZN17QQuickItemPrivate10itemChangeEN10QQuickItem10ItemChangeERKNS0_14ItemChangeDataE@Base 6.2.0
 _ZN17QQuickItemPrivate10setVisibleEb@Base 6.2.0
 (subst)_ZN17QQuickItemPrivate11children_atEP16QQmlListPropertyI10QQuickItemE{qptrdiff}@Base 6.2.0
 _ZN17QQuickItemPrivate11data_appendEP16QQmlListPropertyI7QObjectEPS1_@Base 6.2.0
 _ZN17QQuickItemPrivate11derefWindowEv@Base 6.2.0
 _ZN17QQuickItemPrivate11removeChildEP10QQuickItem@Base 6.2.0
 _ZN17QQuickItemPrivate11transitionsEv@Base 6.2.0
 (subst)_ZN17QQuickItemPrivate12resources_atEP16QQmlListPropertyI7QObjectE{qptrdiff}@Base 6.2.0
 (subst)_ZN17QQuickItemPrivate12transform_atEP16QQmlListPropertyI15QQuickTransformE{qptrdiff}@Base 6.2.0
 _ZN17QQuickItemPrivate13deliveryAgentEv@Base 6.2.0
 _ZN17QQuickItemPrivate13focusNextPrevEP10QQuickItemb@Base 6.2.0
 _ZN17QQuickItemPrivate13setAccessibleEv@Base 6.2.0
 _ZN17QQuickItemPrivate14addToDirtyListEv@Base 6.2.0
 _ZN17QQuickItemPrivate14children_clearEP16QQmlListPropertyI10QQuickItemE@Base 6.2.0
 _ZN17QQuickItemPrivate14children_countEP16QQmlListPropertyI10QQuickItemE@Base 6.2.0
 _ZN17QQuickItemPrivate14filterKeyEventEP9QKeyEventb@Base 6.2.0
 _ZN17QQuickItemPrivate15children_appendEP16QQmlListPropertyI10QQuickItemEPS1_@Base 6.2.0
 _ZN17QQuickItemPrivate15deliverKeyEventEP9QKeyEvent@Base 6.2.0
 _ZN17QQuickItemPrivate15resources_clearEP16QQmlListPropertyI7QObjectE@Base 6.2.0
 _ZN17QQuickItemPrivate15resources_countEP16QQmlListPropertyI7QObjectE@Base 6.2.0
 _ZN17QQuickItemPrivate15setLayoutMirrorEb@Base 6.2.0
 _ZN17QQuickItemPrivate15transform_clearEP16QQmlListPropertyI15QQuickTransformE@Base 6.2.0
 _ZN17QQuickItemPrivate15transform_countEP16QQmlListPropertyI15QQuickTransformE@Base 6.2.0
 _ZN17QQuickItemPrivate15visibleChildrenEv@Base 6.2.0
 _ZN17QQuickItemPrivate16nextTabChildItemEPK10QQuickItemi@Base 6.2.0
 _ZN17QQuickItemPrivate16prevTabChildItemEPK10QQuickItemi@Base 6.2.0
 _ZN17QQuickItemPrivate16resources_appendEP16QQmlListPropertyI7QObjectEPS1_@Base 6.2.0
 _ZN17QQuickItemPrivate16transformChangedEv@Base 6.2.0
 _ZN17QQuickItemPrivate16transform_appendEP16QQmlListPropertyI15QQuickTransformEPS1_@Base 6.2.0
 _ZN17QQuickItemPrivate17addPointerHandlerEP20QQuickPointerHandler@Base 6.2.0
 _ZN17QQuickItemPrivate17canAcceptTabFocusEP10QQuickItem@Base 6.2.0
 _ZN17QQuickItemPrivate17refFromEffectItemEb@Base 6.2.0
 _ZN17QQuickItemPrivate18_q_createJSWrapperEPN3QV415ExecutionEngineE@Base 6.2.0
 _ZN17QQuickItemPrivate18handlePointerEventEP13QPointerEventb@Base 6.2.0
 _ZN17QQuickItemPrivate18setHasHoverInChildEb@Base 6.2.0
 _ZN17QQuickItemPrivate18updateSubFocusItemEP10QQuickItemb@Base 6.2.0
 (subst)_ZN17QQuickItemPrivate18visibleChildren_atEP16QQmlListPropertyI10QQuickItemE{qptrdiff}@Base 6.2.0
 _ZN17QQuickItemPrivate19createTransformNodeEv@Base 6.2.0
 _ZN17QQuickItemPrivate19derefFromEffectItemEb@Base 6.2.0
 _ZN17QQuickItemPrivate19localizedTouchEventEPK11QTouchEventbP18QMutableTouchEvent@Base 6.2.0
 _ZN17QQuickItemPrivate19removeFromDirtyListEv@Base 6.2.0
 _ZN17QQuickItemPrivate19resolveLayoutMirrorEv@Base 6.2.0
 _ZN17QQuickItemPrivate19setHasCursorInChildEb@Base 6.2.0
 _ZN17QQuickItemPrivate19siblingOrderChangedEv@Base 6.2.0
 _ZN17QQuickItemPrivate20deliveryAgentPrivateEv@Base 6.2.0
 _ZN17QQuickItemPrivate20implicitWidthChangedEv@Base 6.2.0
 _ZN17QQuickItemPrivate21addItemChangeListenerEP24QQuickItemChangeListener6QFlagsINS_10ChangeTypeEE@Base 6.2.0
 _ZN17QQuickItemPrivate21implicitHeightChangedEv@Base 6.2.0
 _ZN17QQuickItemPrivate21visibleChildren_countEP16QQmlListPropertyI10QQuickItemE@Base 6.2.0
 _ZN17QQuickItemPrivate23adjustedPosForTransformERK7QPointFS2_RK9QVector2Ddddd@Base 6.2.0
 _ZN17QQuickItemPrivate23deliverInputMethodEventEP17QInputMethodEvent@Base 6.2.0
 _ZN17QQuickItemPrivate23setEffectiveEnableRecurEP10QQuickItemb@Base 6.2.0
 _ZN17QQuickItemPrivate23setImplicitAntialiasingEb@Base 6.2.0
 _ZN17QQuickItemPrivate23setImplicitLayoutMirrorEbb@Base 6.2.0
 _ZN17QQuickItemPrivate24_q_resourceObjectDeletedEP7QObject@Base 6.2.0
 _ZN17QQuickItemPrivate24removeItemChangeListenerEP24QQuickItemChangeListener6QFlagsINS_10ChangeTypeEE@Base 6.2.0
 _ZN17QQuickItemPrivate24setEffectiveVisibleRecurEb@Base 6.2.0
 _ZN17QQuickItemPrivate26recursiveRefFromEffectItemEi@Base 6.2.0
 _ZN17QQuickItemPrivate27ensureSubsceneDeliveryAgentEv@Base 6.2.0
 _ZN17QQuickItemPrivate27nextPrevItemInTabFocusChainEP10QQuickItemb@Base 6.2.0
 _ZN17QQuickItemPrivate27setTransparentForPositionerEb@Base 6.2.0
 _ZN17QQuickItemPrivate28deliverShortcutOverrideEventEP9QKeyEvent@Base 6.2.0
 _ZN17QQuickItemPrivate29updateOrAddItemChangeListenerEP24QQuickItemChangeListener6QFlagsINS_10ChangeTypeEE@Base 6.2.0
 _ZN17QQuickItemPrivate33updateOrAddGeometryChangeListenerEP24QQuickItemChangeListener20QQuickGeometryChange@Base 6.2.0
 _ZN17QQuickItemPrivate36updateOrRemoveGeometryChangeListenerEP24QQuickItemChangeListener20QQuickGeometryChange@Base 6.2.0
 _ZN17QQuickItemPrivate4dataEv@Base 6.2.0
 _ZN17QQuickItemPrivate4initEP10QQuickItem@Base 6.2.0
 _ZN17QQuickItemPrivate5dirtyENS_9DirtyTypeE@Base 6.2.0
 _ZN17QQuickItemPrivate6statesEv@Base 6.2.0
 _ZN17QQuickItemPrivate7_statesEv@Base 6.2.0
 (subst)_ZN17QQuickItemPrivate7data_atEP16QQmlListPropertyI7QObjectE{qptrdiff}@Base 6.2.0
 _ZN17QQuickItemPrivate8addChildEP10QQuickItem@Base 6.2.0
 _ZN17QQuickItemPrivate8childrenEv@Base 6.2.0
 _ZN17QQuickItemPrivate8setStateERK7QString@Base 6.2.0
 _ZN17QQuickItemPrivate9ExtraDataC1Ev@Base 6.2.0
 _ZN17QQuickItemPrivate9ExtraDataC2Ev@Base 6.2.0
 _ZN17QQuickItemPrivate9refWindowEP12QQuickWindow@Base 6.2.0
 _ZN17QQuickItemPrivate9resourcesEv@Base 6.2.0
 _ZN17QQuickItemPrivate9setCulledEb@Base 6.2.0
 _ZN17QQuickItemPrivateC1Ev@Base 6.2.0
 _ZN17QQuickItemPrivateC2Ev@Base 6.2.0
 _ZN17QQuickItemPrivateD0Ev@Base 6.2.0
 _ZN17QQuickItemPrivateD1Ev@Base 6.2.0
 _ZN17QQuickItemPrivateD2Ev@Base 6.2.0
 _ZN17QQuickOpenGLUtils16resetOpenGLStateEv@Base 6.2.0
 _ZN17QQuickPaintedItem10itemChangeEN10QQuickItem10ItemChangeERKNS0_14ItemChangeDataE@Base 6.2.0
 _ZN17QQuickPaintedItem11qt_metacallEN11QMetaObject4CallEiPPv@Base 6.2.0
 _ZN17QQuickPaintedItem11qt_metacastEPKc@Base 6.2.0
 _ZN17QQuickPaintedItem12setFillColorERK6QColor@Base 6.2.0
 _ZN17QQuickPaintedItem14setTextureSizeERK5QSize@Base 6.2.0
 _ZN17QQuickPaintedItem15setAntialiasingEb@Base 6.2.0
 _ZN17QQuickPaintedItem15setContentsSizeERK5QSize@Base 6.2.0
 _ZN17QQuickPaintedItem15setRenderTargetENS_12RenderTargetE@Base 6.2.0
 _ZN17QQuickPaintedItem15updatePaintNodeEP7QSGNodePN10QQuickItem19UpdatePaintNodeDataE@Base 6.2.0
 _ZN17QQuickPaintedItem16fillColorChangedEv@Base 6.2.0
 _ZN17QQuickPaintedItem16releaseResourcesEv@Base 6.2.0
 _ZN17QQuickPaintedItem16setContentsScaleEd@Base 6.2.0
 _ZN17QQuickPaintedItem16staticMetaObjectE@Base 6.2.0
 _ZN17QQuickPaintedItem17resetContentsSizeEv@Base 6.2.0
 _ZN17QQuickPaintedItem17setOpaquePaintingEb@Base 6.2.0
 _ZN17QQuickPaintedItem18setPerformanceHintENS_15PerformanceHintEb@Base 6.2.0
 _ZN17QQuickPaintedItem18textureSizeChangedEv@Base 6.2.0
 _ZN17QQuickPaintedItem19contentsSizeChangedEv@Base 6.2.0
 _ZN17QQuickPaintedItem19renderTargetChangedEv@Base 6.2.0
 _ZN17QQuickPaintedItem19setPerformanceHintsE6QFlagsINS_15PerformanceHintEE@Base 6.2.0
 _ZN17QQuickPaintedItem20contentsScaleChangedEv@Base 6.2.0
 _ZN17QQuickPaintedItem20invalidateSceneGraphEv@Base 6.2.0
 _ZN17QQuickPaintedItem6updateERK5QRect@Base 6.2.0
 _ZN17QQuickPaintedItem9setMipmapEb@Base 6.2.0
 _ZN17QQuickPaintedItemC1EP10QQuickItem@Base 6.2.0
 _ZN17QQuickPaintedItemC1ER24QQuickPaintedItemPrivateP10QQuickItem@Base 6.2.0
 _ZN17QQuickPaintedItemC2EP10QQuickItem@Base 6.2.0
 _ZN17QQuickPaintedItemC2ER24QQuickPaintedItemPrivateP10QQuickItem@Base 6.2.0
 _ZN17QQuickPaintedItemD0Ev@Base 6.2.0
 _ZN17QQuickPaintedItemD1Ev@Base 6.2.0
 _ZN17QQuickPaintedItemD2Ev@Base 6.2.0
 _ZN17QQuickPathElement11qt_metacallEN11QMetaObject4CallEiPPv@Base 6.2.0
 _ZN17QQuickPathElement11qt_metacastEPKc@Base 6.2.0
 _ZN17QQuickPathElement16staticMetaObjectE@Base 6.2.0
 _ZN17QQuickPathElement7changedEv@Base 6.2.0
 _ZN17QQuickPathPercent11qt_metacallEN11QMetaObject4CallEiPPv@Base 6.2.0
 _ZN17QQuickPathPercent11qt_metacastEPKc@Base 6.2.0
 _ZN17QQuickPathPercent12valueChangedEv@Base 6.2.0
 _ZN17QQuickPathPercent16staticMetaObjectE@Base 6.2.0
 _ZN17QQuickPathPercent8setValueEd@Base 6.2.0
 _ZN17QQuickStateAction17deleteFromBindingEv@Base 6.2.0
 _ZN17QQuickStateActionC1EP7QObjectRK12QQmlPropertyRK7QStringRK8QVariant@Base 6.2.0
 _ZN17QQuickStateActionC1EP7QObjectRK7QStringRK8QVariant@Base 6.2.0
 _ZN17QQuickStateActionC1Ev@Base 6.2.0
 _ZN17QQuickStateActionC2EP7QObjectRK12QQmlPropertyRK7QStringRK8QVariant@Base 6.2.0
 _ZN17QQuickStateActionC2EP7QObjectRK7QStringRK8QVariant@Base 6.2.0
 _ZN17QQuickStateActionC2Ev@Base 6.2.0
 _ZN17QQuickTextMetrics11fontChangedEv@Base 6.2.0
 _ZN17QQuickTextMetrics11qt_metacallEN11QMetaObject4CallEiPPv@Base 6.2.0
 _ZN17QQuickTextMetrics11qt_metacastEPKc@Base 6.2.0
 _ZN17QQuickTextMetrics11textChangedEv@Base 6.2.0
 _ZN17QQuickTextMetrics12elideChangedEv@Base 6.2.0
 _ZN17QQuickTextMetrics13setElideWidthEd@Base 6.2.0
 _ZN17QQuickTextMetrics14metricsChangedEv@Base 6.2.0
 _ZN17QQuickTextMetrics16staticMetaObjectE@Base 6.2.0
 _ZN17QQuickTextMetrics17elideWidthChangedEv@Base 6.2.0
 _ZN17QQuickTextMetrics7setFontERK5QFont@Base 6.2.0
 _ZN17QQuickTextMetrics7setTextERK7QString@Base 6.2.0
 _ZN17QQuickTextMetrics8setElideEN2Qt13TextElideModeE@Base 6.2.0
 _ZN17QQuickTextMetricsC1EP7QObject@Base 6.2.0
 _ZN17QQuickTextMetricsC2EP7QObject@Base 6.2.0
 _ZN17QQuickTextMetricsD0Ev@Base 6.2.0
 _ZN17QQuickTextMetricsD1Ev@Base 6.2.0
 _ZN17QQuickTextMetricsD2Ev@Base 6.2.0
 _ZN17QQuickTextPrivate10updateSizeEv@Base 6.2.0
 _ZN17QQuickTextPrivate12clearFormatsEv@Base 6.2.0
 _ZN17QQuickTextPrivate12elideFormatsEiiiP5QListIN11QTextLayout11FormatRangeEE@Base 6.2.0
 _ZN17QQuickTextPrivate12mirrorChangeEv@Base 6.2.0
 _ZN17QQuickTextPrivate12updateLayoutEv@Base 6.2.0
 _ZN17QQuickTextPrivate13setTopPaddingEdb@Base 6.2.0
 _ZN17QQuickTextPrivate14setLeftPaddingEdb@Base 6.2.0
 _ZN17QQuickTextPrivate14updateBaselineEdd@Base 6.2.0
 _ZN17QQuickTextPrivate15setLineGeometryER9QTextLinedRd@Base 6.2.0
 _ZN17QQuickTextPrivate15setRightPaddingEdb@Base 6.2.0
 _ZN17QQuickTextPrivate15setupTextLayoutEPd@Base 6.2.0
 _ZN17QQuickTextPrivate16setBottomPaddingEdb@Base 6.2.0
 _ZN17QQuickTextPrivate16signalSizeChangeERK6QSizeF@Base 6.2.0
 _ZN17QQuickTextPrivate17processHoverEventEP11QHoverEvent@Base 6.2.0
 _ZN17QQuickTextPrivate22isLineLaidOutConnectedEv@Base 6.2.0
 _ZN17QQuickTextPrivate22isLinkHoveredConnectedEv@Base 6.2.0
 _ZN17QQuickTextPrivate23setupCustomLineGeometryER9QTextLineRdii@Base 6.2.0
 _ZN17QQuickTextPrivate24isLinkActivatedConnectedEv@Base 6.2.0
 _ZN17QQuickTextPrivate28determineHorizontalAlignmentEv@Base 6.2.0
 _ZN17QQuickTextPrivate4initEv@Base 6.2.0
 _ZN17QQuickTextPrivate8anchorAtEPK11QTextLayoutRK7QPointF@Base 6.2.0
 _ZN17QQuickTextPrivate9ExtraDataC1Ev@Base 6.2.0
 _ZN17QQuickTextPrivate9ExtraDataC2Ev@Base 6.2.0
 _ZN17QQuickTextPrivate9elideCharE@Base 6.2.0
 _ZN17QQuickTextPrivate9ensureDocEv@Base 6.2.0
 _ZN17QQuickTextPrivate9setHAlignEN10QQuickText10HAlignmentEb@Base 6.2.0
 _ZN17QQuickTextPrivateC1Ev@Base 6.2.0
 _ZN17QQuickTextPrivateC2Ev@Base 6.2.0
 _ZN17QQuickTextPrivateD0Ev@Base 6.2.0
 _ZN17QQuickTextPrivateD1Ev@Base 6.2.0
 _ZN17QQuickTextPrivateD2Ev@Base 6.2.0
 _ZN17QQuickViewPrivate10initResizeEv@Base 6.2.0
 _ZN17QQuickViewPrivate10updateSizeEv@Base 6.2.0
 _ZN17QQuickViewPrivate13setRootObjectEP7QObject@Base 6.2.0
 _ZN17QQuickViewPrivate19itemGeometryChangedEP10QQuickItem20QQuickGeometryChangeRK6QRectF@Base 6.2.0
 _ZN17QQuickViewPrivate4initEP10QQmlEngine@Base 6.2.0
 _ZN17QQuickViewPrivate7executeEv@Base 6.2.0
 _ZN17QQuickViewPrivateC1Ev@Base 6.2.0
 _ZN17QQuickViewPrivateC2Ev@Base 6.2.0
 _ZN17QQuickViewPrivateD0Ev@Base 6.2.0
 _ZN17QQuickViewPrivateD1Ev@Base 6.2.0
 _ZN17QQuickViewPrivateD2Ev@Base 6.2.0
 _ZN17QQuickViewSection11qt_metacallEN11QMetaObject4CallEiPPv@Base 6.2.0
 _ZN17QQuickViewSection11qt_metacastEPKc@Base 6.2.0
 _ZN17QQuickViewSection11setCriteriaENS_15SectionCriteriaE@Base 6.2.0
 _ZN17QQuickViewSection11setDelegateEP13QQmlComponent@Base 6.2.0
 _ZN17QQuickViewSection11setPropertyERK7QString@Base 6.2.0
 _ZN17QQuickViewSection13sectionStringERK7QString@Base 6.2.0
 _ZN17QQuickViewSection15criteriaChangedEv@Base 6.2.0
 _ZN17QQuickViewSection15delegateChangedEv@Base 6.2.0
 _ZN17QQuickViewSection15propertyChangedEv@Base 6.2.0
 _ZN17QQuickViewSection15sectionsChangedEv@Base 6.2.0
 _ZN17QQuickViewSection16staticMetaObjectE@Base 6.2.0
 _ZN17QQuickViewSection19setLabelPositioningEi@Base 6.2.0
 _ZN17QQuickViewSection23labelPositioningChangedEv@Base 6.2.0
 _ZN17QQuickViewSectionC1EP14QQuickListView@Base 6.2.0
 _ZN17QQuickViewSectionC2EP14QQuickListView@Base 6.2.0
 _ZN17QSGBasicGlyphNode13setStyleColorERK6QColor@Base 6.2.0
 _ZN17QSGBasicGlyphNode8setColorERK6QColor@Base 6.2.0
 _ZN17QSGBasicGlyphNode8setStyleEN10QQuickText9TextStyleE@Base 6.2.0
 _ZN17QSGBasicGlyphNode9setGlyphsERK7QPointFRK9QGlyphRun@Base 6.2.0
 _ZN17QSGBasicGlyphNodeC1Ev@Base 6.2.0
 _ZN17QSGBasicGlyphNodeC2Ev@Base 6.2.0
 _ZN17QSGBasicGlyphNodeD0Ev@Base 6.2.0
 _ZN17QSGBasicGlyphNodeD1Ev@Base 6.2.0
 _ZN17QSGBasicGlyphNodeD2Ev@Base 6.2.0
 _ZN17QSGDefaultContext11createLayerEP16QSGRenderContext@Base 6.2.0
 _ZN17QSGDefaultContext15createGlyphNodeEP16QSGRenderContextbi@Base 6.2.0
 _ZN17QSGDefaultContext15createImageNodeEv@Base 6.2.0
 _ZN17QSGDefaultContext16createSpriteNodeEv@Base 6.2.0
 _ZN17QSGDefaultContext17createPainterNodeEP17QQuickPaintedItem@Base 6.2.0
 _ZN17QSGDefaultContext17rendererInterfaceEP16QSGRenderContext@Base 6.2.0
 _ZN17QSGDefaultContext19createNinePatchNodeEv@Base 6.2.0
 _ZN17QSGDefaultContext19createRectangleNodeEv@Base 6.2.0
 _ZN17QSGDefaultContext19createRenderContextEv@Base 6.2.0
 _ZN17QSGDefaultContext22createShaderEffectNodeEP16QSGRenderContext@Base 6.2.0
 _ZN17QSGDefaultContext23createInternalImageNodeEP16QSGRenderContext@Base 6.2.0
 _ZN17QSGDefaultContext23setDistanceFieldEnabledEb@Base 6.2.0
 _ZN17QSGDefaultContext24renderContextInitializedEP16QSGRenderContext@Base 6.2.0
 _ZN17QSGDefaultContext24renderContextInvalidatedEP16QSGRenderContext@Base 6.2.0
 _ZN17QSGDefaultContext27createInternalRectangleNodeEv@Base 6.2.0
 _ZN17QSGDefaultContext34createGuiThreadShaderEffectManagerEv@Base 6.2.0
 _ZN17QSGDefaultContextC1EP7QObject@Base 6.2.0
 _ZN17QSGDefaultContextC2EP7QObject@Base 6.2.0
 _ZN17QSGDefaultContextD0Ev@Base 6.2.0
 _ZN17QSGDefaultContextD1Ev@Base 6.2.0
 _ZN17QSGDefaultContextD2Ev@Base 6.2.0
 _ZN17QSGDynamicTexture11qt_metacallEN11QMetaObject4CallEiPPv@Base 6.2.0
 _ZN17QSGDynamicTexture11qt_metacastEPKc@Base 6.2.0
 _ZN17QSGDynamicTexture16staticMetaObjectE@Base 6.2.0
 _ZN17QSGDynamicTextureC1ER17QSGTexturePrivate@Base 6.2.0
 _ZN17QSGDynamicTextureC2ER17QSGTexturePrivate@Base 6.2.0
 _ZN17QSGMaterialShader11RenderState11uniformDataEv@Base 6.2.0
 _ZN17QSGMaterialShader11RenderState19resourceUpdateBatchEv@Base 6.2.0
 _ZN17QSGMaterialShader11RenderState3rhiEv@Base 6.2.0
 _ZN17QSGMaterialShader17setShaderFileNameENS_5StageERK7QString@Base 6.2.0
 _ZN17QSGMaterialShader17updateUniformDataERNS_11RenderStateEP11QSGMaterialS3_@Base 6.2.0
 _ZN17QSGMaterialShader18updateSampledImageERNS_11RenderStateEiPP10QSGTextureP11QSGMaterialS6_@Base 6.2.0
 _ZN17QSGMaterialShader27updateGraphicsPipelineStateERNS_11RenderStateEPNS_21GraphicsPipelineStateEP11QSGMaterialS5_@Base 6.2.0
 _ZN17QSGMaterialShader7setFlagE6QFlagsINS_4FlagEEb@Base 6.2.0
 _ZN17QSGMaterialShader8setFlagsE6QFlagsINS_4FlagEE@Base 6.2.0
 _ZN17QSGMaterialShader9setShaderENS_5StageERK7QShader@Base 6.2.0
 _ZN17QSGMaterialShaderC1ER24QSGMaterialShaderPrivate@Base 6.2.0
 _ZN17QSGMaterialShaderC1Ev@Base 6.2.0
 _ZN17QSGMaterialShaderC2ER24QSGMaterialShaderPrivate@Base 6.2.0
 _ZN17QSGMaterialShaderC2Ev@Base 6.2.0
 _ZN17QSGMaterialShaderD0Ev@Base 6.2.0
 _ZN17QSGMaterialShaderD1Ev@Base 6.2.0
 _ZN17QSGMaterialShaderD2Ev@Base 6.2.0
 _ZN17QSGPainterTexture23commitTextureOperationsEP4QRhiP23QRhiResourceUpdateBatch@Base 6.2.0
 _ZN17QSGPainterTextureC1Ev@Base 6.2.0
 _ZN17QSGPainterTextureC2Ev@Base 6.2.0
 _ZN17QSGSimpleRectNode7setRectERK6QRectF@Base 6.2.0
 _ZN17QSGSimpleRectNode8setColorERK6QColor@Base 6.2.0
 _ZN17QSGSimpleRectNodeC1ERK6QRectFRK6QColor@Base 6.2.0
 _ZN17QSGSimpleRectNodeC1Ev@Base 6.2.0
 _ZN17QSGSimpleRectNodeC2ERK6QRectFRK6QColor@Base 6.2.0
 _ZN17QSGSimpleRectNodeC2Ev@Base 6.2.0
 _ZN17QSGTexturePrivate24resetDirtySamplerOptionsEv@Base 6.2.0
 _ZN17QSGTexturePrivateC1EP10QSGTexture@Base 6.2.0
 _ZN17QSGTexturePrivateC2EP10QSGTexture@Base 6.2.0
 _ZN18QQuickDragAttached10setHotSpotERK7QPointF@Base 6.2.0
 _ZN18QQuickDragAttached11dragStartedEv@Base 6.2.0
 _ZN18QQuickDragAttached11keysChangedEv@Base 6.2.0
 _ZN18QQuickDragAttached11qt_metacallEN11QMetaObject4CallEiPPv@Base 6.2.0
 _ZN18QQuickDragAttached11qt_metacastEPKc@Base 6.2.0
 _ZN18QQuickDragAttached11resetSourceEv@Base 6.2.0
 _ZN18QQuickDragAttached11setDragTypeEN10QQuickDrag8DragTypeE@Base 6.2.0
 _ZN18QQuickDragAttached11setMimeDataERK4QMapI7QString8QVariantE@Base 6.2.0
 _ZN18QQuickDragAttached12dragFinishedEN2Qt10DropActionE@Base 6.2.0
 _ZN18QQuickDragAttached13activeChangedEv@Base 6.2.0
 _ZN18QQuickDragAttached13sourceChangedEv@Base 6.2.0
 _ZN18QQuickDragAttached13targetChangedEv@Base 6.2.0
 _ZN18QQuickDragAttached14hotSpotChangedEv@Base 6.2.0
 _ZN18QQuickDragAttached14setImageSourceERK4QUrl@Base 6.2.0
 _ZN18QQuickDragAttached15dragTypeChangedEv@Base 6.2.0
 _ZN18QQuickDragAttached15mimeDataChangedEv@Base 6.2.0
 _ZN18QQuickDragAttached16staticMetaObjectE@Base 6.2.0
 _ZN18QQuickDragAttached17setProposedActionEN2Qt10DropActionE@Base 6.2.0
 _ZN18QQuickDragAttached18imageSourceChangedEv@Base 6.2.0
 _ZN18QQuickDragAttached19setSupportedActionsE6QFlagsIN2Qt10DropActionEE@Base 6.2.0
 _ZN18QQuickDragAttached21proposedActionChangedEv@Base 6.2.0
 _ZN18QQuickDragAttached23supportedActionsChangedEv@Base 6.2.0
 _ZN18QQuickDragAttached4dropEv@Base 6.2.0
 _ZN18QQuickDragAttached5eventEP6QEvent@Base 6.2.0
 _ZN18QQuickDragAttached5startEP14QQmlV4Function@Base 6.2.0
 _ZN18QQuickDragAttached6cancelEv@Base 6.2.0
 _ZN18QQuickDragAttached7setKeysERK5QListI7QStringE@Base 6.2.0
 _ZN18QQuickDragAttached9setActiveEb@Base 6.2.0
 _ZN18QQuickDragAttached9setSourceEP7QObject@Base 6.2.0
 _ZN18QQuickDragAttached9startDragEP14QQmlV4Function@Base 6.2.0
 _ZN18QQuickDragAttachedC1EP7QObject@Base 6.2.0
 _ZN18QQuickDragAttachedC2EP7QObject@Base 6.2.0
 _ZN18QQuickDragAttachedD0Ev@Base 6.2.0
 _ZN18QQuickDragAttachedD1Ev@Base 6.2.0
 _ZN18QQuickDragAttachedD2Ev@Base 6.2.0
 _ZN18QQuickGradientStop11qt_metacallEN11QMetaObject4CallEiPPv@Base 6.2.0
 _ZN18QQuickGradientStop11qt_metacastEPKc@Base 6.2.0
 _ZN18QQuickGradientStop11setPositionEd@Base 6.2.0
 _ZN18QQuickGradientStop14updateGradientEv@Base 6.2.0
 _ZN18QQuickGradientStop16staticMetaObjectE@Base 6.2.0
 _ZN18QQuickGradientStop8setColorERK6QColor@Base 6.2.0
 _ZN18QQuickGradientStopC1EP7QObject@Base 6.2.0
 _ZN18QQuickGradientStopC2EP7QObject@Base 6.2.0
 _ZN18QQuickHandlerPoint16staticMetaObjectE@Base 6.2.0
 _ZN18QQuickHandlerPoint5resetEPK13QPointerEventRK11QEventPoint@Base 6.2.0
 _ZN18QQuickHandlerPoint5resetERK5QListIS_E@Base 6.2.0
 _ZN18QQuickHandlerPoint5resetEv@Base 6.2.0
 _ZN18QQuickHandlerPoint8localizeEP10QQuickItem@Base 6.2.0
 _ZN18QQuickHandlerPointC1Ev@Base 6.2.0
 _ZN18QQuickHandlerPointC2Ev@Base 6.2.0
 _ZN18QQuickHoverHandler10setHoveredEb@Base 6.2.0
 _ZN18QQuickHoverHandler11qt_metacallEN11QMetaObject4CallEiPPv@Base 6.2.0
 _ZN18QQuickHoverHandler11qt_metacastEPKc@Base 6.2.0
 _ZN18QQuickHoverHandler14hoveredChangedEv@Base 6.2.0
 _ZN18QQuickHoverHandler16handleEventPointEP13QPointerEventR11QEventPoint@Base 6.2.0
 _ZN18QQuickHoverHandler16staticMetaObjectE@Base 6.2.0
 _ZN18QQuickHoverHandler17componentCompleteEv@Base 6.2.0
 _ZN18QQuickHoverHandler17wantsPointerEventEP13QPointerEvent@Base 6.2.0
 _ZN18QQuickHoverHandler5eventEP6QEvent@Base 6.2.0
 _ZN18QQuickHoverHandlerC1EP10QQuickItem@Base 6.2.0
 _ZN18QQuickHoverHandlerC2EP10QQuickItem@Base 6.2.0
 _ZN18QQuickHoverHandlerD0Ev@Base 6.2.0
 _ZN18QQuickHoverHandlerD1Ev@Base 6.2.0
 _ZN18QQuickHoverHandlerD2Ev@Base 6.2.0
 _ZN18QQuickImagePrivate8setImageERK6QImage@Base 6.2.0
 _ZN18QQuickImagePrivate9setPixmapERK12QQuickPixmap@Base 6.2.0
 _ZN18QQuickImagePrivateC1Ev@Base 6.2.0
 _ZN18QQuickImagePrivateC2Ev@Base 6.2.0
 _ZN18QQuickIntValidator11qt_metacallEN11QMetaObject4CallEiPPv@Base 6.2.0
 _ZN18QQuickIntValidator11qt_metacastEPKc@Base 6.2.0
 _ZN18QQuickIntValidator13setLocaleNameERK7QString@Base 6.2.0
 _ZN18QQuickIntValidator15resetLocaleNameEv@Base 6.2.0
 _ZN18QQuickIntValidator16staticMetaObjectE@Base 6.2.0
 _ZN18QQuickIntValidator17localeNameChangedEv@Base 6.2.0
 _ZN18QQuickIntValidatorC1EP7QObject@Base 6.2.0
 _ZN18QQuickIntValidatorC2EP7QObject@Base 6.2.0
 _ZN18QQuickParentChange11mayOverrideEP22QQuickStateActionEvent@Base 6.2.0
 _ZN18QQuickParentChange11qt_metacallEN11QMetaObject4CallEiPPv@Base 6.2.0
 _ZN18QQuickParentChange11qt_metacastEPKc@Base 6.2.0
 _ZN18QQuickParentChange11setRotationERK16QQmlScriptString@Base 6.2.0
 _ZN18QQuickParentChange12isReversableEv@Base 6.2.0
 _ZN18QQuickParentChange13saveOriginalsEv@Base 6.2.0
 _ZN18QQuickParentChange16staticMetaObjectE@Base 6.2.0
 _ZN18QQuickParentChange17saveCurrentValuesEv@Base 6.2.0
 _ZN18QQuickParentChange4setXERK16QQmlScriptString@Base 6.2.0
 _ZN18QQuickParentChange4setYERK16QQmlScriptString@Base 6.2.0
 _ZN18QQuickParentChange6rewindEv@Base 6.2.0
 _ZN18QQuickParentChange7actionsEv@Base 6.2.0
 _ZN18QQuickParentChange7executeEv@Base 6.2.0
 _ZN18QQuickParentChange7reverseEv@Base 6.2.0
 _ZN18QQuickParentChange8setScaleERK16QQmlScriptString@Base 6.2.0
 _ZN18QQuickParentChange8setWidthERK16QQmlScriptString@Base 6.2.0
 _ZN18QQuickParentChange9setHeightERK16QQmlScriptString@Base 6.2.0
 _ZN18QQuickParentChange9setObjectEP10QQuickItem@Base 6.2.0
 _ZN18QQuickParentChange9setParentEP10QQuickItem@Base 6.2.0
 _ZN18QQuickParentChangeC1EP7QObject@Base 6.2.0
 _ZN18QQuickParentChangeC2EP7QObject@Base 6.2.0
 _ZN18QQuickParentChangeD0Ev@Base 6.2.0
 _ZN18QQuickParentChangeD1Ev@Base 6.2.0
 _ZN18QQuickParentChangeD2Ev@Base 6.2.0
 _ZN18QQuickPathAngleArc10setCenterXEd@Base 6.2.0
 _ZN18QQuickPathAngleArc10setCenterYEd@Base 6.2.0
 _ZN18QQuickPathAngleArc10setRadiusXEd@Base 6.2.0
 _ZN18QQuickPathAngleArc10setRadiusYEd@Base 6.2.0
 _ZN18QQuickPathAngleArc11qt_metacallEN11QMetaObject4CallEiPPv@Base 6.2.0
 _ZN18QQuickPathAngleArc11qt_metacastEPKc@Base 6.2.0
 _ZN18QQuickPathAngleArc13setStartAngleEd@Base 6.2.0
 _ZN18QQuickPathAngleArc13setSweepAngleEd@Base 6.2.0
 _ZN18QQuickPathAngleArc14centerXChangedEv@Base 6.2.0
 _ZN18QQuickPathAngleArc14centerYChangedEv@Base 6.2.0
 _ZN18QQuickPathAngleArc14radiusXChangedEv@Base 6.2.0
 _ZN18QQuickPathAngleArc14radiusYChangedEv@Base 6.2.0
 _ZN18QQuickPathAngleArc14setMoveToStartEb@Base 6.2.0
 _ZN18QQuickPathAngleArc16staticMetaObjectE@Base 6.2.0
 _ZN18QQuickPathAngleArc17startAngleChangedEv@Base 6.2.0
 _ZN18QQuickPathAngleArc17sweepAngleChangedEv@Base 6.2.0
 _ZN18QQuickPathAngleArc18moveToStartChangedEv@Base 6.2.0
 _ZN18QQuickPathAngleArc9addToPathER12QPainterPathRK14QQuickPathData@Base 6.2.0
 _ZN18QQuickPathPolyline11pathChangedEv@Base 6.2.0
 _ZN18QQuickPathPolyline11qt_metacallEN11QMetaObject4CallEiPPv@Base 6.2.0
 _ZN18QQuickPathPolyline11qt_metacastEPKc@Base 6.2.0
 _ZN18QQuickPathPolyline12startChangedEv@Base 6.2.0
 _ZN18QQuickPathPolyline16staticMetaObjectE@Base 6.2.0
 _ZN18QQuickPathPolyline7setPathERK5QListI7QPointFE@Base 6.2.0
 _ZN18QQuickPathPolyline7setPathERK8QVariant@Base 6.2.0
 _ZN18QQuickPathPolyline9addToPathER12QPainterPathRK14QQuickPathData@Base 6.2.0
 _ZN18QQuickPathPolylineC1EP7QObject@Base 6.2.0
 _ZN18QQuickPathPolylineC2EP7QObject@Base 6.2.0
 _ZN18QQuickPinchHandler11qt_metacallEN11QMetaObject4CallEiPPv@Base 6.2.0
 _ZN18QQuickPinchHandler11qt_metacastEPKc@Base 6.2.0
 _ZN18QQuickPinchHandler15onActiveChangedEv@Base 6.2.0
 _ZN18QQuickPinchHandler15setMaximumScaleEd@Base 6.2.0
 _ZN18QQuickPinchHandler15setMinimumScaleEd@Base 6.2.0
 _ZN18QQuickPinchHandler16staticMetaObjectE@Base 6.2.0
 _ZN18QQuickPinchHandler17wantsPointerEventEP13QPointerEvent@Base 6.2.0
 _ZN18QQuickPinchHandler18setMaximumRotationEd@Base 6.2.0
 _ZN18QQuickPinchHandler18setMinimumRotationEd@Base 6.2.0
 _ZN18QQuickPinchHandler19maximumScaleChangedEv@Base 6.2.0
 _ZN18QQuickPinchHandler19minimumScaleChangedEv@Base 6.2.0
 _ZN18QQuickPinchHandler22handlePointerEventImplEP13QPointerEvent@Base 6.2.0
 _ZN18QQuickPinchHandler22maximumRotationChangedEv@Base 6.2.0
 _ZN18QQuickPinchHandler22minimumRotationChangedEv@Base 6.2.0
 _ZN18QQuickPinchHandler7updatedEv@Base 6.2.0
 _ZN18QQuickPinchHandlerC1EP10QQuickItem@Base 6.2.0
 _ZN18QQuickPinchHandlerC2EP10QQuickItem@Base 6.2.0
 _ZN18QQuickPointHandler11qt_metacallEN11QMetaObject4CallEiPPv@Base 6.2.0
 _ZN18QQuickPointHandler11qt_metacastEPKc@Base 6.2.0
 _ZN18QQuickPointHandler15wantsEventPointEPK13QPointerEventRK11QEventPoint@Base 6.2.0
 _ZN18QQuickPointHandler16handleEventPointEP13QPointerEventR11QEventPoint@Base 6.2.0
 _ZN18QQuickPointHandler16staticMetaObjectE@Base 6.2.0
 _ZN18QQuickPointHandler18translationChangedEv@Base 6.2.0
 _ZN18QQuickPointHandlerC1EP10QQuickItem@Base 6.2.0
 _ZN18QQuickPointHandlerC2EP10QQuickItem@Base 6.2.0
 (arch-bits=64|arch=linux-any)_ZN18QQuickRenderTarget15fromVulkanImageEP9VkImage_T13VkImageLayoutRK5QSizei@Base 6.2.0
 (arch-bits=32|arch=linux-any)_ZN18QQuickRenderTarget15fromVulkanImageEy13VkImageLayoutRK5QSizei@Base 6.2.0
 _ZN18QQuickRenderTarget17fromOpenGLTextureEjRK5QSizei@Base 6.2.0
 _ZN18QQuickRenderTarget19fromRhiRenderTargetEP16QRhiRenderTarget@Base 6.2.0
 _ZN18QQuickRenderTarget22fromOpenGLRenderBufferEjRK5QSizei@Base 6.2.0
 _ZN18QQuickRenderTarget6detachEv@Base 6.2.0
 _ZN18QQuickRenderTargetC1ERKS_@Base 6.2.0
 _ZN18QQuickRenderTargetC1Ev@Base 6.2.0
 _ZN18QQuickRenderTargetC2ERKS_@Base 6.2.0
 _ZN18QQuickRenderTargetC2Ev@Base 6.2.0
 _ZN18QQuickRenderTargetD1Ev@Base 6.2.0
 _ZN18QQuickRenderTargetD2Ev@Base 6.2.0
 _ZN18QQuickRenderTargetaSERKS_@Base 6.2.0
 _ZN18QQuickScriptAction10transitionER5QListI17QQuickStateActionERS0_I12QQmlPropertyEN23QQuickAbstractAnimation19TransitionDirectionEP7QObject@Base 6.2.0
 _ZN18QQuickScriptAction11qt_metacallEN11QMetaObject4CallEiPPv@Base 6.2.0
 _ZN18QQuickScriptAction11qt_metacastEPKc@Base 6.2.0
 _ZN18QQuickScriptAction16staticMetaObjectE@Base 6.2.0
 _ZN18QQuickScriptAction24setStateChangeScriptNameERK7QString@Base 6.2.0
 _ZN18QQuickScriptAction9setScriptERK16QQmlScriptString@Base 6.2.0
 _ZN18QQuickScriptActionC1EP7QObject@Base 6.2.0
 _ZN18QQuickScriptActionC2EP7QObject@Base 6.2.0
 _ZN18QQuickScriptActionD0Ev@Base 6.2.0
 _ZN18QQuickScriptActionD1Ev@Base 6.2.0
 _ZN18QQuickScriptActionD2Ev@Base 6.2.0
 _ZN18QQuickShaderEffect10itemChangeEN10QQuickItem10ItemChangeERKNS0_14ItemChangeDataE@Base 6.2.0
 _ZN18QQuickShaderEffect10logChangedEv@Base 6.2.0
 _ZN18QQuickShaderEffect11meshChangedEv@Base 6.2.0
 _ZN18QQuickShaderEffect11qt_metacallEN11QMetaObject4CallEiPPv@Base 6.2.0
 _ZN18QQuickShaderEffect11qt_metacastEPKc@Base 6.2.0
 _ZN18QQuickShaderEffect11setBlendingEb@Base 6.2.0
 _ZN18QQuickShaderEffect11setCullModeENS_8CullModeE@Base 6.2.0
 _ZN18QQuickShaderEffect13statusChangedEv@Base 6.2.0
 _ZN18QQuickShaderEffect14geometryChangeERK6QRectFS2_@Base 6.2.0
 _ZN18QQuickShaderEffect15blendingChangedEv@Base 6.2.0
 _ZN18QQuickShaderEffect15cullModeChangedEv@Base 6.2.0
 _ZN18QQuickShaderEffect15setVertexShaderERK4QUrl@Base 6.2.0
 _ZN18QQuickShaderEffect15updatePaintNodeEP7QSGNodePN10QQuickItem19UpdatePaintNodeDataE@Base 6.2.0
 _ZN18QQuickShaderEffect16staticMetaObjectE@Base 6.2.0
 _ZN18QQuickShaderEffect17componentCompleteEv@Base 6.2.0
 _ZN18QQuickShaderEffect17setFragmentShaderERK4QUrl@Base 6.2.0
 _ZN18QQuickShaderEffect18updateUniformValueERK10QByteArrayRK8QVariant@Base 6.2.0
 _ZN18QQuickShaderEffect19vertexShaderChangedEv@Base 6.2.0
 _ZN18QQuickShaderEffect21fragmentShaderChangedEv@Base 6.2.0
 _ZN18QQuickShaderEffect24setSupportsAtlasTexturesEb@Base 6.2.0
 _ZN18QQuickShaderEffect28supportsAtlasTexturesChangedEv@Base 6.2.0
 _ZN18QQuickShaderEffect5eventEP6QEvent@Base 6.2.0
 _ZN18QQuickShaderEffect7setMeshERK8QVariant@Base 6.2.0
 _ZN18QQuickShaderEffect8parseLogEv@Base 6.2.0
 _ZN18QQuickShaderEffectC1EP10QQuickItem@Base 6.2.0
 _ZN18QQuickShaderEffectC2EP10QQuickItem@Base 6.2.0
 _ZN18QQuickShaderEffectD0Ev@Base 6.2.0
 _ZN18QQuickShaderEffectD1Ev@Base 6.2.0
 _ZN18QQuickShaderEffectD2Ev@Base 6.2.0
 _ZN18QQuickSpriteEngine11qt_metacallEN11QMetaObject4CallEiPPv@Base 6.2.0
 _ZN18QQuickSpriteEngine11qt_metacastEPKc@Base 6.2.0
 _ZN18QQuickSpriteEngine14assembledImageEi@Base 6.2.0
 _ZN18QQuickSpriteEngine16staticMetaObjectE@Base 6.2.0
 _ZN18QQuickSpriteEngine20startAssemblingImageEv@Base 6.2.0
 _ZN18QQuickSpriteEngine7advanceEi@Base 6.2.0
 _ZN18QQuickSpriteEngine7restartEi@Base 6.2.0
 _ZN18QQuickSpriteEngineC1EP7QObject@Base 6.2.0
 _ZN18QQuickSpriteEngineC1ERK5QListIP12QQuickSpriteEP7QObject@Base 6.2.0
 _ZN18QQuickSpriteEngineC2EP7QObject@Base 6.2.0
 _ZN18QQuickSpriteEngineC2ERK5QListIP12QQuickSpriteEP7QObject@Base 6.2.0
 _ZN18QQuickSpriteEngineD0Ev@Base 6.2.0
 _ZN18QQuickSpriteEngineD1Ev@Base 6.2.0
 _ZN18QQuickSpriteEngineD2Ev@Base 6.2.0
 _ZN18QQuickTextDocument11qt_metacallEN11QMetaObject4CallEiPPv@Base 6.2.0
 _ZN18QQuickTextDocument11qt_metacastEPKc@Base 6.2.0
 _ZN18QQuickTextDocument16staticMetaObjectE@Base 6.2.0
 _ZN18QQuickTextDocumentC1EP10QQuickItem@Base 6.2.0
 _ZN18QQuickTextDocumentC2EP10QQuickItem@Base 6.2.0
 _ZN18QQuickWheelHandler10timerEventEP11QTimerEvent@Base 6.2.0
 _ZN18QQuickWheelHandler11qt_metacallEN11QMetaObject4CallEiPPv@Base 6.2.0
 _ZN18QQuickWheelHandler11qt_metacastEPKc@Base 6.2.0
 _ZN18QQuickWheelHandler11setPropertyERK7QString@Base 6.2.0
 _ZN18QQuickWheelHandler11setRotationEd@Base 6.2.0
 _ZN18QQuickWheelHandler13setInvertibleEb@Base 6.2.0
 _ZN18QQuickWheelHandler14setOrientationEN2Qt11OrientationE@Base 6.2.0
 _ZN18QQuickWheelHandler15onActiveChangedEv@Base 6.2.0
 _ZN18QQuickWheelHandler15onTargetChangedEP10QQuickItem@Base 6.2.0
 _ZN18QQuickWheelHandler15propertyChangedEv@Base 6.2.0
 _ZN18QQuickWheelHandler15rotationChangedEv@Base 6.2.0
 _ZN18QQuickWheelHandler16handleEventPointEP13QPointerEventR11QEventPoint@Base 6.2.0
 _ZN18QQuickWheelHandler16setActiveTimeoutEd@Base 6.2.0
 _ZN18QQuickWheelHandler16setRotationScaleEd@Base 6.2.0
 _ZN18QQuickWheelHandler16staticMetaObjectE@Base 6.2.0
 _ZN18QQuickWheelHandler17invertibleChangedEv@Base 6.2.0
 _ZN18QQuickWheelHandler17wantsPointerEventEP13QPointerEvent@Base 6.2.0
 _ZN18QQuickWheelHandler18orientationChangedEv@Base 6.2.0
 _ZN18QQuickWheelHandler20activeTimeoutChangedEv@Base 6.2.0
 _ZN18QQuickWheelHandler20rotationScaleChangedEv@Base 6.2.0
 _ZN18QQuickWheelHandler24setTargetScaleMultiplierEd@Base 6.2.0
 _ZN18QQuickWheelHandler28targetScaleMultiplierChangedEv@Base 6.2.0
 _ZN18QQuickWheelHandler30setTargetTransformAroundCursorEb@Base 6.2.0
 _ZN18QQuickWheelHandler34targetTransformAroundCursorChangedEv@Base 6.2.0
 _ZN18QQuickWheelHandler5wheelEP16QQuickWheelEvent@Base 6.2.0
 _ZN18QQuickWheelHandlerC1EP10QQuickItem@Base 6.2.0
 _ZN18QQuickWheelHandlerC2EP10QQuickItem@Base 6.2.0
 _ZN18QQuickXAnimatorJob17updateCurrentTimeEi@Base 6.2.0
 _ZN18QQuickXAnimatorJob9writeBackEv@Base 6.2.0
 _ZN18QQuickYAnimatorJob17updateCurrentTimeEi@Base 6.2.0
 _ZN18QQuickYAnimatorJob9writeBackEv@Base 6.2.0
 _ZN18QSGTextureProvider11qt_metacallEN11QMetaObject4CallEiPPv@Base 6.2.0
 _ZN18QSGTextureProvider11qt_metacastEPKc@Base 6.2.0
 _ZN18QSGTextureProvider14textureChangedEv@Base 6.2.0
 _ZN18QSGTextureProvider16staticMetaObjectE@Base 6.2.0
 _ZN19QQuickAnchorChanges11mayOverrideEP22QQuickStateActionEvent@Base 6.2.0
 _ZN19QQuickAnchorChanges11qt_metacallEN11QMetaObject4CallEiPPv@Base 6.2.0
 _ZN19QQuickAnchorChanges11qt_metacastEPKc@Base 6.2.0
 _ZN19QQuickAnchorChanges12isReversableEv@Base 6.2.0
 _ZN19QQuickAnchorChanges13clearBindingsEv@Base 6.2.0
 _ZN19QQuickAnchorChanges13copyOriginalsEP22QQuickStateActionEvent@Base 6.2.0
 _ZN19QQuickAnchorChanges13saveOriginalsEv@Base 6.2.0
 _ZN19QQuickAnchorChanges15changesBindingsEv@Base 6.2.0
 _ZN19QQuickAnchorChanges16saveTargetValuesEv@Base 6.2.0
 _ZN19QQuickAnchorChanges16staticMetaObjectE@Base 6.2.0
 _ZN19QQuickAnchorChanges17saveCurrentValuesEv@Base 6.2.0
 _ZN19QQuickAnchorChanges6rewindEv@Base 6.2.0
 _ZN19QQuickAnchorChanges7actionsEv@Base 6.2.0
 _ZN19QQuickAnchorChanges7executeEv@Base 6.2.0
 _ZN19QQuickAnchorChanges7reverseEv@Base 6.2.0
 _ZN19QQuickAnchorChanges9setObjectEP10QQuickItem@Base 6.2.0
 _ZN19QQuickAnchorChangesC1EP7QObject@Base 6.2.0
 _ZN19QQuickAnchorChangesC2EP7QObject@Base 6.2.0
 _ZN19QQuickAnchorChangesD0Ev@Base 6.2.0
 _ZN19QQuickAnchorChangesD1Ev@Base 6.2.0
 _ZN19QQuickAnchorChangesD2Ev@Base 6.2.0
 _ZN19QQuickAnimatedImage10setPlayingEb@Base 6.2.0
 _ZN19QQuickAnimatedImage10sourceSizeEv@Base 6.2.0
 _ZN19QQuickAnimatedImage11movieUpdateEv@Base 6.2.0
 _ZN19QQuickAnimatedImage11qt_metacallEN11QMetaObject4CallEiPPv@Base 6.2.0
 _ZN19QQuickAnimatedImage11qt_metacastEPKc@Base 6.2.0
 _ZN19QQuickAnimatedImage12frameChangedEv@Base 6.2.0
 _ZN19QQuickAnimatedImage12speedChangedEv@Base 6.2.0
 _ZN19QQuickAnimatedImage13pausedChangedEv@Base 6.2.0
 _ZN19QQuickAnimatedImage14onCacheChangedEv@Base 6.2.0
 _ZN19QQuickAnimatedImage14playingChangedEv@Base 6.2.0
 _ZN19QQuickAnimatedImage15setCurrentFrameEi@Base 6.2.0
 _ZN19QQuickAnimatedImage16staticMetaObjectE@Base 6.2.0
 _ZN19QQuickAnimatedImage17componentCompleteEv@Base 6.2.0
 _ZN19QQuickAnimatedImage17frameCountChangedEv@Base 6.2.0
 _ZN19QQuickAnimatedImage19currentFrameChangedEv@Base 6.2.0
 _ZN19QQuickAnimatedImage20movieRequestFinishedEv@Base 6.2.0
 _ZN19QQuickAnimatedImage20playingStatusChangedEv@Base 6.2.0
 _ZN19QQuickAnimatedImage4loadEv@Base 6.2.0
 _ZN19QQuickAnimatedImage8setSpeedEd@Base 6.2.0
 _ZN19QQuickAnimatedImage9setPausedEb@Base 6.2.0
 _ZN19QQuickAnimatedImage9setSourceERK4QUrl@Base 6.2.0
 _ZN19QQuickAnimatedImageC1EP10QQuickItem@Base 6.2.0
 _ZN19QQuickAnimatedImageC2EP10QQuickItem@Base 6.2.0
 _ZN19QQuickAnimatedImageD0Ev@Base 6.2.0
 _ZN19QQuickAnimatedImageD1Ev@Base 6.2.0
 _ZN19QQuickAnimatedImageD2Ev@Base 6.2.0
 _ZN19QQuickDeliveryAgent11qt_metacallEN11QMetaObject4CallEiPPv@Base 6.2.0
 _ZN19QQuickDeliveryAgent11qt_metacastEPKc@Base 6.2.0
 _ZN19QQuickDeliveryAgent16staticMetaObjectE@Base 6.2.0
 _ZN19QQuickDeliveryAgent17setSceneTransformEPNS_9TransformE@Base 6.2.0
 _ZN19QQuickDeliveryAgent5eventEP6QEvent@Base 6.2.0
 _ZN19QQuickDeliveryAgent9TransformD0Ev@Base 6.2.0
 _ZN19QQuickDeliveryAgent9TransformD1Ev@Base 6.2.0
 _ZN19QQuickDeliveryAgent9TransformD2Ev@Base 6.2.0
 _ZN19QQuickDeliveryAgentC1EP10QQuickItem@Base 6.2.0
 _ZN19QQuickDeliveryAgentC2EP10QQuickItem@Base 6.2.0
 _ZN19QQuickDeliveryAgentD0Ev@Base 6.2.0
 _ZN19QQuickDeliveryAgentD1Ev@Base 6.2.0
 _ZN19QQuickDeliveryAgentD2Ev@Base 6.2.0
 _ZN19QQuickFontValueType10setKerningEb@Base 6.2.0
 _ZN19QQuickFontValueType11setOverlineEb@Base 6.2.0
 _ZN19QQuickFontValueType12setPixelSizeEi@Base 6.2.0
 _ZN19QQuickFontValueType12setPointSizeEd@Base 6.2.0
 _ZN19QQuickFontValueType12setStrikeoutEb@Base 6.2.0
 _ZN19QQuickFontValueType12setStyleNameERK7QString@Base 6.2.0
 _ZN19QQuickFontValueType12setUnderlineEb@Base 6.2.0
 _ZN19QQuickFontValueType14setWordSpacingEd@Base 6.2.0
 _ZN19QQuickFontValueType16setLetterSpacingEd@Base 6.2.0
 _ZN19QQuickFontValueType16setPreferShapingEb@Base 6.2.0
 _ZN19QQuickFontValueType16staticMetaObjectE@Base 6.2.0
 _ZN19QQuickFontValueType17setCapitalizationEN15QQuickFontEnums14CapitalizationE@Base 6.2.0
 _ZN19QQuickFontValueType20setHintingPreferenceEN15QQuickFontEnums17HintingPreferenceE@Base 6.2.0
 _ZN19QQuickFontValueType6createERK8QJSValue@Base 6.2.0
 _ZN19QQuickFontValueType7setBoldEb@Base 6.2.0
 _ZN19QQuickFontValueType9setFamilyERK7QString@Base 6.2.0
 _ZN19QQuickFontValueType9setItalicEb@Base 6.2.0
 _ZN19QQuickFontValueType9setWeightEi@Base 6.2.0
 _ZN19QQuickImageProvider11qt_metacallEN11QMetaObject4CallEiPPv@Base 6.2.0
 _ZN19QQuickImageProvider11qt_metacastEPKc@Base 6.2.0
 _ZN19QQuickImageProvider12requestImageERK7QStringP5QSizeRKS3_@Base 6.2.0
 _ZN19QQuickImageProvider13requestPixmapERK7QStringP5QSizeRKS3_@Base 6.2.0
 _ZN19QQuickImageProvider14requestTextureERK7QStringP5QSizeRKS3_@Base 6.2.0
 _ZN19QQuickImageProvider16staticMetaObjectE@Base 6.2.0
 _ZN19QQuickImageProviderC1EN21QQmlImageProviderBase9ImageTypeE6QFlagsINS0_4FlagEE@Base 6.2.0
 _ZN19QQuickImageProviderC2EN21QQmlImageProviderBase9ImageTypeE6QFlagsINS0_4FlagEE@Base 6.2.0
 _ZN19QQuickImageProviderD0Ev@Base 6.2.0
 _ZN19QQuickImageProviderD1Ev@Base 6.2.0
 _ZN19QQuickImageProviderD2Ev@Base 6.2.0
 _ZN19QQuickImageResponse11qt_metacallEN11QMetaObject4CallEiPPv@Base 6.2.0
 _ZN19QQuickImageResponse11qt_metacastEPKc@Base 6.2.0
 _ZN19QQuickImageResponse16staticMetaObjectE@Base 6.2.0
 _ZN19QQuickImageResponse6cancelEv@Base 6.2.0
 _ZN19QQuickImageResponse8finishedEv@Base 6.2.0
 _ZN19QQuickImageResponseC1Ev@Base 6.2.0
 _ZN19QQuickImageResponseC2Ev@Base 6.2.0
 _ZN19QQuickImageResponseD0Ev@Base 6.2.0
 _ZN19QQuickImageResponseD1Ev@Base 6.2.0
 _ZN19QQuickImageResponseD2Ev@Base 6.2.0
 _ZN19QQuickPathAnimation10transitionER5QListI17QQuickStateActionERS0_I12QQmlPropertyEN23QQuickAbstractAnimation19TransitionDirectionEP7QObject@Base 6.2.0
 _ZN19QQuickPathAnimation11pathChangedEv@Base 6.2.0
 _ZN19QQuickPathAnimation11qt_metacallEN11QMetaObject4CallEiPPv@Base 6.2.0
 _ZN19QQuickPathAnimation11qt_metacastEPKc@Base 6.2.0
 _ZN19QQuickPathAnimation11setDurationEi@Base 6.2.0
 _ZN19QQuickPathAnimation13easingChangedERK12QEasingCurve@Base 6.2.0
 _ZN19QQuickPathAnimation13targetChangedEv@Base 6.2.0
 _ZN19QQuickPathAnimation14setAnchorPointERK7QPointF@Base 6.2.0
 _ZN19QQuickPathAnimation14setEndRotationEd@Base 6.2.0
 _ZN19QQuickPathAnimation14setOrientationENS_11OrientationE@Base 6.2.0
 _ZN19QQuickPathAnimation15durationChangedEi@Base 6.2.0
 _ZN19QQuickPathAnimation15setTargetObjectEP10QQuickItem@Base 6.2.0
 _ZN19QQuickPathAnimation16staticMetaObjectE@Base 6.2.0
 _ZN19QQuickPathAnimation18anchorPointChangedERK7QPointF@Base 6.2.0
 _ZN19QQuickPathAnimation18endRotationChangedEd@Base 6.2.0
 _ZN19QQuickPathAnimation18orientationChangedENS_11OrientationE@Base 6.2.0
 _ZN19QQuickPathAnimation26setOrientationExitDurationEi@Base 6.2.0
 _ZN19QQuickPathAnimation27setOrientationEntryDurationEi@Base 6.2.0
 _ZN19QQuickPathAnimation30orientationExitDurationChangedEd@Base 6.2.0
 _ZN19QQuickPathAnimation31orientationEntryDurationChangedEd@Base 6.2.0
 _ZN19QQuickPathAnimation7setPathEP10QQuickPath@Base 6.2.0
 _ZN19QQuickPathAnimation9setEasingERK12QEasingCurve@Base 6.2.0
 _ZN19QQuickPathAnimationC1EP7QObject@Base 6.2.0
 _ZN19QQuickPathAnimationC2EP7QObject@Base 6.2.0
 _ZN19QQuickPathAnimationD0Ev@Base 6.2.0
 _ZN19QQuickPathAnimationD1Ev@Base 6.2.0
 _ZN19QQuickPathAnimationD2Ev@Base 6.2.0
 _ZN19QQuickPathAttribute11nameChangedEv@Base 6.2.0
 _ZN19QQuickPathAttribute11qt_metacallEN11QMetaObject4CallEiPPv@Base 6.2.0
 _ZN19QQuickPathAttribute11qt_metacastEPKc@Base 6.2.0
 _ZN19QQuickPathAttribute12valueChangedEv@Base 6.2.0
 _ZN19QQuickPathAttribute16staticMetaObjectE@Base 6.2.0
 _ZN19QQuickPathAttribute7setNameERK7QString@Base 6.2.0
 _ZN19QQuickPathAttribute8setValueEd@Base 6.2.0
 _ZN19QQuickPathMultiline11qt_metacallEN11QMetaObject4CallEiPPv@Base 6.2.0
 _ZN19QQuickPathMultiline11qt_metacastEPKc@Base 6.2.0
 _ZN19QQuickPathMultiline12pathsChangedEv@Base 6.2.0
 _ZN19QQuickPathMultiline12startChangedEv@Base 6.2.0
 _ZN19QQuickPathMultiline16staticMetaObjectE@Base 6.2.0
 _ZN19QQuickPathMultiline8setPathsERK5QListIS0_I7QPointFEE@Base 6.2.0
 _ZN19QQuickPathMultiline8setPathsERK8QVariant@Base 6.2.0
 _ZN19QQuickPathMultiline9addToPathER12QPainterPathRK14QQuickPathData@Base 6.2.0
 _ZN19QQuickPathMultilineC1EP7QObject@Base 6.2.0
 _ZN19QQuickPathMultilineC2EP7QObject@Base 6.2.0
 _ZN19QQuickRenderControl10beginFrameEv@Base 6.2.0
 _ZN19QQuickRenderControl10initializeEv@Base 6.2.0
 _ZN19QQuickRenderControl10invalidateEv@Base 6.2.0
 _ZN19QQuickRenderControl10setSamplesEi@Base 6.2.0
 _ZN19QQuickRenderControl11polishItemsEv@Base 6.2.0
 _ZN19QQuickRenderControl11qt_metacallEN11QMetaObject4CallEiPPv@Base 6.2.0
 _ZN19QQuickRenderControl11qt_metacastEPKc@Base 6.2.0
 _ZN19QQuickRenderControl12sceneChangedEv@Base 6.2.0
 _ZN19QQuickRenderControl13prepareThreadEP7QThread@Base 6.2.0
 _ZN19QQuickRenderControl15renderRequestedEv@Base 6.2.0
 _ZN19QQuickRenderControl15renderWindowForEP12QQuickWindowP6QPoint@Base 6.2.0
 _ZN19QQuickRenderControl16staticMetaObjectE@Base 6.2.0
 _ZN19QQuickRenderControl4syncEv@Base 6.2.0
 _ZN19QQuickRenderControl6renderEv@Base 6.2.0
 _ZN19QQuickRenderControl8endFrameEv@Base 6.2.0
 _ZN19QQuickRenderControlC1EP7QObject@Base 6.2.0
 _ZN19QQuickRenderControlC2EP7QObject@Base 6.2.0
 _ZN19QQuickRenderControlD0Ev@Base 6.2.0
 _ZN19QQuickRenderControlD1Ev@Base 6.2.0
 _ZN19QQuickRenderControlD2Ev@Base 6.2.0
 _ZN19QQuickScaleAnimator11qt_metacallEN11QMetaObject4CallEiPPv@Base 6.2.0
 _ZN19QQuickScaleAnimator11qt_metacastEPKc@Base 6.2.0
 _ZN19QQuickScaleAnimator16staticMetaObjectE@Base 6.2.0
 _ZN19QQuickScaleAnimatorC1EP7QObject@Base 6.2.0
 _ZN19QQuickScaleAnimatorC2EP7QObject@Base 6.2.0
 _ZN19QQuickSystemPalette11qt_metacallEN11QMetaObject4CallEiPPv@Base 6.2.0
 _ZN19QQuickSystemPalette11qt_metacastEPKc@Base 6.2.0
 _ZN19QQuickSystemPalette13setColorGroupENS_10ColorGroupE@Base 6.2.0
 _ZN19QQuickSystemPalette14paletteChangedEv@Base 6.2.0
 _ZN19QQuickSystemPalette16staticMetaObjectE@Base 6.2.0
 _ZN19QQuickSystemPaletteC1EP7QObject@Base 6.2.0
 _ZN19QQuickSystemPaletteC2EP7QObject@Base 6.2.0
 _ZN19QQuickSystemPaletteD0Ev@Base 6.2.0
 _ZN19QQuickSystemPaletteD1Ev@Base 6.2.0
 _ZN19QQuickSystemPaletteD2Ev@Base 6.2.0
 _ZN19QQuickWindowPrivate10data_clearEP16QQmlListPropertyI7QObjectE@Base 6.2.0
 _ZN19QQuickWindowPrivate10data_countEP16QQmlListPropertyI7QObjectE@Base 6.2.0
 _ZN19QQuickWindowPrivate11data_appendEP16QQmlListPropertyI7QObjectEPS1_@Base 6.2.0
 _ZN19QQuickWindowPrivate11forcePolishEv@Base 6.2.0
 _ZN19QQuickWindowPrivate11polishItemsEv@Base 6.2.0
 _ZN19QQuickWindowPrivate12cleanupNodesEv@Base 6.2.0
 (subst)_ZN19QQuickWindowPrivate12data_replaceEP16QQmlListPropertyI7QObjectE{qptrdiff}PS1_@Base 6.2.0
 _ZN19QQuickWindowPrivate12updateCursorERK7QPointFP10QQuickItem@Base 6.2.0
 _ZN19QQuickWindowPrivate13openglContextEv@Base 6.2.0
 _ZN19QQuickWindowPrivate14syncSceneGraphEv@Base 6.2.0
 _ZN19QQuickWindowPrivate14textRenderTypeE@Base 6.2.0
 _ZN19QQuickWindowPrivate15data_removeLastEP16QQmlListPropertyI7QObjectE@Base 6.2.0
 _ZN19QQuickWindowPrivate15runAndClearJobsEP5QListIP9QRunnableE@Base 6.2.0
 _ZN19QQuickWindowPrivate15updateDirtyNodeEP10QQuickItem@Base 6.2.0
 _ZN19QQuickWindowPrivate16renderSceneGraphERK5QSizeS2_@Base 6.2.0
 _ZN19QQuickWindowPrivate16updateDirtyNodesEv@Base 6.2.0
 _ZN19QQuickWindowPrivate18defaultAlphaBufferE@Base 6.2.0
 _ZN19QQuickWindowPrivate22cleanupNodesOnShutdownEP10QQuickItem@Base 6.2.0
 _ZN19QQuickWindowPrivate22cleanupNodesOnShutdownEv@Base 6.2.0
 _ZN19QQuickWindowPrivate22setCustomCommandBufferEP17QRhiCommandBuffer@Base 6.2.0
 _ZN19QQuickWindowPrivate22updateChildrenPalettesERK8QPalette@Base 6.2.0
 _ZN19QQuickWindowPrivate24ensureCustomRenderTargetEv@Base 6.2.0
 _ZN19QQuickWindowPrivate25rhiCreationFailureMessageERK7QStringPS0_S3_@Base 6.2.0
 _ZN19QQuickWindowPrivate27flushFrameSynchronousEventsEv@Base 6.2.0
 _ZN19QQuickWindowPrivate28emitAfterRenderPassRecordingEPv@Base 6.2.0
 _ZN19QQuickWindowPrivate29emitBeforeRenderPassRecordingEPv@Base 6.2.0
 _ZN19QQuickWindowPrivate4dataEv@Base 6.2.0
 _ZN19QQuickWindowPrivate4initEP12QQuickWindowP19QQuickRenderControl@Base 6.2.0
 _ZN19QQuickWindowPrivate7cleanupEP7QSGNode@Base 6.2.0
 (subst)_ZN19QQuickWindowPrivate7data_atEP16QQmlListPropertyI7QObjectE{qptrdiff}@Base 6.2.0
 _ZN19QQuickWindowPrivate9dirtyItemEP10QQuickItem@Base 6.2.0
 _ZN19QQuickWindowPrivate9emitErrorEN12QQuickWindow15SceneGraphErrorERK7QString@Base 6.2.0
 _ZN19QQuickWindowPrivateC1Ev@Base 6.2.0
 _ZN19QQuickWindowPrivateC2Ev@Base 6.2.0
 _ZN19QQuickWindowPrivateD0Ev@Base 6.2.0
 _ZN19QQuickWindowPrivateD1Ev@Base 6.2.0
 _ZN19QQuickWindowPrivateD2Ev@Base 6.2.0
 _ZN19QQuickWindowQmlImpl10classBeginEv@Base 6.2.0
 _ZN19QQuickWindowQmlImpl10setVisibleEb@Base 6.2.0
 _ZN19QQuickWindowQmlImpl11qt_metacallEN11QMetaObject4CallEiPPv@Base 6.2.0
 _ZN19QQuickWindowQmlImpl11qt_metacastEPKc@Base 6.2.0
 _ZN19QQuickWindowQmlImpl13screenChangedEv@Base 6.2.0
 _ZN19QQuickWindowQmlImpl13setVisibilityEN7QWindow10VisibilityE@Base 6.2.0
 _ZN19QQuickWindowQmlImpl14visibleChangedEb@Base 6.2.0
 _ZN19QQuickWindowQmlImpl16staticMetaObjectE@Base 6.2.0
 _ZN19QQuickWindowQmlImpl17componentCompleteEv@Base 6.2.0
 _ZN19QQuickWindowQmlImpl17visibilityChangedEN7QWindow10VisibilityE@Base 6.2.0
 _ZN19QQuickWindowQmlImpl19setWindowVisibilityEv@Base 6.2.0
 _ZN19QQuickWindowQmlImpl21qmlAttachedPropertiesEP7QObject@Base 6.2.0
 _ZN19QQuickWindowQmlImpl22transientParentVisibleEv@Base 6.2.0
 _ZN19QQuickWindowQmlImpl9setScreenEP7QObject@Base 6.2.0
 _ZN19QQuickWindowQmlImplC1EP7QWindow@Base 6.2.0
 _ZN19QQuickWindowQmlImplC1ER26QQuickWindowQmlImplPrivateP7QWindow@Base 6.2.0
 _ZN19QQuickWindowQmlImplC2EP7QWindow@Base 6.2.0
 _ZN19QQuickWindowQmlImplC2ER26QQuickWindowQmlImplPrivateP7QWindow@Base 6.2.0
 _ZN19QSGAbstractRenderer11qt_metacallEN11QMetaObject4CallEiPPv@Base 6.2.0
 _ZN19QSGAbstractRenderer11qt_metacastEPKc@Base 6.2.0
 _ZN19QSGAbstractRenderer11setRootNodeEP11QSGRootNode@Base 6.2.0
 _ZN19QSGAbstractRenderer12setClearModeE6QFlagsINS_12ClearModeBitEE@Base 6.2.0
 _ZN19QSGAbstractRenderer13setClearColorERK6QColor@Base 6.2.0
 _ZN19QSGAbstractRenderer13setDeviceRectERK5QRect@Base 6.2.0
 _ZN19QSGAbstractRenderer15setViewportRectERK5QRect@Base 6.2.0
 _ZN19QSGAbstractRenderer16staticMetaObjectE@Base 6.2.0
 _ZN19QSGAbstractRenderer17renderSceneInlineEv@Base 6.2.0
 _ZN19QSGAbstractRenderer17sceneGraphChangedEv@Base 6.2.0
 _ZN19QSGAbstractRenderer18prepareSceneInlineEv@Base 6.2.0
 _ZN19QSGAbstractRenderer19setProjectionMatrixERK10QMatrix4x4@Base 6.2.0
 _ZN19QSGAbstractRenderer25setProjectionMatrixToRectERK6QRectF6QFlagsINS_19MatrixTransformFlagEE@Base 6.2.0
 _ZN19QSGAbstractRenderer25setProjectionMatrixToRectERK6QRectF@Base 6.2.0
 _ZN19QSGAbstractRenderer32setProjectionMatrixWithNativeNDCERK10QMatrix4x4@Base 6.2.0
 _ZN19QSGAbstractRendererC1EP7QObject@Base 6.2.0
 _ZN19QSGAbstractRendererC2EP7QObject@Base 6.2.0
 _ZN19QSGAbstractRendererD0Ev@Base 6.2.0
 _ZN19QSGAbstractRendererD1Ev@Base 6.2.0
 _ZN19QSGAbstractRendererD2Ev@Base 6.2.0
 _ZN19QSGDefaultImageNode10setTextureEP10QSGTexture@Base 6.2.0
 _ZN19QSGDefaultImageNode12setFilteringEN10QSGTexture9FilteringE@Base 6.2.0
 _ZN19QSGDefaultImageNode13setSourceRectERK6QRectF@Base 6.2.0
 _ZN19QSGDefaultImageNode14setOwnsTextureEb@Base 6.2.0
 _ZN19QSGDefaultImageNode18setAnisotropyLevelEN10QSGTexture15AnisotropyLevelE@Base 6.2.0
 _ZN19QSGDefaultImageNode18setMipmapFilteringEN10QSGTexture9FilteringE@Base 6.2.0
 _ZN19QSGDefaultImageNode30setTextureCoordinatesTransformE6QFlagsIN12QSGImageNode31TextureCoordinatesTransformFlagEE@Base 6.2.0
 _ZN19QSGDefaultImageNode7setRectERK6QRectF@Base 6.2.0
 _ZN19QSGDefaultImageNodeC1Ev@Base 6.2.0
 _ZN19QSGDefaultImageNodeC2Ev@Base 6.2.0
 _ZN19QSGDefaultImageNodeD0Ev@Base 6.2.0
 _ZN19QSGDefaultImageNodeD1Ev@Base 6.2.0
 _ZN19QSGDefaultImageNodeD2Ev@Base 6.2.0
 _ZN19QSGShaderEffectNode11qt_metacallEN11QMetaObject4CallEiPPv@Base 6.2.0
 _ZN19QSGShaderEffectNode11qt_metacastEPKc@Base 6.2.0
 _ZN19QSGShaderEffectNode14textureChangedEv@Base 6.2.0
 _ZN19QSGShaderEffectNode16staticMetaObjectE@Base 6.2.0
 _ZN19QSGSoftwareRenderer11renderSceneEv@Base 6.2.0
 _ZN19QSGSoftwareRenderer15setBackingStoreEP13QBackingStore@Base 6.2.0
 _ZN19QSGSoftwareRenderer21setCurrentPaintDeviceEP12QPaintDevice@Base 6.2.0
 _ZN19QSGSoftwareRenderer6renderEv@Base 6.2.0
 _ZN19QSGSoftwareRendererC1EP16QSGRenderContext@Base 6.2.0
 _ZN19QSGSoftwareRendererC2EP16QSGRenderContext@Base 6.2.0
 _ZN19QSGSoftwareRendererD0Ev@Base 6.2.0
 _ZN19QSGSoftwareRendererD1Ev@Base 6.2.0
 _ZN19QSGSoftwareRendererD2Ev@Base 6.2.0
 _ZN20QAccessibleQuickItem12addSelectionEii@Base 6.2.0
 _ZN20QAccessibleQuickItem12setSelectionEiii@Base 6.2.0
 _ZN20QAccessibleQuickItem14interface_castEN11QAccessible13InterfaceTypeE@Base 6.2.0
 _ZN20QAccessibleQuickItem15removeSelectionEi@Base 6.2.0
 _ZN20QAccessibleQuickItem15setCurrentValueERK8QVariant@Base 6.2.0
 _ZN20QAccessibleQuickItem17setCursorPositionEi@Base 6.2.0
 _ZN20QAccessibleQuickItem7setTextEN11QAccessible4TextERK7QString@Base 6.2.0
 _ZN20QAccessibleQuickItem8doActionERK7QString@Base 6.2.0
 _ZN20QAccessibleQuickItemC1EP10QQuickItem@Base 6.2.0
 _ZN20QAccessibleQuickItemC2EP10QQuickItem@Base 6.2.0
 _ZN20QQuickAnimatedSprite10itemChangeEN10QQuickItem10ItemChangeERKNS0_14ItemChangeDataE@Base 6.2.0
 _ZN20QQuickAnimatedSprite10setReverseEb@Base 6.2.0
 _ZN20QQuickAnimatedSprite10setRunningEb@Base 6.2.0
 _ZN20QQuickAnimatedSprite11maybeUpdateEv@Base 6.2.0
 _ZN20QQuickAnimatedSprite11qt_metacallEN11QMetaObject4CallEiPPv@Base 6.2.0
 _ZN20QQuickAnimatedSprite11qt_metacastEPKc@Base 6.2.0
 _ZN20QQuickAnimatedSprite11reloadImageEv@Base 6.2.0
 _ZN20QQuickAnimatedSprite12createEngineEv@Base 6.2.0
 _ZN20QQuickAnimatedSprite12loopsChangedEi@Base 6.2.0
 _ZN20QQuickAnimatedSprite12setFrameRateEd@Base 6.2.0
 _ZN20QQuickAnimatedSprite12setFrameSyncEb@Base 6.2.0
 _ZN20QQuickAnimatedSprite13frameXChangedEi@Base 6.2.0
 _ZN20QQuickAnimatedSprite13frameYChangedEi@Base 6.2.0
 _ZN20QQuickAnimatedSprite13pausedChangedEb@Base 6.2.0
 _ZN20QQuickAnimatedSprite13setFrameCountEi@Base 6.2.0
 _ZN20QQuickAnimatedSprite13setFrameWidthEi@Base 6.2.0
 _ZN20QQuickAnimatedSprite13sourceChangedERK4QUrl@Base 6.2.0
 _ZN20QQuickAnimatedSprite14resetFrameRateEv@Base 6.2.0
 _ZN20QQuickAnimatedSprite14reverseChangedEb@Base 6.2.0
 _ZN20QQuickAnimatedSprite14runningChangedEb@Base 6.2.0
 _ZN20QQuickAnimatedSprite14setFrameHeightEi@Base 6.2.0
 _ZN20QQuickAnimatedSprite14setInterpolateEb@Base 6.2.0
 _ZN20QQuickAnimatedSprite15setCurrentFrameEi@Base 6.2.0
 _ZN20QQuickAnimatedSprite15updatePaintNodeEP7QSGNodePN10QQuickItem19UpdatePaintNodeDataE@Base 6.2.0
 _ZN20QQuickAnimatedSprite16frameRateChangedEd@Base 6.2.0
 _ZN20QQuickAnimatedSprite16frameSyncChangedEb@Base 6.2.0
 _ZN20QQuickAnimatedSprite16prepareNextFrameEP13QSGSpriteNode@Base 6.2.0
 _ZN20QQuickAnimatedSprite16setFrameDurationEi@Base 6.2.0
 _ZN20QQuickAnimatedSprite16staticMetaObjectE@Base 6.2.0
 _ZN20QQuickAnimatedSprite17componentCompleteEv@Base 6.2.0
 _ZN20QQuickAnimatedSprite17frameCountChangedEi@Base 6.2.0
 _ZN20QQuickAnimatedSprite17frameWidthChangedEi@Base 6.2.0
 _ZN20QQuickAnimatedSprite17setFinishBehaviorENS_14FinishBehaviorE@Base 6.2.0
 _ZN20QQuickAnimatedSprite18frameHeightChangedEi@Base 6.2.0
 _ZN20QQuickAnimatedSprite18interpolateChangedEb@Base 6.2.0
 _ZN20QQuickAnimatedSprite18resetFrameDurationEv@Base 6.2.0
 _ZN20QQuickAnimatedSprite19currentFrameChangedEi@Base 6.2.0
 _ZN20QQuickAnimatedSprite20frameDurationChangedEi@Base 6.2.0
 _ZN20QQuickAnimatedSprite21finishBehaviorChangedENS_14FinishBehaviorE@Base 6.2.0
 _ZN20QQuickAnimatedSprite30isCurrentFrameChangedConnectedEv@Base 6.2.0
 _ZN20QQuickAnimatedSprite4stopEv@Base 6.2.0
 _ZN20QQuickAnimatedSprite5pauseEv@Base 6.2.0
 _ZN20QQuickAnimatedSprite5resetEv@Base 6.2.0
 _ZN20QQuickAnimatedSprite5startEv@Base 6.2.0
 _ZN20QQuickAnimatedSprite6resumeEv@Base 6.2.0
 _ZN20QQuickAnimatedSprite7advanceEi@Base 6.2.0
 _ZN20QQuickAnimatedSprite8finishedEv@Base 6.2.0
 _ZN20QQuickAnimatedSprite8initNodeEv@Base 6.2.0
 _ZN20QQuickAnimatedSprite8setLoopsEi@Base 6.2.0
 _ZN20QQuickAnimatedSprite9setFrameXEi@Base 6.2.0
 _ZN20QQuickAnimatedSprite9setFrameYEi@Base 6.2.0
 _ZN20QQuickAnimatedSprite9setPausedEb@Base 6.2.0
 _ZN20QQuickAnimatedSprite9setSourceERK4QUrl@Base 6.2.0
 _ZN20QQuickAnimatedSpriteC1EP10QQuickItem@Base 6.2.0
 _ZN20QQuickAnimatedSpriteC2EP10QQuickItem@Base 6.2.0
 _ZN20QQuickAnimationGroup10animationsEv@Base 6.2.0
 _ZN20QQuickAnimationGroup11qt_metacallEN11QMetaObject4CallEiPPv@Base 6.2.0
 _ZN20QQuickAnimationGroup11qt_metacastEPKc@Base 6.2.0
 _ZN20QQuickAnimationGroup16staticMetaObjectE@Base 6.2.0
 _ZN20QQuickAnimationGroupC1EP7QObject@Base 6.2.0
 _ZN20QQuickAnimationGroupC1ER27QQuickAnimationGroupPrivateP7QObject@Base 6.2.0
 _ZN20QQuickAnimationGroupC2EP7QObject@Base 6.2.0
 _ZN20QQuickAnimationGroupC2ER27QQuickAnimationGroupPrivateP7QObject@Base 6.2.0
 _ZN20QQuickAnimationGroupD0Ev@Base 6.2.0
 _ZN20QQuickAnimationGroupD1Ev@Base 6.2.0
 _ZN20QQuickAnimationGroupD2Ev@Base 6.2.0
 _ZN20QQuickBasePositioner10addChangedEv@Base 6.2.0
 _ZN20QQuickBasePositioner10itemChangeEN10QQuickItem10ItemChangeERKNS0_14ItemChangeDataE@Base 6.2.0
 _ZN20QQuickBasePositioner10setPaddingEd@Base 6.2.0
 _ZN20QQuickBasePositioner10setSpacingEd@Base 6.2.0
 _ZN20QQuickBasePositioner11forceLayoutEv@Base 6.2.0
 _ZN20QQuickBasePositioner11moveChangedEv@Base 6.2.0
 _ZN20QQuickBasePositioner11qt_metacallEN11QMetaObject4CallEiPPv@Base 6.2.0
 _ZN20QQuickBasePositioner11qt_metacastEPKc@Base 6.2.0
 _ZN20QQuickBasePositioner11setPopulateEP16QQuickTransition@Base 6.2.0
 _ZN20QQuickBasePositioner12positionItemEddPNS_14PositionedItemE@Base 6.2.0
 _ZN20QQuickBasePositioner12resetPaddingEv@Base 6.2.0
 _ZN20QQuickBasePositioner12updatePolishEv@Base 6.2.0
 _ZN20QQuickBasePositioner13positionItemXEdPNS_14PositionedItemE@Base 6.2.0
 _ZN20QQuickBasePositioner13positionItemYEdPNS_14PositionedItemE@Base 6.2.0
 _ZN20QQuickBasePositioner13setTopPaddingEd@Base 6.2.0
 _ZN20QQuickBasePositioner14PositionedItem13updatePaddingEdddd@Base 6.2.0
 _ZN20QQuickBasePositioner14PositionedItem15startTransitionEP26QQuickItemViewTransitioner@Base 6.2.0
 _ZN20QQuickBasePositioner14PositionedItem17prepareTransitionEP26QQuickItemViewTransitionerRK6QRectF@Base 6.2.0
 _ZN20QQuickBasePositioner14PositionedItem24transitionNextRepositionEP26QQuickItemViewTransitionerNS1_14TransitionTypeEb@Base 6.2.0
 _ZN20QQuickBasePositioner14PositionedItem6moveToERK7QPointF@Base 6.2.0
 _ZN20QQuickBasePositioner14PositionedItemC1EP10QQuickItem@Base 6.2.0
 _ZN20QQuickBasePositioner14PositionedItemC2EP10QQuickItem@Base 6.2.0
 _ZN20QQuickBasePositioner14PositionedItemD1Ev@Base 6.2.0
 _ZN20QQuickBasePositioner14PositionedItemD2Ev@Base 6.2.0
 _ZN20QQuickBasePositioner14paddingChangedEv@Base 6.2.0
 _ZN20QQuickBasePositioner14prePositioningEv@Base 6.2.0
 _ZN20QQuickBasePositioner14setLeftPaddingEd@Base 6.2.0
 _ZN20QQuickBasePositioner14spacingChangedEv@Base 6.2.0
 _ZN20QQuickBasePositioner15populateChangedEv@Base 6.2.0
 _ZN20QQuickBasePositioner15resetTopPaddingEv@Base 6.2.0
 _ZN20QQuickBasePositioner15setRightPaddingEd@Base 6.2.0
 _ZN20QQuickBasePositioner16resetLeftPaddingEv@Base 6.2.0
 _ZN20QQuickBasePositioner16setBottomPaddingEd@Base 6.2.0
 _ZN20QQuickBasePositioner16staticMetaObjectE@Base 6.2.0
 _ZN20QQuickBasePositioner17componentCompleteEv@Base 6.2.0
 _ZN20QQuickBasePositioner17resetRightPaddingEv@Base 6.2.0
 _ZN20QQuickBasePositioner17topPaddingChangedEv@Base 6.2.0
 _ZN20QQuickBasePositioner18leftPaddingChangedEv@Base 6.2.0
 _ZN20QQuickBasePositioner18resetBottomPaddingEv@Base 6.2.0
 _ZN20QQuickBasePositioner19positioningCompleteEv@Base 6.2.0
 _ZN20QQuickBasePositioner19rightPaddingChangedEv@Base 6.2.0
 _ZN20QQuickBasePositioner20bottomPaddingChangedEv@Base 6.2.0
 _ZN20QQuickBasePositioner20clearPositionedItemsEP10QPODVectorINS_14PositionedItemELi8EE@Base 6.2.0
 _ZN20QQuickBasePositioner20removePositionedItemEP10QPODVectorINS_14PositionedItemELi8EEi@Base 6.2.0
 _ZN20QQuickBasePositioner21qmlAttachedPropertiesEP7QObject@Base 6.2.0
 _ZN20QQuickBasePositioner6setAddEP16QQuickTransition@Base 6.2.0
 _ZN20QQuickBasePositioner7setMoveEP16QQuickTransition@Base 6.2.0
 _ZN20QQuickBasePositionerC1ENS_14PositionerTypeEP10QQuickItem@Base 6.2.0
 _ZN20QQuickBasePositionerC1ER27QQuickBasePositionerPrivateNS_14PositionerTypeEP10QQuickItem@Base 6.2.0
 _ZN20QQuickBasePositionerC2ENS_14PositionerTypeEP10QQuickItem@Base 6.2.0
 _ZN20QQuickBasePositionerC2ER27QQuickBasePositionerPrivateNS_14PositionerTypeEP10QQuickItem@Base 6.2.0
 _ZN20QQuickBasePositionerD0Ev@Base 6.2.0
 _ZN20QQuickBasePositionerD1Ev@Base 6.2.0
 _ZN20QQuickBasePositionerD2Ev@Base 6.2.0
 _ZN20QQuickColorAnimation11qt_metacallEN11QMetaObject4CallEiPPv@Base 6.2.0
 _ZN20QQuickColorAnimation11qt_metacastEPKc@Base 6.2.0
 _ZN20QQuickColorAnimation16staticMetaObjectE@Base 6.2.0
 _ZN20QQuickColorAnimation5setToERK6QColor@Base 6.2.0
 _ZN20QQuickColorAnimation7setFromERK6QColor@Base 6.2.0
 _ZN20QQuickColorAnimationC1EP7QObject@Base 6.2.0
 _ZN20QQuickColorAnimationC2EP7QObject@Base 6.2.0
 _ZN20QQuickColorAnimationD0Ev@Base 6.2.0
 _ZN20QQuickColorAnimationD1Ev@Base 6.2.0
 _ZN20QQuickColorAnimationD2Ev@Base 6.2.0
 _ZN20QQuickColorValueType11setHsvValueEd@Base 6.2.0
 _ZN20QQuickColorValueType15setHslLightnessEd@Base 6.2.0
 _ZN20QQuickColorValueType16setHslSaturationEd@Base 6.2.0
 _ZN20QQuickColorValueType16setHsvSaturationEd@Base 6.2.0
 _ZN20QQuickColorValueType16staticMetaObjectE@Base 6.2.0
 _ZN20QQuickColorValueType4setAEd@Base 6.2.0
 _ZN20QQuickColorValueType4setBEd@Base 6.2.0
 _ZN20QQuickColorValueType4setGEd@Base 6.2.0
 _ZN20QQuickColorValueType4setREd@Base 6.2.0
 _ZN20QQuickColorValueType6createERK8QJSValue@Base 6.2.0
 _ZN20QQuickColorValueType9setHslHueEd@Base 6.2.0
 _ZN20QQuickColorValueType9setHsvHueEd@Base 6.2.0
 (arch=linux-any)_ZN20QQuickGraphicsDevice17fromDeviceObjectsEP18VkPhysicalDevice_TP10VkDevice_Tii@Base 6.2.0
 _ZN20QQuickGraphicsDevice17fromOpenGLContextEP14QOpenGLContext@Base 6.2.0
 (arch=linux-any)_ZN20QQuickGraphicsDevice18fromPhysicalDeviceEP18VkPhysicalDevice_T@Base 6.2.0
 _ZN20QQuickGraphicsDevice6detachEv@Base 6.2.0
 _ZN20QQuickGraphicsDeviceC1ERKS_@Base 6.2.0
 _ZN20QQuickGraphicsDeviceC1Ev@Base 6.2.0
 _ZN20QQuickGraphicsDeviceC2ERKS_@Base 6.2.0
 _ZN20QQuickGraphicsDeviceC2Ev@Base 6.2.0
 _ZN20QQuickGraphicsDeviceD1Ev@Base 6.2.0
 _ZN20QQuickGraphicsDeviceD2Ev@Base 6.2.0
 _ZN20QQuickGraphicsDeviceaSERKS_@Base 6.2.0
 _ZN20QQuickItemGrabResult11qt_metacallEN11QMetaObject4CallEiPPv@Base 6.2.0
 _ZN20QQuickItemGrabResult11qt_metacastEPKc@Base 6.2.0
 _ZN20QQuickItemGrabResult16staticMetaObjectE@Base 6.2.0
 _ZN20QQuickItemGrabResult5eventEP6QEvent@Base 6.2.0
 _ZN20QQuickItemGrabResult5readyEv@Base 6.2.0
 _ZN20QQuickItemGrabResult5setupEv@Base 6.2.0
 _ZN20QQuickItemGrabResult6renderEv@Base 6.2.0
 _ZN20QQuickItemGrabResultC1EP7QObject@Base 6.2.0
 _ZN20QQuickItemGrabResultC2EP7QObject@Base 6.2.0
 _ZN20QQuickItemViewFxItem10setVisibleEb@Base 6.2.0
 _ZN20QQuickItemViewFxItem11setGeometryERK6QRectF@Base 6.2.0
 _ZN20QQuickItemViewFxItem13trackGeometryEb@Base 6.2.0
 _ZN20QQuickItemViewFxItem15startTransitionEP26QQuickItemViewTransitioner@Base 6.2.0
 _ZN20QQuickItemViewFxItem17prepareTransitionEP26QQuickItemViewTransitionerRK6QRectF@Base 6.2.0
 _ZN20QQuickItemViewFxItem24transitionNextRepositionEP26QQuickItemViewTransitionerNS0_14TransitionTypeEb@Base 6.2.0
 _ZN20QQuickItemViewFxItem6moveToERK7QPointFb@Base 6.2.0
 _ZN20QQuickItemViewFxItemC1EP10QQuickItembP24QQuickItemChangeListener@Base 6.2.0
 _ZN20QQuickItemViewFxItemC2EP10QQuickItembP24QQuickItemChangeListener@Base 6.2.0
 _ZN20QQuickItemViewFxItemD0Ev@Base 6.2.0
 _ZN20QQuickItemViewFxItemD1Ev@Base 6.2.0
 _ZN20QQuickItemViewFxItemD2Ev@Base 6.2.0
 _ZN20QQuickPauseAnimation10transitionER5QListI17QQuickStateActionERS0_I12QQmlPropertyEN23QQuickAbstractAnimation19TransitionDirectionEP7QObject@Base 6.2.0
 _ZN20QQuickPauseAnimation11qt_metacallEN11QMetaObject4CallEiPPv@Base 6.2.0
 _ZN20QQuickPauseAnimation11qt_metacastEPKc@Base 6.2.0
 _ZN20QQuickPauseAnimation11setDurationEi@Base 6.2.0
 _ZN20QQuickPauseAnimation15durationChangedEi@Base 6.2.0
 _ZN20QQuickPauseAnimation16staticMetaObjectE@Base 6.2.0
 _ZN20QQuickPauseAnimationC1EP7QObject@Base 6.2.0
 _ZN20QQuickPauseAnimationC2EP7QObject@Base 6.2.0
 _ZN20QQuickPauseAnimationD0Ev@Base 6.2.0
 _ZN20QQuickPauseAnimationD1Ev@Base 6.2.0
 _ZN20QQuickPauseAnimationD2Ev@Base 6.2.0
 _ZN20QQuickPointerHandler10classBeginEv@Base 6.2.0
 _ZN20QQuickPointerHandler10setEnabledEb@Base 6.2.0
 _ZN20QQuickPointerHandler11grabChangedEN15QPointingDevice14GrabTransitionE11QEventPoint@Base 6.2.0
 _ZN20QQuickPointerHandler11qt_metacallEN11QMetaObject4CallEiPPv@Base 6.2.0
 _ZN20QQuickPointerHandler11qt_metacastEPKc@Base 6.2.0
 _ZN20QQuickPointerHandler12currentEventEv@Base 6.2.0
 _ZN20QQuickPointerHandler13activeChangedEv@Base 6.2.0
 _ZN20QQuickPointerHandler13marginChangedEv@Base 6.2.0
 _ZN20QQuickPointerHandler13onGrabChangedEPS_N15QPointingDevice14GrabTransitionEP13QPointerEventR11QEventPoint@Base 6.2.0
 _ZN20QQuickPointerHandler13targetChangedEv@Base 6.2.0
 _ZN20QQuickPointerHandler14cancelAllGrabsEP13QPointerEventR11QEventPoint@Base 6.2.0
 _ZN20QQuickPointerHandler14enabledChangedEv@Base 6.2.0
 _ZN20QQuickPointerHandler14setCursorShapeEN2Qt11CursorShapeE@Base 6.2.0
 _ZN20QQuickPointerHandler14setPassiveGrabEP13QPointerEventRK11QEventPointb@Base 6.2.0
 _ZN20QQuickPointerHandler15wantsEventPointEPK13QPointerEventRK11QEventPoint@Base 6.2.0
 _ZN20QQuickPointerHandler16resetCursorShapeEv@Base 6.2.0
 _ZN20QQuickPointerHandler16setDragThresholdEi@Base 6.2.0
 _ZN20QQuickPointerHandler16setExclusiveGrabEP13QPointerEventRK11QEventPointb@Base 6.2.0
 _ZN20QQuickPointerHandler16staticMetaObjectE@Base 6.2.0
 _ZN20QQuickPointerHandler17componentCompleteEv@Base 6.2.0
 _ZN20QQuickPointerHandler17wantsPointerEventEP13QPointerEvent@Base 6.2.0
 _ZN20QQuickPointerHandler18cursorShapeChangedEv@Base 6.2.0
 _ZN20QQuickPointerHandler18handlePointerEventEP13QPointerEvent@Base 6.2.0
 _ZN20QQuickPointerHandler18resetDragThresholdEv@Base 6.2.0
 _ZN20QQuickPointerHandler18setGrabPermissionsE6QFlagsINS_14GrabPermissionEE@Base 6.2.0
 _ZN20QQuickPointerHandler20dragThresholdChangedEv@Base 6.2.0
 _ZN20QQuickPointerHandler21approveGrabTransitionEP13QPointerEventRK11QEventPointP7QObject@Base 6.2.0
 _ZN20QQuickPointerHandler21grabPermissionChangedEv@Base 6.2.0
 _ZN20QQuickPointerHandler22handlePointerEventImplEP13QPointerEvent@Base 6.2.0
 _ZN20QQuickPointerHandler5eventEP6QEvent@Base 6.2.0
 _ZN20QQuickPointerHandler7canGrabEP13QPointerEventRK11QEventPoint@Base 6.2.0
 _ZN20QQuickPointerHandler8canceledE11QEventPoint@Base 6.2.0
 _ZN20QQuickPointerHandler9setActiveEb@Base 6.2.0
 _ZN20QQuickPointerHandler9setMarginEd@Base 6.2.0
 _ZN20QQuickPointerHandler9setTargetEP10QQuickItem@Base 6.2.0
 _ZN20QQuickPointerHandlerC1EP10QQuickItem@Base 6.2.0
 _ZN20QQuickPointerHandlerC1ER27QQuickPointerHandlerPrivateP10QQuickItem@Base 6.2.0
 _ZN20QQuickPointerHandlerC2EP10QQuickItem@Base 6.2.0
 _ZN20QQuickPointerHandlerC2ER27QQuickPointerHandlerPrivateP10QQuickItem@Base 6.2.0
 _ZN20QQuickPointerHandlerD0Ev@Base 6.2.0
 _ZN20QQuickPointerHandlerD1Ev@Base 6.2.0
 _ZN20QQuickPointerHandlerD2Ev@Base 6.2.0
 _ZN20QQuickPropertyAction10transitionER5QListI17QQuickStateActionERS0_I12QQmlPropertyEN23QQuickAbstractAnimation19TransitionDirectionEP7QObject@Base 6.2.0
 _ZN20QQuickPropertyAction11qt_metacallEN11QMetaObject4CallEiPPv@Base 6.2.0
 _ZN20QQuickPropertyAction11qt_metacastEPKc@Base 6.2.0
 _ZN20QQuickPropertyAction11setPropertyERK7QString@Base 6.2.0
 _ZN20QQuickPropertyAction12valueChangedERK8QVariant@Base 6.2.0
 _ZN20QQuickPropertyAction13setPropertiesERK7QString@Base 6.2.0
 _ZN20QQuickPropertyAction13targetChangedEv@Base 6.2.0
 _ZN20QQuickPropertyAction15propertyChangedEv@Base 6.2.0
 _ZN20QQuickPropertyAction15setTargetObjectEP7QObject@Base 6.2.0
 _ZN20QQuickPropertyAction16staticMetaObjectE@Base 6.2.0
 _ZN20QQuickPropertyAction17propertiesChangedERK7QString@Base 6.2.0
 _ZN20QQuickPropertyAction7excludeEv@Base 6.2.0
 _ZN20QQuickPropertyAction7targetsEv@Base 6.2.0
 _ZN20QQuickPropertyAction8setValueERK8QVariant@Base 6.2.0
 _ZN20QQuickPropertyActionC1EP7QObject@Base 6.2.0
 _ZN20QQuickPropertyActionC2EP7QObject@Base 6.2.0
 _ZN20QQuickPropertyActionD0Ev@Base 6.2.0
 _ZN20QQuickPropertyActionD1Ev@Base 6.2.0
 _ZN20QQuickPropertyActionD2Ev@Base 6.2.0
 _ZN20QQuickScreenAttached11qt_metacallEN11QMetaObject4CallEiPPv@Base 6.2.0
 _ZN20QQuickScreenAttached11qt_metacastEPKc@Base 6.2.0
 _ZN20QQuickScreenAttached12angleBetweenEii@Base 6.2.0
 _ZN20QQuickScreenAttached13screenChangedEP7QScreen@Base 6.2.0
 _ZN20QQuickScreenAttached13windowChangedEP12QQuickWindow@Base 6.2.0
 _ZN20QQuickScreenAttached16staticMetaObjectE@Base 6.2.0
 _ZN20QQuickScreenAttachedC1EP7QObject@Base 6.2.0
 _ZN20QQuickScreenAttachedC2EP7QObject@Base 6.2.0
 _ZN20QQuickSpriteSequence10setRunningEb@Base 6.2.0
 _ZN20QQuickSpriteSequence11qt_metacallEN11QMetaObject4CallEiPPv@Base 6.2.0
 _ZN20QQuickSpriteSequence11qt_metacastEPKc@Base 6.2.0
 _ZN20QQuickSpriteSequence12createEngineEv@Base 6.2.0
 _ZN20QQuickSpriteSequence13setGoalSpriteERK7QString@Base 6.2.0
 _ZN20QQuickSpriteSequence14runningChangedEb@Base 6.2.0
 _ZN20QQuickSpriteSequence14setInterpolateEb@Base 6.2.0
 _ZN20QQuickSpriteSequence15updatePaintNodeEP7QSGNodePN10QQuickItem19UpdatePaintNodeDataE@Base 6.2.0
 _ZN20QQuickSpriteSequence16prepareNextFrameEP13QSGSpriteNode@Base 6.2.0
 _ZN20QQuickSpriteSequence16staticMetaObjectE@Base 6.2.0
 _ZN20QQuickSpriteSequence17goalSpriteChangedERK7QString@Base 6.2.0
 _ZN20QQuickSpriteSequence18interpolateChangedEb@Base 6.2.0
 _ZN20QQuickSpriteSequence20currentSpriteChangedERK7QString@Base 6.2.0
 _ZN20QQuickSpriteSequence5resetEv@Base 6.2.0
 _ZN20QQuickSpriteSequence6jumpToERK7QString@Base 6.2.0
 _ZN20QQuickSpriteSequence7spritesEv@Base 6.2.0
 _ZN20QQuickSpriteSequence8initNodeEv@Base 6.2.0
 _ZN20QQuickSpriteSequenceC1EP10QQuickItem@Base 6.2.0
 _ZN20QQuickSpriteSequenceC2EP10QQuickItem@Base 6.2.0
 _ZN20QQuickStateOperation11qt_metacallEN11QMetaObject4CallEiPPv@Base 6.2.0
 _ZN20QQuickStateOperation11qt_metacastEPKc@Base 6.2.0
 _ZN20QQuickStateOperation16staticMetaObjectE@Base 6.2.0
 _ZN20QQuickStateOperation7actionsEv@Base 6.2.0
 _ZN20QQuickStateOperation8setStateEP11QQuickState@Base 6.2.0
 _ZN20QQuickStateOperationC1ER14QObjectPrivateP7QObject@Base 6.2.0
 _ZN20QQuickStateOperationC2ER14QObjectPrivateP7QObject@Base 6.2.0
 _ZN20QQuickTextureFactory11qt_metacallEN11QMetaObject4CallEiPPv@Base 6.2.0
 _ZN20QQuickTextureFactory11qt_metacastEPKc@Base 6.2.0
 _ZN20QQuickTextureFactory16staticMetaObjectE@Base 6.2.0
 _ZN20QQuickTextureFactory22textureFactoryForImageERK6QImage@Base 6.2.0
 _ZN20QQuickTextureFactoryC1Ev@Base 6.2.0
 _ZN20QQuickTextureFactoryC2Ev@Base 6.2.0
 _ZN20QQuickTextureFactoryD0Ev@Base 6.2.0
 _ZN20QQuickTextureFactoryD1Ev@Base 6.2.0
 _ZN20QQuickTextureFactoryD2Ev@Base 6.2.0
 _ZN20QQuickWindowAttached11qt_metacallEN11QMetaObject4CallEiPPv@Base 6.2.0
 _ZN20QQuickWindowAttached11qt_metacastEPKc@Base 6.2.0
 _ZN20QQuickWindowAttached12widthChangedEv@Base 6.2.0
 _ZN20QQuickWindowAttached12windowChangeEP12QQuickWindow@Base 6.2.0
 _ZN20QQuickWindowAttached13activeChangedEv@Base 6.2.0
 _ZN20QQuickWindowAttached13heightChangedEv@Base 6.2.0
 _ZN20QQuickWindowAttached13windowChangedEv@Base 6.2.0
 _ZN20QQuickWindowAttached16staticMetaObjectE@Base 6.2.0
 _ZN20QQuickWindowAttached17visibilityChangedEv@Base 6.2.0
 _ZN20QQuickWindowAttached18contentItemChangedEv@Base 6.2.0
 _ZN20QQuickWindowAttached22activeFocusItemChangedEv@Base 6.2.0
 _ZN20QQuickWindowAttachedC1EP7QObject@Base 6.2.0
 _ZN20QQuickWindowAttachedC2EP7QObject@Base 6.2.0
 _ZN20QSGBasicGeometryNode11setGeometryEP11QSGGeometry@Base 6.2.0
 _ZN20QSGBasicGeometryNodeC1EN7QSGNode8NodeTypeE@Base 6.2.0
 _ZN20QSGBasicGeometryNodeC1ER27QSGBasicGeometryNodePrivateN7QSGNode8NodeTypeE@Base 6.2.0
 _ZN20QSGBasicGeometryNodeC2EN7QSGNode8NodeTypeE@Base 6.2.0
 _ZN20QSGBasicGeometryNodeC2ER27QSGBasicGeometryNodePrivateN7QSGNode8NodeTypeE@Base 6.2.0
 _ZN20QSGBasicGeometryNodeD0Ev@Base 6.2.0
 _ZN20QSGBasicGeometryNodeD1Ev@Base 6.2.0
 _ZN20QSGBasicGeometryNodeD2Ev@Base 6.2.0
 _ZN20QSGCompressedTexture10formatInfoEj@Base 6.2.0
 _ZN20QSGCompressedTexture11qt_metacallEN11QMetaObject4CallEiPPv@Base 6.2.0
 _ZN20QSGCompressedTexture11qt_metacastEPKc@Base 6.2.0
 _ZN20QSGCompressedTexture14formatIsOpaqueEj@Base 6.2.0
 _ZN20QSGCompressedTexture16staticMetaObjectE@Base 6.2.0
 _ZN20QSGCompressedTexture23commitTextureOperationsEP4QRhiP23QRhiResourceUpdateBatch@Base 6.2.0
 _ZN20QSGCompressedTextureC1ERK16QTextureFileData@Base 6.2.0
 _ZN20QSGCompressedTextureC2ERK16QTextureFileData@Base 6.2.0
 _ZN20QSGCompressedTextureD0Ev@Base 6.2.0
 _ZN20QSGCompressedTextureD1Ev@Base 6.2.0
 _ZN20QSGCompressedTextureD2Ev@Base 6.2.0
 _ZN20QSGFlatColorMaterial8setColorERK6QColor@Base 6.2.0
 _ZN20QSGFlatColorMaterialC1Ev@Base 6.2.0
 _ZN20QSGFlatColorMaterialC2Ev@Base 6.2.0
 _ZN20QSGRenderNodePrivateC1Ev@Base 6.2.0
 _ZN20QSGRenderNodePrivateC2Ev@Base 6.2.0
 _ZN20QSGRendererInterface13isApiRhiBasedENS_11GraphicsApiE@Base 6.2.0
 _ZN20QSGRendererInterfaceD0Ev@Base 6.2.0
 _ZN20QSGRendererInterfaceD1Ev@Base 6.2.0
 _ZN20QSGRendererInterfaceD2Ev@Base 6.2.0
 _ZN20QSGSimpleTextureNode10setTextureEP10QSGTexture@Base 6.2.0
 _ZN20QSGSimpleTextureNode12setFilteringEN10QSGTexture9FilteringE@Base 6.2.0
 _ZN20QSGSimpleTextureNode13setSourceRectERK6QRectF@Base 6.2.0
 _ZN20QSGSimpleTextureNode14setOwnsTextureEb@Base 6.2.0
 _ZN20QSGSimpleTextureNode30setTextureCoordinatesTransformE6QFlagsINS_31TextureCoordinatesTransformFlagEE@Base 6.2.0
 _ZN20QSGSimpleTextureNode7setRectERK6QRectF@Base 6.2.0
 _ZN20QSGSimpleTextureNodeC1Ev@Base 6.2.0
 _ZN20QSGSimpleTextureNodeC2Ev@Base 6.2.0
 _ZN20QSGSimpleTextureNodeD0Ev@Base 6.2.0
 _ZN20QSGSimpleTextureNodeD1Ev@Base 6.2.0
 _ZN20QSGSimpleTextureNodeD2Ev@Base 6.2.0
 _ZN21QQuickAnchorAnimation10transitionER5QListI17QQuickStateActionERS0_I12QQmlPropertyEN23QQuickAbstractAnimation19TransitionDirectionEP7QObject@Base 6.2.0
 _ZN21QQuickAnchorAnimation11qt_metacallEN11QMetaObject4CallEiPPv@Base 6.2.0
 _ZN21QQuickAnchorAnimation11qt_metacastEPKc@Base 6.2.0
 _ZN21QQuickAnchorAnimation11setDurationEi@Base 6.2.0
 _ZN21QQuickAnchorAnimation13easingChangedERK12QEasingCurve@Base 6.2.0
 _ZN21QQuickAnchorAnimation15durationChangedEi@Base 6.2.0
 _ZN21QQuickAnchorAnimation16staticMetaObjectE@Base 6.2.0
 _ZN21QQuickAnchorAnimation7targetsEv@Base 6.2.0
 _ZN21QQuickAnchorAnimation9setEasingERK12QEasingCurve@Base 6.2.0
 _ZN21QQuickAnchorAnimationC1EP7QObject@Base 6.2.0
 _ZN21QQuickAnchorAnimationC2EP7QObject@Base 6.2.0
 _ZN21QQuickAnchorAnimationD0Ev@Base 6.2.0
 _ZN21QQuickAnchorAnimationD1Ev@Base 6.2.0
 _ZN21QQuickAnchorAnimationD2Ev@Base 6.2.0
 _ZN21QQuickColorSpaceEnums16staticMetaObjectE@Base 6.2.0
 _ZN21QQuickDefaultClipNode14updateGeometryEv@Base 6.2.0
 _ZN21QQuickDefaultClipNode6updateEv@Base 6.2.0
 _ZN21QQuickDefaultClipNode7setRectERK6QRectF@Base 6.2.0
 _ZN21QQuickDefaultClipNode9setRadiusEd@Base 6.2.0
 _ZN21QQuickDefaultClipNodeC1ERK6QRectF@Base 6.2.0
 _ZN21QQuickDefaultClipNodeC2ERK6QRectF@Base 6.2.0
 _ZN21QQuickDesignerSupport10resetDirtyEP10QQuickItem@Base 6.2.0
 _ZN21QQuickDesignerSupport11borderWidthEP10QQuickItem@Base 6.2.0
 _ZN21QQuickDesignerSupport11polishItemsEP12QQuickWindow@Base 6.2.0
 _ZN21QQuickDesignerSupport11resetAnchorEP10QQuickItemRK7QString@Base 6.2.0
 _ZN21QQuickDesignerSupport11setRootItemEP10QQuickViewP10QQuickItem@Base 6.2.0
 _ZN21QQuickDesignerSupport12isAnchoredToEP10QQuickItemS1_@Base 6.2.0
 _ZN21QQuickDesignerSupport12isValidWidthEP10QQuickItem@Base 6.2.0
 _ZN21QQuickDesignerSupport13isValidHeightEP10QQuickItem@Base 6.2.0
 _ZN21QQuickDesignerSupport13statesForItemEP10QQuickItem@Base 6.2.0
 _ZN21QQuickDesignerSupport15parentTransformEP10QQuickItem@Base 6.2.0
 _ZN21QQuickDesignerSupport15updateDirtyNodeEP10QQuickItem@Base 6.2.0
 _ZN21QQuickDesignerSupport15windowTransformEP10QQuickItem@Base 6.2.0
 _ZN21QQuickDesignerSupport16anchorLineTargetEP10QQuickItemRK7QStringP11QQmlContext@Base 6.2.0
 _ZN21QQuickDesignerSupport17refFromEffectItemEP10QQuickItemb@Base 6.2.0
 _ZN21QQuickDesignerSupport18refreshExpressionsEP11QQmlContext@Base 6.2.0
 _ZN21QQuickDesignerSupport18renderImageForItemEP10QQuickItemRK6QRectFRK5QSize@Base 6.2.0
 _ZN21QQuickDesignerSupport19derefFromEffectItemEP10QQuickItemb@Base 6.2.0
 _ZN21QQuickDesignerSupport19isComponentCompleteEP10QQuickItem@Base 6.2.0
 _ZN21QQuickDesignerSupport20activateDesignerModeEv@Base 6.2.0
 _ZN21QQuickDesignerSupport20anchorFillTargetItemEP10QQuickItem@Base 6.2.0
 _ZN21QQuickDesignerSupport21areChildrenAnchoredToEP10QQuickItemS1_@Base 6.2.0
 _ZN21QQuickDesignerSupport23enableComponentCompleteEv@Base 6.2.0
 _ZN21QQuickDesignerSupport24anchorCenterInTargetItemEP10QQuickItem@Base 6.2.0
 _ZN21QQuickDesignerSupport24disableComponentCompleteEv@Base 6.2.0
 _ZN21QQuickDesignerSupport46emitComponentCompleteSignalForAttachedPropertyEP7QObject@Base 6.2.0
 _ZN21QQuickDesignerSupport7isDirtyEP10QQuickItemNS_9DirtyTypeE@Base 6.2.0
 _ZN21QQuickDesignerSupport8addDirtyEP10QQuickItemNS_9DirtyTypeE@Base 6.2.0
 _ZN21QQuickDesignerSupport9hasAnchorEP10QQuickItemRK7QString@Base 6.2.0
 _ZN21QQuickDesignerSupportC1Ev@Base 6.2.0
 _ZN21QQuickDesignerSupportC2Ev@Base 6.2.0
 _ZN21QQuickDesignerSupportD1Ev@Base 6.2.0
 _ZN21QQuickDesignerSupportD2Ev@Base 6.2.0
 _ZN21QQuickDoubleValidator11qt_metacallEN11QMetaObject4CallEiPPv@Base 6.2.0
 _ZN21QQuickDoubleValidator11qt_metacastEPKc@Base 6.2.0
 _ZN21QQuickDoubleValidator13setLocaleNameERK7QString@Base 6.2.0
 _ZN21QQuickDoubleValidator15resetLocaleNameEv@Base 6.2.0
 _ZN21QQuickDoubleValidator16staticMetaObjectE@Base 6.2.0
 _ZN21QQuickDoubleValidator17localeNameChangedEv@Base 6.2.0
 _ZN21QQuickDoubleValidatorC1EP7QObject@Base 6.2.0
 _ZN21QQuickDoubleValidatorC2EP7QObject@Base 6.2.0
 _ZN21QQuickNumberAnimation11qt_metacallEN11QMetaObject4CallEiPPv@Base 6.2.0
 _ZN21QQuickNumberAnimation11qt_metacastEPKc@Base 6.2.0
 _ZN21QQuickNumberAnimation16staticMetaObjectE@Base 6.2.0
 _ZN21QQuickNumberAnimation4initEv@Base 6.2.0
 _ZN21QQuickNumberAnimation5setToEd@Base 6.2.0
 _ZN21QQuickNumberAnimation7setFromEd@Base 6.2.0
 _ZN21QQuickNumberAnimationC1EP7QObject@Base 6.2.0
 _ZN21QQuickNumberAnimationC1ER30QQuickPropertyAnimationPrivateP7QObject@Base 6.2.0
 _ZN21QQuickNumberAnimationC2EP7QObject@Base 6.2.0
 _ZN21QQuickNumberAnimationC2ER30QQuickPropertyAnimationPrivateP7QObject@Base 6.2.0
 _ZN21QQuickNumberAnimationD0Ev@Base 6.2.0
 _ZN21QQuickNumberAnimationD1Ev@Base 6.2.0
 _ZN21QQuickNumberAnimationD2Ev@Base 6.2.0
 _ZN21QQuickOpacityAnimator11qt_metacallEN11QMetaObject4CallEiPPv@Base 6.2.0
 _ZN21QQuickOpacityAnimator11qt_metacastEPKc@Base 6.2.0
 _ZN21QQuickOpacityAnimator16staticMetaObjectE@Base 6.2.0
 _ZN21QQuickOpacityAnimatorC1EP7QObject@Base 6.2.0
 _ZN21QQuickOpacityAnimatorC2EP7QObject@Base 6.2.0
 _ZN21QQuickParentAnimation10transitionER5QListI17QQuickStateActionERS0_I12QQmlPropertyEN23QQuickAbstractAnimation19TransitionDirectionEP7QObject@Base 6.2.0
 _ZN21QQuickParentAnimation10viaChangedEv@Base 6.2.0
 _ZN21QQuickParentAnimation11qt_metacallEN11QMetaObject4CallEiPPv@Base 6.2.0
 _ZN21QQuickParentAnimation11qt_metacastEPKc@Base 6.2.0
 _ZN21QQuickParentAnimation12setNewParentEP10QQuickItem@Base 6.2.0
 _ZN21QQuickParentAnimation13targetChangedEv@Base 6.2.0
 _ZN21QQuickParentAnimation15setTargetObjectEP10QQuickItem@Base 6.2.0
 _ZN21QQuickParentAnimation16newParentChangedEv@Base 6.2.0
 _ZN21QQuickParentAnimation16staticMetaObjectE@Base 6.2.0
 _ZN21QQuickParentAnimation6setViaEP10QQuickItem@Base 6.2.0
 _ZN21QQuickParentAnimationC1EP7QObject@Base 6.2.0
 _ZN21QQuickParentAnimationC2EP7QObject@Base 6.2.0
 _ZN21QQuickParentAnimationD0Ev@Base 6.2.0
 _ZN21QQuickParentAnimationD1Ev@Base 6.2.0
 _ZN21QQuickParentAnimationD2Ev@Base 6.2.0
 _ZN21QQuickPropertyChanges11changeValueERK7QStringRK8QVariant@Base 6.2.0
 _ZN21QQuickPropertyChanges11qt_metacallEN11QMetaObject4CallEiPPv@Base 6.2.0
 _ZN21QQuickPropertyChanges11qt_metacastEPKc@Base 6.2.0
 _ZN21QQuickPropertyChanges13attachToStateEv@Base 6.2.0
 _ZN21QQuickPropertyChanges13setIsExplicitEb@Base 6.2.0
 _ZN21QQuickPropertyChanges14removePropertyERK7QString@Base 6.2.0
 _ZN21QQuickPropertyChanges15detachFromStateEv@Base 6.2.0
 _ZN21QQuickPropertyChanges16changeExpressionERK7QStringS2_@Base 6.2.0
 _ZN21QQuickPropertyChanges16staticMetaObjectE@Base 6.2.0
 _ZN21QQuickPropertyChanges21setRestoreEntryValuesEb@Base 6.2.0
 _ZN21QQuickPropertyChanges7actionsEv@Base 6.2.0
 _ZN21QQuickPropertyChanges9setObjectEP7QObject@Base 6.2.0
 _ZN21QQuickPropertyChangesC1Ev@Base 6.2.0
 _ZN21QQuickPropertyChangesC2Ev@Base 6.2.0
 _ZN21QQuickPropertyChangesD0Ev@Base 6.2.0
 _ZN21QQuickPropertyChangesD1Ev@Base 6.2.0
 _ZN21QQuickPropertyChangesD2Ev@Base 6.2.0
 _ZN21QQuickSpringAnimation10setDampingEd@Base 6.2.0
 _ZN21QQuickSpringAnimation10setEpsilonEd@Base 6.2.0
 _ZN21QQuickSpringAnimation10setModulusEd@Base 6.2.0
 _ZN21QQuickSpringAnimation10transitionER5QListI17QQuickStateActionERS0_I12QQmlPropertyEN23QQuickAbstractAnimation19TransitionDirectionEP7QObject@Base 6.2.0
 _ZN21QQuickSpringAnimation11massChangedEv@Base 6.2.0
 _ZN21QQuickSpringAnimation11qt_metacallEN11QMetaObject4CallEiPPv@Base 6.2.0
 _ZN21QQuickSpringAnimation11qt_metacastEPKc@Base 6.2.0
 _ZN21QQuickSpringAnimation11setVelocityEd@Base 6.2.0
 _ZN21QQuickSpringAnimation11syncChangedEv@Base 6.2.0
 _ZN21QQuickSpringAnimation14modulusChangedEv@Base 6.2.0
 _ZN21QQuickSpringAnimation16staticMetaObjectE@Base 6.2.0
 _ZN21QQuickSpringAnimation7setMassEd@Base 6.2.0
 _ZN21QQuickSpringAnimation9setSpringEd@Base 6.2.0
 _ZN21QQuickSpringAnimationC1EP7QObject@Base 6.2.0
 _ZN21QQuickSpringAnimationC2EP7QObject@Base 6.2.0
 _ZN21QQuickSpringAnimationD0Ev@Base 6.2.0
 _ZN21QQuickSpringAnimationD1Ev@Base 6.2.0
 _ZN21QQuickSpringAnimationD2Ev@Base 6.2.0
 _ZN21QQuickStochasticState11nameChangedERK7QString@Base 6.2.0
 _ZN21QQuickStochasticState11qt_metacallEN11QMetaObject4CallEiPPv@Base 6.2.0
 _ZN21QQuickStochasticState11qt_metacastEPKc@Base 6.2.0
 _ZN21QQuickStochasticState15durationChangedEi@Base 6.2.0
 _ZN21QQuickStochasticState16staticMetaObjectE@Base 6.2.0
 _ZN21QQuickStochasticState18randomStartChangedEb@Base 6.2.0
 _ZN21QQuickStochasticState24durationVariationChangedEi@Base 6.2.0
 _ZN21QQuickStochasticState7enteredEv@Base 6.2.0
 _ZN21QQuickStochasticState9toChangedERK4QMapI7QString8QVariantE@Base 6.2.0
 _ZN21QQuickTextEditPrivate12mirrorChangeEv@Base 6.2.0
 _ZN21QQuickTextEditPrivate13setTopPaddingEdb@Base 6.2.0
 _ZN21QQuickTextEditPrivate14createTextNodeEv@Base 6.2.0
 _ZN21QQuickTextEditPrivate14setLeftPaddingEdb@Base 6.2.0
 _ZN21QQuickTextEditPrivate15setRightPaddingEdb@Base 6.2.0
 _ZN21QQuickTextEditPrivate16handleFocusEventEP11QFocusEvent@Base 6.2.0
 _ZN21QQuickTextEditPrivate16resetInputMethodEv@Base 6.2.0
 _ZN21QQuickTextEditPrivate16setBottomPaddingEdb@Base 6.2.0
 _ZN21QQuickTextEditPrivate22isLinkHoveredConnectedEv@Base 6.2.0
 _ZN21QQuickTextEditPrivate23updateDefaultTextOptionEv@Base 6.2.0
 _ZN21QQuickTextEditPrivate24addCurrentTextNodeToRootEP20QQuickTextNodeEngineP16QSGTransformNodeP14QQuickTextNodeRN5QListINS_4NodeEE8iteratorEi@Base 6.2.0
 _ZN21QQuickTextEditPrivate24setImplicitResizeEnabledEb@Base 6.2.0
 _ZN21QQuickTextEditPrivate28determineHorizontalAlignmentEv@Base 6.2.0
 _ZN21QQuickTextEditPrivate4initEv@Base 6.2.0
 _ZN21QQuickTextEditPrivate9ExtraDataC1Ev@Base 6.2.0
 _ZN21QQuickTextEditPrivate9ExtraDataC2Ev@Base 6.2.0
 _ZN21QQuickTextEditPrivate9setHAlignEN14QQuickTextEdit10HAlignmentEb@Base 6.2.0
 _ZN21QQuickUniformAnimator10setUniformERK7QString@Base 6.2.0
 _ZN21QQuickUniformAnimator11qt_metacallEN11QMetaObject4CallEiPPv@Base 6.2.0
 _ZN21QQuickUniformAnimator11qt_metacastEPKc@Base 6.2.0
 _ZN21QQuickUniformAnimator14uniformChangedERK7QString@Base 6.2.0
 _ZN21QQuickUniformAnimator16staticMetaObjectE@Base 6.2.0
 _ZN21QQuickUniformAnimatorC1EP7QObject@Base 6.2.0
 _ZN21QQuickUniformAnimatorC2EP7QObject@Base 6.2.0
 _ZN21QSGDefaultPainterNode12setFillColorERK6QColor@Base 6.2.0
 _ZN21QSGDefaultPainterNode13setMipmappingEb@Base 6.2.0
 _ZN21QSGDefaultPainterNode13updateTextureEv@Base 6.2.0
 _ZN21QSGDefaultPainterNode14setTextureSizeERK5QSize@Base 6.2.0
 _ZN21QSGDefaultPainterNode14updateGeometryEv@Base 6.2.0
 _ZN21QSGDefaultPainterNode16setContentsScaleEd@Base 6.2.0
 _ZN21QSGDefaultPainterNode17setOpaquePaintingEb@Base 6.2.0
 _ZN21QSGDefaultPainterNode17setSmoothPaintingEb@Base 6.2.0
 _ZN21QSGDefaultPainterNode18setFastFBOResizingEb@Base 6.2.0
 _ZN21QSGDefaultPainterNode18setLinearFilteringEb@Base 6.2.0
 _ZN21QSGDefaultPainterNode18updateRenderTargetEv@Base 6.2.0
 _ZN21QSGDefaultPainterNode24setPreferredRenderTargetEN17QQuickPaintedItem12RenderTargetE@Base 6.2.0
 _ZN21QSGDefaultPainterNode5paintEv@Base 6.2.0
 _ZN21QSGDefaultPainterNode6updateEv@Base 6.2.0
 _ZN21QSGDefaultPainterNode7setSizeERK5QSize@Base 6.2.0
 _ZN21QSGDefaultPainterNode8setDirtyERK5QRect@Base 6.2.0
 _ZN21QSGDefaultPainterNodeC1EP17QQuickPaintedItem@Base 6.2.0
 _ZN21QSGDefaultPainterNodeC2EP17QQuickPaintedItem@Base 6.2.0
 _ZN21QSGDefaultPainterNodeD0Ev@Base 6.2.0
 _ZN21QSGDefaultPainterNodeD1Ev@Base 6.2.0
 _ZN21QSGDefaultPainterNodeD2Ev@Base 6.2.0
 _ZN22QAccessibleQuickWindowC1EP12QQuickWindow@Base 6.2.0
 _ZN22QAccessibleQuickWindowC2EP12QQuickWindow@Base 6.2.0
 _ZN22QQuickAnimatorProxyJob11qt_metacallEN11QMetaObject4CallEiPPv@Base 6.2.0
 _ZN22QQuickAnimatorProxyJob11qt_metacastEPKc@Base 6.2.0
 _ZN22QQuickAnimatorProxyJob11updateStateEN21QAbstractAnimationJob5StateES1_@Base 6.2.0
 _ZN22QQuickAnimatorProxyJob13windowChangedEP12QQuickWindow@Base 6.2.0
 _ZN22QQuickAnimatorProxyJob14readyToAnimateEv@Base 6.2.0
 _ZN22QQuickAnimatorProxyJob15updateLoopCountEi@Base 6.2.0
 _ZN22QQuickAnimatorProxyJob16staticMetaObjectE@Base 6.2.0
 _ZN22QQuickAnimatorProxyJob17updateCurrentTimeEi@Base 6.2.0
 _ZN22QQuickAnimatorProxyJob20findAnimationContextEP23QQuickAbstractAnimation@Base 6.2.0
 _ZN22QQuickAnimatorProxyJob21sceneGraphInitializedEv@Base 6.2.0
 _ZN22QQuickAnimatorProxyJob21syncBackCurrentValuesEv@Base 6.2.0
 _ZN22QQuickAnimatorProxyJob9setWindowEP12QQuickWindow@Base 6.2.0
 _ZN22QQuickAnimatorProxyJobC1EP21QAbstractAnimationJobP23QQuickAbstractAnimation@Base 6.2.0
 _ZN22QQuickAnimatorProxyJobC2EP21QAbstractAnimationJobP23QQuickAbstractAnimation@Base 6.2.0
 _ZN22QQuickAnimatorProxyJobD0Ev@Base 6.2.0
 _ZN22QQuickAnimatorProxyJobD1Ev@Base 6.2.0
 _ZN22QQuickAnimatorProxyJobD2Ev@Base 6.2.0
 _ZN22QQuickFlickablePrivate10data_clearEP16QQmlListPropertyI7QObjectE@Base 6.2.0
 _ZN22QQuickFlickablePrivate10data_countEP16QQmlListPropertyI7QObjectE@Base 6.2.0
 _ZN22QQuickFlickablePrivate11data_appendEP16QQmlListPropertyI7QObjectEPS1_@Base 6.2.0
 _ZN22QQuickFlickablePrivate12setViewportXEd@Base 6.2.0
 _ZN22QQuickFlickablePrivate12setViewportYEd@Base 6.2.0
 _ZN22QQuickFlickablePrivate13clearTimelineEv@Base 6.2.0
 _ZN22QQuickFlickablePrivate13resetTimelineERNS_8AxisDataE@Base 6.2.0
 _ZN22QQuickFlickablePrivate14draggingEndingEv@Base 6.2.0
 _ZN22QQuickFlickablePrivate14maybeBeginDragExRK7QPointF@Base 6.2.0
 _ZN22QQuickFlickablePrivate14updateVelocityEv@Base 6.2.0
 _ZN22QQuickFlickablePrivate15fixupX_callbackEPv@Base 6.2.0
 _ZN22QQuickFlickablePrivate15fixupY_callbackEPv@Base 6.2.0
 _ZN22QQuickFlickablePrivate15flickingStartedEbb@Base 6.2.0
 _ZN22QQuickFlickablePrivate15handleMoveEventEP13QPointerEvent@Base 6.2.0
 _ZN22QQuickFlickablePrivate16adjustContentPosERNS_8AxisDataEd@Base 6.2.0
 _ZN22QQuickFlickablePrivate16draggingStartingEv@Base 6.2.0
 _ZN22QQuickFlickablePrivate16handlePressEventEP13QPointerEvent@Base 6.2.0
 _ZN22QQuickFlickablePrivate17addPointerHandlerEP20QQuickPointerHandler@Base 6.2.0
 _ZN22QQuickFlickablePrivate17cancelInteractionEv@Base 6.2.0
 _ZN22QQuickFlickablePrivate17clearDelayedPressEv@Base 6.2.0
 _ZN22QQuickFlickablePrivate17viewportAxisMovedERNS_8AxisDataEdddPFvPvE@Base 6.2.0
 _ZN22QQuickFlickablePrivate18handleReleaseEventEP13QPointerEvent@Base 6.2.0
 _ZN22QQuickFlickablePrivate18replayDelayedPressEv@Base 6.2.0
 _ZN22QQuickFlickablePrivate18updateBeginningEndEv@Base 6.2.0
 _ZN22QQuickFlickablePrivate19captureDelayedPressEP10QQuickItemP13QPointerEvent@Base 6.2.0
 _ZN22QQuickFlickablePrivate19itemGeometryChangedEP10QQuickItem20QQuickGeometryChangeRK6QRectF@Base 6.2.0
 _ZN22QQuickFlickablePrivate4dragExN6QEvent4TypeERK7QPointFRK9QVector2DbbbS7_@Base 6.2.0
 _ZN22QQuickFlickablePrivate4initEv@Base 6.2.0
 _ZN22QQuickFlickablePrivate5fixupERNS_8AxisDataEdd@Base 6.2.0
 _ZN22QQuickFlickablePrivate5flickERNS_8AxisDataEdddPFvPvEd@Base 6.2.0
 _ZN22QQuickFlickablePrivate6fixupXEv@Base 6.2.0
 _ZN22QQuickFlickablePrivate6fixupYEv@Base 6.2.0
 _ZN22QQuickFlickablePrivate6flickXEd@Base 6.2.0
 _ZN22QQuickFlickablePrivate6flickYEd@Base 6.2.0
 (subst)_ZN22QQuickFlickablePrivate7data_atEP16QQmlListPropertyI7QObjectE{qptrdiff}@Base 6.2.0
 _ZN22QQuickFlickablePrivate8AxisData14updateVelocityEv@Base 6.2.0
 _ZN22QQuickFlickablePrivate8AxisData17addVelocitySampleEdd@Base 6.2.0
 _ZN22QQuickFlickablePrivate8AxisDataD1Ev@Base 6.2.0
 _ZN22QQuickFlickablePrivate8AxisDataD2Ev@Base 6.2.0
 _ZN22QQuickFlickablePrivateC1Ev@Base 6.2.0
 _ZN22QQuickFlickablePrivateC2Ev@Base 6.2.0
 _ZN22QQuickImageBasePrivate22updateDevicePixelRatioEd@Base 6.2.0
 _ZN22QQuickImplicitSizeItem11qt_metacallEN11QMetaObject4CallEiPPv@Base 6.2.0
 _ZN22QQuickImplicitSizeItem11qt_metacastEPKc@Base 6.2.0
 _ZN22QQuickImplicitSizeItem16staticMetaObjectE@Base 6.2.0
 _ZN22QQuickImplicitSizeItemC1ER29QQuickImplicitSizeItemPrivateP10QQuickItem@Base 6.2.0
 _ZN22QQuickImplicitSizeItemC2ER29QQuickImplicitSizeItemPrivateP10QQuickItem@Base 6.2.0
 _ZN22QQuickItemViewAttached11qt_metacallEN11QMetaObject4CallEiPPv@Base 6.2.0
 _ZN22QQuickItemViewAttached11qt_metacastEPKc@Base 6.2.0
 _ZN22QQuickItemViewAttached11viewChangedEv@Base 6.2.0
 _ZN22QQuickItemViewAttached14sectionChangedEv@Base 6.2.0
 _ZN22QQuickItemViewAttached16staticMetaObjectE@Base 6.2.0
 _ZN22QQuickItemViewAttached18currentItemChangedEv@Base 6.2.0
 _ZN22QQuickItemViewAttached18delayRemoveChangedEv@Base 6.2.0
 _ZN22QQuickItemViewAttached18nextSectionChangedEv@Base 6.2.0
 _ZN22QQuickItemViewAttached18prevSectionChangedEv@Base 6.2.0
 _ZN22QQuickItemViewAttached3addEv@Base 6.2.0
 _ZN22QQuickItemViewAttached6pooledEv@Base 6.2.0
 _ZN22QQuickItemViewAttached6removeEv@Base 6.2.0
 _ZN22QQuickItemViewAttached6reusedEv@Base 6.2.0
 _ZN22QQuickListViewAttached11qt_metacallEN11QMetaObject4CallEiPPv@Base 6.2.0
 _ZN22QQuickListViewAttached11qt_metacastEPKc@Base 6.2.0
 _ZN22QQuickListViewAttached16staticMetaObjectE@Base 6.2.0
 _ZN22QQuickPathInterpolator11pathChangedEv@Base 6.2.0
 _ZN22QQuickPathInterpolator11qt_metacallEN11QMetaObject4CallEiPPv@Base 6.2.0
 _ZN22QQuickPathInterpolator11qt_metacastEPKc@Base 6.2.0
 _ZN22QQuickPathInterpolator11setProgressEd@Base 6.2.0
 _ZN22QQuickPathInterpolator12angleChangedEv@Base 6.2.0
 _ZN22QQuickPathInterpolator14_q_pathUpdatedEv@Base 6.2.0
 _ZN22QQuickPathInterpolator15progressChangedEv@Base 6.2.0
 _ZN22QQuickPathInterpolator16staticMetaObjectE@Base 6.2.0
 _ZN22QQuickPathInterpolator7setPathEP10QQuickPath@Base 6.2.0
 _ZN22QQuickPathInterpolator8xChangedEv@Base 6.2.0
 _ZN22QQuickPathInterpolator8yChangedEv@Base 6.2.0
 _ZN22QQuickPathInterpolatorC1EP7QObject@Base 6.2.0
 _ZN22QQuickPathInterpolatorC2EP7QObject@Base 6.2.0
 _ZN22QQuickRotationAnimator11qt_metacallEN11QMetaObject4CallEiPPv@Base 6.2.0
 _ZN22QQuickRotationAnimator11qt_metacastEPKc@Base 6.2.0
 _ZN22QQuickRotationAnimator12setDirectionENS_17RotationDirectionE@Base 6.2.0
 _ZN22QQuickRotationAnimator16directionChangedENS_17RotationDirectionE@Base 6.2.0
 _ZN22QQuickRotationAnimator16staticMetaObjectE@Base 6.2.0
 _ZN22QQuickRotationAnimatorC1EP7QObject@Base 6.2.0
 _ZN22QQuickRotationAnimatorC2EP7QObject@Base 6.2.0
 _ZN22QQuickScaleAnimatorJob17updateCurrentTimeEi@Base 6.2.0
 _ZN22QQuickScaleAnimatorJob9writeBackEv@Base 6.2.0
 _ZN22QQuickShaderEffectMesh11qt_metacallEN11QMetaObject4CallEiPPv@Base 6.2.0
 _ZN22QQuickShaderEffectMesh11qt_metacastEPKc@Base 6.2.0
 _ZN22QQuickShaderEffectMesh15geometryChangedEv@Base 6.2.0
 _ZN22QQuickShaderEffectMesh16staticMetaObjectE@Base 6.2.0
 _ZN22QQuickShaderEffectMeshC1EP7QObject@Base 6.2.0
 _ZN22QQuickShaderEffectMeshC1ER14QObjectPrivateP7QObject@Base 6.2.0
 _ZN22QQuickShaderEffectMeshC2EP7QObject@Base 6.2.0
 _ZN22QQuickShaderEffectMeshC2ER14QObjectPrivateP7QObject@Base 6.2.0
 _ZN22QQuickStochasticEngine11qt_metacallEN11QMetaObject4CallEiPPv@Base 6.2.0
 _ZN22QQuickStochasticEngine11qt_metacastEPKc@Base 6.2.0
 _ZN22QQuickStochasticEngine12stateChangedEi@Base 6.2.0
 _ZN22QQuickStochasticEngine13updateSpritesEj@Base 6.2.0
 _ZN22QQuickStochasticEngine15addToUpdateListEji@Base 6.2.0
 _ZN22QQuickStochasticEngine16staticMetaObjectE@Base 6.2.0
 _ZN22QQuickStochasticEngine17globalGoalChangedERK7QString@Base 6.2.0
 _ZN22QQuickStochasticEngine4stopEi@Base 6.2.0
 _ZN22QQuickStochasticEngine5startEii@Base 6.2.0
 _ZN22QQuickStochasticEngine7advanceEi@Base 6.2.0
 _ZN22QQuickStochasticEngine7restartEi@Base 6.2.0
 _ZN22QQuickStochasticEngine7setGoalEiib@Base 6.2.0
 _ZN22QQuickStochasticEngine8goalSeekEiii@Base 6.2.0
 _ZN22QQuickStochasticEngine8setCountEi@Base 6.2.0
 _ZN22QQuickStochasticEngine9nextStateEii@Base 6.2.0
 _ZN22QQuickStochasticEngineC1EP7QObject@Base 6.2.0
 _ZN22QQuickStochasticEngineC1ERK5QListIP21QQuickStochasticStateEP7QObject@Base 6.2.0
 _ZN22QQuickStochasticEngineC2EP7QObject@Base 6.2.0
 _ZN22QQuickStochasticEngineC2ERK5QListIP21QQuickStochasticStateEP7QObject@Base 6.2.0
 _ZN22QQuickStochasticEngineD0Ev@Base 6.2.0
 _ZN22QQuickStochasticEngineD1Ev@Base 6.2.0
 _ZN22QQuickStochasticEngineD2Ev@Base 6.2.0
 _ZN22QQuickTableViewPrivate10unloadEdgeEN2Qt4EdgeE@Base 6.2.0
 _ZN22QQuickTableViewPrivate10unloadItemERK6QPoint@Base 6.2.0
 _ZN22QQuickTableViewPrivate11forceLayoutEv@Base 6.2.0
 _ZN22QQuickTableViewPrivate11releaseItemEP11FxTableItemN17QQmlInstanceModel12ReusableFlagE@Base 6.2.0
 _ZN22QQuickTableViewPrivate11updateTableEv@Base 6.2.0
 _ZN22QQuickTableViewPrivate12getRowHeightEi@Base 6.2.0
 _ZN22QQuickTableViewPrivate12modelUpdatedERK13QQmlChangeSetb@Base 6.2.0
 _ZN22QQuickTableViewPrivate12setModelImplERK8QVariant@Base 6.2.0
 _ZN22QQuickTableViewPrivate12syncDelegateEv@Base 6.2.0
 _ZN22QQuickTableViewPrivate12syncSyncViewEv@Base 6.2.0
 _ZN22QQuickTableViewPrivate12updatePolishEv@Base 6.2.0
 _ZN22QQuickTableViewPrivate13allRowsLoadedEv@Base 6.2.0
 _ZN22QQuickTableViewPrivate13fetchMoreDataEv@Base 6.2.0
 _ZN22QQuickTableViewPrivate13updateExtentsEv@Base 6.2.0
 _ZN22QQuickTableViewPrivate14clearSelectionEv@Base 6.2.0
 _ZN22QQuickTableViewPrivate14connectToModelEv@Base 6.2.0
 _ZN22QQuickTableViewPrivate14getColumnWidthEi@Base 6.2.0
 _ZN22QQuickTableViewPrivate14nextEdgeToLoadE6QRectF@Base 6.2.0
 _ZN22QQuickTableViewPrivate15loadFxTableItemERK6QPointN13QQmlIncubator14IncubationModeE@Base 6.2.0
 _ZN22QQuickTableViewPrivate15updateSelectionERK5QRectS2_@Base 6.2.0
 _ZN22QQuickTableViewPrivate15updateTableSizeEv@Base 6.2.0
 _ZN22QQuickTableViewPrivate16allColumnsLoadedEv@Base 6.2.0
 _ZN22QQuickTableViewPrivate16calculateTopLeftER6QPointR7QPointF@Base 6.2.0
 _ZN22QQuickTableViewPrivate16initItemCallbackEiP7QObject@Base 6.2.0
 _ZN22QQuickTableViewPrivate16loadInitialTableEv@Base 6.2.0
 _ZN22QQuickTableViewPrivate16nextEdgeToUnloadE6QRectF@Base 6.2.0
 _ZN22QQuickTableViewPrivate16syncPositionViewEv@Base 6.2.0
 _ZN22QQuickTableViewPrivate16syncViewportRectEv@Base 6.2.0
 _ZN22QQuickTableViewPrivate17createFxTableItemERK6QPointN13QQmlIncubator14IncubationModeE@Base 6.2.0
 _ZN22QQuickTableViewPrivate17layoutTopLeftItemEv@Base 6.2.0
 _ZN22QQuickTableViewPrivate17rowsMovedCallbackERK11QModelIndexiiS2_i@Base 6.2.0
 _ZN22QQuickTableViewPrivate17setLocalViewportXEd@Base 6.2.0
 _ZN22QQuickTableViewPrivate17setLocalViewportYEd@Base 6.2.0
 _ZN22QQuickTableViewPrivate18calculateTableSizeEv@Base 6.2.0
 _ZN22QQuickTableViewPrivate18clearEdgeSizeCacheEv@Base 6.2.0
 _ZN22QQuickTableViewPrivate18createWrapperModelEv@Base 6.2.0
 _ZN22QQuickTableViewPrivate18getRowLayoutHeightEi@Base 6.2.0
 _ZN22QQuickTableViewPrivate18itemPooledCallbackEiP7QObject@Base 6.2.0
 _ZN22QQuickTableViewPrivate18itemReusedCallbackEiP7QObject@Base 6.2.0
 _ZN22QQuickTableViewPrivate18layoutVerticalEdgeEN2Qt4EdgeE@Base 6.2.0
 _ZN22QQuickTableViewPrivate18modelResetCallbackEv@Base 6.2.0
 _ZN22QQuickTableViewPrivate18normalizeSelectionEv@Base 6.2.0
 _ZN22QQuickTableViewPrivate18processLoadRequestEv@Base 6.2.0
 _ZN22QQuickTableViewPrivate18relayoutTableItemsEv@Base 6.2.0
 _ZN22QQuickTableViewPrivate18releaseLoadedItemsEN17QQmlInstanceModel12ReusableFlagE@Base 6.2.0
 _ZN22QQuickTableViewPrivate18setSelectionEndPosERK7QPointF@Base 6.2.0
 _ZN22QQuickTableViewPrivate18updateContentWidthEv@Base 6.2.0
 _ZN22QQuickTableViewPrivate19disconnectFromModelEv@Base 6.2.0
 _ZN22QQuickTableViewPrivate19itemCreatedCallbackEiP7QObject@Base 6.2.0
 _ZN22QQuickTableViewPrivate19processRebuildTableEv@Base 6.2.0
 _ZN22QQuickTableViewPrivate19rowsRemovedCallbackERK11QModelIndexii@Base 6.2.0
 _ZN22QQuickTableViewPrivate19updateContentHeightEv@Base 6.2.0
 _ZN22QQuickTableViewPrivate20columnsMovedCallbackERK11QModelIndexiiS2_i@Base 6.2.0
 _ZN22QQuickTableViewPrivate20getColumnLayoutWidthEi@Base 6.2.0
 _ZN22QQuickTableViewPrivate20layoutHorizontalEdgeEN2Qt4EdgeE@Base 6.2.0
 _ZN22QQuickTableViewPrivate20nextVisibleEdgeIndexEN2Qt4EdgeEi@Base 6.2.0
 _ZN22QQuickTableViewPrivate20resolveImportVersionEv@Base 6.2.0
 _ZN22QQuickTableViewPrivate20rowsInsertedCallbackERK11QModelIndexii@Base 6.2.0
 _ZN22QQuickTableViewPrivate20scheduleRebuildTableE6QFlagsINS_13RebuildOptionEE@Base 6.2.0
 _ZN22QQuickTableViewPrivate20setSelectionStartPosERK7QPointF@Base 6.2.0
 _ZN22QQuickTableViewPrivate20shiftLoadedTableRectE7QPointF@Base 6.2.0
 _ZN22QQuickTableViewPrivate20updateTableRecursiveEv@Base 6.2.0
 _ZN22QQuickTableViewPrivate21_q_componentFinalizedEv@Base 6.2.0
 _ZN22QQuickTableViewPrivate21layoutChangedCallbackERK5QListI21QPersistentModelIndexEN18QAbstractItemModel16LayoutChangeHintE@Base 6.2.0
 _ZN22QQuickTableViewPrivate22columnsRemovedCallbackERK11QModelIndexii@Base 6.2.0
 _ZN22QQuickTableViewPrivate22moveToNextRebuildStateEv@Base 6.2.0
 _ZN22QQuickTableViewPrivate22syncWithPendingChangesEv@Base 6.2.0
 _ZN22QQuickTableViewPrivate22updateAverageRowHeightEv@Base 6.2.0
 _ZN22QQuickTableViewPrivate23columnsInsertedCallbackERK11QModelIndexii@Base 6.2.0
 _ZN22QQuickTableViewPrivate24syncViewportPosRecursiveEv@Base 6.2.0
 _ZN22QQuickTableViewPrivate24updateAverageColumnWidthEv@Base 6.2.0
 _ZN22QQuickTableViewPrivate25checkForVisibilityChangesEv@Base 6.2.0
 _ZN22QQuickTableViewPrivate25loadAndUnloadVisibleEdgesEv@Base 6.2.0
 _ZN22QQuickTableViewPrivate26scheduleRebuildIfFastFlickEv@Base 6.2.0
 _ZN22QQuickTableViewPrivate27scrollTowardsSelectionPointERK7QPointFRK6QSizeF@Base 6.2.0
 _ZN22QQuickTableViewPrivate30drainReusePoolAfterLoadRequestEv@Base 6.2.0
 _ZN22QQuickTableViewPrivate30layoutAfterLoadingInitialTableEv@Base 6.2.0
 _ZN22QQuickTableViewPrivate30layoutTableEdgeFromLoadRequestEv@Base 6.2.0
 _ZN22QQuickTableViewPrivate30syncLoadedTableFromLoadRequestEv@Base 6.2.0
 _ZN22QQuickTableViewPrivate34syncLoadedTableRectFromLoadedTableEv@Base 6.2.0
 _ZN22QQuickTableViewPrivate35adjustViewportXAccordingToAlignmentEv@Base 6.2.0
 _ZN22QQuickTableViewPrivate35adjustViewportYAccordingToAlignmentEv@Base 6.2.0
 _ZN22QQuickTableViewPrivate37nextVisibleEdgeIndexAroundLoadedTableEN2Qt4EdgeE@Base 6.2.0
 _ZN22QQuickTableViewPrivate3kUpE@Base 6.2.0
 _ZN22QQuickTableViewPrivate40registerCallbackWhenBindingsAreEvaluatedEv@Base 6.2.0
 _ZN22QQuickTableViewPrivate5fixupERN22QQuickFlickablePrivate8AxisDataEdd@Base 6.2.0
 _ZN22QQuickTableViewPrivate5kDownE@Base 6.2.0
 _ZN22QQuickTableViewPrivate5kLeftE@Base 6.2.0
 _ZN22QQuickTableViewPrivate6kRightE@Base 6.2.0
 _ZN22QQuickTableViewPrivate8loadEdgeEN2Qt4EdgeEN13QQmlIncubator14IncubationModeE@Base 6.2.0
 _ZN22QQuickTableViewPrivate9EdgeRange13containsIndexEN2Qt4EdgeEi@Base 6.2.0
 _ZN22QQuickTableViewPrivate9EdgeRangeC1Ev@Base 6.2.0
 _ZN22QQuickTableViewPrivate9EdgeRangeC2Ev@Base 6.2.0
 _ZN22QQuickTableViewPrivate9syncModelEv@Base 6.2.0
 _ZN22QQuickTableViewPrivateC1Ev@Base 6.2.0
 _ZN22QQuickTableViewPrivateC2Ev@Base 6.2.0
 _ZN22QQuickTableViewPrivateD0Ev@Base 6.2.0
 _ZN22QQuickTableViewPrivateD1Ev@Base 6.2.0
 _ZN22QQuickTableViewPrivateD2Ev@Base 6.2.0
 _ZN22QQuickTextInputPrivate10addCommandERKNS_7CommandE@Base 6.2.0
 _ZN22QQuickTextInputPrivate10moveCursorEib@Base 6.2.0
 _ZN22QQuickTextInputPrivate11cancelInputEv@Base 6.2.0
 _ZN22QQuickTextInputPrivate12checkIsValidEv@Base 6.2.0
 _ZN22QQuickTextInputPrivate12finishChangeEibb@Base 6.2.0
 _ZN22QQuickTextInputPrivate12internalRedoEv@Base 6.2.0
 _ZN22QQuickTextInputPrivate12internalUndoEi@Base 6.2.0
 _ZN22QQuickTextInputPrivate12mirrorChangeEv@Base 6.2.0
 _ZN22QQuickTextInputPrivate12setSelectionEii@Base 6.2.0
 _ZN22QQuickTextInputPrivate12updateLayoutEv@Base 6.2.0
 _ZN22QQuickTextInputPrivate13cancelPreeditEv@Base 6.2.0
 _ZN22QQuickTextInputPrivate13commitPreeditEv@Base 6.2.0
 _ZN22QQuickTextInputPrivate13ensureVisibleEiii@Base 6.2.0
 _ZN22QQuickTextInputPrivate13setTopPaddingEdb@Base 6.2.0
 _ZN22QQuickTextInputPrivate14internalDeleteEb@Base 6.2.0
 _ZN22QQuickTextInputPrivate14internalInsertERK7QString@Base 6.2.0
 _ZN22QQuickTextInputPrivate14parseInputMaskERK7QString@Base 6.2.0
 _ZN22QQuickTextInputPrivate14setLeftPaddingEdb@Base 6.2.0
 _ZN22QQuickTextInputPrivate15deleteEndOfLineEv@Base 6.2.0
 _ZN22QQuickTextInputPrivate15deleteEndOfWordEv@Base 6.2.0
 _ZN22QQuickTextInputPrivate15internalSetTextERK7QStringib@Base 6.2.0
 _ZN22QQuickTextInputPrivate15processKeyEventEP9QKeyEvent@Base 6.2.0
 _ZN22QQuickTextInputPrivate15selectWordAtPosEi@Base 6.2.0
 _ZN22QQuickTextInputPrivate15setRightPaddingEdb@Base 6.2.0
 _ZN22QQuickTextInputPrivate16handleFocusEventEP11QFocusEvent@Base 6.2.0
 _ZN22QQuickTextInputPrivate16setBottomPaddingEdb@Base 6.2.0
 _ZN22QQuickTextInputPrivate17deleteStartOfWordEv@Base 6.2.0
 _ZN22QQuickTextInputPrivate17separateSelectionEv@Base 6.2.0
 _ZN22QQuickTextInputPrivate17updateDisplayTextEb@Base 6.2.0
 _ZN22QQuickTextInputPrivate18removeSelectedTextEv@Base 6.2.0
 _ZN22QQuickTextInputPrivate19emitUndoRedoChangedEv@Base 6.2.0
 _ZN22QQuickTextInputPrivate20updateBaselineOffsetEv@Base 6.2.0
 _ZN22QQuickTextInputPrivate20updateCursorBlinkingEv@Base 6.2.0
 _ZN22QQuickTextInputPrivate20updateVerticalScrollEv@Base 6.2.0
 _ZN22QQuickTextInputPrivate22updateHorizontalScrollEv@Base 6.2.0
 _ZN22QQuickTextInputPrivate23processInputMethodEventEP17QInputMethodEvent@Base 6.2.0
 _ZN22QQuickTextInputPrivate24setBlinkingCursorEnabledEb@Base 6.2.0
 _ZN22QQuickTextInputPrivate24setImplicitResizeEnabledEb@Base 6.2.0
 _ZN22QQuickTextInputPrivate25emitCursorPositionChangedEv@Base 6.2.0
 _ZN22QQuickTextInputPrivate25updatePasswordEchoEditingEb@Base 6.2.0
 _ZN22QQuickTextInputPrivate28determineHorizontalAlignmentEv@Base 6.2.0
 _ZN22QQuickTextInputPrivate28sendMouseEventToInputContextEP11QMouseEvent@Base 6.2.0
 _ZN22QQuickTextInputPrivate3delEv@Base 6.2.0
 _ZN22QQuickTextInputPrivate4initEv@Base 6.2.0
 _ZN22QQuickTextInputPrivate5clearEv@Base 6.2.0
 _ZN22QQuickTextInputPrivate5fixupEv@Base 6.2.0
 _ZN22QQuickTextInputPrivate5pasteEN10QClipboard4ModeE@Base 6.2.0
 _ZN22QQuickTextInputPrivate6insertERK7QString@Base 6.2.0
 _ZN22QQuickTextInputPrivate9ExtraDataC1Ev@Base 6.2.0
 _ZN22QQuickTextInputPrivate9ExtraDataC2Ev@Base 6.2.0
 _ZN22QQuickTextInputPrivate9backspaceEv@Base 6.2.0
 _ZN22QQuickTextInputPrivate9setHAlignEN15QQuickTextInput10HAlignmentEb@Base 6.2.0
 _ZN22QSGSmoothColorMaterialC1Ev@Base 6.2.0
 _ZN22QSGSmoothColorMaterialC2Ev@Base 6.2.0
 _ZN22QSGVertexColorMaterialC1Ev@Base 6.2.0
 _ZN22QSGVertexColorMaterialC2Ev@Base 6.2.0
 _ZN23QQuickAbstractAnimation10classBeginEv@Base 6.2.0
 _ZN23QQuickAbstractAnimation10setRunningEb@Base 6.2.0
 _ZN23QQuickAbstractAnimation10transitionER5QListI17QQuickStateActionERS0_I12QQmlPropertyENS_19TransitionDirectionEP7QObject@Base 6.2.0
 _ZN23QQuickAbstractAnimation11currentTimeEv@Base 6.2.0
 _ZN23QQuickAbstractAnimation11qtAnimationEv@Base 6.2.0
 _ZN23QQuickAbstractAnimation11qt_metacallEN11QMetaObject4CallEiPPv@Base 6.2.0
 _ZN23QQuickAbstractAnimation11qt_metacastEPKc@Base 6.2.0
 _ZN23QQuickAbstractAnimation12initInstanceEP21QAbstractAnimationJob@Base 6.2.0
 _ZN23QQuickAbstractAnimation13pausedChangedEb@Base 6.2.0
 _ZN23QQuickAbstractAnimation14runningChangedEb@Base 6.2.0
 _ZN23QQuickAbstractAnimation14setCurrentTimeEi@Base 6.2.0
 _ZN23QQuickAbstractAnimation16loopCountChangedEi@Base 6.2.0
 _ZN23QQuickAbstractAnimation16setDefaultTargetERK12QQmlProperty@Base 6.2.0
 _ZN23QQuickAbstractAnimation16staticMetaObjectE@Base 6.2.0
 _ZN23QQuickAbstractAnimation17componentCompleteEv@Base 6.2.0
 _ZN23QQuickAbstractAnimation17setAlwaysRunToEndEb@Base 6.2.0
 _ZN23QQuickAbstractAnimation18componentFinalizedEv@Base 6.2.0
 _ZN23QQuickAbstractAnimation20notifyRunningChangedEb@Base 6.2.0
 _ZN23QQuickAbstractAnimation20setEnableUserControlEv@Base 6.2.0
 _ZN23QQuickAbstractAnimation21alwaysRunToEndChangedEb@Base 6.2.0
 _ZN23QQuickAbstractAnimation21setDisableUserControlEv@Base 6.2.0
 _ZN23QQuickAbstractAnimation4stopEv@Base 6.2.0
 _ZN23QQuickAbstractAnimation5pauseEv@Base 6.2.0
 _ZN23QQuickAbstractAnimation5startEv@Base 6.2.0
 _ZN23QQuickAbstractAnimation6resumeEv@Base 6.2.0
 _ZN23QQuickAbstractAnimation7restartEv@Base 6.2.0
 _ZN23QQuickAbstractAnimation7startedEv@Base 6.2.0
 _ZN23QQuickAbstractAnimation7stoppedEv@Base 6.2.0
 _ZN23QQuickAbstractAnimation8completeEv@Base 6.2.0
 _ZN23QQuickAbstractAnimation8finishedEv@Base 6.2.0
 _ZN23QQuickAbstractAnimation8setGroupEP20QQuickAnimationGroupi@Base 6.2.0
 _ZN23QQuickAbstractAnimation8setLoopsEi@Base 6.2.0
 _ZN23QQuickAbstractAnimation9setPausedEb@Base 6.2.0
 _ZN23QQuickAbstractAnimation9setTargetERK12QQmlProperty@Base 6.2.0
 _ZN23QQuickAbstractAnimationC1EP7QObject@Base 6.2.0
 _ZN23QQuickAbstractAnimationC1ER30QQuickAbstractAnimationPrivateP7QObject@Base 6.2.0
 _ZN23QQuickAbstractAnimationC2EP7QObject@Base 6.2.0
 _ZN23QQuickAbstractAnimationC2ER30QQuickAbstractAnimationPrivateP7QObject@Base 6.2.0
 _ZN23QQuickAbstractAnimationD0Ev@Base 6.2.0
 _ZN23QQuickAbstractAnimationD1Ev@Base 6.2.0
 _ZN23QQuickAbstractAnimationD2Ev@Base 6.2.0
 _ZN23QQuickFramebufferObject11qt_metacallEN11QMetaObject4CallEiPPv@Base 6.2.0
 _ZN23QQuickFramebufferObject11qt_metacastEPKc@Base 6.2.0
 _ZN23QQuickFramebufferObject14geometryChangeERK6QRectFS2_@Base 6.2.0
 _ZN23QQuickFramebufferObject15updatePaintNodeEP7QSGNodePN10QQuickItem19UpdatePaintNodeDataE@Base 6.2.0
 _ZN23QQuickFramebufferObject16releaseResourcesEv@Base 6.2.0
 _ZN23QQuickFramebufferObject16staticMetaObjectE@Base 6.2.0
 _ZN23QQuickFramebufferObject19setMirrorVerticallyEb@Base 6.2.0
 _ZN23QQuickFramebufferObject20invalidateSceneGraphEv@Base 6.2.0
 _ZN23QQuickFramebufferObject23mirrorVerticallyChangedEb@Base 6.2.0
 _ZN23QQuickFramebufferObject25setTextureFollowsItemSizeEb@Base 6.2.0
 _ZN23QQuickFramebufferObject29textureFollowsItemSizeChangedEb@Base 6.2.0
 _ZN23QQuickFramebufferObject8Renderer11synchronizeEPS_@Base 6.2.0
 _ZN23QQuickFramebufferObject8Renderer23createFramebufferObjectERK5QSize@Base 6.2.0
 _ZN23QQuickFramebufferObject8Renderer27invalidateFramebufferObjectEv@Base 6.2.0
 _ZN23QQuickFramebufferObject8Renderer6updateEv@Base 6.2.0
 _ZN23QQuickFramebufferObject8RendererC1Ev@Base 6.2.0
 _ZN23QQuickFramebufferObject8RendererC2Ev@Base 6.2.0
 _ZN23QQuickFramebufferObject8RendererD0Ev@Base 6.2.0
 _ZN23QQuickFramebufferObject8RendererD1Ev@Base 6.2.0
 _ZN23QQuickFramebufferObject8RendererD2Ev@Base 6.2.0
 _ZN23QQuickFramebufferObjectC1EP10QQuickItem@Base 6.2.0
 _ZN23QQuickFramebufferObjectC2EP10QQuickItem@Base 6.2.0
 _ZN23QQuickMultiPointHandler10grabPointsEP13QPointerEventRK5QListI11QEventPointE@Base 6.2.0
 _ZN23QQuickMultiPointHandler10moveTargetE7QPointF@Base 6.2.0
 _ZN23QQuickMultiPointHandler11qt_metacallEN11QMetaObject4CallEiPPv@Base 6.2.0
 _ZN23QQuickMultiPointHandler11qt_metacastEPKc@Base 6.2.0
 _ZN23QQuickMultiPointHandler12acceptPointsERK5QListI11QEventPointE@Base 6.2.0
 _ZN23QQuickMultiPointHandler13currentPointsEv@Base 6.2.0
 _ZN23QQuickMultiPointHandler13onGrabChangedEP20QQuickPointerHandlerN15QPointingDevice14GrabTransitionEP13QPointerEventR11QEventPoint@Base 6.2.0
 _ZN23QQuickMultiPointHandler14eligiblePointsEP13QPointerEvent@Base 6.2.0
 _ZN23QQuickMultiPointHandler15centroidChangedEv@Base 6.2.0
 _ZN23QQuickMultiPointHandler15mutableCentroidEv@Base 6.2.0
 _ZN23QQuickMultiPointHandler15onActiveChangedEv@Base 6.2.0
 _ZN23QQuickMultiPointHandler16hasCurrentPointsEP13QPointerEvent@Base 6.2.0
 _ZN23QQuickMultiPointHandler16staticMetaObjectE@Base 6.2.0
 _ZN23QQuickMultiPointHandler17averageAngleDeltaERK5QListINS_9PointDataEES4_@Base 6.2.0
 _ZN23QQuickMultiPointHandler17wantsPointerEventEP13QPointerEvent@Base 6.2.0
 _ZN23QQuickMultiPointHandler20setMaximumPointCountEi@Base 6.2.0
 _ZN23QQuickMultiPointHandler20setMinimumPointCountEi@Base 6.2.0
 _ZN23QQuickMultiPointHandler22handlePointerEventImplEP13QPointerEvent@Base 6.2.0
 _ZN23QQuickMultiPointHandler23averageStartingDistanceERK7QPointF@Base 6.2.0
 _ZN23QQuickMultiPointHandler24maximumPointCountChangedEv@Base 6.2.0
 _ZN23QQuickMultiPointHandler24minimumPointCountChangedEv@Base 6.2.0
 _ZN23QQuickMultiPointHandler25averageTouchPointDistanceERK7QPointF@Base 6.2.0
 _ZN23QQuickMultiPointHandlerC1EP10QQuickItemii@Base 6.2.0
 _ZN23QQuickMultiPointHandlerC2EP10QQuickItemii@Base 6.2.0
 _ZN23QQuickParallelAnimation10transitionER5QListI17QQuickStateActionERS0_I12QQmlPropertyEN23QQuickAbstractAnimation19TransitionDirectionEP7QObject@Base 6.2.0
 _ZN23QQuickParallelAnimation11qt_metacallEN11QMetaObject4CallEiPPv@Base 6.2.0
 _ZN23QQuickParallelAnimation11qt_metacastEPKc@Base 6.2.0
 _ZN23QQuickParallelAnimation16staticMetaObjectE@Base 6.2.0
 _ZN23QQuickParallelAnimationC1EP7QObject@Base 6.2.0
 _ZN23QQuickParallelAnimationC2EP7QObject@Base 6.2.0
 _ZN23QQuickParallelAnimationD0Ev@Base 6.2.0
 _ZN23QQuickParallelAnimationD1Ev@Base 6.2.0
 _ZN23QQuickParallelAnimationD2Ev@Base 6.2.0
 _ZN23QQuickPropertyAnimation10transitionER5QListI17QQuickStateActionERS0_I12QQmlPropertyEN23QQuickAbstractAnimation19TransitionDirectionEP7QObject@Base 6.2.0
 _ZN23QQuickPropertyAnimation11fromChangedEv@Base 6.2.0
 _ZN23QQuickPropertyAnimation11qt_metacallEN11QMetaObject4CallEiPPv@Base 6.2.0
 _ZN23QQuickPropertyAnimation11qt_metacastEPKc@Base 6.2.0
 _ZN23QQuickPropertyAnimation11setDurationEi@Base 6.2.0
 _ZN23QQuickPropertyAnimation11setPropertyERK7QString@Base 6.2.0
 _ZN23QQuickPropertyAnimation13easingChangedERK12QEasingCurve@Base 6.2.0
 _ZN23QQuickPropertyAnimation13setPropertiesERK7QString@Base 6.2.0
 _ZN23QQuickPropertyAnimation13targetChangedEv@Base 6.2.0
 _ZN23QQuickPropertyAnimation15durationChangedEi@Base 6.2.0
 _ZN23QQuickPropertyAnimation15propertyChangedEv@Base 6.2.0
 _ZN23QQuickPropertyAnimation15setTargetObjectEP7QObject@Base 6.2.0
 _ZN23QQuickPropertyAnimation16staticMetaObjectE@Base 6.2.0
 _ZN23QQuickPropertyAnimation17propertiesChangedERK7QString@Base 6.2.0
 _ZN23QQuickPropertyAnimation23createTransitionActionsER5QListI17QQuickStateActionERS0_I12QQmlPropertyEP7QObject@Base 6.2.0
 _ZN23QQuickPropertyAnimation5setToERK8QVariant@Base 6.2.0
 _ZN23QQuickPropertyAnimation7excludeEv@Base 6.2.0
 _ZN23QQuickPropertyAnimation7setFromERK8QVariant@Base 6.2.0
 _ZN23QQuickPropertyAnimation7targetsEv@Base 6.2.0
 _ZN23QQuickPropertyAnimation9setEasingERK12QEasingCurve@Base 6.2.0
 _ZN23QQuickPropertyAnimation9toChangedEv@Base 6.2.0
 _ZN23QQuickPropertyAnimationC1EP7QObject@Base 6.2.0
 _ZN23QQuickPropertyAnimationC1ER30QQuickPropertyAnimationPrivateP7QObject@Base 6.2.0
 _ZN23QQuickPropertyAnimationC2EP7QObject@Base 6.2.0
 _ZN23QQuickPropertyAnimationC2ER30QQuickPropertyAnimationPrivateP7QObject@Base 6.2.0
 _ZN23QQuickPropertyAnimationD0Ev@Base 6.2.0
 _ZN23QQuickPropertyAnimationD1Ev@Base 6.2.0
 _ZN23QQuickPropertyAnimationD2Ev@Base 6.2.0
 _ZN23QQuickRotationAnimation11qt_metacallEN11QMetaObject4CallEiPPv@Base 6.2.0
 _ZN23QQuickRotationAnimation11qt_metacastEPKc@Base 6.2.0
 _ZN23QQuickRotationAnimation12setDirectionENS_17RotationDirectionE@Base 6.2.0
 _ZN23QQuickRotationAnimation16directionChangedEv@Base 6.2.0
 _ZN23QQuickRotationAnimation16staticMetaObjectE@Base 6.2.0
 _ZN23QQuickRotationAnimation5setToEd@Base 6.2.0
 _ZN23QQuickRotationAnimation7setFromEd@Base 6.2.0
 _ZN23QQuickRotationAnimationC1EP7QObject@Base 6.2.0
 _ZN23QQuickRotationAnimationC2EP7QObject@Base 6.2.0
 _ZN23QQuickRotationAnimationD0Ev@Base 6.2.0
 _ZN23QQuickRotationAnimationD1Ev@Base 6.2.0
 _ZN23QQuickRotationAnimationD2Ev@Base 6.2.0
 _ZN23QQuickSmoothedAnimation10transitionER5QListI17QQuickStateActionERS0_I12QQmlPropertyEN23QQuickAbstractAnimation19TransitionDirectionEP7QObject@Base 6.2.0
 _ZN23QQuickSmoothedAnimation11qt_metacallEN11QMetaObject4CallEiPPv@Base 6.2.0
 _ZN23QQuickSmoothedAnimation11qt_metacastEPKc@Base 6.2.0
 _ZN23QQuickSmoothedAnimation11setDurationEi@Base 6.2.0
 _ZN23QQuickSmoothedAnimation11setVelocityEd@Base 6.2.0
 _ZN23QQuickSmoothedAnimation15velocityChangedEv@Base 6.2.0
 _ZN23QQuickSmoothedAnimation16setReversingModeENS_13ReversingModeE@Base 6.2.0
 _ZN23QQuickSmoothedAnimation16staticMetaObjectE@Base 6.2.0
 _ZN23QQuickSmoothedAnimation20reversingModeChangedEv@Base 6.2.0
 _ZN23QQuickSmoothedAnimation20setMaximumEasingTimeEi@Base 6.2.0
 _ZN23QQuickSmoothedAnimation24maximumEasingTimeChangedEv@Base 6.2.0
 _ZN23QQuickSmoothedAnimationC1EP7QObject@Base 6.2.0
 _ZN23QQuickSmoothedAnimationC2EP7QObject@Base 6.2.0
 _ZN23QQuickSmoothedAnimationD0Ev@Base 6.2.0
 _ZN23QQuickSmoothedAnimationD1Ev@Base 6.2.0
 _ZN23QQuickSmoothedAnimationD2Ev@Base 6.2.0
 _ZN23QQuickStateChangeScript11qt_metacallEN11QMetaObject4CallEiPPv@Base 6.2.0
 _ZN23QQuickStateChangeScript11qt_metacastEPKc@Base 6.2.0
 _ZN23QQuickStateChangeScript16staticMetaObjectE@Base 6.2.0
 _ZN23QQuickStateChangeScript7actionsEv@Base 6.2.0
 _ZN23QQuickStateChangeScript7executeEv@Base 6.2.0
 _ZN23QQuickStateChangeScript7setNameERK7QString@Base 6.2.0
 _ZN23QQuickStateChangeScript9setScriptERK16QQmlScriptString@Base 6.2.0
 _ZN23QQuickStateChangeScriptC1EP7QObject@Base 6.2.0
 _ZN23QQuickStateChangeScriptC2EP7QObject@Base 6.2.0
 _ZN23QQuickStateChangeScriptD0Ev@Base 6.2.0
 _ZN23QQuickStateChangeScriptD1Ev@Base 6.2.0
 _ZN23QQuickStateChangeScriptD2Ev@Base 6.2.0
 _ZN23QQuickTableViewAttached11qt_metacallEN11QMetaObject4CallEiPPv@Base 6.2.0
 _ZN23QQuickTableViewAttached11qt_metacastEPKc@Base 6.2.0
 _ZN23QQuickTableViewAttached11viewChangedEv@Base 6.2.0
 _ZN23QQuickTableViewAttached16staticMetaObjectE@Base 6.2.0
 _ZN23QQuickTableViewAttached6pooledEv@Base 6.2.0
 _ZN23QQuickTableViewAttached6reusedEv@Base 6.2.0
 _ZN23QQuickTransitionManager10transitionERK5QListI17QQuickStateActionEP16QQuickTransitionP7QObject@Base 6.2.0
 _ZN23QQuickTransitionManager6cancelEv@Base 6.2.0
 _ZN23QQuickTransitionManager8completeEv@Base 6.2.0
 _ZN23QQuickTransitionManager8finishedEv@Base 6.2.0
 _ZN23QQuickTransitionManager8setStateEP11QQuickState@Base 6.2.0
 _ZN23QQuickTransitionManagerC1Ev@Base 6.2.0
 _ZN23QQuickTransitionManagerC2Ev@Base 6.2.0
 _ZN23QQuickTransitionManagerD0Ev@Base 6.2.0
 _ZN23QQuickTransitionManagerD1Ev@Base 6.2.0
 _ZN23QQuickTransitionManagerD2Ev@Base 6.2.0
 _ZN23QQuickVector2DValueType16staticMetaObjectE@Base 6.2.0
 _ZN23QQuickVector2DValueType4setXEd@Base 6.2.0
 _ZN23QQuickVector2DValueType4setYEd@Base 6.2.0
 _ZN23QQuickVector2DValueType6createERK8QJSValue@Base 6.2.0
 _ZN23QQuickVector3DValueType16staticMetaObjectE@Base 6.2.0
 _ZN23QQuickVector3DValueType4setXEd@Base 6.2.0
 _ZN23QQuickVector3DValueType4setYEd@Base 6.2.0
 _ZN23QQuickVector3DValueType4setZEd@Base 6.2.0
 _ZN23QQuickVector3DValueType6createERK8QJSValue@Base 6.2.0
 _ZN23QQuickVector3dAnimation11qt_metacallEN11QMetaObject4CallEiPPv@Base 6.2.0
 _ZN23QQuickVector3dAnimation11qt_metacastEPKc@Base 6.2.0
 _ZN23QQuickVector3dAnimation16staticMetaObjectE@Base 6.2.0
 _ZN23QQuickVector3dAnimation5setToE9QVector3D@Base 6.2.0
 _ZN23QQuickVector3dAnimation7setFromE9QVector3D@Base 6.2.0
 _ZN23QQuickVector3dAnimationC1EP7QObject@Base 6.2.0
 _ZN23QQuickVector3dAnimationC2EP7QObject@Base 6.2.0
 _ZN23QQuickVector3dAnimationD0Ev@Base 6.2.0
 _ZN23QQuickVector3dAnimationD1Ev@Base 6.2.0
 _ZN23QQuickVector3dAnimationD2Ev@Base 6.2.0
 _ZN23QQuickVector4DValueType16staticMetaObjectE@Base 6.2.0
 _ZN23QQuickVector4DValueType4setWEd@Base 6.2.0
 _ZN23QQuickVector4DValueType4setXEd@Base 6.2.0
 _ZN23QQuickVector4DValueType4setYEd@Base 6.2.0
 _ZN23QQuickVector4DValueType4setZEd@Base 6.2.0
 _ZN23QQuickVector4DValueType6createERK8QJSValue@Base 6.2.0
 _ZN23QSGDefaultNinePatchNode10setPaddingEdddd@Base 6.2.0
 _ZN23QSGDefaultNinePatchNode10setTextureEP10QSGTexture@Base 6.2.0
 _ZN23QSGDefaultNinePatchNode19setDevicePixelRatioEd@Base 6.2.0
 _ZN23QSGDefaultNinePatchNode6updateEv@Base 6.2.0
 _ZN23QSGDefaultNinePatchNode9setBoundsERK6QRectF@Base 6.2.0
 _ZN23QSGDefaultNinePatchNodeC1Ev@Base 6.2.0
 _ZN23QSGDefaultNinePatchNodeC2Ev@Base 6.2.0
 _ZN23QSGDefaultNinePatchNodeD0Ev@Base 6.2.0
 _ZN23QSGDefaultNinePatchNodeD1Ev@Base 6.2.0
 _ZN23QSGDefaultNinePatchNodeD2Ev@Base 6.2.0
 _ZN23QSGDefaultRenderContext10initializeEPKN16QSGRenderContext10InitParamsE@Base 6.2.0
 _ZN23QSGDefaultRenderContext10invalidateEv@Base 6.2.0
 _ZN23QSGDefaultRenderContext10preprocessEv@Base 6.2.0
 _ZN23QSGDefaultRenderContext11prepareSyncEdP17QRhiCommandBufferRK27QQuickGraphicsConfiguration@Base 6.2.0
 _ZN23QSGDefaultRenderContext11qt_metacallEN11QMetaObject4CallEiPPv@Base 6.2.0
 _ZN23QSGDefaultRenderContext11qt_metacastEPKc@Base 6.2.0
 _ZN23QSGDefaultRenderContext12endNextFrameEP11QSGRenderer@Base 6.2.0
 _ZN23QSGDefaultRenderContext14beginNextFrameEP11QSGRendererPFvPvES4_S2_@Base 6.2.0
 _ZN23QSGDefaultRenderContext14createRendererEN20QSGRendererInterface10RenderModeE@Base 6.2.0
 _ZN23QSGDefaultRenderContext15endNextRhiFrameEP11QSGRenderer@Base 6.2.0
 _ZN23QSGDefaultRenderContext15renderNextFrameEP11QSGRenderer@Base 6.2.0
 _ZN23QSGDefaultRenderContext16staticMetaObjectE@Base 6.2.0
 _ZN23QSGDefaultRenderContext17beginNextRhiFrameEP11QSGRendererP16QRhiRenderTargetP24QRhiRenderPassDescriptorP17QRhiCommandBufferPFvPvESA_S8_@Base 6.2.0
 _ZN23QSGDefaultRenderContext18renderNextRhiFrameEP11QSGRenderer@Base 6.2.0
 _ZN23QSGDefaultRenderContext19initializeRhiShaderEP17QSGMaterialShaderN7QShader7VariantE@Base 6.2.0
 _ZN23QSGDefaultRenderContext23distanceFieldGlyphCacheERK8QRawFonti@Base 6.2.0
 _ZN23QSGDefaultRenderContext7fontKeyERK8QRawFonti@Base 6.2.0
 _ZN23QSGDefaultRenderContextC1EP10QSGContext@Base 6.2.0
 _ZN23QSGDefaultRenderContextC2EP10QSGContext@Base 6.2.0
 _ZN24QQuickAccessibleAttached10setIgnoredEb@Base 6.2.0
 _ZN24QQuickAccessibleAttached11nameChangedEv@Base 6.2.0
 _ZN24QQuickAccessibleAttached11pressActionEv@Base 6.2.0
 _ZN24QQuickAccessibleAttached11qt_metacallEN11QMetaObject4CallEiPPv@Base 6.2.0
 _ZN24QQuickAccessibleAttached11qt_metacastEPKc@Base 6.2.0
 _ZN24QQuickAccessibleAttached11roleChangedEv@Base 6.2.0
 _ZN24QQuickAccessibleAttached11sigDecreaseE@Base 6.2.0
 _ZN24QQuickAccessibleAttached11sigIncreaseE@Base 6.2.0
 _ZN24QQuickAccessibleAttached11sigNextPageE@Base 6.2.0
 _ZN24QQuickAccessibleAttached11sigScrollUpE@Base 6.2.0
 _ZN24QQuickAccessibleAttached12toggleActionEv@Base 6.2.0
 _ZN24QQuickAccessibleAttached13sigScrollDownE@Base 6.2.0
 _ZN24QQuickAccessibleAttached13sigScrollLeftE@Base 6.2.0
 _ZN24QQuickAccessibleAttached14checkedChangedEb@Base 6.2.0
 _ZN24QQuickAccessibleAttached14decreaseActionEv@Base 6.2.0
 _ZN24QQuickAccessibleAttached14focusedChangedEb@Base 6.2.0
 _ZN24QQuickAccessibleAttached14ignoredChangedEv@Base 6.2.0
 _ZN24QQuickAccessibleAttached14increaseActionEv@Base 6.2.0
 _ZN24QQuickAccessibleAttached14nextPageActionEv@Base 6.2.0
 _ZN24QQuickAccessibleAttached14pressedChangedEb@Base 6.2.0
 _ZN24QQuickAccessibleAttached14scrollUpActionEv@Base 6.2.0
 _ZN24QQuickAccessibleAttached14sigScrollRightE@Base 6.2.0
 _ZN24QQuickAccessibleAttached15editableChangedEb@Base 6.2.0
 _ZN24QQuickAccessibleAttached15readOnlyChangedEb@Base 6.2.0
 _ZN24QQuickAccessibleAttached15selectedChangedEb@Base 6.2.0
 _ZN24QQuickAccessibleAttached15sigPreviousPageE@Base 6.2.0
 _ZN24QQuickAccessibleAttached16checkableChangedEb@Base 6.2.0
 _ZN24QQuickAccessibleAttached16focusableChangedEb@Base 6.2.0
 _ZN24QQuickAccessibleAttached16multiLineChangedEb@Base 6.2.0
 _ZN24QQuickAccessibleAttached16scrollDownActionEv@Base 6.2.0
 _ZN24QQuickAccessibleAttached16scrollLeftActionEv@Base 6.2.0
 _ZN24QQuickAccessibleAttached16staticMetaObjectE@Base 6.2.0
 _ZN24QQuickAccessibleAttached17scrollRightActionEv@Base 6.2.0
 _ZN24QQuickAccessibleAttached17searchEditChangedEb@Base 6.2.0
 _ZN24QQuickAccessibleAttached17selectableChangedEb@Base 6.2.0
 _ZN24QQuickAccessibleAttached17setNameImplicitlyERK7QString@Base 6.2.0
 _ZN24QQuickAccessibleAttached18descriptionChangedEv@Base 6.2.0
 _ZN24QQuickAccessibleAttached18previousPageActionEv@Base 6.2.0
 _ZN24QQuickAccessibleAttached19passwordEditChangedEb@Base 6.2.0
 _ZN24QQuickAccessibleAttached20defaultButtonChangedEb@Base 6.2.0
 _ZN24QQuickAccessibleAttached21qmlAttachedPropertiesEP7QObject@Base 6.2.0
 _ZN24QQuickAccessibleAttached21selectableTextChangedEb@Base 6.2.0
 _ZN24QQuickAccessibleAttached22checkStateMixedChangedEb@Base 6.2.0
 _ZN24QQuickAccessibleAttached7setRoleEN11QAccessible4RoleE@Base 6.2.0
 _ZN24QQuickAccessibleAttached8doActionERK7QString@Base 6.2.0
 _ZN24QQuickAccessibleAttached8sigPressE@Base 6.2.0
 _ZN24QQuickAccessibleAttached9sigToggleE@Base 6.2.0
 _ZN24QQuickAccessibleAttached9stripHtmlERK7QString@Base 6.2.0
 _ZN24QQuickAccessibleAttachedC1EP7QObject@Base 6.2.0
 _ZN24QQuickAccessibleAttachedC2EP7QObject@Base 6.2.0
 _ZN24QQuickAccessibleAttachedD0Ev@Base 6.2.0
 _ZN24QQuickAccessibleAttachedD1Ev@Base 6.2.0
 _ZN24QQuickAccessibleAttachedD2Ev@Base 6.2.0
 _ZN24QQuickAsyncImageProviderC1Ev@Base 6.2.0
 _ZN24QQuickAsyncImageProviderC2Ev@Base 6.2.0
 _ZN24QQuickAsyncImageProviderD0Ev@Base 6.2.0
 _ZN24QQuickAsyncImageProviderD1Ev@Base 6.2.0
 _ZN24QQuickAsyncImageProviderD2Ev@Base 6.2.0
 _ZN24QQuickMatrix4x4ValueType16staticMetaObjectE@Base 6.2.0
 _ZN24QQuickMatrix4x4ValueType6createERK8QJSValue@Base 6.2.0
 _ZN24QQuickOpacityAnimatorJob10invalidateEv@Base 6.2.0
 _ZN24QQuickOpacityAnimatorJob17updateCurrentTimeEi@Base 6.2.0
 _ZN24QQuickOpacityAnimatorJob8postSyncEv@Base 6.2.0
 _ZN24QQuickOpacityAnimatorJob9writeBackEv@Base 6.2.0
 _ZN24QQuickOpacityAnimatorJobC1Ev@Base 6.2.0
 _ZN24QQuickOpacityAnimatorJobC2Ev@Base 6.2.0
 _ZN24QQuickPaintedItemPrivateC1Ev@Base 6.2.0
 _ZN24QQuickPaintedItemPrivateC2Ev@Base 6.2.0
 _ZN24QQuickShaderEffectSource10itemChangeEN10QQuickItem10ItemChangeERKNS0_14ItemChangeDataE@Base 6.2.0
 _ZN24QQuickShaderEffectSource10setSamplesEi@Base 6.2.0
 _ZN24QQuickShaderEffectSource11liveChangedEv@Base 6.2.0
 _ZN24QQuickShaderEffectSource11qt_metacallEN11QMetaObject4CallEiPPv@Base 6.2.0
 _ZN24QQuickShaderEffectSource11qt_metacastEPKc@Base 6.2.0
 _ZN24QQuickShaderEffectSource11setWrapModeENS_8WrapModeE@Base 6.2.0
 _ZN24QQuickShaderEffectSource12setRecursiveEb@Base 6.2.0
 _ZN24QQuickShaderEffectSource13ensureTextureEv@Base 6.2.0
 _ZN24QQuickShaderEffectSource13formatChangedEv@Base 6.2.0
 _ZN24QQuickShaderEffectSource13mipmapChangedEv@Base 6.2.0
 _ZN24QQuickShaderEffectSource13setHideSourceEb@Base 6.2.0
 _ZN24QQuickShaderEffectSource13setSourceItemEP10QQuickItem@Base 6.2.0
 _ZN24QQuickShaderEffectSource13setSourceRectERK6QRectF@Base 6.2.0
 _ZN24QQuickShaderEffectSource14samplesChangedEv@Base 6.2.0
 _ZN24QQuickShaderEffectSource14scheduleUpdateEv@Base 6.2.0
 _ZN24QQuickShaderEffectSource14setTextureSizeERK5QSize@Base 6.2.0
 _ZN24QQuickShaderEffectSource15updatePaintNodeEP7QSGNodePN10QQuickItem19UpdatePaintNodeDataE@Base 6.2.0
 _ZN24QQuickShaderEffectSource15wrapModeChangedEv@Base 6.2.0
 _ZN24QQuickShaderEffectSource16recursiveChangedEv@Base 6.2.0
 _ZN24QQuickShaderEffectSource16releaseResourcesEv@Base 6.2.0
 _ZN24QQuickShaderEffectSource16staticMetaObjectE@Base 6.2.0
 _ZN24QQuickShaderEffectSource17hideSourceChangedEv@Base 6.2.0
 _ZN24QQuickShaderEffectSource17sourceItemChangedEv@Base 6.2.0
 _ZN24QQuickShaderEffectSource17sourceRectChangedEv@Base 6.2.0
 _ZN24QQuickShaderEffectSource18textureSizeChangedEv@Base 6.2.0
 _ZN24QQuickShaderEffectSource19itemGeometryChangedEP10QQuickItem20QQuickGeometryChangeRK6QRectF@Base 6.2.0
 _ZN24QQuickShaderEffectSource19setTextureMirroringENS_16TextureMirroringE@Base 6.2.0
 _ZN24QQuickShaderEffectSource19sourceItemDestroyedEP7QObject@Base 6.2.0
 _ZN24QQuickShaderEffectSource20invalidateSceneGraphEv@Base 6.2.0
 _ZN24QQuickShaderEffectSource23textureMirroringChangedEv@Base 6.2.0
 _ZN24QQuickShaderEffectSource24scheduledUpdateCompletedEv@Base 6.2.0
 _ZN24QQuickShaderEffectSource7setLiveEb@Base 6.2.0
 _ZN24QQuickShaderEffectSource9setFormatENS_6FormatE@Base 6.2.0
 _ZN24QQuickShaderEffectSource9setMipmapEb@Base 6.2.0
 _ZN24QQuickShaderEffectSourceC1EP10QQuickItem@Base 6.2.0
 _ZN24QQuickShaderEffectSourceC2EP10QQuickItem@Base 6.2.0
 _ZN24QQuickShaderEffectSourceD0Ev@Base 6.2.0
 _ZN24QQuickShaderEffectSourceD1Ev@Base 6.2.0
 _ZN24QQuickShaderEffectSourceD2Ev@Base 6.2.0
 _ZN24QQuickSinglePointHandler10moveTargetE7QPointFR11QEventPoint@Base 6.2.0
 _ZN24QQuickSinglePointHandler10setPointIdEi@Base 6.2.0
 _ZN24QQuickSinglePointHandler11qt_metacallEN11QMetaObject4CallEiPPv@Base 6.2.0
 _ZN24QQuickSinglePointHandler11qt_metacastEPKc@Base 6.2.0
 _ZN24QQuickSinglePointHandler12pointChangedEv@Base 6.2.0
 _ZN24QQuickSinglePointHandler13onGrabChangedEP20QQuickPointerHandlerN15QPointingDevice14GrabTransitionEP13QPointerEventR11QEventPoint@Base 6.2.0
 _ZN24QQuickSinglePointHandler16handleEventPointEP13QPointerEventR11QEventPoint@Base 6.2.0
 _ZN24QQuickSinglePointHandler16staticMetaObjectE@Base 6.2.0
 _ZN24QQuickSinglePointHandler17wantsPointerEventEP13QPointerEvent@Base 6.2.0
 _ZN24QQuickSinglePointHandler22handlePointerEventImplEP13QPointerEvent@Base 6.2.0
 _ZN24QQuickSinglePointHandler25setIgnoreAdditionalPointsEb@Base 6.2.0
 _ZN24QQuickSinglePointHandlerC1EP10QQuickItem@Base 6.2.0
 _ZN24QQuickSinglePointHandlerC1ER31QQuickSinglePointHandlerPrivateP10QQuickItem@Base 6.2.0
 _ZN24QQuickSinglePointHandlerC2EP10QQuickItem@Base 6.2.0
 _ZN24QQuickSinglePointHandlerC2ER31QQuickSinglePointHandlerPrivateP10QQuickItem@Base 6.2.0
 _ZN24QQuickUniformAnimatorJob10invalidateEv@Base 6.2.0
 _ZN24QQuickUniformAnimatorJob17updateCurrentTimeEi@Base 6.2.0
 _ZN24QQuickUniformAnimatorJob8postSyncEv@Base 6.2.0
 _ZN24QQuickUniformAnimatorJob9setTargetEP10QQuickItem@Base 6.2.0
 _ZN24QQuickUniformAnimatorJob9writeBackEv@Base 6.2.0
 _ZN24QQuickUniformAnimatorJobC1Ev@Base 6.2.0
 _ZN24QQuickUniformAnimatorJobC2Ev@Base 6.2.0
 _ZN24QSGMaterialShaderPrivate10loadShaderERK7QString@Base 6.2.0
 _ZN24QSGMaterialShaderPrivate23clearCachedRendererDataEv@Base 6.2.0
 _ZN24QSGMaterialShaderPrivate7prepareEN7QShader7VariantE@Base 6.2.0
 _ZN24QSGOpaqueTextureMaterial10setTextureEP10QSGTexture@Base 6.2.0
 _ZN24QSGOpaqueTextureMaterialC1Ev@Base 6.2.0
 _ZN24QSGOpaqueTextureMaterialC2Ev@Base 6.2.0
 _ZN24QSGSmoothTextureMaterial10setTextureEP10QSGTexture@Base 6.2.0
 _ZN24QSGSmoothTextureMaterialC1Ev@Base 6.2.0
 _ZN24QSGSmoothTextureMaterialC2Ev@Base 6.2.0
 _ZN25ComponentCompleteDisablerC1Ev@Base 6.2.0
 _ZN25ComponentCompleteDisablerC2Ev@Base 6.2.0
 _ZN25ComponentCompleteDisablerD1Ev@Base 6.2.0
 _ZN25ComponentCompleteDisablerD2Ev@Base 6.2.0
 _ZN25QQuickAnimationController10classBeginEv@Base 6.2.0
 _ZN25QQuickAnimationController11qt_metacallEN11QMetaObject4CallEiPPv@Base 6.2.0
 _ZN25QQuickAnimationController11qt_metacastEPKc@Base 6.2.0
 _ZN25QQuickAnimationController11setProgressEd@Base 6.2.0
 _ZN25QQuickAnimationController12setAnimationEP23QQuickAbstractAnimation@Base 6.2.0
 _ZN25QQuickAnimationController13completeToEndEv@Base 6.2.0
 _ZN25QQuickAnimationController14updateProgressEv@Base 6.2.0
 _ZN25QQuickAnimationController15progressChangedEv@Base 6.2.0
 _ZN25QQuickAnimationController16animationChangedEv@Base 6.2.0
 _ZN25QQuickAnimationController16staticMetaObjectE@Base 6.2.0
 _ZN25QQuickAnimationController18componentFinalizedEv@Base 6.2.0
 _ZN25QQuickAnimationController19completeToBeginningEv@Base 6.2.0
 _ZN25QQuickAnimationController6reloadEv@Base 6.2.0
 _ZN25QQuickAnimationControllerC1EP7QObject@Base 6.2.0
 _ZN25QQuickAnimationControllerC2EP7QObject@Base 6.2.0
 _ZN25QQuickAnimationControllerD0Ev@Base 6.2.0
 _ZN25QQuickAnimationControllerD1Ev@Base 6.2.0
 _ZN25QQuickAnimationControllerD2Ev@Base 6.2.0
 _ZN25QQuickColorSpaceValueType12setPrimariesEN21QQuickColorSpaceEnums9PrimariesE@Base 6.2.0
 _ZN25QQuickColorSpaceValueType16staticMetaObjectE@Base 6.2.0
 _ZN25QQuickColorSpaceValueType18setNamedColorSpaceEN21QQuickColorSpaceEnums15NamedColorSpaceE@Base 6.2.0
 _ZN25QQuickColorSpaceValueType19setTransferFunctionEN21QQuickColorSpaceEnums16TransferFunctionE@Base 6.2.0
 _ZN25QQuickColorSpaceValueType6createERK8QJSValue@Base 6.2.0
 _ZN25QQuickColorSpaceValueType8setGammaEf@Base 6.2.0
 _ZN25QQuickMultiPointTouchArea10touchEventEP11QTouchEvent@Base 6.2.0
 _ZN25QQuickMultiPointTouchArea11grabGestureEP15QPointingDevice@Base 6.2.0
 _ZN25QQuickMultiPointTouchArea11qt_metacallEN11QMetaObject4CallEiPPv@Base 6.2.0
 _ZN25QQuickMultiPointTouchArea11qt_metacastEPKc@Base 6.2.0
 _ZN25QQuickMultiPointTouchArea12shouldFilterEP6QEvent@Base 6.2.0
 _ZN25QQuickMultiPointTouchArea12touchUpdatedERK5QListIP7QObjectE@Base 6.2.0
 _ZN25QQuickMultiPointTouchArea13addTouchPointEPK11QEventPoint@Base 6.2.0
 _ZN25QQuickMultiPointTouchArea13addTouchPointEPK11QMouseEvent@Base 6.2.0
 _ZN25QQuickMultiPointTouchArea14gestureStartedEP22QQuickGrabGestureEvent@Base 6.2.0
 _ZN25QQuickMultiPointTouchArea14mouseMoveEventEP11QMouseEvent@Base 6.2.0
 _ZN25QQuickMultiPointTouchArea14sendMouseEventEP11QMouseEvent@Base 6.2.0
 _ZN25QQuickMultiPointTouchArea15clearTouchListsEv@Base 6.2.0
 _ZN25QQuickMultiPointTouchArea15mousePressEventEP11QMouseEvent@Base 6.2.0
 _ZN25QQuickMultiPointTouchArea15setMouseEnabledEb@Base 6.2.0
 _ZN25QQuickMultiPointTouchArea15updatePaintNodeEP7QSGNodePN10QQuickItem19UpdatePaintNodeDataE@Base 6.2.0
 _ZN25QQuickMultiPointTouchArea15updateTouchDataEP6QEvent@Base 6.2.0
 _ZN25QQuickMultiPointTouchArea16mouseUngrabEventEv@Base 6.2.0
 _ZN25QQuickMultiPointTouchArea16staticMetaObjectE@Base 6.2.0
 _ZN25QQuickMultiPointTouchArea16touchUngrabEventEv@Base 6.2.0
 _ZN25QQuickMultiPointTouchArea16updateTouchPointEP16QQuickTouchPointPK11QEventPoint@Base 6.2.0
 _ZN25QQuickMultiPointTouchArea16updateTouchPointEP16QQuickTouchPointPK11QMouseEvent@Base 6.2.0
 _ZN25QQuickMultiPointTouchArea17addTouchPrototypeEP16QQuickTouchPoint@Base 6.2.0
 _ZN25QQuickMultiPointTouchArea17mouseReleaseEventEP11QMouseEvent@Base 6.2.0
 _ZN25QQuickMultiPointTouchArea19mouseEnabledChangedEv@Base 6.2.0
 _ZN25QQuickMultiPointTouchArea21childMouseEventFilterEP10QQuickItemP6QEvent@Base 6.2.0
 _ZN25QQuickMultiPointTouchArea21setMaximumTouchPointsEi@Base 6.2.0
 _ZN25QQuickMultiPointTouchArea21setMinimumTouchPointsEi@Base 6.2.0
 _ZN25QQuickMultiPointTouchArea25maximumTouchPointsChangedEv@Base 6.2.0
 _ZN25QQuickMultiPointTouchArea25minimumTouchPointsChangedEv@Base 6.2.0
 _ZN25QQuickMultiPointTouchArea6ungrabEb@Base 6.2.0
 _ZN25QQuickMultiPointTouchArea7pressedERK5QListIP7QObjectE@Base 6.2.0
 _ZN25QQuickMultiPointTouchArea7updatedERK5QListIP7QObjectE@Base 6.2.0
 _ZN25QQuickMultiPointTouchArea8canceledERK5QListIP7QObjectE@Base 6.2.0
 _ZN25QQuickMultiPointTouchArea8releasedERK5QListIP7QObjectE@Base 6.2.0
 _ZN25QQuickMultiPointTouchAreaC1EP10QQuickItem@Base 6.2.0
 _ZN25QQuickMultiPointTouchAreaC2EP10QQuickItem@Base 6.2.0
 _ZN25QQuickMultiPointTouchAreaD0Ev@Base 6.2.0
 _ZN25QQuickMultiPointTouchAreaD1Ev@Base 6.2.0
 _ZN25QQuickMultiPointTouchAreaD2Ev@Base 6.2.0
 _ZN25QQuickPathCatmullRomCurve11qt_metacallEN11QMetaObject4CallEiPPv@Base 6.2.0
 _ZN25QQuickPathCatmullRomCurve11qt_metacastEPKc@Base 6.2.0
 _ZN25QQuickPathCatmullRomCurve16staticMetaObjectE@Base 6.2.0
 _ZN25QQuickPathCatmullRomCurve9addToPathER12QPainterPathRK14QQuickPathData@Base 6.2.0
 _ZN25QQuickQuaternionValueType16staticMetaObjectE@Base 6.2.0
 _ZN25QQuickQuaternionValueType4setXEd@Base 6.2.0
 _ZN25QQuickQuaternionValueType4setYEd@Base 6.2.0
 _ZN25QQuickQuaternionValueType4setZEd@Base 6.2.0
 _ZN25QQuickQuaternionValueType6createERK8QJSValue@Base 6.2.0
 _ZN25QQuickQuaternionValueType9setScalarEd@Base 6.2.0
 _ZN25QQuickRenderTargetPrivate7resolveEP4QRhiP24QQuickWindowRenderTarget@Base 6.2.0
 _ZN25QQuickRenderTargetPrivateC1EPKS_@Base 6.2.0
 _ZN25QQuickRenderTargetPrivateC1Ev@Base 6.2.0
 _ZN25QQuickRenderTargetPrivateC2EPKS_@Base 6.2.0
 _ZN25QQuickRenderTargetPrivateC2Ev@Base 6.2.0
 _ZN25QQuickRotationAnimatorJob17updateCurrentTimeEi@Base 6.2.0
 _ZN25QQuickRotationAnimatorJob9writeBackEv@Base 6.2.0
 _ZN25QQuickRotationAnimatorJobC1Ev@Base 6.2.0
 _ZN25QQuickRotationAnimatorJobC2Ev@Base 6.2.0
 _ZN25QQuickSequentialAnimation10transitionER5QListI17QQuickStateActionERS0_I12QQmlPropertyEN23QQuickAbstractAnimation19TransitionDirectionEP7QObject@Base 6.2.0
 _ZN25QQuickSequentialAnimation11qt_metacallEN11QMetaObject4CallEiPPv@Base 6.2.0
 _ZN25QQuickSequentialAnimation11qt_metacastEPKc@Base 6.2.0
 _ZN25QQuickSequentialAnimation16staticMetaObjectE@Base 6.2.0
 _ZN25QQuickSequentialAnimationC1EP7QObject@Base 6.2.0
 _ZN25QQuickSequentialAnimationC2EP7QObject@Base 6.2.0
 _ZN25QQuickSequentialAnimationD0Ev@Base 6.2.0
 _ZN25QQuickSequentialAnimationD1Ev@Base 6.2.0
 _ZN25QQuickSequentialAnimationD2Ev@Base 6.2.0
 _ZN25QQuickWheelHandlerPrivateC1Ev@Base 6.2.0
 _ZN25QQuickWheelHandlerPrivateC2Ev@Base 6.2.0
 _ZN25QSGBasicInternalImageNode10preprocessEv@Base 6.2.0
 _ZN25QSGBasicInternalImageNode10setTextureEP10QSGTexture@Base 6.2.0
 _ZN25QSGBasicInternalImageNode13setTargetRectERK6QRectF@Base 6.2.0
 _ZN25QSGBasicInternalImageNode14updateGeometryERK6QRectFS2_S2_S2_S2_P11QSGGeometrybbb@Base 6.2.0
 _ZN25QSGBasicInternalImageNode14updateGeometryEv@Base 6.2.0
 _ZN25QSGBasicInternalImageNode15setAntialiasingEb@Base 6.2.0
 _ZN25QSGBasicInternalImageNode16setSubSourceRectERK6QRectF@Base 6.2.0
 _ZN25QSGBasicInternalImageNode18setInnerSourceRectERK6QRectF@Base 6.2.0
 _ZN25QSGBasicInternalImageNode18setInnerTargetRectERK6QRectF@Base 6.2.0
 _ZN25QSGBasicInternalImageNode6updateEv@Base 6.2.0
 _ZN25QSGBasicInternalImageNode9setMirrorEbb@Base 6.2.0
 _ZN25QSGBasicInternalImageNodeC1Ev@Base 6.2.0
 _ZN25QSGBasicInternalImageNodeC2Ev@Base 6.2.0
 _ZN25QSGSoftwareRenderableNode10renderNodeEP8QPainterb@Base 6.2.0
 _ZN25QSGSoftwareRenderableNode10setOpacityEf@Base 6.2.0
 _ZN25QSGSoftwareRenderableNode12setTransformERK10QTransform@Base 6.2.0
 _ZN25QSGSoftwareRenderableNode13setClipRegionERK7QRegionb@Base 6.2.0
 _ZN25QSGSoftwareRenderableNode14addDirtyRegionERK7QRegionb@Base 6.2.0
 _ZN25QSGSoftwareRenderableNode17markGeometryDirtyEv@Base 6.2.0
 _ZN25QSGSoftwareRenderableNode17markMaterialDirtyEv@Base 6.2.0
 _ZN25QSGSoftwareRenderableNode19subtractDirtyRegionERK7QRegion@Base 6.2.0
 _ZN25QSGSoftwareRenderableNode6updateEv@Base 6.2.0
 _ZN25QSGSoftwareRenderableNodeC1ENS_8NodeTypeEP7QSGNode@Base 6.2.0
 _ZN25QSGSoftwareRenderableNodeC2ENS_8NodeTypeEP7QSGNode@Base 6.2.0
 _ZN25QSGSoftwareRenderableNodeD1Ev@Base 6.2.0
 _ZN25QSGSoftwareRenderableNodeD2Ev@Base 6.2.0
 _ZN26QQuickDeliveryAgentPrivate10clearHoverEm@Base 6.2.0
 _ZN26QQuickDeliveryAgentPrivate11deviceExtraEPK12QInputDevice@Base 6.2.0
 _ZN26QQuickDeliveryAgentPrivate12isHoverEventEPK13QPointerEvent@Base 6.2.0
 _ZN26QQuickDeliveryAgentPrivate12isMouseEventEPK13QPointerEvent@Base 6.2.0
 _ZN26QQuickDeliveryAgentPrivate12isTouchEventEPK13QPointerEvent@Base 6.2.0
 _ZN26QQuickDeliveryAgentPrivate13isTabletEventEPK13QPointerEvent@Base 6.2.0
 _ZN26QQuickDeliveryAgentPrivate13onGrabChangedEP7QObjectN15QPointingDevice14GrabTransitionEPK13QPointerEventRK11QEventPoint@Base 6.2.0
 _ZN26QQuickDeliveryAgentPrivate13removeGrabberEP10QQuickItembbb@Base 6.2.0
 _ZN26QQuickDeliveryAgentPrivate14mousePointDataEv@Base 6.2.0
 _ZN26QQuickDeliveryAgentPrivate14sendHoverEventEN6QEvent4TypeEP10QQuickItemRK7QPointFS6_6QFlagsIN2Qt16KeyboardModifierEEm@Base 6.2.0
 _ZN26QQuickDeliveryAgentPrivate15anyPointGrabbedEPK13QPointerEvent@Base 6.2.0
 _ZN26QQuickDeliveryAgentPrivate15deliverKeyEventEP9QKeyEvent@Base 6.2.0
 _ZN26QQuickDeliveryAgentPrivate15setFocusInScopeEP10QQuickItemS1_N2Qt11FocusReasonE6QFlagsINS_11FocusOptionEE@Base 6.2.0
 _ZN26QQuickDeliveryAgentPrivate16clearFocusObjectEv@Base 6.2.0
 (subst)_ZN26QQuickDeliveryAgentPrivate16deliverDragEventEP17QQuickDragGrabberP10QQuickItemP14QDragMoveEventP15QVarLengthArrayIS3_L{qptrdiff}64EE@Base 6.2.0
 _ZN26QQuickDeliveryAgentPrivate16deliverDragEventEP17QQuickDragGrabberP6QEvent@Base 6.2.0
 _ZN26QQuickDeliveryAgentPrivate16handleMouseEventEP11QMouseEvent@Base 6.2.0
 _ZN26QQuickDeliveryAgentPrivate16handleTouchEventEP11QTouchEvent@Base 6.2.0
 _ZN26QQuickDeliveryAgentPrivate17clearFocusInScopeEP10QQuickItemS1_N2Qt11FocusReasonE6QFlagsINS_11FocusOptionEE@Base 6.2.0
 _ZN26QQuickDeliveryAgentPrivate17clonePointerEventEP13QPointerEventSt8optionalI7QPointFE@Base 6.2.0
 _ZN26QQuickDeliveryAgentPrivate17deliverHoverEventERK7QPointFS2_6QFlagsIN2Qt16KeyboardModifierEEm@Base 6.2.0
 _ZN26QQuickDeliveryAgentPrivate17dragOverThresholdE9QVector2D@Base 6.2.0
 _ZN26QQuickDeliveryAgentPrivate17dragOverThresholdEdN2Qt4AxisEP11QMouseEventi@Base 6.2.0
 _ZN26QQuickDeliveryAgentPrivate17dragOverThresholdEdN2Qt4AxisERK11QEventPointi@Base 6.2.0
 _ZN26QQuickDeliveryAgentPrivate17exclusiveGrabbersEP13QPointerEvent@Base 6.2.0
 _ZN26QQuickDeliveryAgentPrivate17touchToMouseEventEN6QEvent4TypeERK11QEventPointPK11QTouchEventP24QMutableSinglePointEvent@Base 6.2.0
 _ZN26QQuickDeliveryAgentPrivate18compressTouchEventEP11QTouchEvent@Base 6.2.0
 _ZN26QQuickDeliveryAgentPrivate19checkIfDoubleTappedEm6QPoint@Base 6.2.0
 _ZN26QQuickDeliveryAgentPrivate19deliverPointerEventEP13QPointerEvent@Base 6.2.0
 _ZN26QQuickDeliveryAgentPrivate19deliverTouchAsMouseEP10QQuickItemP11QTouchEvent@Base 6.2.0
 _ZN26QQuickDeliveryAgentPrivate19subsceneAgentsExistE@Base 6.2.0
 _ZN26QQuickDeliveryAgentPrivate19translateTouchEventEP11QTouchEvent@Base 6.2.0
 _ZN26QQuickDeliveryAgentPrivate20deliverUpdatedPointsEP13QPointerEvent@Base 6.2.0
 _ZN26QQuickDeliveryAgentPrivate20localizePointerEventEP13QPointerEventPK10QQuickItem@Base 6.2.0
 _ZN26QQuickDeliveryAgentPrivate21ensureDeviceConnectedEPK15QPointingDevice@Base 6.2.0
 _ZN26QQuickDeliveryAgentPrivate22handleWindowDeactivateEP12QQuickWindow@Base 6.2.0
 _ZN26QQuickDeliveryAgentPrivate22sendFilteredMouseEventEP6QEventP10QQuickItemS3_@Base 6.2.0
 _ZN26QQuickDeliveryAgentPrivate23deliverHoverEventToItemEP10QQuickItemRK7QPointFS4_6QFlagsIN2Qt16KeyboardModifierEEmb@Base 6.2.0
 _ZN26QQuickDeliveryAgentPrivate23deliverTouchCancelEventEP11QTouchEvent@Base 6.2.0
 _ZN26QQuickDeliveryAgentPrivate23notifyFocusChangesRecurEPP10QQuickItemi@Base 6.2.0
 _ZN26QQuickDeliveryAgentPrivate24allUpdatedPointsAcceptedEPK13QPointerEvent@Base 6.2.0
 _ZN26QQuickDeliveryAgentPrivate24deliverDelayedTouchEventEv@Base 6.2.0
 _ZN26QQuickDeliveryAgentPrivate24deliverToPassiveGrabbersERK5QListI8QPointerI7QObjectEEP13QPointerEvent@Base 6.2.0
 _ZN26QQuickDeliveryAgentPrivate24sendFilteredPointerEventEP13QPointerEventP10QQuickItemS3_@Base 6.2.0
 _ZN26QQuickDeliveryAgentPrivate24updateFocusItemTransformEv@Base 6.2.0
 _ZN26QQuickDeliveryAgentPrivate25cancelTouchMouseSynthesisEv@Base 6.2.0
 _ZN26QQuickDeliveryAgentPrivate25currentEventDeliveryAgentE@Base 6.2.0
 _ZN26QQuickDeliveryAgentPrivate26currentOrItemDeliveryAgentEPK10QQuickItem@Base 6.2.0
 _ZN26QQuickDeliveryAgentPrivate26deliverHoverEventRecursiveEP10QQuickItemRK7QPointFS4_6QFlagsIN2Qt16KeyboardModifierEEm@Base 6.2.0
 _ZN26QQuickDeliveryAgentPrivate26deliverPressOrReleaseEventEP13QPointerEventb@Base 6.2.0
 _ZN26QQuickDeliveryAgentPrivate27deliverMatchingPointsToItemEP10QQuickItembP13QPointerEventb@Base 6.2.0
 _ZN26QQuickDeliveryAgentPrivate27flushFrameSynchronousEventsEP12QQuickWindow@Base 6.2.0
 _ZN26QQuickDeliveryAgentPrivate28sendFilteredPointerEventImplEP13QPointerEventP10QQuickItemS3_@Base 6.2.0
 _ZN26QQuickDeliveryAgentPrivate36deliverSinglePointEventUntilAcceptedEP13QPointerEvent@Base 6.2.0
 _ZN26QQuickDeliveryAgentPrivateC1EP10QQuickItem@Base 6.2.0
 _ZN26QQuickDeliveryAgentPrivateC2EP10QQuickItem@Base 6.2.0
 _ZN26QQuickDeliveryAgentPrivateD0Ev@Base 6.2.0
 _ZN26QQuickDeliveryAgentPrivateD1Ev@Base 6.2.0
 _ZN26QQuickDeliveryAgentPrivateD2Ev@Base 6.2.0
 _ZN26QQuickDesignerSupportItems12tweakObjectsEP7QObject@Base 6.2.0
 _ZN26QQuickDesignerSupportItems15createComponentERK4QUrlP11QQmlContext@Base 6.2.0
 _ZN26QQuickDesignerSupportItems15createPrimitiveERK7QString13QTypeRevisionP11QQmlContext@Base 6.2.0
 _ZN26QQuickDesignerSupportItems16disableBehaivourEP7QObject@Base 6.2.0
 _ZN26QQuickDesignerSupportItems16objectWasDeletedEP7QObject@Base 6.2.0
 _ZN26QQuickDesignerSupportItems16stopUnifiedTimerEv@Base 6.2.0
 _ZN26QQuickDesignerSupportItems17disableTextCursorEP10QQuickItem@Base 6.2.0
 _ZN26QQuickDesignerSupportItems17disableTransitionEP7QObject@Base 6.2.0
 _ZN26QQuickDesignerSupportItems26disableNativeTextRenderingEP10QQuickItem@Base 6.2.0
 _ZN26QQuickDesignerSupportItems41registerFixResourcePathsForObjectCallBackEPFvP7QObjectE@Base 6.2.0
 _ZN26QQuickImageProviderOptions16setAutoTransformENS_13AutoTransformE@Base 6.2.0
 _ZN26QQuickImageProviderOptions19setTargetColorSpaceERK11QColorSpace@Base 6.2.0
 _ZN26QQuickImageProviderOptions25setPreserveAspectRatioFitEb@Base 6.2.0
 _ZN26QQuickImageProviderOptions26setPreserveAspectRatioCropEb@Base 6.2.0
 _ZN26QQuickImageProviderOptionsC1ERKS_@Base 6.2.0
 _ZN26QQuickImageProviderOptionsC1Ev@Base 6.2.0
 _ZN26QQuickImageProviderOptionsC2ERKS_@Base 6.2.0
 _ZN26QQuickImageProviderOptionsC2Ev@Base 6.2.0
 _ZN26QQuickImageProviderOptionsD1Ev@Base 6.2.0
 _ZN26QQuickImageProviderOptionsD2Ev@Base 6.2.0
 _ZN26QQuickImageProviderOptionsaSERKS_@Base 6.2.0
 _ZN26QQuickImageTextureProvider11qt_metacallEN11QMetaObject4CallEiPPv@Base 6.2.0
 _ZN26QQuickImageTextureProvider11qt_metacastEPKc@Base 6.2.0
 _ZN26QQuickImageTextureProvider13updateTextureEP10QSGTexture@Base 6.2.0
 _ZN26QQuickImageTextureProvider16staticMetaObjectE@Base 6.2.0
 _ZN26QQuickImageTextureProviderC1Ev@Base 6.2.0
 _ZN26QQuickImageTextureProviderC2Ev@Base 6.2.0
 _ZN26QQuickItemViewTransitioner16addToTargetListsENS_14TransitionTypeEP32QQuickItemViewTransitionableItemi@Base 6.2.0
 _ZN26QQuickItemViewTransitioner16resetTargetListsEv@Base 6.2.0
 _ZN26QQuickItemViewTransitioner18finishedTransitionEP27QQuickItemViewTransitionJobP32QQuickItemViewTransitionableItem@Base 6.2.0
 _ZN26QQuickItemViewTransitioner24transitionNextRepositionEP32QQuickItemViewTransitionableItemNS_14TransitionTypeEb@Base 6.2.0
 _ZN26QQuickItemViewTransitionerC1Ev@Base 6.2.0
 _ZN26QQuickItemViewTransitionerC2Ev@Base 6.2.0
 _ZN26QQuickItemViewTransitionerD0Ev@Base 6.2.0
 _ZN26QQuickItemViewTransitionerD1Ev@Base 6.2.0
 _ZN26QQuickItemViewTransitionerD2Ev@Base 6.2.0
 _ZN26QQuickPaletteColorProvider10resetColorEN8QPalette10ColorGroupENS0_9ColorRoleE@Base 6.2.0
 _ZN26QQuickPaletteColorProvider12fromQPaletteE8QPalette@Base 6.2.0
 _ZN26QQuickPaletteColorProvider14copyColorGroupEN8QPalette10ColorGroupERKS_@Base 6.2.0
 _ZN26QQuickPaletteColorProvider14inheritPaletteERK8QPalette@Base 6.2.0
 _ZN26QQuickPaletteColorProvider18setPaletteProviderEPK29QQuickAbstractPaletteProvider@Base 6.2.0
 _ZN26QQuickPaletteColorProvider5resetEv@Base 6.2.0
 _ZN26QQuickPaletteColorProvider8setColorEN8QPalette10ColorGroupENS0_9ColorRoleE6QColor@Base 6.2.0
 _ZN26QQuickPaletteColorProviderC1Ev@Base 6.2.0
 _ZN26QQuickPaletteColorProviderC2Ev@Base 6.2.0
 _ZN26QQuickPointerDeviceHandler11qt_metacallEN11QMetaObject4CallEiPPv@Base 6.2.0
 _ZN26QQuickPointerDeviceHandler11qt_metacastEPKc@Base 6.2.0
 _ZN26QQuickPointerDeviceHandler16staticMetaObjectE@Base 6.2.0
 _ZN26QQuickPointerDeviceHandler17wantsPointerEventEP13QPointerEvent@Base 6.2.0
 _ZN26QQuickPointerDeviceHandler18setAcceptedButtonsE6QFlagsIN2Qt11MouseButtonEE@Base 6.2.0
 _ZN26QQuickPointerDeviceHandler18setAcceptedDevicesE6QFlagsIN12QInputDevice10DeviceTypeEE@Base 6.2.0
 _ZN26QQuickPointerDeviceHandler20setAcceptedModifiersE6QFlagsIN2Qt16KeyboardModifierEE@Base 6.2.0
 _ZN26QQuickPointerDeviceHandler22acceptedButtonsChangedEv@Base 6.2.0
 _ZN26QQuickPointerDeviceHandler22acceptedDevicesChangedEv@Base 6.2.0
 _ZN26QQuickPointerDeviceHandler23setAcceptedPointerTypesE6QFlagsIN15QPointingDevice11PointerTypeEE@Base 6.2.0
 _ZN26QQuickPointerDeviceHandler24acceptedModifiersChangedEv@Base 6.2.0
 _ZN26QQuickPointerDeviceHandler27acceptedPointerTypesChangedEv@Base 6.2.0
 _ZN26QQuickPointerDeviceHandlerC1EP10QQuickItem@Base 6.2.0
 _ZN26QQuickPointerDeviceHandlerC1ER33QQuickPointerDeviceHandlerPrivateP10QQuickItem@Base 6.2.0
 _ZN26QQuickPointerDeviceHandlerC2EP10QQuickItem@Base 6.2.0
 _ZN26QQuickPointerDeviceHandlerC2ER33QQuickPointerDeviceHandlerPrivateP10QQuickItem@Base 6.2.0
 _ZN26QQuickRenderControlPrivate11maybeUpdateEv@Base 6.2.0
 _ZN26QQuickRenderControlPrivate15windowDestroyedEv@Base 6.2.0
 _ZN26QQuickRenderControlPrivate2sgE@Base 6.2.0
 _ZN26QQuickRenderControlPrivate4grabEv@Base 6.2.0
 _ZN26QQuickRenderControlPrivate6updateEv@Base 6.2.0
 _ZN26QQuickRenderControlPrivate7cleanupEv@Base 6.2.0
 _ZN26QQuickRenderControlPrivate7initRhiEv@Base 6.2.0
 _ZN26QQuickRenderControlPrivate8resetRhiEv@Base 6.2.0
 _ZN26QQuickRenderControlPrivateC1EP19QQuickRenderControl@Base 6.2.0
 _ZN26QQuickRenderControlPrivateC2EP19QQuickRenderControl@Base 6.2.0
 _ZN26QQuickWindowQmlImplPrivateC1Ev@Base 6.2.0
 _ZN26QQuickWindowQmlImplPrivateC2Ev@Base 6.2.0
 _ZN26QSGAbstractRendererPrivateC1Ev@Base 6.2.0
 _ZN26QSGAbstractRendererPrivateC2Ev@Base 6.2.0
 _ZN26QSGDistanceFieldGlyphCache12glyphMetricsEjd@Base 6.2.0
 _ZN26QSGDistanceFieldGlyphCache14s_emptyTextureE@Base 6.2.0
 _ZN26QSGDistanceFieldGlyphCache16setGlyphsTextureERK5QListIjERKNS_7TextureE@Base 6.2.0
 _ZN26QSGDistanceFieldGlyphCache16updateRhiTextureEP11QRhiTextureS1_RK5QSize@Base 6.2.0
 _ZN26QSGDistanceFieldGlyphCache17setGlyphsPositionERK5QListINS_13GlyphPositionEE@Base 6.2.0
 _ZN26QSGDistanceFieldGlyphCache18markGlyphsToRenderERK5QListIjE@Base 6.2.0
 _ZN26QSGDistanceFieldGlyphCache20processPendingGlyphsEv@Base 6.2.0
 _ZN26QSGDistanceFieldGlyphCache20registerOwnerElementEP10QQuickItem@Base 6.2.0
 _ZN26QSGDistanceFieldGlyphCache22unregisterOwnerElementEP10QQuickItem@Base 6.2.0
 _ZN26QSGDistanceFieldGlyphCache6updateEv@Base 6.2.0
 _ZN26QSGDistanceFieldGlyphCache7releaseERK5QListIjE@Base 6.2.0
 _ZN26QSGDistanceFieldGlyphCache8populateERK5QListIjE@Base 6.2.0
 _ZN26QSGDistanceFieldGlyphCache9emptyDataEj@Base 6.2.0
 _ZN26QSGDistanceFieldGlyphCache9glyphDataEj@Base 6.2.0
 _ZN26QSGDistanceFieldGlyphCacheC1ERK8QRawFonti@Base 6.2.0
 _ZN26QSGDistanceFieldGlyphCacheC2ERK8QRawFonti@Base 6.2.0
 _ZN26QSGDistanceFieldGlyphCacheD0Ev@Base 6.2.0
 _ZN26QSGDistanceFieldGlyphCacheD1Ev@Base 6.2.0
 _ZN26QSGDistanceFieldGlyphCacheD2Ev@Base 6.2.0
 _ZN27QQuickDesignerSupportStates13activateStateEP7QObjectP11QQmlContext@Base 6.2.0
 _ZN27QQuickDesignerSupportStates13isStateActiveEP7QObjectP11QQmlContext@Base 6.2.0
 _ZN27QQuickDesignerSupportStates15deactivateStateEP7QObject@Base 6.2.0
 _ZN27QQuickDesignerSupportStates18resetStatePropertyEP7QObjectS1_RK10QByteArrayRK8QVariant@Base 6.2.0
 _ZN27QQuickDesignerSupportStates18updateStateBindingEP7QObjectS1_RK10QByteArrayRK7QString@Base 6.2.0
 _ZN27QQuickDesignerSupportStates23changeValueInRevertListEP7QObjectS1_RK10QByteArrayRK8QVariant@Base 6.2.0
 _ZN27QQuickGraphicsConfiguration19setDepthBufferFor2DEb@Base 6.2.0
 _ZN27QQuickGraphicsConfiguration19setDeviceExtensionsERK5QListI10QByteArrayE@Base 6.2.0
 _ZN27QQuickGraphicsConfiguration27preferredInstanceExtensionsEv@Base 6.2.0
 _ZN27QQuickGraphicsConfiguration6detachEv@Base 6.2.0
 _ZN27QQuickGraphicsConfigurationC1ERKS_@Base 6.2.0
 _ZN27QQuickGraphicsConfigurationC1Ev@Base 6.2.0
 _ZN27QQuickGraphicsConfigurationC2ERKS_@Base 6.2.0
 _ZN27QQuickGraphicsConfigurationC2Ev@Base 6.2.0
 _ZN27QQuickGraphicsConfigurationD1Ev@Base 6.2.0
 _ZN27QQuickGraphicsConfigurationD2Ev@Base 6.2.0
 _ZN27QQuickGraphicsConfigurationaSERKS_@Base 6.2.0
 _ZN27QQuickGraphicsDevicePrivateC1EPKS_@Base 6.2.0
 _ZN27QQuickGraphicsDevicePrivateC1Ev@Base 6.2.0
 _ZN27QQuickGraphicsDevicePrivateC2EPKS_@Base 6.2.0
 _ZN27QQuickGraphicsDevicePrivateC2Ev@Base 6.2.0
 _ZN27QQuickKeyNavigationAttached10keyPressedEP9QKeyEventb@Base 6.2.0
 _ZN27QQuickKeyNavigationAttached10setBacktabEP10QQuickItem@Base 6.2.0
 _ZN27QQuickKeyNavigationAttached10tabChangedEv@Base 6.2.0
 _ZN27QQuickKeyNavigationAttached11downChangedEv@Base 6.2.0
 _ZN27QQuickKeyNavigationAttached11keyReleasedEP9QKeyEventb@Base 6.2.0
 _ZN27QQuickKeyNavigationAttached11leftChangedEv@Base 6.2.0
 _ZN27QQuickKeyNavigationAttached11qt_metacallEN11QMetaObject4CallEiPPv@Base 6.2.0
 _ZN27QQuickKeyNavigationAttached11qt_metacastEPKc@Base 6.2.0
 _ZN27QQuickKeyNavigationAttached11setPriorityENS_8PriorityE@Base 6.2.0
 _ZN27QQuickKeyNavigationAttached12rightChangedEv@Base 6.2.0
 _ZN27QQuickKeyNavigationAttached14backtabChangedEv@Base 6.2.0
 _ZN27QQuickKeyNavigationAttached15priorityChangedEv@Base 6.2.0
 _ZN27QQuickKeyNavigationAttached16staticMetaObjectE@Base 6.2.0
 _ZN27QQuickKeyNavigationAttached18setFocusNavigationEP10QQuickItemPKcN2Qt11FocusReasonE@Base 6.2.0
 _ZN27QQuickKeyNavigationAttached21qmlAttachedPropertiesEP7QObject@Base 6.2.0
 _ZN27QQuickKeyNavigationAttached5setUpEP10QQuickItem@Base 6.2.0
 _ZN27QQuickKeyNavigationAttached6setTabEP10QQuickItem@Base 6.2.0
 _ZN27QQuickKeyNavigationAttached7setDownEP10QQuickItem@Base 6.2.0
 _ZN27QQuickKeyNavigationAttached7setLeftEP10QQuickItem@Base 6.2.0
 _ZN27QQuickKeyNavigationAttached8setRightEP10QQuickItem@Base 6.2.0
 _ZN27QQuickKeyNavigationAttached9upChangedEv@Base 6.2.0
 _ZN27QQuickKeyNavigationAttachedC1EP7QObject@Base 6.2.0
 _ZN27QQuickKeyNavigationAttachedC2EP7QObject@Base 6.2.0
 _ZN27QQuickPointerHandlerPrivate21deviceDeliveryTargetsEPK12QInputDevice@Base 6.2.0
 _ZN27QQuickPointerHandlerPrivateC1Ev@Base 6.2.0
 _ZN27QQuickPointerHandlerPrivateC2Ev@Base 6.2.0
 _ZN27QSGAbstractSoftwareRenderer11nodeChangedEP7QSGNode6QFlagsINS0_13DirtyStateBitEE@Base 6.2.0
 _ZN27QSGAbstractSoftwareRenderer11nodeRemovedEP7QSGNode@Base 6.2.0
 _ZN27QSGAbstractSoftwareRenderer11renderNodesEP8QPainter@Base 6.2.0
 _ZN27QSGAbstractSoftwareRenderer14addNodeMappingEP7QSGNodeP25QSGSoftwareRenderableNode@Base 6.2.0
 _ZN27QSGAbstractSoftwareRenderer14backgroundRectEv@Base 6.2.0
 _ZN27QSGAbstractSoftwareRenderer15backgroundColorEv@Base 6.2.0
 _ZN27QSGAbstractSoftwareRenderer15buildRenderListEv@Base 6.2.0
 _ZN27QSGAbstractSoftwareRenderer17nodeMatrixUpdatedEP7QSGNode@Base 6.2.0
 _ZN27QSGAbstractSoftwareRenderer17setBackgroundRectERK5QRectd@Base 6.2.0
 _ZN27QSGAbstractSoftwareRenderer18nodeOpacityUpdatedEP7QSGNode@Base 6.2.0
 _ZN27QSGAbstractSoftwareRenderer18optimizeRenderListEv@Base 6.2.0
 _ZN27QSGAbstractSoftwareRenderer18setBackgroundColorERK6QColor@Base 6.2.0
 _ZN27QSGAbstractSoftwareRenderer19nodeGeometryUpdatedEP7QSGNode@Base 6.2.0
 _ZN27QSGAbstractSoftwareRenderer19nodeMaterialUpdatedEP7QSGNode@Base 6.2.0
 _ZN27QSGAbstractSoftwareRenderer20appendRenderableNodeEP25QSGSoftwareRenderableNode@Base 6.2.0
 _ZN27QSGAbstractSoftwareRenderer9markDirtyEv@Base 6.2.0
 _ZN27QSGAbstractSoftwareRenderer9nodeAddedEP7QSGNode@Base 6.2.0
 _ZN27QSGAbstractSoftwareRendererC1EP16QSGRenderContext@Base 6.2.0
 _ZN27QSGAbstractSoftwareRendererC2EP16QSGRenderContext@Base 6.2.0
 _ZN27QSGAbstractSoftwareRendererD0Ev@Base 6.2.0
 _ZN27QSGAbstractSoftwareRendererD1Ev@Base 6.2.0
 _ZN27QSGAbstractSoftwareRendererD2Ev@Base 6.2.0
 _ZN27QSGCompressedTextureFactoryC1ERK16QTextureFileData@Base 6.2.0
 _ZN27QSGCompressedTextureFactoryC2ERK16QTextureFileData@Base 6.2.0
 _ZN27QSGDefaultInternalImageNode12setFilteringEN10QSGTexture9FilteringE@Base 6.2.0
 _ZN27QSGDefaultInternalImageNode18setMaterialTextureEP10QSGTexture@Base 6.2.0
 _ZN27QSGDefaultInternalImageNode18setMipmapFilteringEN10QSGTexture9FilteringE@Base 6.2.0
 _ZN27QSGDefaultInternalImageNode19setVerticalWrapModeEN10QSGTexture8WrapModeE@Base 6.2.0
 _ZN27QSGDefaultInternalImageNode21setHorizontalWrapModeEN10QSGTexture8WrapModeE@Base 6.2.0
 _ZN27QSGDefaultInternalImageNode22updateMaterialBlendingEv@Base 6.2.0
 _ZN27QSGDefaultInternalImageNode26updateMaterialAntialiasingEv@Base 6.2.0
 _ZN27QSGDefaultInternalImageNodeC1EP23QSGDefaultRenderContext@Base 6.2.0
 _ZN27QSGDefaultInternalImageNodeC2EP23QSGDefaultRenderContext@Base 6.2.0
 _ZN28QSGDistanceFieldTextMaterial17updateTextureSizeEv@Base 6.2.0
 _ZN28QSGDistanceFieldTextMaterial27updateTextureSizeAndWrapperEv@Base 6.2.0
 _ZN28QSGDistanceFieldTextMaterial8setColorERK6QColor@Base 6.2.0
 _ZN28QSGDistanceFieldTextMaterialC1Ev@Base 6.2.0
 _ZN28QSGDistanceFieldTextMaterialC2Ev@Base 6.2.0
 _ZN28QSGDistanceFieldTextMaterialD0Ev@Base 6.2.0
 _ZN28QSGDistanceFieldTextMaterialD1Ev@Base 6.2.0
 _ZN28QSGDistanceFieldTextMaterialD2Ev@Base 6.2.0
 _ZN29QQuickDesignerSupportMetaInfo12isSubclassOfEP7QObjectRK10QByteArray@Base 6.2.0
 _ZN29QQuickDesignerSupportMetaInfo20registerMockupObjectEPKciiS1_@Base 6.2.0
 _ZN29QQuickDesignerSupportMetaInfo36registerNotifyPropertyChangeCallBackEPFvP7QObjectRK10QByteArrayE@Base 6.2.0
 _ZN29QSGBasicInternalRectangleNode10setAlignedEb@Base 6.2.0
 _ZN29QSGBasicInternalRectangleNode11setPenColorERK6QColor@Base 6.2.0
 _ZN29QSGBasicInternalRectangleNode11setPenWidthEd@Base 6.2.0
 _ZN29QSGBasicInternalRectangleNode14updateGeometryEv@Base 6.2.0
 _ZN29QSGBasicInternalRectangleNode15setAntialiasingEb@Base 6.2.0
 _ZN29QSGBasicInternalRectangleNode16setGradientStopsERK5QListISt4pairId6QColorEE@Base 6.2.0
 _ZN29QSGBasicInternalRectangleNode19setGradientVerticalEb@Base 6.2.0
 _ZN29QSGBasicInternalRectangleNode6updateEv@Base 6.2.0
 _ZN29QSGBasicInternalRectangleNode7setRectERK6QRectF@Base 6.2.0
 _ZN29QSGBasicInternalRectangleNode8setColorERK6QColor@Base 6.2.0
 _ZN29QSGBasicInternalRectangleNode9setRadiusEd@Base 6.2.0
 _ZN29QSGBasicInternalRectangleNodeC1Ev@Base 6.2.0
 _ZN29QSGBasicInternalRectangleNodeC2Ev@Base 6.2.0
 _ZN29QSGRhiDistanceFieldGlyphCache11storeGlyphsERK5QListI14QDistanceFieldE@Base 6.2.0
 _ZN29QSGRhiDistanceFieldGlyphCache13createTextureEPNS_11TextureInfoEii@Base 6.2.0
 _ZN29QSGRhiDistanceFieldGlyphCache13createTextureEPNS_11TextureInfoEiiPKv@Base 6.2.0
 _ZN29QSGRhiDistanceFieldGlyphCache13releaseGlyphsERK4QSetIjE@Base 6.2.0
 _ZN29QSGRhiDistanceFieldGlyphCache13requestGlyphsERK4QSetIjE@Base 6.2.0
 _ZN29QSGRhiDistanceFieldGlyphCache13resizeTextureEPNS_11TextureInfoEii@Base 6.2.0
 _ZN29QSGRhiDistanceFieldGlyphCache15referenceGlyphsERK4QSetIjE@Base 6.2.0
 _ZN29QSGRhiDistanceFieldGlyphCache21commitResourceUpdatesEP23QRhiResourceUpdateBatch@Base 6.2.0
 _ZN29QSGRhiDistanceFieldGlyphCache21loadPregeneratedCacheERK8QRawFont@Base 6.2.0
 _ZN29QSGRhiDistanceFieldGlyphCacheC1EP4QRhiRK8QRawFonti@Base 6.2.0
 _ZN29QSGRhiDistanceFieldGlyphCacheC2EP4QRhiRK8QRawFonti@Base 6.2.0
 _ZN29QSGRhiDistanceFieldGlyphCacheD0Ev@Base 6.2.0
 _ZN29QSGRhiDistanceFieldGlyphCacheD1Ev@Base 6.2.0
 _ZN29QSGRhiDistanceFieldGlyphCacheD2Ev@Base 6.2.0
 _ZN30QQuickAbstractAnimationPrivate14createPropertyEP7QObjectRK7QStringS1_PS2_@Base 6.2.0
 _ZN30QQuickAbstractAnimationPrivate17animationFinishedEP21QAbstractAnimationJob@Base 6.2.0
 _ZN30QQuickAbstractAnimationPrivate8commenceEv@Base 6.2.0
 _ZN30QQuickImageProviderWithOptions11checkedCastEP19QQuickImageProvider@Base 6.2.0
 _ZN30QQuickImageProviderWithOptions12requestImageERK7QStringP5QSizeRKS3_@Base 6.2.0
 _ZN30QQuickImageProviderWithOptions12requestImageERK7QStringP5QSizeRKS3_RK26QQuickImageProviderOptions@Base 6.2.0
 _ZN30QQuickImageProviderWithOptions13requestPixmapERK7QStringP5QSizeRKS3_@Base 6.2.0
 _ZN30QQuickImageProviderWithOptions13requestPixmapERK7QStringP5QSizeRKS3_RK26QQuickImageProviderOptions@Base 6.2.0
 _ZN30QQuickImageProviderWithOptions14requestTextureERK7QStringP5QSizeRKS3_@Base 6.2.0
 _ZN30QQuickImageProviderWithOptions14requestTextureERK7QStringP5QSizeRKS3_RK26QQuickImageProviderOptions@Base 6.2.0
 _ZN30QQuickImageProviderWithOptions20requestImageResponseERK7QStringRK5QSize@Base 6.2.0
 _ZN30QQuickImageProviderWithOptions20requestImageResponseERK7QStringRK5QSizeRK26QQuickImageProviderOptions@Base 6.2.0
 _ZN30QQuickImageProviderWithOptions8loadSizeERK5QSizeS2_RK10QByteArrayRK26QQuickImageProviderOptions@Base 6.2.0
 _ZN30QQuickImageProviderWithOptionsC1EN21QQmlImageProviderBase9ImageTypeE6QFlagsINS0_4FlagEE@Base 6.2.0
 _ZN30QQuickImageProviderWithOptionsC2EN21QQmlImageProviderBase9ImageTypeE6QFlagsINS0_4FlagEE@Base 6.2.0
 _ZN30QQuickMultiPointHandlerPrivateC1Eii@Base 6.2.0
 _ZN30QQuickMultiPointHandlerPrivateC2Eii@Base 6.2.0
 _ZN30QQuickTableSectionSizeProvider11qt_metacallEN11QMetaObject4CallEiPPv@Base 6.2.0
 _ZN30QQuickTableSectionSizeProvider11qt_metacastEPKc@Base 6.2.0
 _ZN30QQuickTableSectionSizeProvider11sizeChangedEv@Base 6.2.0
 _ZN30QQuickTableSectionSizeProvider16staticMetaObjectE@Base 6.2.0
 _ZN30QQuickTableSectionSizeProvider4sizeEi@Base 6.2.0
 _ZN30QQuickTableSectionSizeProvider7setSizeEid@Base 6.2.0
 _ZN30QQuickTableSectionSizeProvider8resetAllEv@Base 6.2.0
 _ZN30QQuickTableSectionSizeProvider9resetSizeEi@Base 6.2.0
 _ZN30QQuickTableSectionSizeProviderC1EP7QObject@Base 6.2.0
 _ZN30QQuickTableSectionSizeProviderC2EP7QObject@Base 6.2.0
 _ZN31QQuickDesignerSupportProperties13getResetValueEP7QObjectRK10QByteArray@Base 6.2.0
 _ZN31QQuickDesignerSupportProperties15doResetPropertyEP7QObjectP11QQmlContextRK10QByteArray@Base 6.2.0
 _ZN31QQuickDesignerSupportProperties16allPropertyNamesEP7QObjectRK10QByteArrayP5QListIS1_Ei@Base 6.2.0
 _ZN31QQuickDesignerSupportProperties16getPropertyCacheEP7QObjectP10QQmlEngine@Base 6.2.0
 _ZN31QQuickDesignerSupportProperties17isPropertyQObjectERK13QMetaProperty@Base 6.2.0
 _ZN31QQuickDesignerSupportProperties18registerCustomDataEP7QObject@Base 6.2.0
 _ZN31QQuickDesignerSupportProperties18setPropertyBindingEP7QObjectP11QQmlContextRK10QByteArrayRK7QString@Base 6.2.0
 _ZN31QQuickDesignerSupportProperties19readQObjectPropertyERK13QMetaPropertyP7QObject@Base 6.2.0
 _ZN31QQuickDesignerSupportProperties20hasValidResetBindingEP7QObjectRK10QByteArray@Base 6.2.0
 _ZN31QQuickDesignerSupportProperties21hasBindingForPropertyEP7QObjectP11QQmlContextRK10QByteArrayPb@Base 6.2.0
 _ZN31QQuickDesignerSupportProperties21isPropertyBlackListedERK10QByteArray@Base 6.2.0
 _ZN31QQuickDesignerSupportProperties24createNewDynamicPropertyEP7QObjectP10QQmlEngineRK7QString@Base 6.2.0
 _ZN31QQuickDesignerSupportProperties29keepBindingFromGettingDeletedEP7QObjectP11QQmlContextRK10QByteArray@Base 6.2.0
 _ZN31QQuickDesignerSupportProperties30registerNodeInstanceMetaObjectEP7QObjectP10QQmlEngine@Base 6.2.0
 _ZN31QQuickDesignerSupportProperties31hasFullImplementedListInterfaceERK17QQmlListReference@Base 6.2.0
 _ZN31QQuickDesignerSupportProperties37propertyNameListForWritablePropertiesEP7QObject@Base 6.2.0
 _ZN31QQuickSinglePointHandlerPrivate5resetEv@Base 6.2.0
 _ZN31QQuickSinglePointHandlerPrivateC1Ev@Base 6.2.0
 _ZN31QQuickSinglePointHandlerPrivateC2Ev@Base 6.2.0
 _ZN31QSGDefaultInternalRectangleNode22updateMaterialBlendingEP6QFlagsIN7QSGNode13DirtyStateBitEE@Base 6.2.0
 _ZN31QSGDefaultInternalRectangleNode26updateMaterialAntialiasingEv@Base 6.2.0
 _ZN31QSGDefaultInternalRectangleNodeC1Ev@Base 6.2.0
 _ZN31QSGDefaultInternalRectangleNodeC2Ev@Base 6.2.0
 _ZN31QSGGuiThreadShaderEffectManager11qt_metacallEN11QMetaObject4CallEiPPv@Base 6.2.0
 _ZN31QSGGuiThreadShaderEffectManager11qt_metacastEPKc@Base 6.2.0
 _ZN31QSGGuiThreadShaderEffectManager16staticMetaObjectE@Base 6.2.0
 _ZN31QSGGuiThreadShaderEffectManager18shaderCodePreparedEbNS_10ShaderInfo4TypeERK4QUrlPS0_@Base 6.2.0
 _ZN31QSGGuiThreadShaderEffectManager19logAndStatusChangedEv@Base 6.2.0
 _ZN32QQuickItemViewTransitionableItem14stopTransitionEv@Base 6.2.0
 _ZN32QQuickItemViewTransitionableItem15startTransitionEP26QQuickItemViewTransitioneri@Base 6.2.0
 _ZN32QQuickItemViewTransitionableItem17prepareTransitionEP26QQuickItemViewTransitioneriRK6QRectF@Base 6.2.0
 _ZN32QQuickItemViewTransitionableItem17setNextTransitionEN26QQuickItemViewTransitioner14TransitionTypeEb@Base 6.2.0
 _ZN32QQuickItemViewTransitionableItem18completeTransitionEP16QQuickTransition@Base 6.2.2
 _ZN32QQuickItemViewTransitionableItem18finishedTransitionEv@Base 6.2.0
 _ZN32QQuickItemViewTransitionableItem22resetNextTransitionPosEv@Base 6.2.0
 _ZN32QQuickItemViewTransitionableItem31clearCurrentScheduledTransitionEv@Base 6.2.0
 _ZN32QQuickItemViewTransitionableItem6moveToERK7QPointFb@Base 6.2.0
 _ZN32QQuickItemViewTransitionableItemC1EP10QQuickItem@Base 6.2.0
 _ZN32QQuickItemViewTransitionableItemC2EP10QQuickItem@Base 6.2.0
 _ZN32QQuickItemViewTransitionableItemD0Ev@Base 6.2.0
 _ZN32QQuickItemViewTransitionableItemD1Ev@Base 6.2.0
 _ZN32QQuickItemViewTransitionableItemD2Ev@Base 6.2.0
 _ZN33QSGOpaqueTextureMaterialRhiShader17updateUniformDataERN17QSGMaterialShader11RenderStateEP11QSGMaterialS4_@Base 6.2.0
 _ZN33QSGOpaqueTextureMaterialRhiShader18updateSampledImageERN17QSGMaterialShader11RenderStateEiPP10QSGTextureP11QSGMaterialS7_@Base 6.2.0
 _ZN33QSGOpaqueTextureMaterialRhiShaderC1Ev@Base 6.2.0
 _ZN33QSGOpaqueTextureMaterialRhiShaderC2Ev@Base 6.2.0
 _ZN34QQuickGraphicsConfigurationPrivateC1EPKS_@Base 6.2.0
 _ZN34QQuickGraphicsConfigurationPrivateC1Ev@Base 6.2.0
 _ZN34QQuickGraphicsConfigurationPrivateC2EPKS_@Base 6.2.0
 _ZN34QQuickGraphicsConfigurationPrivateC2Ev@Base 6.2.0
 _ZN34QSGDistanceFieldStyledTextMaterial13setStyleColorERK6QColor@Base 6.2.0
 _ZN34QSGDistanceFieldStyledTextMaterialC1Ev@Base 6.2.0
 _ZN34QSGDistanceFieldStyledTextMaterialC2Ev@Base 6.2.0
 _ZN34QSGDistanceFieldStyledTextMaterialD0Ev@Base 6.2.0
 _ZN34QSGDistanceFieldStyledTextMaterialD1Ev@Base 6.2.0
 _ZN34QSGDistanceFieldStyledTextMaterialD2Ev@Base 6.2.0
 _ZN35QSGDistanceFieldOutlineTextMaterialC1Ev@Base 6.2.0
 _ZN35QSGDistanceFieldOutlineTextMaterialC2Ev@Base 6.2.0
 _ZN35QSGDistanceFieldOutlineTextMaterialD0Ev@Base 6.2.0
 _ZN35QSGDistanceFieldOutlineTextMaterialD1Ev@Base 6.2.0
 _ZN35QSGDistanceFieldOutlineTextMaterialD2Ev@Base 6.2.0
 _ZN36QQuickDesignerSupportPropertyChanges11changeValueEP7QObjectRK10QByteArrayRK8QVariant@Base 6.2.0
 _ZN36QQuickDesignerSupportPropertyChanges11getPropertyEP7QObjectRK10QByteArray@Base 6.2.0
 _ZN36QQuickDesignerSupportPropertyChanges11stateObjectEP7QObject@Base 6.2.0
 _ZN36QQuickDesignerSupportPropertyChanges12targetObjectEP7QObject@Base 6.2.0
 _ZN36QQuickDesignerSupportPropertyChanges13attachToStateEP7QObject@Base 6.2.0
 _ZN36QQuickDesignerSupportPropertyChanges14removePropertyEP7QObjectRK10QByteArray@Base 6.2.0
 _ZN36QQuickDesignerSupportPropertyChanges15detachFromStateEP7QObject@Base 6.2.0
 _ZN36QQuickDesignerSupportPropertyChanges16changeExpressionEP7QObjectRK10QByteArrayRK7QString@Base 6.2.0
 _ZN36QQuickDesignerSupportPropertyChanges16isNormalPropertyERK10QByteArray@Base 6.2.0
 _ZN40QSGDistanceFieldShiftedStyleTextMaterialC1Ev@Base 6.2.0
 _ZN40QSGDistanceFieldShiftedStyleTextMaterialC2Ev@Base 6.2.0
 _ZN40QSGDistanceFieldShiftedStyleTextMaterialD0Ev@Base 6.2.0
 _ZN40QSGDistanceFieldShiftedStyleTextMaterialD1Ev@Base 6.2.0
 _ZN40QSGDistanceFieldShiftedStyleTextMaterialD2Ev@Base 6.2.0
 _ZN7QSGNode15appendChildNodeEPS_@Base 6.2.0
 _ZN7QSGNode15removeChildNodeEPS_@Base 6.2.0
 _ZN7QSGNode16prependChildNodeEPS_@Base 6.2.0
 _ZN7QSGNode19removeAllChildNodesEv@Base 6.2.0
 _ZN7QSGNode20insertChildNodeAfterEPS_S0_@Base 6.2.0
 _ZN7QSGNode20reparentChildNodesToEPS_@Base 6.2.0
 _ZN7QSGNode21insertChildNodeBeforeEPS_S0_@Base 6.2.0
 _ZN7QSGNode4initEv@Base 6.2.0
 _ZN7QSGNode7destroyEv@Base 6.2.0
 _ZN7QSGNode7setFlagENS_4FlagEb@Base 6.2.0
 _ZN7QSGNode8setFlagsE6QFlagsINS_4FlagEEb@Base 6.2.0
 _ZN7QSGNode9markDirtyE6QFlagsINS_13DirtyStateBitEE@Base 6.2.0
 _ZN7QSGNodeC1ENS_8NodeTypeE@Base 6.2.0
 _ZN7QSGNodeC1ER14QSGNodePrivateNS_8NodeTypeE@Base 6.2.0
 _ZN7QSGNodeC1Ev@Base 6.2.0
 _ZN7QSGNodeC2ENS_8NodeTypeE@Base 6.2.0
 _ZN7QSGNodeC2ER14QSGNodePrivateNS_8NodeTypeE@Base 6.2.0
 _ZN7QSGNodeC2Ev@Base 6.2.0
 _ZN7QSGNodeD0Ev@Base 6.2.0
 _ZN7QSGNodeD1Ev@Base 6.2.0
 _ZN7QSGNodeD2Ev@Base 6.2.0
 _ZN8QSGLayer11qt_metacallEN11QMetaObject4CallEiPPv@Base 6.2.0
 _ZN8QSGLayer11qt_metacastEPKc@Base 6.2.0
 _ZN8QSGLayer15updateRequestedEv@Base 6.2.0
 _ZN8QSGLayer16staticMetaObjectE@Base 6.2.0
 _ZN8QSGLayer24scheduledUpdateCompletedEv@Base 6.2.0
 _ZN8QSGLayerC1ER17QSGTexturePrivate@Base 6.2.0
 _ZN8QSGLayerC2ER17QSGTexturePrivate@Base 6.2.0
 _ZN9QQuickPen11qt_metacallEN11QMetaObject4CallEiPPv@Base 6.2.0
 _ZN9QQuickPen11qt_metacastEPKc@Base 6.2.0
 _ZN9QQuickPen12colorChangedEv@Base 6.2.0
 _ZN9QQuickPen12widthChangedEv@Base 6.2.0
 _ZN9QQuickPen15setPixelAlignedEb@Base 6.2.0
 _ZN9QQuickPen16staticMetaObjectE@Base 6.2.0
 _ZN9QQuickPen19pixelAlignedChangedEv@Base 6.2.0
 _ZN9QQuickPen8setColorERK6QColor@Base 6.2.0
 _ZN9QQuickPen8setWidthEd@Base 6.2.0
 _ZN9QQuickPenC1EP7QObject@Base 6.2.0
 _ZN9QQuickPenC2EP7QObject@Base 6.2.0
 _ZN9QQuickRow11qt_metacallEN11QMetaObject4CallEiPPv@Base 6.2.0
 _ZN9QQuickRow11qt_metacastEPKc@Base 6.2.0
 _ZN9QQuickRow13doPositioningEP6QSizeF@Base 6.2.0
 _ZN9QQuickRow16staticMetaObjectE@Base 6.2.0
 _ZN9QQuickRow18setLayoutDirectionEN2Qt15LayoutDirectionE@Base 6.2.0
 _ZN9QQuickRow22layoutDirectionChangedEv@Base 6.2.0
 _ZN9QQuickRow24reportConflictingAnchorsEv@Base 6.2.0
 _ZN9QQuickRow31effectiveLayoutDirectionChangedEv@Base 6.2.0
 _ZN9QQuickRowC1EP10QQuickItem@Base 6.2.0
 _ZN9QQuickRowC2EP10QQuickItem@Base 6.2.0
 _ZNK10QQuickDrag10metaObjectEv@Base 6.2.0
 _ZNK10QQuickDrag14filterChildrenEv@Base 6.2.0
 _ZNK10QQuickDrag4axisEv@Base 6.2.0
 _ZNK10QQuickDrag4xmaxEv@Base 6.2.0
 _ZNK10QQuickDrag4xminEv@Base 6.2.0
 _ZNK10QQuickDrag4ymaxEv@Base 6.2.0
 _ZNK10QQuickDrag4yminEv@Base 6.2.0
 _ZNK10QQuickDrag6activeEv@Base 6.2.0
 _ZNK10QQuickDrag6targetEv@Base 6.2.0
 _ZNK10QQuickDrag8smoothedEv@Base 6.2.0
 _ZNK10QQuickDrag9thresholdEv@Base 6.2.0
 _ZNK10QQuickFlow10metaObjectEv@Base 6.2.0
 _ZNK10QQuickFlow15layoutDirectionEv@Base 6.2.0
 _ZNK10QQuickFlow24effectiveLayoutDirectionEv@Base 6.2.0
 _ZNK10QQuickFlow4flowEv@Base 6.2.0
 _ZNK10QQuickGrid10hItemAlignEv@Base 6.2.0
 _ZNK10QQuickGrid10metaObjectEv@Base 6.2.0
 _ZNK10QQuickGrid10vItemAlignEv@Base 6.2.0
 _ZNK10QQuickGrid15effectiveHAlignEv@Base 6.2.0
 _ZNK10QQuickGrid15layoutDirectionEv@Base 6.2.0
 _ZNK10QQuickGrid24effectiveLayoutDirectionEv@Base 6.2.0
 _ZNK10QQuickGrid4flowEv@Base 6.2.0
 _ZNK10QQuickItem10childItemsEv@Base 6.2.0
 _ZNK10QQuickItem10mapToSceneERK7QPointF@Base 6.2.0
 _ZNK10QQuickItem10metaObjectEv@Base 6.2.0
 _ZNK10QQuickItem10parentItemEv@Base 6.2.0
 _ZNK10QQuickItem10widthValidEv@Base 6.2.0
 _ZNK10QQuickItem11heightValidEv@Base 6.2.0
 _ZNK10QQuickItem11mapFromItemEP14QQmlV4Function@Base 6.2.0
 _ZNK10QQuickItem11mapFromItemEPKS_RK7QPointF@Base 6.2.0
 _ZNK10QQuickItem11mapToGlobalEP14QQmlV4Function@Base 6.2.0
 _ZNK10QQuickItem11mapToGlobalERK7QPointF@Base 6.2.0
 _ZNK10QQuickItem12antialiasingEv@Base 6.2.0
 _ZNK10QQuickItem12boundingRectEv@Base 6.2.0
 _ZNK10QQuickItem12isAncestorOfEPKS_@Base 6.2.0
 _ZNK10QQuickItem12isFocusScopeEv@Base 6.2.0
 _ZNK10QQuickItem12isUnderMouseEv@Base 6.2.0
 _ZNK10QQuickItem12mapFromSceneERK7QPointF@Base 6.2.0
 _ZNK10QQuickItem13implicitWidthEv@Base 6.2.0
 _ZNK10QQuickItem13itemTransformEPS_Pb@Base 6.2.0
 _ZNK10QQuickItem13keepMouseGrabEv@Base 6.2.0
 _ZNK10QQuickItem13keepTouchGrabEv@Base 6.2.0
 _ZNK10QQuickItem13mapFromGlobalEP14QQmlV4Function@Base 6.2.0
 _ZNK10QQuickItem13mapFromGlobalERK7QPointF@Base 6.2.0
 _ZNK10QQuickItem13mapRectToItemEPKS_RK6QRectF@Base 6.2.0
 _ZNK10QQuickItem14baselineOffsetEv@Base 6.2.0
 _ZNK10QQuickItem14hasActiveFocusEv@Base 6.2.0
 _ZNK10QQuickItem14implicitHeightEv@Base 6.2.0
 _ZNK10QQuickItem14mapRectToSceneERK6QRectF@Base 6.2.0
 _ZNK10QQuickItem15containmentMaskEv@Base 6.2.0
 _ZNK10QQuickItem15mapRectFromItemEPKS_RK6QRectF@Base 6.2.0
 _ZNK10QQuickItem15scopedFocusItemEv@Base 6.2.0
 _ZNK10QQuickItem15textureProviderEv@Base 6.2.0
 _ZNK10QQuickItem15transformOriginEv@Base 6.2.0
 _ZNK10QQuickItem16activeFocusOnTabEv@Base 6.2.0
 _ZNK10QQuickItem16inputMethodQueryEN2Qt16InputMethodQueryE@Base 6.2.0
 _ZNK10QQuickItem16mapRectFromSceneERK6QRectF@Base 6.2.0
 _ZNK10QQuickItem17acceptHoverEventsEv@Base 6.2.0
 _ZNK10QQuickItem17acceptTouchEventsEv@Base 6.2.0
 _ZNK10QQuickItem17isTextureProviderEv@Base 6.2.0
 _ZNK10QQuickItem19isComponentCompleteEv@Base 6.2.0
 _ZNK10QQuickItem1xEv@Base 6.2.0
 _ZNK10QQuickItem1yEv@Base 6.2.0
 _ZNK10QQuickItem1zEv@Base 6.2.0
 _ZNK10QQuickItem20acceptedMouseButtonsEv@Base 6.2.0
 _ZNK10QQuickItem20transformOriginPointEv@Base 6.2.0
 _ZNK10QQuickItem23filtersChildMouseEventsEv@Base 6.2.0
 _ZNK10QQuickItem4clipEv@Base 6.2.0
 _ZNK10QQuickItem4sizeEv@Base 6.2.0
 _ZNK10QQuickItem5flagsEv@Base 6.2.0
 _ZNK10QQuickItem5scaleEv@Base 6.2.0
 _ZNK10QQuickItem5stateEv@Base 6.2.0
 _ZNK10QQuickItem5widthEv@Base 6.2.0
 _ZNK10QQuickItem6cursorEv@Base 6.2.0
 _ZNK10QQuickItem6heightEv@Base 6.2.0
 _ZNK10QQuickItem6smoothEv@Base 6.2.0
 _ZNK10QQuickItem6windowEv@Base 6.2.0
 _ZNK10QQuickItem7childAtEdd@Base 6.2.0
 _ZNK10QQuickItem7opacityEv@Base 6.2.0
 _ZNK10QQuickItem8clipRectEv@Base 6.2.0
 _ZNK10QQuickItem8containsERK7QPointF@Base 6.2.0
 _ZNK10QQuickItem8hasFocusEv@Base 6.2.0
 _ZNK10QQuickItem8positionEv@Base 6.2.0
 _ZNK10QQuickItem8rotationEv@Base 6.2.0
 _ZNK10QQuickItem9isEnabledEv@Base 6.2.0
 _ZNK10QQuickItem9isVisibleEv@Base 6.2.0
 _ZNK10QQuickItem9mapToItemEP14QQmlV4Function@Base 6.2.0
 _ZNK10QQuickItem9mapToItemEPKS_RK7QPointF@Base 6.2.0
 _ZNK10QQuickPath10attributesEv@Base 6.2.0
 _ZNK10QQuickPath10metaObjectEv@Base 6.2.0
 _ZNK10QQuickPath11attributeAtERK7QStringd@Base 6.2.0
 _ZNK10QQuickPath14pointAtPercentEd@Base 6.2.0
 _ZNK10QQuickPath16createPointCacheEv@Base 6.2.0
 _ZNK10QQuickPath17sequentialPointAtEdPd@Base 6.2.0
 _ZNK10QQuickPath27invalidateSequentialHistoryEv@Base 6.2.0
 _ZNK10QQuickPath4pathEv@Base 6.2.0
 _ZNK10QQuickPath5scaleEv@Base 6.2.0
 _ZNK10QQuickPath6startXEv@Base 6.2.0
 _ZNK10QQuickPath6startYEv@Base 6.2.0
 _ZNK10QQuickPath8isClosedEv@Base 6.2.0
 _ZNK10QQuickPath9hasStartXEv@Base 6.2.0
 _ZNK10QQuickPath9hasStartYEv@Base 6.2.0
 _ZNK10QQuickText10lineHeightEv@Base 6.2.0
 _ZNK10QQuickText10metaObjectEv@Base 6.2.0
 _ZNK10QQuickText10renderTypeEv@Base 6.2.0
 _ZNK10QQuickText10styleColorEv@Base 6.2.0
 _ZNK10QQuickText10textFormatEv@Base 6.2.0
 _ZNK10QQuickText10topPaddingEv@Base 6.2.0
 _ZNK10QQuickText11hoveredLinkEv@Base 6.2.0
 _ZNK10QQuickText11leftPaddingEv@Base 6.2.0
 _ZNK10QQuickText12boundingRectEv@Base 6.2.0
 _ZNK10QQuickText12contentWidthEv@Base 6.2.0
 _ZNK10QQuickText12fontSizeModeEv@Base 6.2.0
 _ZNK10QQuickText12rightPaddingEv@Base 6.2.0
 _ZNK10QQuickText13bottomPaddingEv@Base 6.2.0
 _ZNK10QQuickText13contentHeightEv@Base 6.2.0
 _ZNK10QQuickText14lineHeightModeEv@Base 6.2.0
 _ZNK10QQuickText15effectiveHAlignEv@Base 6.2.0
 _ZNK10QQuickText16maximumLineCountEv@Base 6.2.0
 _ZNK10QQuickText16minimumPixelSizeEv@Base 6.2.0
 _ZNK10QQuickText16minimumPointSizeEv@Base 6.2.0
 _ZNK10QQuickText16resourcesLoadingEv@Base 6.2.0
 _ZNK10QQuickText17renderTypeQualityEv@Base 6.2.0
 _ZNK10QQuickText4fontEv@Base 6.2.0
 _ZNK10QQuickText4textEv@Base 6.2.0
 _ZNK10QQuickText5colorEv@Base 6.2.0
 _ZNK10QQuickText5styleEv@Base 6.2.0
 _ZNK10QQuickText6hAlignEv@Base 6.2.0
 _ZNK10QQuickText6linkAtEdd@Base 6.2.0
 _ZNK10QQuickText6vAlignEv@Base 6.2.0
 _ZNK10QQuickText7advanceEv@Base 6.2.0
 _ZNK10QQuickText7baseUrlEv@Base 6.2.0
 _ZNK10QQuickText7paddingEv@Base 6.2.0
 _ZNK10QQuickText8clipRectEv@Base 6.2.0
 _ZNK10QQuickText8fontInfoEv@Base 6.2.0
 _ZNK10QQuickText8wrapModeEv@Base 6.2.0
 _ZNK10QQuickText9elideModeEv@Base 6.2.0
 _ZNK10QQuickText9lineCountEv@Base 6.2.0
 _ZNK10QQuickText9linkColorEv@Base 6.2.0
 _ZNK10QQuickText9truncatedEv@Base 6.2.0
 _ZNK10QQuickView10metaObjectEv@Base 6.2.0
 _ZNK10QQuickView10resizeModeEv@Base 6.2.0
 _ZNK10QQuickView10rootObjectEv@Base 6.2.0
 _ZNK10QQuickView11initialSizeEv@Base 6.2.0
 _ZNK10QQuickView11rootContextEv@Base 6.2.0
 _ZNK10QQuickView6engineEv@Base 6.2.0
 _ZNK10QQuickView6errorsEv@Base 6.2.0
 _ZNK10QQuickView6sourceEv@Base 6.2.0
 _ZNK10QQuickView6statusEv@Base 6.2.0
 _ZNK10QQuickView8sizeHintEv@Base 6.2.0
 _ZNK10QSGContext10metaObjectEv@Base 6.2.0
 _ZNK10QSGContext14minimumFBOSizeEv@Base 6.2.0
 _ZNK10QSGTexture10metaObjectEv@Base 6.2.0
 _ZNK10QSGTexture10rhiTextureEv@Base 6.2.0
 _ZNK10QSGTexture14isAtlasTextureEv@Base 6.2.0
 _ZNK10QSGTexture15anisotropyLevelEv@Base 6.2.0
 _ZNK10QSGTexture15mipmapFilteringEv@Base 6.2.0
 _ZNK10QSGTexture16removedFromAtlasEP23QRhiResourceUpdateBatch@Base 6.2.0
 _ZNK10QSGTexture16resolveInterfaceEPKci@Base 6.2.0
 _ZNK10QSGTexture16verticalWrapModeEv@Base 6.2.0
 _ZNK10QSGTexture18horizontalWrapModeEv@Base 6.2.0
 _ZNK10QSGTexture24normalizedTextureSubRectEv@Base 6.2.0
 _ZNK10QSGTexture9filteringEv@Base 6.2.0
 _ZNK11QQuickCurve10metaObjectEv@Base 6.2.0
 _ZNK11QQuickCurve1xEv@Base 6.2.0
 _ZNK11QQuickCurve1yEv@Base 6.2.0
 _ZNK11QQuickCurve9relativeXEv@Base 6.2.0
 _ZNK11QQuickCurve9relativeYEv@Base 6.2.0
 _ZNK11QQuickImage10metaObjectEv@Base 6.2.0
 _ZNK11QQuickImage12boundingRectEv@Base 6.2.0
 _ZNK11QQuickImage12paintedWidthEv@Base 6.2.0
 _ZNK11QQuickImage13paintedHeightEv@Base 6.2.0
 _ZNK11QQuickImage15textureProviderEv@Base 6.2.0
 _ZNK11QQuickImage17verticalAlignmentEv@Base 6.2.0
 _ZNK11QQuickImage19horizontalAlignmentEv@Base 6.2.0
 _ZNK11QQuickImage6mipmapEv@Base 6.2.0
 _ZNK11QQuickImage8fillModeEv@Base 6.2.0
 _ZNK11QQuickPinch10metaObjectEv@Base 6.2.0
 _ZNK11QQuickScale10metaObjectEv@Base 6.2.0
 _ZNK11QQuickScale6originEv@Base 6.2.0
 _ZNK11QQuickScale6xScaleEv@Base 6.2.0
 _ZNK11QQuickScale6yScaleEv@Base 6.2.0
 _ZNK11QQuickScale6zScaleEv@Base 6.2.0
 _ZNK11QQuickScale7applyToEP10QMatrix4x4@Base 6.2.0
 _ZNK11QQuickState10metaObjectEv@Base 6.2.0
 _ZNK11QQuickState10stateGroupEv@Base 6.2.0
 _ZNK11QQuickState11isWhenKnownEv@Base 6.2.0
 _ZNK11QQuickState11operationAtEi@Base 6.2.0
 _ZNK11QQuickState13isStateActiveEv@Base 6.2.0
 _ZNK11QQuickState14operationCountEv@Base 6.2.0
 _ZNK11QQuickState17valueInRevertListEP7QObjectRK7QString@Base 6.2.0
 _ZNK11QQuickState19bindingInRevertListEP7QObjectRK7QString@Base 6.2.0
 _ZNK11QQuickState28containsPropertyInRevertListEP7QObjectRK7QString@Base 6.2.0
 _ZNK11QQuickState4nameEv@Base 6.2.0
 _ZNK11QQuickState4whenEv@Base 6.2.0
 _ZNK11QQuickState7extendsEv@Base 6.2.0
 _ZNK11QQuickState7isNamedEv@Base 6.2.0
 _ZNK11QSGGeometry9indexDataEv@Base 6.2.0
 _ZNK11QSGGeometry9lineWidthEv@Base 6.2.0
 _ZNK11QSGMaterial7compareEPKS_@Base 6.2.0
 _ZNK11QSGRenderer10isMirroredEv@Base 6.2.0
 _ZNK11QSGRenderer11nodeUpdaterEv@Base 6.2.0
 _ZNK11QSGRhiLayer10hasMipmapsEv@Base 6.2.0
 _ZNK11QSGRhiLayer10metaObjectEv@Base 6.2.0
 _ZNK11QSGRhiLayer10rhiTextureEv@Base 6.2.0
 _ZNK11QSGRhiLayer13comparisonKeyEv@Base 6.2.0
 _ZNK11QSGRhiLayer15hasAlphaChannelEv@Base 6.2.0
 _ZNK11QSGRhiLayer24normalizedTextureSubRectEv@Base 6.2.0
 _ZNK11QSGRhiLayer7toImageEv@Base 6.2.0
 _ZNK12QPaintDevice7devTypeEv@Base 6.2.0
 _ZNK12QQuickColumn10metaObjectEv@Base 6.2.0
 _ZNK12QQuickLoader10metaObjectEv@Base 6.2.0
 _ZNK12QQuickLoader12asynchronousEv@Base 6.2.0
 _ZNK12QQuickLoader15sourceComponentEv@Base 6.2.0
 _ZNK12QQuickLoader4itemEv@Base 6.2.0
 _ZNK12QQuickLoader6activeEv@Base 6.2.0
 _ZNK12QQuickLoader6sourceEv@Base 6.2.0
 _ZNK12QQuickLoader6statusEv@Base 6.2.0
 _ZNK12QQuickLoader8progressEv@Base 6.2.0
 _ZNK12QQuickPixmap10colorSpaceEv@Base 6.2.0
 _ZNK12QQuickPixmap10frameCountEv@Base 6.2.0
 _ZNK12QQuickPixmap11requestSizeEv@Base 6.2.0
 _ZNK12QQuickPixmap12implicitSizeEv@Base 6.2.0
 _ZNK12QQuickPixmap13autoTransformEv@Base 6.2.0
 _ZNK12QQuickPixmap13requestRegionEv@Base 6.2.0
 _ZNK12QQuickPixmap14textureFactoryEv@Base 6.2.0
 _ZNK12QQuickPixmap3urlEv@Base 6.2.0
 _ZNK12QQuickPixmap4rectEv@Base 6.2.0
 _ZNK12QQuickPixmap5errorEv@Base 6.2.0
 _ZNK12QQuickPixmap5imageEv@Base 6.2.0
 _ZNK12QQuickPixmap5widthEv@Base 6.2.0
 _ZNK12QQuickPixmap6heightEv@Base 6.2.0
 _ZNK12QQuickPixmap6isNullEv@Base 6.2.0
 _ZNK12QQuickPixmap6statusEv@Base 6.2.0
 _ZNK12QQuickPixmap7isErrorEv@Base 6.2.0
 _ZNK12QQuickPixmap7isReadyEv@Base 6.2.0
 _ZNK12QQuickPixmap9isLoadingEv@Base 6.2.0
 _ZNK12QQuickScreen10metaObjectEv@Base 6.2.0
 _ZNK12QQuickSprite10metaObjectEv@Base 6.2.0
 _ZNK12QQuickSprite14variedDurationEv@Base 6.2.0
 _ZNK12QQuickWindow10metaObjectEv@Base 6.2.0
 _ZNK12QQuickWindow11contentItemEv@Base 6.2.0
 _ZNK12QQuickWindow11focusObjectEv@Base 6.2.0
 _ZNK12QQuickWindow12renderTargetEv@Base 6.2.0
 _ZNK12QQuickWindow14accessibleRootEv@Base 6.2.0
 _ZNK12QQuickWindow14graphicsDeviceEv@Base 6.2.0
 _ZNK12QQuickWindow15activeFocusItemEv@Base 6.2.0
 _ZNK12QQuickWindow15createImageNodeEv@Base 6.2.0
 _ZNK12QQuickWindow16mouseGrabberItemEv@Base 6.2.0
 _ZNK12QQuickWindow17rendererInterfaceEv@Base 6.2.0
 _ZNK12QQuickWindow19createNinePatchNodeEv@Base 6.2.0
 _ZNK12QQuickWindow19createRectangleNodeEv@Base 6.2.0
 _ZNK12QQuickWindow20incubationControllerEv@Base 6.2.0
 _ZNK12QQuickWindow20isPersistentGraphicsEv@Base 6.2.0
 _ZNK12QQuickWindow21graphicsConfigurationEv@Base 6.2.0
 _ZNK12QQuickWindow22createTextureFromImageERK6QImage6QFlagsINS_19CreateTextureOptionEE@Base 6.2.0
 _ZNK12QQuickWindow22createTextureFromImageERK6QImage@Base 6.2.0
 _ZNK12QQuickWindow22isPersistentSceneGraphEv@Base 6.2.0
 _ZNK12QQuickWindow23isSceneGraphInitializedEv@Base 6.2.0
 _ZNK12QQuickWindow25effectiveDevicePixelRatioEv@Base 6.2.0
 _ZNK12QQuickWindow5colorEv@Base 6.2.0
 _ZNK13QQuickAnchors10leftMarginEv@Base 6.2.0
 _ZNK13QQuickAnchors10metaObjectEv@Base 6.2.0
 _ZNK13QQuickAnchors11rightMarginEv@Base 6.2.0
 _ZNK13QQuickAnchors11usedAnchorsEv@Base 6.2.0
 _ZNK13QQuickAnchors12bottomMarginEv@Base 6.2.0
 _ZNK13QQuickAnchors14baselineOffsetEv@Base 6.2.0
 _ZNK13QQuickAnchors14verticalCenterEv@Base 6.2.0
 _ZNK13QQuickAnchors16activeDirectionsEv@Base 6.2.0
 _ZNK13QQuickAnchors16horizontalCenterEv@Base 6.2.0
 _ZNK13QQuickAnchors17alignWhenCenteredEv@Base 6.2.0
 _ZNK13QQuickAnchors20verticalCenterOffsetEv@Base 6.2.0
 _ZNK13QQuickAnchors22horizontalCenterOffsetEv@Base 6.2.0
 _ZNK13QQuickAnchors3topEv@Base 6.2.0
 _ZNK13QQuickAnchors4fillEv@Base 6.2.0
 _ZNK13QQuickAnchors4leftEv@Base 6.2.0
 _ZNK13QQuickAnchors5rightEv@Base 6.2.0
 _ZNK13QQuickAnchors6bottomEv@Base 6.2.0
 _ZNK13QQuickAnchors7marginsEv@Base 6.2.0
 _ZNK13QQuickAnchors8baselineEv@Base 6.2.0
 _ZNK13QQuickAnchors8centerInEv@Base 6.2.0
 _ZNK13QQuickAnchors9topMarginEv@Base 6.2.0
 _ZNK13QQuickPalette10colorGroupEN8QPalette10ColorGroupE@Base 6.2.0
 _ZNK13QQuickPalette10metaObjectEv@Base 6.2.0
 _ZNK13QQuickPalette10toQPaletteEv@Base 6.2.0
 _ZNK13QQuickPalette14findColorGroupEN8QPalette10ColorGroupE@Base 6.2.0
 _ZNK13QQuickPalette15paletteProviderEv@Base 6.2.0
 _ZNK13QQuickPalette17currentColorGroupEv@Base 6.2.0
 _ZNK13QQuickPalette17isValidColorGroupEN8QPalette10ColorGroupERK8QPointerI16QQuickColorGroupE@Base 6.2.0
 _ZNK13QQuickPalette6activeEv@Base 6.2.0
 _ZNK13QQuickPalette8disabledEv@Base 6.2.0
 _ZNK13QQuickPalette8inactiveEv@Base 6.2.0
 _ZNK13QQuickPathArc10metaObjectEv@Base 6.2.0
 _ZNK13QQuickPathArc11useLargeArcEv@Base 6.2.0
 _ZNK13QQuickPathArc13xAxisRotationEv@Base 6.2.0
 _ZNK13QQuickPathArc7radiusXEv@Base 6.2.0
 _ZNK13QQuickPathArc7radiusYEv@Base 6.2.0
 _ZNK13QQuickPathArc9directionEv@Base 6.2.0
 _ZNK13QQuickPathSvg10metaObjectEv@Base 6.2.0
 _ZNK13QQuickPathSvg4pathEv@Base 6.2.0
 _ZNK13QSGRenderLoop10metaObjectEv@Base 6.2.0
 _ZNK13QSGRenderLoop17windowSurfaceTypeEv@Base 6.2.0
 _ZNK13QSGRenderNode11RenderState3getEPKc@Base 6.2.0
 _ZNK13QSGRenderNode13changedStatesEv@Base 6.2.0
 _ZNK13QSGRenderNode16inheritedOpacityEv@Base 6.2.0
 _ZNK13QSGRenderNode4rectEv@Base 6.2.0
 _ZNK13QSGRenderNode5flagsEv@Base 6.2.0
 _ZNK13QSGRenderNode6matrixEv@Base 6.2.0
 _ZNK13QSGRenderNode8clipListEv@Base 6.2.0
 _ZNK13QSGRhiSupport11graphicsApiEv@Base 6.2.0
 _ZNK13QSGRhiSupport14rhiBackendNameEv@Base 6.2.0
 _ZNK13QSGRhiSupport17windowSurfaceTypeEv@Base 6.2.0
 _ZNK14QQuickAnimator10metaObjectEv@Base 6.2.0
 _ZNK14QQuickAnimator10targetItemEv@Base 6.2.0
 _ZNK14QQuickAnimator2toEv@Base 6.2.0
 _ZNK14QQuickAnimator4fromEv@Base 6.2.0
 _ZNK14QQuickAnimator6easingEv@Base 6.2.0
 _ZNK14QQuickAnimator8durationEv@Base 6.2.0
 _ZNK14QQuickBehavior10metaObjectEv@Base 6.2.0
 _ZNK14QQuickBehavior11targetValueEv@Base 6.2.0
 _ZNK14QQuickBehavior14targetPropertyEv@Base 6.2.0
 _ZNK14QQuickBehavior7enabledEv@Base 6.2.0
 _ZNK14QQuickDragAxis10metaObjectEv@Base 6.2.0
 _ZNK14QQuickDropArea10metaObjectEv@Base 6.2.0
 _ZNK14QQuickDropArea12containsDragEv@Base 6.2.0
 _ZNK14QQuickDropArea4keysEv@Base 6.2.0
 _ZNK14QQuickFlipable10metaObjectEv@Base 6.2.0
 _ZNK14QQuickFlipable4sideEv@Base 6.2.0
 _ZNK14QQuickFlipable5frontEv@Base 6.2.0
 _ZNK14QQuickGradient10metaObjectEv@Base 6.2.0
 _ZNK14QQuickGradient13gradientStopsEv@Base 6.2.0
 _ZNK14QQuickGridMesh10metaObjectEv@Base 6.2.0
 _ZNK14QQuickGridMesh10resolutionEv@Base 6.2.0
 _ZNK14QQuickGridView10cellHeightEv@Base 6.2.0
 _ZNK14QQuickGridView10metaObjectEv@Base 6.2.0
 _ZNK14QQuickGridView4flowEv@Base 6.2.0
 _ZNK14QQuickGridView8snapModeEv@Base 6.2.0
 _ZNK14QQuickGridView9cellWidthEv@Base 6.2.0
 _ZNK14QQuickItemView10footerItemEv@Base 6.2.0
 _ZNK14QQuickItemView10headerItemEv@Base 6.2.0
 _ZNK14QQuickItemView10maxXExtentEv@Base 6.2.0
 _ZNK14QQuickItemView10maxYExtentEv@Base 6.2.0
 _ZNK14QQuickItemView10metaObjectEv@Base 6.2.0
 _ZNK14QQuickItemView10minXExtentEv@Base 6.2.0
 _ZNK14QQuickItemView10minYExtentEv@Base 6.2.0
 _ZNK14QQuickItemView10reuseItemsEv@Base 6.2.0
 _ZNK14QQuickItemView11cacheBufferEv@Base 6.2.0
 _ZNK14QQuickItemView11currentItemEv@Base 6.2.0
 _ZNK14QQuickItemView11itemAtIndexEi@Base 6.2.0
 _ZNK14QQuickItemView12currentIndexEv@Base 6.2.0
 _ZNK14QQuickItemView13addTransitionEv@Base 6.2.0
 _ZNK14QQuickItemView13highlightItemEv@Base 6.2.0
 _ZNK14QQuickItemView13isWrapEnabledEv@Base 6.2.0
 _ZNK14QQuickItemView14moveTransitionEv@Base 6.2.0
 _ZNK14QQuickItemView15layoutDirectionEv@Base 6.2.0
 _ZNK14QQuickItemView16displayMarginEndEv@Base 6.2.0
 _ZNK14QQuickItemView16removeTransitionEv@Base 6.2.0
 _ZNK14QQuickItemView18highlightRangeModeEv@Base 6.2.0
 _ZNK14QQuickItemView18populateTransitionEv@Base 6.2.0
 _ZNK14QQuickItemView19displacedTransitionEv@Base 6.2.0
 _ZNK14QQuickItemView21highlightMoveDurationEv@Base 6.2.0
 _ZNK14QQuickItemView21preferredHighlightEndEv@Base 6.2.0
 _ZNK14QQuickItemView22addDisplacedTransitionEv@Base 6.2.0
 _ZNK14QQuickItemView22displayMarginBeginningEv@Base 6.2.0
 _ZNK14QQuickItemView22isKeyNavigationEnabledEv@Base 6.2.0
 _ZNK14QQuickItemView23moveDisplacedTransitionEv@Base 6.2.0
 _ZNK14QQuickItemView23preferredHighlightBeginEv@Base 6.2.0
 _ZNK14QQuickItemView23verticalLayoutDirectionEv@Base 6.2.0
 _ZNK14QQuickItemView24effectiveLayoutDirectionEv@Base 6.2.0
 _ZNK14QQuickItemView25removeDisplacedTransitionEv@Base 6.2.0
 _ZNK14QQuickItemView27highlightFollowsCurrentItemEv@Base 6.2.0
 _ZNK14QQuickItemView5countEv@Base 6.2.0
 _ZNK14QQuickItemView5modelEv@Base 6.2.0
 _ZNK14QQuickItemView6footerEv@Base 6.2.0
 _ZNK14QQuickItemView6headerEv@Base 6.2.0
 _ZNK14QQuickItemView6itemAtEdd@Base 6.2.0
 _ZNK14QQuickItemView7indexAtEdd@Base 6.2.0
 _ZNK14QQuickItemView7originXEv@Base 6.2.0
 _ZNK14QQuickItemView7originYEv@Base 6.2.0
 _ZNK14QQuickItemView8delegateEv@Base 6.2.0
 _ZNK14QQuickItemView9highlightEv@Base 6.2.0
 _ZNK14QQuickListView10maxXExtentEv@Base 6.2.0
 _ZNK14QQuickListView10maxYExtentEv@Base 6.2.0
 _ZNK14QQuickListView10metaObjectEv@Base 6.2.0
 _ZNK14QQuickListView11orientationEv@Base 6.2.0
 _ZNK14QQuickListView14currentSectionEv@Base 6.2.0
 _ZNK14QQuickListView17footerPositioningEv@Base 6.2.0
 _ZNK14QQuickListView17headerPositioningEv@Base 6.2.0
 _ZNK14QQuickListView21highlightMoveVelocityEv@Base 6.2.0
 _ZNK14QQuickListView23highlightResizeDurationEv@Base 6.2.0
 _ZNK14QQuickListView23highlightResizeVelocityEv@Base 6.2.0
 _ZNK14QQuickListView7spacingEv@Base 6.2.0
 _ZNK14QQuickListView8snapModeEv@Base 6.2.0
 _ZNK14QQuickPathLine10metaObjectEv@Base 6.2.0
 _ZNK14QQuickPathMove10metaObjectEv@Base 6.2.0
 _ZNK14QQuickPathQuad10metaObjectEv@Base 6.2.0
 _ZNK14QQuickPathQuad16relativeControlXEv@Base 6.2.0
 _ZNK14QQuickPathQuad16relativeControlYEv@Base 6.2.0
 _ZNK14QQuickPathQuad8controlXEv@Base 6.2.0
 _ZNK14QQuickPathQuad8controlYEv@Base 6.2.0
 _ZNK14QQuickPathText10metaObjectEv@Base 6.2.0
 _ZNK14QQuickPathText10updatePathEv@Base 6.2.0
 _ZNK14QQuickPathView10dragMarginEv@Base 6.2.0
 _ZNK14QQuickPathView10isDraggingEv@Base 6.2.0
 _ZNK14QQuickPathView10isFlickingEv@Base 6.2.0
 _ZNK14QQuickPathView10metaObjectEv@Base 6.2.0
 _ZNK14QQuickPathView11currentItemEv@Base 6.2.0
 _ZNK14QQuickPathView11itemAtIndexEi@Base 6.2.0
 _ZNK14QQuickPathView12currentIndexEv@Base 6.2.0
 _ZNK14QQuickPathView13highlightItemEv@Base 6.2.0
 _ZNK14QQuickPathView13isInteractiveEv@Base 6.2.0
 _ZNK14QQuickPathView13pathItemCountEv@Base 6.2.0
 _ZNK14QQuickPathView14cacheItemCountEv@Base 6.2.0
 _ZNK14QQuickPathView17flickDecelerationEv@Base 6.2.0
 _ZNK14QQuickPathView17movementDirectionEv@Base 6.2.0
 _ZNK14QQuickPathView18highlightRangeModeEv@Base 6.2.0
 _ZNK14QQuickPathView20maximumFlickVelocityEv@Base 6.2.0
 _ZNK14QQuickPathView21highlightMoveDurationEv@Base 6.2.0
 _ZNK14QQuickPathView21preferredHighlightEndEv@Base 6.2.0
 _ZNK14QQuickPathView23preferredHighlightBeginEv@Base 6.2.0
 _ZNK14QQuickPathView4pathEv@Base 6.2.0
 _ZNK14QQuickPathView5countEv@Base 6.2.0
 _ZNK14QQuickPathView5modelEv@Base 6.2.0
 _ZNK14QQuickPathView6itemAtEdd@Base 6.2.0
 _ZNK14QQuickPathView6offsetEv@Base 6.2.0
 _ZNK14QQuickPathView7indexAtEdd@Base 6.2.0
 _ZNK14QQuickPathView8delegateEv@Base 6.2.0
 _ZNK14QQuickPathView8isMovingEv@Base 6.2.0
 _ZNK14QQuickPathView8snapModeEv@Base 6.2.0
 _ZNK14QQuickPathView9highlightEv@Base 6.2.0
 _ZNK14QQuickProfiler10metaObjectEv@Base 6.2.0
 _ZNK14QQuickRepeater10metaObjectEv@Base 6.2.0
 _ZNK14QQuickRepeater5countEv@Base 6.2.0
 _ZNK14QQuickRepeater5modelEv@Base 6.2.0
 _ZNK14QQuickRepeater6itemAtEi@Base 6.2.0
 _ZNK14QQuickRepeater8delegateEv@Base 6.2.0
 _ZNK14QQuickRootItem10metaObjectEv@Base 6.2.0
 _ZNK14QQuickRotation10metaObjectEv@Base 6.2.0
 _ZNK14QQuickRotation4axisEv@Base 6.2.0
 _ZNK14QQuickRotation5angleEv@Base 6.2.0
 _ZNK14QQuickRotation6originEv@Base 6.2.0
 _ZNK14QQuickRotation7applyToEP10QMatrix4x4@Base 6.2.0
 _ZNK14QQuickTextEdit10isReadOnlyEv@Base 6.2.0
 _ZNK14QQuickTextEdit10metaObjectEv@Base 6.2.0
 _ZNK14QQuickTextEdit10positionAtEdd@Base 6.2.0
 _ZNK14QQuickTextEdit10renderTypeEv@Base 6.2.0
 _ZNK14QQuickTextEdit10textFormatEv@Base 6.2.0
 _ZNK14QQuickTextEdit10textMarginEv@Base 6.2.0
 _ZNK14QQuickTextEdit10topPaddingEv@Base 6.2.0
 _ZNK14QQuickTextEdit11hoveredLinkEv@Base 6.2.0
 _ZNK14QQuickTextEdit11leftPaddingEv@Base 6.2.0
 _ZNK14QQuickTextEdit11preeditTextEv@Base 6.2.0
 _ZNK14QQuickTextEdit12boundingRectEv@Base 6.2.0
 _ZNK14QQuickTextEdit12contentWidthEv@Base 6.2.0
 _ZNK14QQuickTextEdit12focusOnPressEv@Base 6.2.0
 _ZNK14QQuickTextEdit12rightPaddingEv@Base 6.2.0
 _ZNK14QQuickTextEdit12selectedTextEv@Base 6.2.0
 _ZNK14QQuickTextEdit12selectionEndEv@Base 6.2.0
 _ZNK14QQuickTextEdit13bottomPaddingEv@Base 6.2.0
 _ZNK14QQuickTextEdit13contentHeightEv@Base 6.2.0
 _ZNK14QQuickTextEdit13overwriteModeEv@Base 6.2.0
 _ZNK14QQuickTextEdit13selectByMouseEv@Base 6.2.0
 _ZNK14QQuickTextEdit14cursorDelegateEv@Base 6.2.0
 _ZNK14QQuickTextEdit14cursorPositionEv@Base 6.2.0
 _ZNK14QQuickTextEdit14selectionColorEv@Base 6.2.0
 _ZNK14QQuickTextEdit14selectionStartEv@Base 6.2.0
 _ZNK14QQuickTextEdit15cursorRectangleEv@Base 6.2.0
 _ZNK14QQuickTextEdit15effectiveHAlignEv@Base 6.2.0
 _ZNK14QQuickTextEdit15isCursorVisibleEv@Base 6.2.0
 _ZNK14QQuickTextEdit15tabStopDistanceEv@Base 6.2.0
 _ZNK14QQuickTextEdit16getFormattedTextEii@Base 6.2.0
 _ZNK14QQuickTextEdit16inputMethodHintsEv@Base 6.2.0
 _ZNK14QQuickTextEdit16inputMethodQueryEN2Qt16InputMethodQueryE8QVariant@Base 6.2.0
 _ZNK14QQuickTextEdit16inputMethodQueryEN2Qt16InputMethodQueryE@Base 6.2.0
 _ZNK14QQuickTextEdit16selectByKeyboardEv@Base 6.2.0
 _ZNK14QQuickTextEdit17selectedTextColorEv@Base 6.2.0
 _ZNK14QQuickTextEdit18mouseSelectionModeEv@Base 6.2.0
 _ZNK14QQuickTextEdit19persistentSelectionEv@Base 6.2.0
 _ZNK14QQuickTextEdit19positionToRectangleEi@Base 6.2.0
 _ZNK14QQuickTextEdit22isInputMethodComposingEv@Base 6.2.0
 _ZNK14QQuickTextEdit4fontEv@Base 6.2.0
 _ZNK14QQuickTextEdit4textEv@Base 6.2.0
 _ZNK14QQuickTextEdit5colorEv@Base 6.2.0
 _ZNK14QQuickTextEdit6hAlignEv@Base 6.2.0
 _ZNK14QQuickTextEdit6lengthEv@Base 6.2.0
 _ZNK14QQuickTextEdit6linkAtEdd@Base 6.2.0
 _ZNK14QQuickTextEdit6vAlignEv@Base 6.2.0
 _ZNK14QQuickTextEdit7baseUrlEv@Base 6.2.0
 _ZNK14QQuickTextEdit7canRedoEv@Base 6.2.0
 _ZNK14QQuickTextEdit7canUndoEv@Base 6.2.0
 _ZNK14QQuickTextEdit7getTextEii@Base 6.2.0
 _ZNK14QQuickTextEdit7paddingEv@Base 6.2.0
 _ZNK14QQuickTextEdit8canPasteEv@Base 6.2.0
 _ZNK14QQuickTextEdit8clipRectEv@Base 6.2.0
 _ZNK14QQuickTextEdit8wrapModeEv@Base 6.2.0
 _ZNK14QQuickTextEdit9lineCountEv@Base 6.2.0
 _ZNK14QQuickTimeLine10metaObjectEv@Base 6.2.0
 _ZNK14QQuickTimeLine14debugAnimationE6QDebug@Base 6.2.0
 _ZNK14QQuickTimeLine4timeEv@Base 6.2.0
 _ZNK14QQuickTimeLine8durationEv@Base 6.2.0
 _ZNK14QQuickTimeLine8isActiveEv@Base 6.2.0
 _ZNK14QQuickTimeLine8syncModeEv@Base 6.2.0
 _ZNK14QQuickTimeLine9syncPointEv@Base 6.2.0
 _ZNK14QSGNodeUpdater13isNodeBlockedEP7QSGNodeS1_@Base 6.2.0
 _ZNK14QSGOpacityNode16isSubtreeBlockedEv@Base 6.2.0
 _ZNK15QQuickAnchorSet10metaObjectEv@Base 6.2.0
 _ZNK15QQuickAnchorSet14verticalCenterEv@Base 6.2.0
 _ZNK15QQuickAnchorSet16horizontalCenterEv@Base 6.2.0
 _ZNK15QQuickAnchorSet3topEv@Base 6.2.0
 _ZNK15QQuickAnchorSet4leftEv@Base 6.2.0
 _ZNK15QQuickAnchorSet5rightEv@Base 6.2.0
 _ZNK15QQuickAnchorSet6bottomEv@Base 6.2.0
 _ZNK15QQuickAnchorSet8baselineEv@Base 6.2.0
 _ZNK15QQuickFlickable10isDraggingEv@Base 6.2.0
 _ZNK15QQuickFlickable10isFlickingEv@Base 6.2.0
 _ZNK15QQuickFlickable10leftMarginEv@Base 6.2.0
 _ZNK15QQuickFlickable10maxXExtentEv@Base 6.2.0
 _ZNK15QQuickFlickable10maxYExtentEv@Base 6.2.0
 _ZNK15QQuickFlickable10metaObjectEv@Base 6.2.0
 _ZNK15QQuickFlickable10minXExtentEv@Base 6.2.0
 _ZNK15QQuickFlickable10minYExtentEv@Base 6.2.0
 _ZNK15QQuickFlickable10pressDelayEv@Base 6.2.0
 _ZNK15QQuickFlickable11contentItemEv@Base 6.2.0
 _ZNK15QQuickFlickable11rightMarginEv@Base 6.2.0
 _ZNK15QQuickFlickable12bottomMarginEv@Base 6.2.0
 _ZNK15QQuickFlickable12contentWidthEv@Base 6.2.0
 _ZNK15QQuickFlickable12pixelAlignedEv@Base 6.2.0
 _ZNK15QQuickFlickable13contentHeightEv@Base 6.2.0
 _ZNK15QQuickFlickable13isInteractiveEv@Base 6.2.0
 _ZNK15QQuickFlickable14boundsBehaviorEv@Base 6.2.0
 _ZNK15QQuickFlickable14boundsMovementEv@Base 6.2.0
 _ZNK15QQuickFlickable14isAtXBeginningEv@Base 6.2.0
 _ZNK15QQuickFlickable14isAtYBeginningEv@Base 6.2.0
 _ZNK15QQuickFlickable15synchronousDragEv@Base 6.2.0
 _ZNK15QQuickFlickable16verticalVelocityEv@Base 6.2.0
 _ZNK15QQuickFlickable17flickDecelerationEv@Base 6.2.0
 _ZNK15QQuickFlickable17verticalOvershootEv@Base 6.2.0
 _ZNK15QQuickFlickable18flickableDirectionEv@Base 6.2.0
 _ZNK15QQuickFlickable18horizontalVelocityEv@Base 6.2.0
 _ZNK15QQuickFlickable18isMovingVerticallyEv@Base 6.2.0
 _ZNK15QQuickFlickable19horizontalOvershootEv@Base 6.2.0
 _ZNK15QQuickFlickable20isDraggingVerticallyEv@Base 6.2.0
 _ZNK15QQuickFlickable20isFlickingVerticallyEv@Base 6.2.0
 _ZNK15QQuickFlickable20isMovingHorizontallyEv@Base 6.2.0
 _ZNK15QQuickFlickable20maximumFlickVelocityEv@Base 6.2.0
 _ZNK15QQuickFlickable22isDraggingHorizontallyEv@Base 6.2.0
 _ZNK15QQuickFlickable22isFlickingHorizontallyEv@Base 6.2.0
 _ZNK15QQuickFlickable6vWidthEv@Base 6.2.0
 _ZNK15QQuickFlickable6xflickEv@Base 6.2.0
 _ZNK15QQuickFlickable6yflickEv@Base 6.2.0
 _ZNK15QQuickFlickable7originXEv@Base 6.2.0
 _ZNK15QQuickFlickable7originYEv@Base 6.2.0
 _ZNK15QQuickFlickable7reboundEv@Base 6.2.0
 _ZNK15QQuickFlickable7vHeightEv@Base 6.2.0
 _ZNK15QQuickFlickable8contentXEv@Base 6.2.0
 _ZNK15QQuickFlickable8contentYEv@Base 6.2.0
 _ZNK15QQuickFlickable8isAtXEndEv@Base 6.2.0
 _ZNK15QQuickFlickable8isAtYEndEv@Base 6.2.0
 _ZNK15QQuickFlickable8isMovingEv@Base 6.2.0
 _ZNK15QQuickFlickable9topMarginEv@Base 6.2.0
 _ZNK15QQuickImageBase10colorSpaceEv@Base 6.2.0
 _ZNK15QQuickImageBase10frameCountEv@Base 6.2.0
 _ZNK15QQuickImageBase10metaObjectEv@Base 6.2.0
 _ZNK15QQuickImageBase10sourceSizeEv@Base 6.2.0
 _ZNK15QQuickImageBase12asynchronousEv@Base 6.2.0
 _ZNK15QQuickImageBase12currentFrameEv@Base 6.2.0
 _ZNK15QQuickImageBase13autoTransformEv@Base 6.2.0
 _ZNK15QQuickImageBase14sourceClipRectEv@Base 6.2.0
 _ZNK15QQuickImageBase16mirrorVerticallyEv@Base 6.2.0
 _ZNK15QQuickImageBase5cacheEv@Base 6.2.0
 _ZNK15QQuickImageBase5imageEv@Base 6.2.0
 _ZNK15QQuickImageBase6mirrorEv@Base 6.2.0
 _ZNK15QQuickImageBase6sourceEv@Base 6.2.0
 _ZNK15QQuickImageBase6statusEv@Base 6.2.0
 _ZNK15QQuickImageBase8progressEv@Base 6.2.0
 _ZNK15QQuickItemLayer10metaObjectEv@Base 6.2.0
 _ZNK15QQuickMatrix4x410metaObjectEv@Base 6.2.0
 _ZNK15QQuickMatrix4x46matrixEv@Base 6.2.0
 _ZNK15QQuickMatrix4x47applyToEP10QMatrix4x4@Base 6.2.0
 _ZNK15QQuickMouseArea10metaObjectEv@Base 6.2.0
 _ZNK15QQuickMouseArea11cursorShapeEv@Base 6.2.0
 _ZNK15QQuickMouseArea12hoverEnabledEv@Base 6.2.0
 _ZNK15QQuickMouseArea13containsPressEv@Base 6.2.0
 _ZNK15QQuickMouseArea14pressedButtonsEv@Base 6.2.0
 _ZNK15QQuickMouseArea15acceptedButtonsEv@Base 6.2.0
 _ZNK15QQuickMouseArea15preventStealingEv@Base 6.2.0
 _ZNK15QQuickMouseArea20pressAndHoldIntervalEv@Base 6.2.0
 _ZNK15QQuickMouseArea22isScrollGestureEnabledEv@Base 6.2.0
 _ZNK15QQuickMouseArea23propagateComposedEventsEv@Base 6.2.0
 _ZNK15QQuickMouseArea6mouseXEv@Base 6.2.0
 _ZNK15QQuickMouseArea6mouseYEv@Base 6.2.0
 _ZNK15QQuickMouseArea7hoveredEv@Base 6.2.0
 _ZNK15QQuickMouseArea7pressedEv@Base 6.2.0
 _ZNK15QQuickMouseArea9isEnabledEv@Base 6.2.0
 _ZNK15QQuickPathCubic10metaObjectEv@Base 6.2.0
 _ZNK15QQuickPathCubic17relativeControl1XEv@Base 6.2.0
 _ZNK15QQuickPathCubic17relativeControl1YEv@Base 6.2.0
 _ZNK15QQuickPathCubic17relativeControl2XEv@Base 6.2.0
 _ZNK15QQuickPathCubic17relativeControl2YEv@Base 6.2.0
 _ZNK15QQuickPathCubic9control1XEv@Base 6.2.0
 _ZNK15QQuickPathCubic9control1YEv@Base 6.2.0
 _ZNK15QQuickPathCubic9control2XEv@Base 6.2.0
 _ZNK15QQuickPathCubic9control2YEv@Base 6.2.0
 _ZNK15QQuickPinchArea10metaObjectEv@Base 6.2.0
 _ZNK15QQuickPinchArea9isEnabledEv@Base 6.2.0
 _ZNK15QQuickRectangle10metaObjectEv@Base 6.2.0
 _ZNK15QQuickRectangle5colorEv@Base 6.2.0
 _ZNK15QQuickRectangle6radiusEv@Base 6.2.0
 _ZNK15QQuickRectangle8gradientEv@Base 6.2.0
 _ZNK15QQuickScaleGrid10metaObjectEv@Base 6.2.0
 _ZNK15QQuickScaleGrid6isNullEv@Base 6.2.0
 _ZNK15QQuickTableView10itemAtCellERK6QPoint@Base 6.2.0
 _ZNK15QQuickTableView10itemAtCellEii@Base 6.2.0
 _ZNK15QQuickTableView10leftColumnEv@Base 6.2.0
 _ZNK15QQuickTableView10maxXExtentEv@Base 6.2.0
 _ZNK15QQuickTableView10maxYExtentEv@Base 6.2.0
 _ZNK15QQuickTableView10metaObjectEv@Base 6.2.0
 _ZNK15QQuickTableView10minXExtentEv@Base 6.2.0
 _ZNK15QQuickTableView10minYExtentEv@Base 6.2.0
 _ZNK15QQuickTableView10reuseItemsEv@Base 6.2.0
 _ZNK15QQuickTableView10rowSpacingEv@Base 6.2.0
 _ZNK15QQuickTableView11columnWidthEi@Base 6.2.0
 _ZNK15QQuickTableView11isRowLoadedEi@Base 6.2.0
 _ZNK15QQuickTableView11rightColumnEv@Base 6.2.0
 _ZNK15QQuickTableView13columnSpacingEv@Base 6.2.0
 _ZNK15QQuickTableView13syncDirectionEv@Base 6.2.0
 _ZNK15QQuickTableView14isColumnLoadedEi@Base 6.2.0
 _ZNK15QQuickTableView14selectionModelEv@Base 6.2.0
 _ZNK15QQuickTableView17implicitRowHeightEi@Base 6.2.0
 _ZNK15QQuickTableView17rowHeightProviderEv@Base 6.2.0
 _ZNK15QQuickTableView19columnWidthProviderEv@Base 6.2.0
 _ZNK15QQuickTableView19implicitColumnWidthEi@Base 6.2.0
 _ZNK15QQuickTableView4rowsEv@Base 6.2.0
 _ZNK15QQuickTableView5modelEv@Base 6.2.0
 _ZNK15QQuickTableView6topRowEv@Base 6.2.0
 _ZNK15QQuickTableView7columnsEv@Base 6.2.0
 _ZNK15QQuickTableView8delegateEv@Base 6.2.0
 _ZNK15QQuickTableView8syncViewEv@Base 6.2.0
 _ZNK15QQuickTableView9bottomRowEv@Base 6.2.0
 _ZNK15QQuickTableView9cellAtPosERK7QPointFb@Base 6.2.0
 _ZNK15QQuickTableView9cellAtPosEddb@Base 6.2.0
 _ZNK15QQuickTableView9rowHeightEi@Base 6.2.0
 _ZNK15QQuickTextInput10autoScrollEv@Base 6.2.0
 _ZNK15QQuickTextInput10isReadOnlyEv@Base 6.2.0
 _ZNK15QQuickTextInput10metaObjectEv@Base 6.2.0
 _ZNK15QQuickTextInput10positionAtEP14QQmlV4Function@Base 6.2.0
 _ZNK15QQuickTextInput10renderTypeEv@Base 6.2.0
 _ZNK15QQuickTextInput10topPaddingEv@Base 6.2.0
 _ZNK15QQuickTextInput11displayTextEv@Base 6.2.0
 _ZNK15QQuickTextInput11leftPaddingEv@Base 6.2.0
 _ZNK15QQuickTextInput11preeditTextEv@Base 6.2.0
 _ZNK15QQuickTextInput12boundingRectEv@Base 6.2.0
 _ZNK15QQuickTextInput12contentWidthEv@Base 6.2.0
 _ZNK15QQuickTextInput12focusOnPressEv@Base 6.2.0
 _ZNK15QQuickTextInput12rightPaddingEv@Base 6.2.0
 _ZNK15QQuickTextInput12selectedTextEv@Base 6.2.0
 _ZNK15QQuickTextInput12selectionEndEv@Base 6.2.0
 _ZNK15QQuickTextInput13bottomPaddingEv@Base 6.2.0
 _ZNK15QQuickTextInput13contentHeightEv@Base 6.2.0
 _ZNK15QQuickTextInput13overwriteModeEv@Base 6.2.0
 _ZNK15QQuickTextInput13selectByMouseEv@Base 6.2.0
 _ZNK15QQuickTextInput14cursorDelegateEv@Base 6.2.0
 _ZNK15QQuickTextInput14cursorPositionEv@Base 6.2.0
 _ZNK15QQuickTextInput14selectionColorEv@Base 6.2.0
 _ZNK15QQuickTextInput14selectionStartEv@Base 6.2.0
 _ZNK15QQuickTextInput15cursorRectangleEv@Base 6.2.0
 _ZNK15QQuickTextInput15effectiveHAlignEv@Base 6.2.0
 _ZNK15QQuickTextInput15isCursorVisibleEv@Base 6.2.0
 _ZNK15QQuickTextInput16inputMethodHintsEv@Base 6.2.0
 _ZNK15QQuickTextInput16inputMethodQueryEN2Qt16InputMethodQueryE@Base 6.2.0
 _ZNK15QQuickTextInput16inputMethodQueryEN2Qt16InputMethodQueryERK8QVariant@Base 6.2.0
 _ZNK15QQuickTextInput17passwordCharacterEv@Base 6.2.0
 _ZNK15QQuickTextInput17passwordMaskDelayEv@Base 6.2.0
 _ZNK15QQuickTextInput17selectedTextColorEv@Base 6.2.0
 _ZNK15QQuickTextInput18hasAcceptableInputEv@Base 6.2.0
 _ZNK15QQuickTextInput18mouseSelectionModeEv@Base 6.2.0
 _ZNK15QQuickTextInput19persistentSelectionEv@Base 6.2.0
 _ZNK15QQuickTextInput19positionToRectangleEi@Base 6.2.0
 _ZNK15QQuickTextInput22isInputMethodComposingEv@Base 6.2.0
 _ZNK15QQuickTextInput4fontEv@Base 6.2.0
 _ZNK15QQuickTextInput4textEv@Base 6.2.0
 _ZNK15QQuickTextInput5colorEv@Base 6.2.0
 _ZNK15QQuickTextInput6hAlignEv@Base 6.2.0
 _ZNK15QQuickTextInput6lengthEv@Base 6.2.0
 _ZNK15QQuickTextInput6vAlignEv@Base 6.2.0
 _ZNK15QQuickTextInput7canRedoEv@Base 6.2.0
 _ZNK15QQuickTextInput7canUndoEv@Base 6.2.0
 _ZNK15QQuickTextInput7getTextEii@Base 6.2.0
 _ZNK15QQuickTextInput7paddingEv@Base 6.2.0
 _ZNK15QQuickTextInput8canPasteEv@Base 6.2.0
 _ZNK15QQuickTextInput8clipRectEv@Base 6.2.0
 _ZNK15QQuickTextInput8echoModeEv@Base 6.2.0
 _ZNK15QQuickTextInput8wrapModeEv@Base 6.2.0
 _ZNK15QQuickTextInput9inputMaskEv@Base 6.2.0
 _ZNK15QQuickTextInput9maxLengthEv@Base 6.2.0
 _ZNK15QQuickTextInput9validatorEv@Base 6.2.0
 _ZNK15QQuickTransform10metaObjectEv@Base 6.2.0
 _ZNK15QQuickTranslate10metaObjectEv@Base 6.2.0
 _ZNK15QQuickTranslate1xEv@Base 6.2.0
 _ZNK15QQuickTranslate1yEv@Base 6.2.0
 _ZNK15QQuickTranslate7applyToEP10QMatrix4x4@Base 6.2.0
 _ZNK15QQuickXAnimator10metaObjectEv@Base 6.2.0
 _ZNK15QQuickXAnimator9createJobEv@Base 6.2.0
 _ZNK15QQuickYAnimator10metaObjectEv@Base 6.2.0
 _ZNK15QQuickYAnimator9createJobEv@Base 6.2.0
 _ZNK15QSGGeometryNode14activeMaterialEv@Base 6.2.0
 _ZNK15QSGPlainTexture10metaObjectEv@Base 6.2.0
 _ZNK15QSGPlainTexture10rhiTextureEv@Base 6.2.0
 _ZNK15QSGPlainTexture13comparisonKeyEv@Base 6.2.0
 _ZNK16QQuickCloseEvent10metaObjectEv@Base 6.2.0
 _ZNK16QQuickColorGroup10brightTextEv@Base 6.2.0
 _ZNK16QQuickColorGroup10buttonTextEv@Base 6.2.0
 _ZNK16QQuickColorGroup10metaObjectEv@Base 6.2.0
 _ZNK16QQuickColorGroup10windowTextEv@Base 6.2.0
 _ZNK16QQuickColorGroup11linkVisitedEv@Base 6.2.0
 _ZNK16QQuickColorGroup11toolTipBaseEv@Base 6.2.0
 _ZNK16QQuickColorGroup11toolTipTextEv@Base 6.2.0
 _ZNK16QQuickColorGroup13alternateBaseEv@Base 6.2.0
 _ZNK16QQuickColorGroup13colorProviderEv@Base 6.2.0
 _ZNK16QQuickColorGroup15highlightedTextEv@Base 6.2.0
 _ZNK16QQuickColorGroup15placeholderTextEv@Base 6.2.0
 _ZNK16QQuickColorGroup17currentColorGroupEv@Base 6.2.0
 _ZNK16QQuickColorGroup3midEv@Base 6.2.0
 _ZNK16QQuickColorGroup4baseEv@Base 6.2.0
 _ZNK16QQuickColorGroup4darkEv@Base 6.2.0
 _ZNK16QQuickColorGroup4linkEv@Base 6.2.0
 _ZNK16QQuickColorGroup4textEv@Base 6.2.0
 _ZNK16QQuickColorGroup5colorEN8QPalette9ColorRoleE@Base 6.2.0
 _ZNK16QQuickColorGroup5lightEv@Base 6.2.0
 _ZNK16QQuickColorGroup6buttonEv@Base 6.2.0
 _ZNK16QQuickColorGroup6shadowEv@Base 6.2.0
 _ZNK16QQuickColorGroup6windowEv@Base 6.2.0
 _ZNK16QQuickColorGroup8groupTagEv@Base 6.2.0
 _ZNK16QQuickColorGroup8midlightEv@Base 6.2.0
 _ZNK16QQuickColorGroup9highlightEv@Base 6.2.0
 _ZNK16QQuickFocusScope10metaObjectEv@Base 6.2.0
 _ZNK16QQuickFontLoader10metaObjectEv@Base 6.2.0
 _ZNK16QQuickFontLoader4fontEv@Base 6.2.0
 _ZNK16QQuickFontLoader4nameEv@Base 6.2.0
 _ZNK16QQuickFontLoader6sourceEv@Base 6.2.0
 _ZNK16QQuickFontLoader6statusEv@Base 6.2.0
 _ZNK16QQuickMouseEvent10metaObjectEv@Base 6.2.0
 _ZNK16QQuickPinchEvent10metaObjectEv@Base 6.2.0
 _ZNK16QQuickScreenInfo10metaObjectEv@Base 6.2.0
 _ZNK16QQuickScreenInfo11orientationEv@Base 6.2.0
 _ZNK16QQuickScreenInfo12manufacturerEv@Base 6.2.0
 _ZNK16QQuickScreenInfo12pixelDensityEv@Base 6.2.0
 _ZNK16QQuickScreenInfo12serialNumberEv@Base 6.2.0
 _ZNK16QQuickScreenInfo13wrappedScreenEv@Base 6.2.0
 _ZNK16QQuickScreenInfo16devicePixelRatioEv@Base 6.2.0
 _ZNK16QQuickScreenInfo18primaryOrientationEv@Base 6.2.0
 _ZNK16QQuickScreenInfo19logicalPixelDensityEv@Base 6.2.0
 _ZNK16QQuickScreenInfo21desktopAvailableWidthEv@Base 6.2.0
 _ZNK16QQuickScreenInfo22desktopAvailableHeightEv@Base 6.2.0
 _ZNK16QQuickScreenInfo4nameEv@Base 6.2.0
 _ZNK16QQuickScreenInfo5modelEv@Base 6.2.0
 _ZNK16QQuickScreenInfo5widthEv@Base 6.2.0
 _ZNK16QQuickScreenInfo6heightEv@Base 6.2.0
 _ZNK16QQuickScreenInfo8virtualXEv@Base 6.2.0
 _ZNK16QQuickScreenInfo8virtualYEv@Base 6.2.0
 _ZNK16QQuickStateGroup10metaObjectEv@Base 6.2.0
 _ZNK16QQuickStateGroup5stateEv@Base 6.2.0
 _ZNK16QQuickStateGroup6statesEv@Base 6.2.0
 _ZNK16QQuickStateGroup9findStateERK7QString@Base 6.2.0
 _ZNK16QQuickTapHandler10metaObjectEv@Base 6.2.0
 _ZNK16QQuickTapHandler18longPressThresholdEv@Base 6.2.0
 _ZNK16QQuickTapHandler30longPressThresholdMillisecondsEv@Base 6.2.0
 _ZNK16QQuickTouchPoint10metaObjectEv@Base 6.2.0
 _ZNK16QQuickTransition10metaObjectEv@Base 6.2.0
 _ZNK16QQuickTransition10reversibleEv@Base 6.2.0
 _ZNK16QQuickTransition7enabledEv@Base 6.2.0
 _ZNK16QQuickTransition7runningEv@Base 6.2.0
 _ZNK16QQuickTransition7toStateEv@Base 6.2.0
 _ZNK16QQuickTransition9fromStateEv@Base 6.2.0
 _ZNK16QSGBatchRenderer8Renderer40hasVisualizationModeWithContinuousUpdateEv@Base 6.2.0
 _ZNK16QSGContextPlugin10metaObjectEv@Base 6.2.0
 _ZNK16QSGRenderContext10metaObjectEv@Base 6.2.0
 _ZNK16QSGRenderContext27compressedTextureForFactoryEPK27QSGCompressedTextureFactory@Base 6.2.0
 _ZNK16QSGRenderContext3rhiEv@Base 6.2.0
 _ZNK17QQuickAnimatorJob14debugAnimationE6QDebug@Base 6.2.0
 _ZNK17QQuickAnimatorJob5valueEv@Base 6.2.0
 _ZNK17QQuickAnimatorJob8progressEi@Base 6.2.0
 _ZNK17QQuickApplication10metaObjectEv@Base 6.2.0
 _ZNK17QQuickApplication11displayNameEv@Base 6.2.0
 _ZNK17QQuickApplication15layoutDirectionEv@Base 6.2.0
 _ZNK17QQuickApplication23supportsMultipleWindowsEv@Base 6.2.0
 _ZNK17QQuickApplication4fontEv@Base 6.2.0
 _ZNK17QQuickApplication5stateEv@Base 6.2.0
 _ZNK17QQuickApplication6activeEv@Base 6.2.0
 _ZNK17QQuickBorderImage10metaObjectEv@Base 6.2.0
 _ZNK17QQuickBorderImage16verticalTileModeEv@Base 6.2.0
 _ZNK17QQuickBorderImage18horizontalTileModeEv@Base 6.2.0
 _ZNK17QQuickDragHandler10metaObjectEv@Base 6.2.0
 _ZNK17QQuickDragHandler8snapModeEv@Base 6.2.0
 _ZNK17QQuickFontMetrics10elidedTextERK7QStringN2Qt13TextElideModeEdi@Base 6.2.0
 _ZNK17QQuickFontMetrics10metaObjectEv@Base 6.2.0
 _ZNK17QQuickFontMetrics11lineSpacingEv@Base 6.2.0
 _ZNK17QQuickFontMetrics12advanceWidthERK7QString@Base 6.2.0
 _ZNK17QQuickFontMetrics12boundingRectERK7QString@Base 6.2.0
 _ZNK17QQuickFontMetrics16overlinePositionEv@Base 6.2.0
 _ZNK17QQuickFontMetrics17strikeOutPositionEv@Base 6.2.0
 _ZNK17QQuickFontMetrics17tightBoundingRectERK7QString@Base 6.2.0
 _ZNK17QQuickFontMetrics17underlinePositionEv@Base 6.2.0
 _ZNK17QQuickFontMetrics18minimumLeftBearingEv@Base 6.2.0
 _ZNK17QQuickFontMetrics19minimumRightBearingEv@Base 6.2.0
 _ZNK17QQuickFontMetrics21averageCharacterWidthEv@Base 6.2.0
 _ZNK17QQuickFontMetrics21maximumCharacterWidthEv@Base 6.2.0
 _ZNK17QQuickFontMetrics4fontEv@Base 6.2.0
 _ZNK17QQuickFontMetrics6ascentEv@Base 6.2.0
 _ZNK17QQuickFontMetrics6heightEv@Base 6.2.0
 _ZNK17QQuickFontMetrics7descentEv@Base 6.2.0
 _ZNK17QQuickFontMetrics7leadingEv@Base 6.2.0
 _ZNK17QQuickFontMetrics7xHeightEv@Base 6.2.0
 _ZNK17QQuickFontMetrics9lineWidthEv@Base 6.2.0
 _ZNK17QQuickItemPrivate13dirtyToStringEv@Base 6.2.0
 _ZNK17QQuickItemPrivate14accessibleRoleEv@Base 6.2.0
 _ZNK17QQuickItemPrivate14verticalCenterEv@Base 6.2.0
 _ZNK17QQuickItemPrivate15effectiveCursorEPK20QQuickPointerHandler@Base 6.2.0
 _ZNK17QQuickItemPrivate16getImplicitWidthEv@Base 6.2.0
 _ZNK17QQuickItemPrivate16hasHoverHandlersEv@Base 6.2.0
 _ZNK17QQuickItemPrivate16horizontalCenterEv@Base 6.2.0
 _ZNK17QQuickItemPrivate17getImplicitHeightEv@Base 6.2.0
 _ZNK17QQuickItemPrivate18hasPointerHandlersEv@Base 6.2.0
 _ZNK17QQuickItemPrivate19calcEffectiveEnableEv@Base 6.2.0
 _ZNK17QQuickItemPrivate20calcEffectiveVisibleEv@Base 6.2.0
 _ZNK17QQuickItemPrivate20paintOrderChildItemsEv@Base 6.2.0
 _ZNK17QQuickItemPrivate21itemToParentTransformER10QTransform@Base 6.2.0
 _ZNK17QQuickItemPrivate21itemToWindowTransformEv@Base 6.2.0
 _ZNK17QQuickItemPrivate21windowToItemTransformEv@Base 6.2.0
 _ZNK17QQuickItemPrivate22anyPointerHandlerWantsEPK13QPointerEventRK11QEventPoint@Base 6.2.0
 _ZNK17QQuickItemPrivate22computeTransformOriginEv@Base 6.2.0
 _ZNK17QQuickItemPrivate22effectiveCursorHandlerEv@Base 6.2.0
 _ZNK17QQuickItemPrivate23globalToWindowTransformEv@Base 6.2.0
 _ZNK17QQuickItemPrivate23windowToGlobalTransformEv@Base 6.2.0
 _ZNK17QQuickItemPrivate26isTransparentForPositionerEv@Base 6.2.0
 _ZNK17QQuickItemPrivate3topEv@Base 6.2.0
 _ZNK17QQuickItemPrivate4leftEv@Base 6.2.0
 _ZNK17QQuickItemPrivate5layerEv@Base 6.2.0
 _ZNK17QQuickItemPrivate5rightEv@Base 6.2.0
 _ZNK17QQuickItemPrivate5stateEv@Base 6.2.0
 _ZNK17QQuickItemPrivate6bottomEv@Base 6.2.0
 _ZNK17QQuickItemPrivate7anchorsEv@Base 6.2.0
 _ZNK17QQuickItemPrivate8baselineEv@Base 6.2.0
 _ZNK17QQuickPaintedItem10metaObjectEv@Base 6.2.0
 _ZNK17QQuickPaintedItem11textureSizeEv@Base 6.2.0
 _ZNK17QQuickPaintedItem12antialiasingEv@Base 6.2.0
 _ZNK17QQuickPaintedItem12contentsSizeEv@Base 6.2.0
 _ZNK17QQuickPaintedItem12renderTargetEv@Base 6.2.0
 _ZNK17QQuickPaintedItem13contentsScaleEv@Base 6.2.0
 _ZNK17QQuickPaintedItem14opaquePaintingEv@Base 6.2.0
 _ZNK17QQuickPaintedItem15textureProviderEv@Base 6.2.0
 _ZNK17QQuickPaintedItem16performanceHintsEv@Base 6.2.0
 _ZNK17QQuickPaintedItem17isTextureProviderEv@Base 6.2.0
 _ZNK17QQuickPaintedItem20contentsBoundingRectEv@Base 6.2.0
 _ZNK17QQuickPaintedItem6mipmapEv@Base 6.2.0
 _ZNK17QQuickPaintedItem9fillColorEv@Base 6.2.0
 _ZNK17QQuickPathElement10metaObjectEv@Base 6.2.0
 _ZNK17QQuickPathPercent10metaObjectEv@Base 6.2.0
 _ZNK17QQuickPathPercent5valueEv@Base 6.2.0
 _ZNK17QQuickTextMetrics10elideWidthEv@Base 6.2.0
 _ZNK17QQuickTextMetrics10elidedTextEv@Base 6.2.0
 _ZNK17QQuickTextMetrics10metaObjectEv@Base 6.2.0
 _ZNK17QQuickTextMetrics12advanceWidthEv@Base 6.2.0
 _ZNK17QQuickTextMetrics12boundingRectEv@Base 6.2.0
 _ZNK17QQuickTextMetrics17tightBoundingRectEv@Base 6.2.0
 _ZNK17QQuickTextMetrics4fontEv@Base 6.2.0
 _ZNK17QQuickTextMetrics4textEv@Base 6.2.0
 _ZNK17QQuickTextMetrics5elideEv@Base 6.2.0
 _ZNK17QQuickTextMetrics5widthEv@Base 6.2.0
 _ZNK17QQuickTextMetrics6heightEv@Base 6.2.0
 _ZNK17QQuickTextPrivate10elidedTextEdRK9QTextLinePS0_@Base 6.2.0
 _ZNK17QQuickTextPrivate14availableWidthEv@Base 6.2.0
 _ZNK17QQuickTextPrivate15availableHeightEv@Base 6.2.0
 _ZNK17QQuickTextPrivate16getImplicitWidthEv@Base 6.2.0
 _ZNK17QQuickTextPrivate16lineHeightOffsetEv@Base 6.2.0
 _ZNK17QQuickTextPrivate17getImplicitHeightEv@Base 6.2.0
 _ZNK17QQuickTextPrivate8anchorAtERK7QPointF@Base 6.2.0
 _ZNK17QQuickTextPrivate8getLinksEv@Base 6.2.0
 _ZNK17QQuickViewPrivate14rootObjectSizeEv@Base 6.2.0
 _ZNK17QQuickViewSection10metaObjectEv@Base 6.2.0
 _ZNK17QSGDefaultContext10shaderTypeEv@Base 6.2.0
 _ZNK17QSGDefaultContext11getResourceEP12QQuickWindowN20QSGRendererInterface8ResourceE@Base 6.2.0
 _ZNK17QSGDefaultContext11graphicsApiEv@Base 6.2.0
 _ZNK17QSGDefaultContext16shaderSourceTypeEv@Base 6.2.0
 _ZNK17QSGDefaultContext20defaultSurfaceFormatEv@Base 6.2.0
 _ZNK17QSGDefaultContext21shaderCompilationTypeEv@Base 6.2.0
 _ZNK17QSGDefaultContext22isDistanceFieldEnabledEv@Base 6.2.0
 _ZNK17QSGDynamicTexture10metaObjectEv@Base 6.2.0
 _ZNK17QSGMaterialShader11RenderState10deviceRectEv@Base 6.2.0
 _ZNK17QSGMaterialShader11RenderState11determinantEv@Base 6.2.0
 _ZNK17QSGMaterialShader11RenderState12viewportRectEv@Base 6.2.0
 _ZNK17QSGMaterialShader11RenderState14combinedMatrixEv@Base 6.2.0
 _ZNK17QSGMaterialShader11RenderState15modelViewMatrixEv@Base 6.2.0
 _ZNK17QSGMaterialShader11RenderState16devicePixelRatioEv@Base 6.2.0
 _ZNK17QSGMaterialShader11RenderState16projectionMatrixEv@Base 6.2.0
 _ZNK17QSGMaterialShader11RenderState7opacityEv@Base 6.2.0
 _ZNK17QSGMaterialShader5flagsEv@Base 6.2.0
 _ZNK17QSGSimpleRectNode4rectEv@Base 6.2.0
 _ZNK17QSGSimpleRectNode5colorEv@Base 6.2.0
 _ZNK17QSGTexturePrivate22hasDirtySamplerOptionsEv@Base 6.2.0
 _ZNK18QQuickDragAttached10metaObjectEv@Base 6.2.0
 _ZNK18QQuickDragAttached11imageSourceEv@Base 6.2.0
 _ZNK18QQuickDragAttached14proposedActionEv@Base 6.2.0
 _ZNK18QQuickDragAttached16supportedActionsEv@Base 6.2.0
 _ZNK18QQuickDragAttached4keysEv@Base 6.2.0
 _ZNK18QQuickDragAttached6sourceEv@Base 6.2.0
 _ZNK18QQuickDragAttached6targetEv@Base 6.2.0
 _ZNK18QQuickDragAttached7hotSpotEv@Base 6.2.0
 _ZNK18QQuickDragAttached8dragTypeEv@Base 6.2.0
 _ZNK18QQuickDragAttached8isActiveEv@Base 6.2.0
 _ZNK18QQuickDragAttached8mimeDataEv@Base 6.2.0
 _ZNK18QQuickGradientStop10metaObjectEv@Base 6.2.0
 _ZNK18QQuickGradientStop5colorEv@Base 6.2.0
 _ZNK18QQuickGradientStop8positionEv@Base 6.2.0
 _ZNK18QQuickHoverHandler10metaObjectEv@Base 6.2.0
 _ZNK18QQuickIntValidator10localeNameEv@Base 6.2.0
 _ZNK18QQuickIntValidator10metaObjectEv@Base 6.2.0
 _ZNK18QQuickParentChange10metaObjectEv@Base 6.2.0
 _ZNK18QQuickParentChange10scaleIsSetEv@Base 6.2.0
 _ZNK18QQuickParentChange10widthIsSetEv@Base 6.2.0
 _ZNK18QQuickParentChange11heightIsSetEv@Base 6.2.0
 _ZNK18QQuickParentChange13rotationIsSetEv@Base 6.2.0
 _ZNK18QQuickParentChange14originalParentEv@Base 6.2.0
 _ZNK18QQuickParentChange1xEv@Base 6.2.0
 _ZNK18QQuickParentChange1yEv@Base 6.2.0
 _ZNK18QQuickParentChange4typeEv@Base 6.2.0
 _ZNK18QQuickParentChange5scaleEv@Base 6.2.0
 _ZNK18QQuickParentChange5widthEv@Base 6.2.0
 _ZNK18QQuickParentChange6heightEv@Base 6.2.0
 _ZNK18QQuickParentChange6objectEv@Base 6.2.0
 _ZNK18QQuickParentChange6parentEv@Base 6.2.0
 _ZNK18QQuickParentChange6xIsSetEv@Base 6.2.0
 _ZNK18QQuickParentChange6yIsSetEv@Base 6.2.0
 _ZNK18QQuickParentChange8rotationEv@Base 6.2.0
 _ZNK18QQuickPathAngleArc10metaObjectEv@Base 6.2.0
 _ZNK18QQuickPathAngleArc10startAngleEv@Base 6.2.0
 _ZNK18QQuickPathAngleArc10sweepAngleEv@Base 6.2.0
 _ZNK18QQuickPathAngleArc11moveToStartEv@Base 6.2.0
 _ZNK18QQuickPathAngleArc7centerXEv@Base 6.2.0
 _ZNK18QQuickPathAngleArc7centerYEv@Base 6.2.0
 _ZNK18QQuickPathAngleArc7radiusXEv@Base 6.2.0
 _ZNK18QQuickPathAngleArc7radiusYEv@Base 6.2.0
 _ZNK18QQuickPathPolyline10metaObjectEv@Base 6.2.0
 _ZNK18QQuickPathPolyline4pathEv@Base 6.2.0
 _ZNK18QQuickPathPolyline5startEv@Base 6.2.0
 _ZNK18QQuickPinchHandler10metaObjectEv@Base 6.2.0
 _ZNK18QQuickPointHandler10metaObjectEv@Base 6.2.0
 _ZNK18QQuickPointHandler11translationEv@Base 6.2.0
 _ZNK18QQuickRenderTarget6isNullEv@Base 6.2.0
 _ZNK18QQuickRenderTarget7isEqualERKS_@Base 6.2.0
 _ZNK18QQuickScriptAction10metaObjectEv@Base 6.2.0
 _ZNK18QQuickScriptAction21stateChangeScriptNameEv@Base 6.2.0
 _ZNK18QQuickScriptAction6scriptEv@Base 6.2.0
 _ZNK18QQuickShaderEffect10metaObjectEv@Base 6.2.0
 _ZNK18QQuickShaderEffect12vertexShaderEv@Base 6.2.0
 _ZNK18QQuickShaderEffect14fragmentShaderEv@Base 6.2.0
 _ZNK18QQuickShaderEffect19isComponentCompleteEv@Base 6.2.0
 _ZNK18QQuickShaderEffect21supportsAtlasTexturesEv@Base 6.2.0
 _ZNK18QQuickShaderEffect3logEv@Base 6.2.0
 _ZNK18QQuickShaderEffect4meshEv@Base 6.2.0
 _ZNK18QQuickShaderEffect6statusEv@Base 6.2.0
 _ZNK18QQuickShaderEffect8blendingEv@Base 6.2.0
 _ZNK18QQuickShaderEffect8cullModeEv@Base 6.2.0
 _ZNK18QQuickSpriteEngine10metaObjectEv@Base 6.2.0
 _ZNK18QQuickSpriteEngine11spriteCountEv@Base 6.2.0
 _ZNK18QQuickSpriteEngine11spriteStartEi@Base 6.2.0
 _ZNK18QQuickSpriteEngine11spriteStateEi@Base 6.2.0
 _ZNK18QQuickSpriteEngine11spriteWidthEi@Base 6.2.0
 _ZNK18QQuickSpriteEngine12spriteFramesEi@Base 6.2.0
 _ZNK18QQuickSpriteEngine12spriteHeightEi@Base 6.2.0
 _ZNK18QQuickSpriteEngine14spriteDurationEi@Base 6.2.0
 _ZNK18QQuickSpriteEngine20pseudospriteProgressEiiPi@Base 6.2.0
 _ZNK18QQuickSpriteEngine6spriteEi@Base 6.2.0
 _ZNK18QQuickSpriteEngine6statusEv@Base 6.2.0
 _ZNK18QQuickSpriteEngine7spriteXEi@Base 6.2.0
 _ZNK18QQuickSpriteEngine7spriteYEi@Base 6.2.0
 _ZNK18QQuickSpriteEngine9maxFramesEv@Base 6.2.0
 _ZNK18QQuickTextDocument10metaObjectEv@Base 6.2.0
 _ZNK18QQuickTextDocument12textDocumentEv@Base 6.2.0
 _ZNK18QQuickWheelHandler10metaObjectEv@Base 6.2.0
 _ZNK18QQuickWheelHandler11orientationEv@Base 6.2.0
 _ZNK18QQuickWheelHandler12isInvertibleEv@Base 6.2.0
 _ZNK18QQuickWheelHandler13activeTimeoutEv@Base 6.2.0
 _ZNK18QQuickWheelHandler13rotationScaleEv@Base 6.2.0
 _ZNK18QQuickWheelHandler21targetScaleMultiplierEv@Base 6.2.0
 _ZNK18QQuickWheelHandler29isTargetTransformAroundCursorEv@Base 6.2.0
 _ZNK18QQuickWheelHandler8propertyEv@Base 6.2.0
 _ZNK18QQuickWheelHandler8rotationEv@Base 6.2.0
 _ZNK18QSGTextureMaterial12createShaderEN20QSGRendererInterface10RenderModeE@Base 6.2.0
 _ZNK18QSGTextureMaterial4typeEv@Base 6.2.0
 _ZNK18QSGTextureProvider10metaObjectEv@Base 6.2.0
 _ZNK19QQuickAnchorChanges10metaObjectEv@Base 6.2.0
 _ZNK19QQuickAnchorChanges17additionalActionsEv@Base 6.2.0
 _ZNK19QQuickAnchorChanges4typeEv@Base 6.2.0
 _ZNK19QQuickAnchorChanges6objectEv@Base 6.2.0
 _ZNK19QQuickAnchorChanges7anchorsEv@Base 6.2.0
 _ZNK19QQuickAnimatedImage10frameCountEv@Base 6.2.0
 _ZNK19QQuickAnimatedImage10metaObjectEv@Base 6.2.0
 _ZNK19QQuickAnimatedImage12currentFrameEv@Base 6.2.0
 _ZNK19QQuickAnimatedImage5speedEv@Base 6.2.0
 _ZNK19QQuickAnimatedImage8isPausedEv@Base 6.2.0
 _ZNK19QQuickAnimatedImage9isPlayingEv@Base 6.2.0
 _ZNK19QQuickDeliveryAgent10metaObjectEv@Base 6.2.0
 _ZNK19QQuickDeliveryAgent14sceneTransformEv@Base 6.2.0
 _ZNK19QQuickDeliveryAgent8rootItemEv@Base 6.2.0
 _ZNK19QQuickFontValueType11wordSpacingEv@Base 6.2.0
 _ZNK19QQuickFontValueType13letterSpacingEv@Base 6.2.0
 _ZNK19QQuickFontValueType13preferShapingEv@Base 6.2.0
 _ZNK19QQuickFontValueType14capitalizationEv@Base 6.2.0
 _ZNK19QQuickFontValueType17hintingPreferenceEv@Base 6.2.0
 _ZNK19QQuickFontValueType4boldEv@Base 6.2.0
 _ZNK19QQuickFontValueType6familyEv@Base 6.2.0
 _ZNK19QQuickFontValueType6italicEv@Base 6.2.0
 _ZNK19QQuickFontValueType6weightEv@Base 6.2.0
 _ZNK19QQuickFontValueType7kerningEv@Base 6.2.0
 _ZNK19QQuickFontValueType8overlineEv@Base 6.2.0
 _ZNK19QQuickFontValueType8toStringEv@Base 6.2.0
 _ZNK19QQuickFontValueType9pixelSizeEv@Base 6.2.0
 _ZNK19QQuickFontValueType9pointSizeEv@Base 6.2.0
 _ZNK19QQuickFontValueType9strikeoutEv@Base 6.2.0
 _ZNK19QQuickFontValueType9styleNameEv@Base 6.2.0
 _ZNK19QQuickFontValueType9underlineEv@Base 6.2.0
 _ZNK19QQuickImageProvider10metaObjectEv@Base 6.2.0
 _ZNK19QQuickImageProvider5flagsEv@Base 6.2.0
 _ZNK19QQuickImageProvider9imageTypeEv@Base 6.2.0
 _ZNK19QQuickImageResponse10metaObjectEv@Base 6.2.0
 _ZNK19QQuickImageResponse11errorStringEv@Base 6.2.0
 _ZNK19QQuickPathAnimation10metaObjectEv@Base 6.2.0
 _ZNK19QQuickPathAnimation11anchorPointEv@Base 6.2.0
 _ZNK19QQuickPathAnimation11endRotationEv@Base 6.2.0
 _ZNK19QQuickPathAnimation11orientationEv@Base 6.2.0
 _ZNK19QQuickPathAnimation23orientationExitDurationEv@Base 6.2.0
 _ZNK19QQuickPathAnimation24orientationEntryDurationEv@Base 6.2.0
 _ZNK19QQuickPathAnimation4pathEv@Base 6.2.0
 _ZNK19QQuickPathAnimation6easingEv@Base 6.2.0
 _ZNK19QQuickPathAnimation6targetEv@Base 6.2.0
 _ZNK19QQuickPathAnimation8durationEv@Base 6.2.0
 _ZNK19QQuickPathAttribute10metaObjectEv@Base 6.2.0
 _ZNK19QQuickPathAttribute4nameEv@Base 6.2.0
 _ZNK19QQuickPathAttribute5valueEv@Base 6.2.0
 _ZNK19QQuickPathMultiline10metaObjectEv@Base 6.2.0
 _ZNK19QQuickPathMultiline5pathsEv@Base 6.2.0
 _ZNK19QQuickPathMultiline5startEv@Base 6.2.0
 _ZNK19QQuickRenderControl10metaObjectEv@Base 6.2.0
 _ZNK19QQuickRenderControl6windowEv@Base 6.2.0
 _ZNK19QQuickRenderControl7samplesEv@Base 6.2.0
 _ZNK19QQuickScaleAnimator10metaObjectEv@Base 6.2.0
 _ZNK19QQuickScaleAnimator9createJobEv@Base 6.2.0
 _ZNK19QQuickSystemPalette10buttonTextEv@Base 6.2.0
 _ZNK19QQuickSystemPalette10colorGroupEv@Base 6.2.0
 _ZNK19QQuickSystemPalette10metaObjectEv@Base 6.2.0
 _ZNK19QQuickSystemPalette10windowTextEv@Base 6.2.0
 _ZNK19QQuickSystemPalette13alternateBaseEv@Base 6.2.0
 _ZNK19QQuickSystemPalette15highlightedTextEv@Base 6.2.0
 _ZNK19QQuickSystemPalette15placeholderTextEv@Base 6.2.0
 _ZNK19QQuickSystemPalette3midEv@Base 6.2.0
 _ZNK19QQuickSystemPalette4baseEv@Base 6.2.0
 _ZNK19QQuickSystemPalette4darkEv@Base 6.2.0
 _ZNK19QQuickSystemPalette4textEv@Base 6.2.0
 _ZNK19QQuickSystemPalette5lightEv@Base 6.2.0
 _ZNK19QQuickSystemPalette6buttonEv@Base 6.2.0
 _ZNK19QQuickSystemPalette6shadowEv@Base 6.2.0
 _ZNK19QQuickSystemPalette6windowEv@Base 6.2.0
 _ZNK19QQuickSystemPalette8midlightEv@Base 6.2.0
 _ZNK19QQuickSystemPalette9highlightEv@Base 6.2.0
 _ZNK19QQuickWindowPrivate12isRenderableEv@Base 6.2.0
 _ZNK19QQuickWindowPrivate24findCursorItemAndHandlerEP10QQuickItemRK7QPointF@Base 6.2.0
 _ZNK19QQuickWindowPrivate30createTextureFromNativeTextureEyiRK5QSize6QFlagsIN12QQuickWindow19CreateTextureOptionEES3_INS_28TextureFromNativeTextureFlagEE@Base 6.2.0
 _ZNK19QQuickWindowQmlImpl10metaObjectEv@Base 6.2.0
 _ZNK19QQuickWindowQmlImpl6screenEv@Base 6.2.0
 _ZNK19QSGAbstractRenderer10clearColorEv@Base 6.2.0
 _ZNK19QSGAbstractRenderer10deviceRectEv@Base 6.2.0
 _ZNK19QSGAbstractRenderer10metaObjectEv@Base 6.2.0
 _ZNK19QSGAbstractRenderer12viewportRectEv@Base 6.2.0
 _ZNK19QSGAbstractRenderer16projectionMatrixEv@Base 6.2.0
 _ZNK19QSGAbstractRenderer29projectionMatrixWithNativeNDCEv@Base 6.2.0
 _ZNK19QSGAbstractRenderer8rootNodeEv@Base 6.2.0
 _ZNK19QSGAbstractRenderer9clearModeEv@Base 6.2.0
 _ZNK19QSGDefaultImageNode10sourceRectEv@Base 6.2.0
 _ZNK19QSGDefaultImageNode11ownsTextureEv@Base 6.2.0
 _ZNK19QSGDefaultImageNode15anisotropyLevelEv@Base 6.2.0
 _ZNK19QSGDefaultImageNode15mipmapFilteringEv@Base 6.2.0
 _ZNK19QSGDefaultImageNode27textureCoordinatesTransformEv@Base 6.2.0
 _ZNK19QSGDefaultImageNode4rectEv@Base 6.2.0
 _ZNK19QSGDefaultImageNode7textureEv@Base 6.2.0
 _ZNK19QSGDefaultImageNode9filteringEv@Base 6.2.0
 _ZNK19QSGShaderEffectNode10metaObjectEv@Base 6.2.0
 _ZNK19QSGSoftwareRenderer11flushRegionEv@Base 6.2.0
 _ZNK19QSGSoftwareRenderer18currentPaintDeviceEv@Base 6.2.0
 _ZNK20QAccessibleQuickItem10childCountEv@Base 6.2.0
 _ZNK20QAccessibleQuickItem10childItemsEv@Base 6.2.0
 _ZNK20QAccessibleQuickItem11actionNamesEv@Base 6.2.0
 _ZNK20QAccessibleQuickItem12currentValueEv@Base 6.2.0
 _ZNK20QAccessibleQuickItem12indexOfChildEPK20QAccessibleInterface@Base 6.2.0
 _ZNK20QAccessibleQuickItem12isAccessibleEv@Base 6.2.0
 _ZNK20QAccessibleQuickItem12maximumValueEv@Base 6.2.0
 _ZNK20QAccessibleQuickItem12minimumValueEv@Base 6.2.0
 _ZNK20QAccessibleQuickItem12textAtOffsetEiN11QAccessible16TextBoundaryTypeEPiS2_@Base 6.2.0
 _ZNK20QAccessibleQuickItem12textDocumentEv@Base 6.2.0
 _ZNK20QAccessibleQuickItem13clipsChildrenEv@Base 6.2.0
 _ZNK20QAccessibleQuickItem14characterCountEv@Base 6.2.0
 _ZNK20QAccessibleQuickItem14cursorPositionEv@Base 6.2.0
 _ZNK20QAccessibleQuickItem14selectionCountEv@Base 6.2.0
 _ZNK20QAccessibleQuickItem15minimumStepSizeEv@Base 6.2.0
 _ZNK20QAccessibleQuickItem15textAfterOffsetEiN11QAccessible16TextBoundaryTypeEPiS2_@Base 6.2.0
 _ZNK20QAccessibleQuickItem16textBeforeOffsetEiN11QAccessible16TextBoundaryTypeEPiS2_@Base 6.2.0
 _ZNK20QAccessibleQuickItem20keyBindingsForActionERK7QString@Base 6.2.0
 _ZNK20QAccessibleQuickItem4rectEv@Base 6.2.0
 _ZNK20QAccessibleQuickItem4roleEv@Base 6.2.0
 _ZNK20QAccessibleQuickItem4textEN11QAccessible4TextE@Base 6.2.0
 _ZNK20QAccessibleQuickItem4textEii@Base 6.2.0
 _ZNK20QAccessibleQuickItem5childEi@Base 6.2.0
 _ZNK20QAccessibleQuickItem5stateEv@Base 6.2.0
 _ZNK20QAccessibleQuickItem6parentEv@Base 6.2.0
 _ZNK20QAccessibleQuickItem6windowEv@Base 6.2.0
 _ZNK20QAccessibleQuickItem7childAtEii@Base 6.2.0
 _ZNK20QAccessibleQuickItem8viewRectEv@Base 6.2.0
 _ZNK20QAccessibleQuickItem9selectionEiPiS0_@Base 6.2.0
 _ZNK20QQuickAnimatedSprite10frameCountEv@Base 6.2.0
 _ZNK20QQuickAnimatedSprite10frameWidthEv@Base 6.2.0
 _ZNK20QQuickAnimatedSprite10metaObjectEv@Base 6.2.0
 _ZNK20QQuickAnimatedSprite11frameHeightEv@Base 6.2.0
 _ZNK20QQuickAnimatedSprite11interpolateEv@Base 6.2.0
 _ZNK20QQuickAnimatedSprite12currentFrameEv@Base 6.2.0
 _ZNK20QQuickAnimatedSprite13frameDurationEv@Base 6.2.0
 _ZNK20QQuickAnimatedSprite14finishBehaviorEv@Base 6.2.0
 _ZNK20QQuickAnimatedSprite5loopsEv@Base 6.2.0
 _ZNK20QQuickAnimatedSprite6frameXEv@Base 6.2.0
 _ZNK20QQuickAnimatedSprite6frameYEv@Base 6.2.0
 _ZNK20QQuickAnimatedSprite6pausedEv@Base 6.2.0
 _ZNK20QQuickAnimatedSprite6sourceEv@Base 6.2.0
 _ZNK20QQuickAnimatedSprite7reverseEv@Base 6.2.0
 _ZNK20QQuickAnimatedSprite7runningEv@Base 6.2.0
 _ZNK20QQuickAnimatedSprite9frameRateEv@Base 6.2.0
 _ZNK20QQuickAnimatedSprite9frameSyncEv@Base 6.2.0
 _ZNK20QQuickAnimationGroup10metaObjectEv@Base 6.2.0
 _ZNK20QQuickBasePositioner10metaObjectEv@Base 6.2.0
 _ZNK20QQuickBasePositioner10topPaddingEv@Base 6.2.0
 _ZNK20QQuickBasePositioner11leftPaddingEv@Base 6.2.0
 _ZNK20QQuickBasePositioner12rightPaddingEv@Base 6.2.0
 _ZNK20QQuickBasePositioner13bottomPaddingEv@Base 6.2.0
 _ZNK20QQuickBasePositioner14PositionedItem5itemXEv@Base 6.2.0
 _ZNK20QQuickBasePositioner14PositionedItem5itemYEv@Base 6.2.0
 _ZNK20QQuickBasePositioner24updateAttachedPropertiesEP24QQuickPositionerAttachedP10QQuickItem@Base 6.2.0
 _ZNK20QQuickBasePositioner3addEv@Base 6.2.0
 _ZNK20QQuickBasePositioner4moveEv@Base 6.2.0
 _ZNK20QQuickBasePositioner7paddingEv@Base 6.2.0
 _ZNK20QQuickBasePositioner7spacingEv@Base 6.2.0
 _ZNK20QQuickBasePositioner8populateEv@Base 6.2.0
 _ZNK20QQuickColorAnimation10metaObjectEv@Base 6.2.0
 _ZNK20QQuickColorAnimation2toEv@Base 6.2.0
 _ZNK20QQuickColorAnimation4fromEv@Base 6.2.0
 _ZNK20QQuickColorValueType12hslLightnessEv@Base 6.2.0
 _ZNK20QQuickColorValueType13hslSaturationEv@Base 6.2.0
 _ZNK20QQuickColorValueType13hsvSaturationEv@Base 6.2.0
 _ZNK20QQuickColorValueType1aEv@Base 6.2.0
 _ZNK20QQuickColorValueType1bEv@Base 6.2.0
 _ZNK20QQuickColorValueType1gEv@Base 6.2.0
 _ZNK20QQuickColorValueType1rEv@Base 6.2.0
 _ZNK20QQuickColorValueType4tintE8QVariant@Base 6.2.0
 _ZNK20QQuickColorValueType5alphaEd@Base 6.2.0
 _ZNK20QQuickColorValueType6darkerEd@Base 6.2.0
 _ZNK20QQuickColorValueType6hslHueEv@Base 6.2.0
 _ZNK20QQuickColorValueType6hsvHueEv@Base 6.2.0
 _ZNK20QQuickColorValueType7isValidEv@Base 6.2.0
 _ZNK20QQuickColorValueType7lighterEd@Base 6.2.0
 _ZNK20QQuickColorValueType8hsvValueEv@Base 6.2.0
 _ZNK20QQuickColorValueType8toStringEv@Base 6.2.0
 _ZNK20QQuickGraphicsDevice6isNullEv@Base 6.2.0
 _ZNK20QQuickItemGrabResult10metaObjectEv@Base 6.2.0
 _ZNK20QQuickItemGrabResult10saveToFileERK4QUrl@Base 6.2.0
 _ZNK20QQuickItemGrabResult10saveToFileERK7QString@Base 6.2.0
 _ZNK20QQuickItemGrabResult3urlEv@Base 6.2.0
 _ZNK20QQuickItemGrabResult5imageEv@Base 6.2.0
 _ZNK20QQuickItemViewFxItem16isPendingRemovalEv@Base 6.2.0
 _ZNK20QQuickItemViewFxItem17transitionRunningEv@Base 6.2.0
 _ZNK20QQuickItemViewFxItem23scheduledTransitionTypeEv@Base 6.2.0
 _ZNK20QQuickItemViewFxItem28transitionScheduledOrRunningEv@Base 6.2.0
 _ZNK20QQuickItemViewFxItem5itemXEv@Base 6.2.0
 _ZNK20QQuickItemViewFxItem5itemYEv@Base 6.2.0
 _ZNK20QQuickItemViewFxItem8geometryEv@Base 6.2.0
 _ZNK20QQuickPauseAnimation10metaObjectEv@Base 6.2.0
 _ZNK20QQuickPauseAnimation8durationEv@Base 6.2.0
 _ZNK20QQuickPointerHandler10metaObjectEv@Base 6.2.0
 _ZNK20QQuickPointerHandler10parentItemEv@Base 6.2.0
 _ZNK20QQuickPointerHandler11cursorShapeEv@Base 6.2.0
 _ZNK20QQuickPointerHandler13dragThresholdEv@Base 6.2.0
 _ZNK20QQuickPointerHandler14parentContainsERK11QEventPoint@Base 6.2.0
 _ZNK20QQuickPointerHandler14parentContainsERK7QPointF@Base 6.2.0
 _ZNK20QQuickPointerHandler15grabPermissionsEv@Base 6.2.0
 _ZNK20QQuickPointerHandler26isCursorShapeExplicitlySetEv@Base 6.2.0
 _ZNK20QQuickPointerHandler6activeEv@Base 6.2.0
 _ZNK20QQuickPointerHandler6marginEv@Base 6.2.0
 _ZNK20QQuickPointerHandler6targetEv@Base 6.2.0
 _ZNK20QQuickPointerHandler7enabledEv@Base 6.2.0
 _ZNK20QQuickPointerHandler8eventPosERK11QEventPoint@Base 6.2.0
 _ZNK20QQuickPropertyAction10metaObjectEv@Base 6.2.0
 _ZNK20QQuickPropertyAction10propertiesEv@Base 6.2.0
 _ZNK20QQuickPropertyAction5valueEv@Base 6.2.0
 _ZNK20QQuickPropertyAction6targetEv@Base 6.2.0
 _ZNK20QQuickPropertyAction8propertyEv@Base 6.2.0
 _ZNK20QQuickScreenAttached10metaObjectEv@Base 6.2.0
 _ZNK20QQuickSpriteSequence10goalSpriteEv@Base 6.2.0
 _ZNK20QQuickSpriteSequence10metaObjectEv@Base 6.2.0
 _ZNK20QQuickSpriteSequence11interpolateEv@Base 6.2.0
 _ZNK20QQuickSpriteSequence13currentSpriteEv@Base 6.2.0
 _ZNK20QQuickSpriteSequence7runningEv@Base 6.2.0
 _ZNK20QQuickStateOperation10metaObjectEv@Base 6.2.0
 _ZNK20QQuickStateOperation5stateEv@Base 6.2.0
 _ZNK20QQuickTextureFactory10metaObjectEv@Base 6.2.0
 _ZNK20QQuickTextureFactory5imageEv@Base 6.2.0
 _ZNK20QQuickWindowAttached10metaObjectEv@Base 6.2.0
 _ZNK20QQuickWindowAttached10visibilityEv@Base 6.2.0
 _ZNK20QQuickWindowAttached11contentItemEv@Base 6.2.0
 _ZNK20QQuickWindowAttached15activeFocusItemEv@Base 6.2.0
 _ZNK20QQuickWindowAttached5widthEv@Base 6.2.0
 _ZNK20QQuickWindowAttached6heightEv@Base 6.2.0
 _ZNK20QQuickWindowAttached6windowEv@Base 6.2.0
 _ZNK20QQuickWindowAttached8isActiveEv@Base 6.2.0
 _ZNK20QSGCompressedTexture10hasMipmapsEv@Base 6.2.0
 _ZNK20QSGCompressedTexture10metaObjectEv@Base 6.2.0
 _ZNK20QSGCompressedTexture10rhiTextureEv@Base 6.2.0
 _ZNK20QSGCompressedTexture11textureDataEv@Base 6.2.0
 _ZNK20QSGCompressedTexture11textureSizeEv@Base 6.2.0
 _ZNK20QSGCompressedTexture13comparisonKeyEv@Base 6.2.0
 _ZNK20QSGCompressedTexture15hasAlphaChannelEv@Base 6.2.0
 _ZNK20QSGFlatColorMaterial12createShaderEN20QSGRendererInterface10RenderModeE@Base 6.2.0
 _ZNK20QSGFlatColorMaterial4typeEv@Base 6.2.0
 _ZNK20QSGFlatColorMaterial7compareEPK11QSGMaterial@Base 6.2.0
 _ZNK20QSGRendererInterface11getResourceEP12QQuickWindowNS_8ResourceE@Base 6.2.0
 _ZNK20QSGRendererInterface11getResourceEP12QQuickWindowPKc@Base 6.2.0
 _ZNK20QSGSimpleTextureNode10sourceRectEv@Base 6.2.0
 _ZNK20QSGSimpleTextureNode11ownsTextureEv@Base 6.2.0
 _ZNK20QSGSimpleTextureNode27textureCoordinatesTransformEv@Base 6.2.0
 _ZNK20QSGSimpleTextureNode4rectEv@Base 6.2.0
 _ZNK20QSGSimpleTextureNode7textureEv@Base 6.2.0
 _ZNK20QSGSimpleTextureNode9filteringEv@Base 6.2.0
 _ZNK21QQuickAnchorAnimation10metaObjectEv@Base 6.2.0
 _ZNK21QQuickAnchorAnimation6easingEv@Base 6.2.0
 _ZNK21QQuickAnchorAnimation8durationEv@Base 6.2.0
 _ZNK21QQuickDoubleValidator10localeNameEv@Base 6.2.0
 _ZNK21QQuickDoubleValidator10metaObjectEv@Base 6.2.0
 _ZNK21QQuickNumberAnimation10metaObjectEv@Base 6.2.0
 _ZNK21QQuickNumberAnimation2toEv@Base 6.2.0
 _ZNK21QQuickNumberAnimation4fromEv@Base 6.2.0
 _ZNK21QQuickOpacityAnimator10metaObjectEv@Base 6.2.0
 _ZNK21QQuickOpacityAnimator9createJobEv@Base 6.2.0
 _ZNK21QQuickParentAnimation10metaObjectEv@Base 6.2.0
 _ZNK21QQuickParentAnimation3viaEv@Base 6.2.0
 _ZNK21QQuickParentAnimation6targetEv@Base 6.2.0
 _ZNK21QQuickParentAnimation9newParentEv@Base 6.2.0
 _ZNK21QQuickPropertyChanges10expressionERK7QString@Base 6.2.0
 _ZNK21QQuickPropertyChanges10isExplicitEv@Base 6.2.0
 _ZNK21QQuickPropertyChanges10metaObjectEv@Base 6.2.0
 _ZNK21QQuickPropertyChanges13containsValueERK7QString@Base 6.2.0
 _ZNK21QQuickPropertyChanges16containsPropertyERK7QString@Base 6.2.0
 _ZNK21QQuickPropertyChanges18containsExpressionERK7QString@Base 6.2.0
 _ZNK21QQuickPropertyChanges18restoreEntryValuesEv@Base 6.2.0
 _ZNK21QQuickPropertyChanges5valueERK7QString@Base 6.2.0
 _ZNK21QQuickPropertyChanges6objectEv@Base 6.2.0
 _ZNK21QQuickPropertyChanges8propertyERK7QString@Base 6.2.0
 _ZNK21QQuickSpringAnimation10metaObjectEv@Base 6.2.0
 _ZNK21QQuickSpringAnimation4massEv@Base 6.2.0
 _ZNK21QQuickSpringAnimation6springEv@Base 6.2.0
 _ZNK21QQuickSpringAnimation7dampingEv@Base 6.2.0
 _ZNK21QQuickSpringAnimation7epsilonEv@Base 6.2.0
 _ZNK21QQuickSpringAnimation7modulusEv@Base 6.2.0
 _ZNK21QQuickSpringAnimation8velocityEv@Base 6.2.0
 _ZNK21QQuickStochasticState10metaObjectEv@Base 6.2.0
 _ZNK21QQuickTextEditPrivate13textDirectionERK7QString@Base 6.2.0
 _ZNK21QQuickTextEditPrivate16getImplicitWidthEv@Base 6.2.0
 _ZNK21QQuickTextEditPrivate23isImplicitResizeEnabledEv@Base 6.2.0
 _ZNK21QQuickTextEditPrivate25effectiveInputMethodHintsEv@Base 6.2.0
 _ZNK21QQuickUniformAnimator10metaObjectEv@Base 6.2.0
 _ZNK21QQuickUniformAnimator12propertyNameEv@Base 6.2.0
 _ZNK21QQuickUniformAnimator7uniformEv@Base 6.2.0
 _ZNK21QQuickUniformAnimator9createJobEv@Base 6.2.0
 _ZNK21QSGDefaultPainterNode7toImageEv@Base 6.2.0
 _ZNK22QAccessibleQuickWindow10childCountEv@Base 6.2.0
 _ZNK22QAccessibleQuickWindow10focusChildEv@Base 6.2.0
 _ZNK22QAccessibleQuickWindow12indexOfChildEPK20QAccessibleInterface@Base 6.2.0
 _ZNK22QAccessibleQuickWindow4rectEv@Base 6.2.0
 _ZNK22QAccessibleQuickWindow4roleEv@Base 6.2.0
 _ZNK22QAccessibleQuickWindow4textEN11QAccessible4TextE@Base 6.2.0
 _ZNK22QAccessibleQuickWindow5childEi@Base 6.2.0
 _ZNK22QAccessibleQuickWindow5stateEv@Base 6.2.0
 _ZNK22QAccessibleQuickWindow6parentEv@Base 6.2.0
 _ZNK22QAccessibleQuickWindow7childAtEii@Base 6.2.0
 _ZNK22QAccessibleQuickWindow9rootItemsEv@Base 6.2.0
 _ZNK22QQuickAnimatorProxyJob10metaObjectEv@Base 6.2.0
 _ZNK22QQuickAnimatorProxyJob14debugAnimationE6QDebug@Base 6.2.0
 _ZNK22QQuickFlickablePrivate12isViewMovingEv@Base 6.2.0
 _ZNK22QQuickFlickablePrivate16devicePixelRatioEv@Base 6.2.0
 _ZNK22QQuickFlickablePrivate17overShootDistanceEd@Base 6.2.0
 _ZNK22QQuickFlickablePrivate18computeCurrentTimeEP11QInputEvent@Base 6.2.0
 _ZNK22QQuickFlickablePrivate21isInnermostPressDelayEP10QQuickItem@Base 6.2.0
 _ZNK22QQuickImplicitSizeItem10metaObjectEv@Base 6.2.0
 _ZNK22QQuickItemViewAttached10metaObjectEv@Base 6.2.0
 _ZNK22QQuickListViewAttached10metaObjectEv@Base 6.2.0
 _ZNK22QQuickPathInterpolator10metaObjectEv@Base 6.2.0
 _ZNK22QQuickPathInterpolator1xEv@Base 6.2.0
 _ZNK22QQuickPathInterpolator1yEv@Base 6.2.0
 _ZNK22QQuickPathInterpolator4pathEv@Base 6.2.0
 _ZNK22QQuickPathInterpolator5angleEv@Base 6.2.0
 _ZNK22QQuickPathInterpolator8progressEv@Base 6.2.0
 _ZNK22QQuickRotationAnimator10metaObjectEv@Base 6.2.0
 _ZNK22QQuickRotationAnimator9createJobEv@Base 6.2.0
 _ZNK22QQuickRotationAnimator9directionEv@Base 6.2.0
 _ZNK22QQuickShaderEffectMesh10metaObjectEv@Base 6.2.0
 _ZNK22QQuickStochasticEngine10metaObjectEv@Base 6.2.0
 _ZNK22QQuickTableViewPrivate10cellHeightERK6QPoint@Base 6.2.0
 _ZNK22QQuickTableViewPrivate12rootSyncViewEv@Base 6.2.0
 _ZNK22QQuickTableViewPrivate14sizeHintForRowEi@Base 6.2.0
 _ZNK22QQuickTableViewPrivate15loadedTableItemERK6QPoint@Base 6.2.0
 _ZNK22QQuickTableViewPrivate16canLoadTableEdgeEN2Qt4EdgeE6QRectF@Base 6.2.0
 _ZNK22QQuickTableViewPrivate16cellAtModelIndexEi@Base 6.2.0
 _ZNK22QQuickTableViewPrivate16clampedCellAtPosERK7QPointF@Base 6.2.0
 _ZNK22QQuickTableViewPrivate16modelIndexAtCellERK6QPoint@Base 6.2.0
 _ZNK22QQuickTableViewPrivate17getAttachedObjectEPK7QObject@Base 6.2.0
 _ZNK22QQuickTableViewPrivate17sizeHintForColumnEi@Base 6.2.0
 _ZNK22QQuickTableViewPrivate18canUnloadTableEdgeEN2Qt4EdgeE6QRectF@Base 6.2.0
 _ZNK22QQuickTableViewPrivate18selectionRectangleEv@Base 6.2.0
 _ZNK22QQuickTableViewPrivate21getEffectiveRowHeightEi@Base 6.2.0
 _ZNK22QQuickTableViewPrivate21modelIndexToCellIndexERK11QModelIndex@Base 6.2.0
 _ZNK22QQuickTableViewPrivate23getEffectiveColumnWidthEi@Base 6.2.0
 _ZNK22QQuickTableViewPrivate24selectedInSelectionModelERK6QPoint@Base 6.2.0
 _ZNK22QQuickTableViewPrivate25setSelectedOnDelegateItemEP10QQuickItemb@Base 6.2.0
 _ZNK22QQuickTableViewPrivate25setSelectedOnDelegateItemERK11QModelIndexb@Base 6.2.0
 _ZNK22QQuickTableViewPrivate29selectionPointerHandlerTargetEv@Base 6.2.0
 _ZNK22QQuickTableViewPrivate32selectionChangedInSelectionModelERK14QItemSelectionS2_@Base 6.2.0
 _ZNK22QQuickTableViewPrivate32updateSelectedOnAllDelegateItemsEv@Base 6.2.0
 _ZNK22QQuickTableViewPrivate9cellWidthERK6QPoint@Base 6.2.0
 _ZNK22QQuickTableViewPrivate9dumpTableEv@Base 6.2.0
 _ZNK22QQuickTableViewPrivate9modelImplEv@Base 6.2.0
 _ZNK22QQuickTableViewPrivate9selectionEv@Base 6.2.0
 _ZNK22QQuickTextInputPrivate10findInMaskEibb5QChar@Base 6.2.0
 _ZNK22QQuickTextInputPrivate10maskStringEjRK7QStringb@Base 6.2.0
 _ZNK22QQuickTextInputPrivate10positionAtEddN9QTextLine14CursorPositionE@Base 6.2.0
 _ZNK22QQuickTextInputPrivate11clearStringEjj@Base 6.2.0
 _ZNK22QQuickTextInputPrivate11stripStringERK7QString@Base 6.2.0
 _ZNK22QQuickTextInputPrivate12isValidInputE5QCharS0_@Base 6.2.0
 _ZNK22QQuickTextInputPrivate13textDirectionEv@Base 6.2.0
 _ZNK22QQuickTextInputPrivate15anchorRectangleEv@Base 6.2.0
 _ZNK22QQuickTextInputPrivate15layoutDirectionEv@Base 6.2.0
 _ZNK22QQuickTextInputPrivate16getImplicitWidthEv@Base 6.2.0
 _ZNK22QQuickTextInputPrivate18hasAcceptableInputERK7QString@Base 6.2.0
 _ZNK22QQuickTextInputPrivate23isImplicitResizeEnabledEv@Base 6.2.0
 _ZNK22QQuickTextInputPrivate25effectiveInputMethodHintsEv@Base 6.2.0
 _ZNK22QQuickTextInputPrivate29calculateImplicitWidthForTextERK7QString@Base 6.2.0
 _ZNK22QQuickTextInputPrivate4copyEN10QClipboard4ModeE@Base 6.2.0
 _ZNK22QQuickTextInputPrivate8realTextEv@Base 6.2.0
 _ZNK22QSGSmoothColorMaterial12createShaderEN20QSGRendererInterface10RenderModeE@Base 6.2.0
 _ZNK22QSGSmoothColorMaterial4typeEv@Base 6.2.0
 _ZNK22QSGSmoothColorMaterial7compareEPK11QSGMaterial@Base 6.2.0
 _ZNK22QSGVertexColorMaterial12createShaderEN20QSGRendererInterface10RenderModeE@Base 6.2.0
 _ZNK22QSGVertexColorMaterial4typeEv@Base 6.2.0
 _ZNK22QSGVertexColorMaterial7compareEPK11QSGMaterial@Base 6.2.0
 _ZNK23QQuickAbstractAnimation10metaObjectEv@Base 6.2.0
 _ZNK23QQuickAbstractAnimation14alwaysRunToEndEv@Base 6.2.0
 _ZNK23QQuickAbstractAnimation14threadingModelEv@Base 6.2.0
 _ZNK23QQuickAbstractAnimation19userControlDisabledEv@Base 6.2.0
 _ZNK23QQuickAbstractAnimation5groupEv@Base 6.2.0
 _ZNK23QQuickAbstractAnimation5loopsEv@Base 6.2.0
 _ZNK23QQuickAbstractAnimation8durationEv@Base 6.2.0
 _ZNK23QQuickAbstractAnimation8isPausedEv@Base 6.2.0
 _ZNK23QQuickAbstractAnimation9isRunningEv@Base 6.2.0
 _ZNK23QQuickFramebufferObject10metaObjectEv@Base 6.2.0
 _ZNK23QQuickFramebufferObject15textureProviderEv@Base 6.2.0
 _ZNK23QQuickFramebufferObject16mirrorVerticallyEv@Base 6.2.0
 _ZNK23QQuickFramebufferObject17isTextureProviderEv@Base 6.2.0
 _ZNK23QQuickFramebufferObject22textureFollowsItemSizeEv@Base 6.2.0
 _ZNK23QQuickFramebufferObject8Renderer17framebufferObjectEv@Base 6.2.0
 _ZNK23QQuickMultiPointHandler10metaObjectEv@Base 6.2.0
 _ZNK23QQuickMultiPointHandler17maximumPointCountEv@Base 6.2.0
 _ZNK23QQuickMultiPointHandler17minimumPointCountEv@Base 6.2.0
 _ZNK23QQuickMultiPointHandler6anglesERK7QPointF@Base 6.2.0
 _ZNK23QQuickMultiPointHandler8centroidEv@Base 6.2.0
 _ZNK23QQuickParallelAnimation10metaObjectEv@Base 6.2.0
 _ZNK23QQuickParallelAnimation14threadingModelEv@Base 6.2.0
 _ZNK23QQuickPropertyAnimation10metaObjectEv@Base 6.2.0
 _ZNK23QQuickPropertyAnimation10propertiesEv@Base 6.2.0
 _ZNK23QQuickPropertyAnimation2toEv@Base 6.2.0
 _ZNK23QQuickPropertyAnimation4fromEv@Base 6.2.0
 _ZNK23QQuickPropertyAnimation6easingEv@Base 6.2.0
 _ZNK23QQuickPropertyAnimation6targetEv@Base 6.2.0
 _ZNK23QQuickPropertyAnimation8durationEv@Base 6.2.0
 _ZNK23QQuickPropertyAnimation8propertyEv@Base 6.2.0
 _ZNK23QQuickRotationAnimation10metaObjectEv@Base 6.2.0
 _ZNK23QQuickRotationAnimation2toEv@Base 6.2.0
 _ZNK23QQuickRotationAnimation4fromEv@Base 6.2.0
 _ZNK23QQuickRotationAnimation9directionEv@Base 6.2.0
 _ZNK23QQuickSmoothedAnimation10metaObjectEv@Base 6.2.0
 _ZNK23QQuickSmoothedAnimation13reversingModeEv@Base 6.2.0
 _ZNK23QQuickSmoothedAnimation17maximumEasingTimeEv@Base 6.2.0
 _ZNK23QQuickSmoothedAnimation8durationEv@Base 6.2.0
 _ZNK23QQuickSmoothedAnimation8velocityEv@Base 6.2.0
 _ZNK23QQuickStateChangeScript10metaObjectEv@Base 6.2.0
 _ZNK23QQuickStateChangeScript4nameEv@Base 6.2.0
 _ZNK23QQuickStateChangeScript4typeEv@Base 6.2.0
 _ZNK23QQuickStateChangeScript6scriptEv@Base 6.2.0
 _ZNK23QQuickTableViewAttached10metaObjectEv@Base 6.2.0
 _ZNK23QQuickTransitionManager9isRunningEv@Base 6.2.0
 _ZNK23QQuickVector2DValueType10dotProductERK9QVector2D@Base 6.2.0
 _ZNK23QQuickVector2DValueType10normalizedEv@Base 6.2.0
 _ZNK23QQuickVector2DValueType10toVector3dEv@Base 6.2.0
 _ZNK23QQuickVector2DValueType10toVector4dEv@Base 6.2.0
 _ZNK23QQuickVector2DValueType11fuzzyEqualsERK9QVector2D@Base 6.2.0
 _ZNK23QQuickVector2DValueType11fuzzyEqualsERK9QVector2Dd@Base 6.2.0
 _ZNK23QQuickVector2DValueType1xEv@Base 6.2.0
 _ZNK23QQuickVector2DValueType1yEv@Base 6.2.0
 _ZNK23QQuickVector2DValueType4plusERK9QVector2D@Base 6.2.0
 _ZNK23QQuickVector2DValueType5minusERK9QVector2D@Base 6.2.0
 _ZNK23QQuickVector2DValueType5timesERK9QVector2D@Base 6.2.0
 _ZNK23QQuickVector2DValueType5timesEd@Base 6.2.0
 _ZNK23QQuickVector2DValueType6lengthEv@Base 6.2.0
 _ZNK23QQuickVector2DValueType8toStringEv@Base 6.2.0
 _ZNK23QQuickVector3DValueType10dotProductERK9QVector3D@Base 6.2.0
 _ZNK23QQuickVector3DValueType10normalizedEv@Base 6.2.0
 _ZNK23QQuickVector3DValueType10toVector2dEv@Base 6.2.0
 _ZNK23QQuickVector3DValueType10toVector4dEv@Base 6.2.0
 _ZNK23QQuickVector3DValueType11fuzzyEqualsERK9QVector3D@Base 6.2.0
 _ZNK23QQuickVector3DValueType11fuzzyEqualsERK9QVector3Dd@Base 6.2.0
 _ZNK23QQuickVector3DValueType12crossProductERK9QVector3D@Base 6.2.0
 _ZNK23QQuickVector3DValueType1xEv@Base 6.2.0
 _ZNK23QQuickVector3DValueType1yEv@Base 6.2.0
 _ZNK23QQuickVector3DValueType1zEv@Base 6.2.0
 _ZNK23QQuickVector3DValueType4plusERK9QVector3D@Base 6.2.0
 _ZNK23QQuickVector3DValueType5minusERK9QVector3D@Base 6.2.0
 _ZNK23QQuickVector3DValueType5timesERK10QMatrix4x4@Base 6.2.0
 _ZNK23QQuickVector3DValueType5timesERK9QVector3D@Base 6.2.0
 _ZNK23QQuickVector3DValueType5timesEd@Base 6.2.0
 _ZNK23QQuickVector3DValueType6lengthEv@Base 6.2.0
 _ZNK23QQuickVector3DValueType8toStringEv@Base 6.2.0
 _ZNK23QQuickVector3dAnimation10metaObjectEv@Base 6.2.0
 _ZNK23QQuickVector3dAnimation2toEv@Base 6.2.0
 _ZNK23QQuickVector3dAnimation4fromEv@Base 6.2.0
 _ZNK23QQuickVector4DValueType10dotProductERK9QVector4D@Base 6.2.0
 _ZNK23QQuickVector4DValueType10normalizedEv@Base 6.2.0
 _ZNK23QQuickVector4DValueType10toVector2dEv@Base 6.2.0
 _ZNK23QQuickVector4DValueType10toVector3dEv@Base 6.2.0
 _ZNK23QQuickVector4DValueType11fuzzyEqualsERK9QVector4D@Base 6.2.0
 _ZNK23QQuickVector4DValueType11fuzzyEqualsERK9QVector4Dd@Base 6.2.0
 _ZNK23QQuickVector4DValueType1wEv@Base 6.2.0
 _ZNK23QQuickVector4DValueType1xEv@Base 6.2.0
 _ZNK23QQuickVector4DValueType1yEv@Base 6.2.0
 _ZNK23QQuickVector4DValueType1zEv@Base 6.2.0
 _ZNK23QQuickVector4DValueType4plusERK9QVector4D@Base 6.2.0
 _ZNK23QQuickVector4DValueType5minusERK9QVector4D@Base 6.2.0
 _ZNK23QQuickVector4DValueType5timesERK10QMatrix4x4@Base 6.2.0
 _ZNK23QQuickVector4DValueType5timesERK9QVector4D@Base 6.2.0
 _ZNK23QQuickVector4DValueType5timesEd@Base 6.2.0
 _ZNK23QQuickVector4DValueType6lengthEv@Base 6.2.0
 _ZNK23QQuickVector4DValueType8toStringEv@Base 6.2.0
 _ZNK23QSGDefaultRenderContext10metaObjectEv@Base 6.2.0
 _ZNK23QSGDefaultRenderContext13createTextureERK6QImagej@Base 6.2.0
 _ZNK23QSGDefaultRenderContext27compressedTextureForFactoryEPK27QSGCompressedTextureFactory@Base 6.2.0
 _ZNK24QQuickAccessibleAttached10metaObjectEv@Base 6.2.0
 _ZNK24QQuickAccessibleAttached16availableActionsEP5QListI7QStringE@Base 6.2.0
 _ZNK24QQuickAccessibleAttached20wasNameExplicitlySetEv@Base 6.2.0
 _ZNK24QQuickAccessibleAttached7ignoredEv@Base 6.2.0
 _ZNK24QQuickMatrix4x4ValueType10transposedEv@Base 6.2.0
 _ZNK24QQuickMatrix4x4ValueType11determinantEv@Base 6.2.0
 _ZNK24QQuickMatrix4x4ValueType11fuzzyEqualsERK10QMatrix4x4@Base 6.2.0
 _ZNK24QQuickMatrix4x4ValueType11fuzzyEqualsERK10QMatrix4x4d@Base 6.2.0
 _ZNK24QQuickMatrix4x4ValueType3rowEi@Base 6.2.0
 _ZNK24QQuickMatrix4x4ValueType4plusERK10QMatrix4x4@Base 6.2.0
 _ZNK24QQuickMatrix4x4ValueType5minusERK10QMatrix4x4@Base 6.2.0
 _ZNK24QQuickMatrix4x4ValueType5timesERK10QMatrix4x4@Base 6.2.0
 _ZNK24QQuickMatrix4x4ValueType5timesERK9QVector3D@Base 6.2.0
 _ZNK24QQuickMatrix4x4ValueType5timesERK9QVector4D@Base 6.2.0
 _ZNK24QQuickMatrix4x4ValueType5timesEd@Base 6.2.0
 _ZNK24QQuickMatrix4x4ValueType6columnEi@Base 6.2.0
 _ZNK24QQuickMatrix4x4ValueType8invertedEv@Base 6.2.0
 _ZNK24QQuickShaderEffectSource10hideSourceEv@Base 6.2.0
 _ZNK24QQuickShaderEffectSource10metaObjectEv@Base 6.2.0
 _ZNK24QQuickShaderEffectSource10sourceItemEv@Base 6.2.0
 _ZNK24QQuickShaderEffectSource10sourceRectEv@Base 6.2.0
 _ZNK24QQuickShaderEffectSource11textureSizeEv@Base 6.2.0
 _ZNK24QQuickShaderEffectSource15textureProviderEv@Base 6.2.0
 _ZNK24QQuickShaderEffectSource16textureMirroringEv@Base 6.2.0
 _ZNK24QQuickShaderEffectSource4liveEv@Base 6.2.0
 _ZNK24QQuickShaderEffectSource6formatEv@Base 6.2.0
 _ZNK24QQuickShaderEffectSource6mipmapEv@Base 6.2.0
 _ZNK24QQuickShaderEffectSource7samplesEv@Base 6.2.0
 _ZNK24QQuickShaderEffectSource8wrapModeEv@Base 6.2.0
 _ZNK24QQuickShaderEffectSource9recursiveEv@Base 6.2.0
 _ZNK24QQuickSinglePointHandler10metaObjectEv@Base 6.2.0
 _ZNK24QQuickSinglePointHandler5pointEv@Base 6.2.0
 _ZNK24QSGOpaqueTextureMaterial12createShaderEN20QSGRendererInterface10RenderModeE@Base 6.2.0
 _ZNK24QSGOpaqueTextureMaterial4typeEv@Base 6.2.0
 _ZNK24QSGOpaqueTextureMaterial7compareEPK11QSGMaterial@Base 6.2.0
 _ZNK24QSGSmoothTextureMaterial12createShaderEN20QSGRendererInterface10RenderModeE@Base 6.2.0
 _ZNK24QSGSmoothTextureMaterial4typeEv@Base 6.2.0
 _ZNK24QSGTexturePlatformOpenGL13nativeTextureEv@Base 6.2.0
 (arch=linux-any)_ZNK24QSGTexturePlatformVulkan11nativeImageEv@Base 6.2.0
 (arch=linux-any)_ZNK24QSGTexturePlatformVulkan17nativeImageLayoutEv@Base 6.2.0
 _ZNK25QQuickAnimationController10metaObjectEv@Base 6.2.0
 _ZNK25QQuickAnimationController8progressEv@Base 6.2.0
 _ZNK25QQuickAnimationController9animationEv@Base 6.2.0
 _ZNK25QQuickColorSpaceValueType15namedColorSpaceEv@Base 6.2.0
 _ZNK25QQuickColorSpaceValueType16transferFunctionEv@Base 6.2.0
 _ZNK25QQuickColorSpaceValueType5gammaEv@Base 6.2.0
 _ZNK25QQuickColorSpaceValueType9primariesEv@Base 6.2.0
 _ZNK25QQuickMultiPointTouchArea10metaObjectEv@Base 6.2.0
 _ZNK25QQuickMultiPointTouchArea18maximumTouchPointsEv@Base 6.2.0
 _ZNK25QQuickMultiPointTouchArea18minimumTouchPointsEv@Base 6.2.0
 _ZNK25QQuickPathCatmullRomCurve10metaObjectEv@Base 6.2.0
 _ZNK25QQuickQuaternionValueType1xEv@Base 6.2.0
 _ZNK25QQuickQuaternionValueType1yEv@Base 6.2.0
 _ZNK25QQuickQuaternionValueType1zEv@Base 6.2.0
 _ZNK25QQuickQuaternionValueType6scalarEv@Base 6.2.0
 _ZNK25QQuickQuaternionValueType8toStringEv@Base 6.2.0
 _ZNK25QQuickSequentialAnimation10metaObjectEv@Base 6.2.0
 _ZNK25QQuickSequentialAnimation14threadingModelEv@Base 6.2.0
 _ZNK25QQuickWheelHandlerPrivate18targetMetaPropertyEv@Base 6.2.0
 _ZNK25QSGSoftwareRenderableNode11dirtyRegionEv@Base 6.2.0
 _ZNK25QSGSoftwareRenderableNode18isDirtyRegionEmptyEv@Base 6.2.0
 _ZNK25QSGSoftwareRenderableNode19previousDirtyRegionEb@Base 6.2.0
 _ZNK26QQuickDeliveryAgentPrivate14pointerTargetsEP10QQuickItemPK13QPointerEventRK11QEventPointbb@Base 6.2.0
 _ZNK26QQuickDeliveryAgentPrivate15eventInDeliveryEv@Base 6.2.0
 _ZNK26QQuickDeliveryAgentPrivate19mergePointerTargetsERK5QListIP10QQuickItemES5_@Base 6.2.0
 _ZNK26QQuickImageProviderOptions13autoTransformEv@Base 6.2.0
 _ZNK26QQuickImageProviderOptions16targetColorSpaceEv@Base 6.2.0
 _ZNK26QQuickImageProviderOptions22preserveAspectRatioFitEv@Base 6.2.0
 _ZNK26QQuickImageProviderOptions23preserveAspectRatioCropEv@Base 6.2.0
 _ZNK26QQuickImageProviderOptionseqERKS_@Base 6.2.0
 _ZNK26QQuickImageTextureProvider10metaObjectEv@Base 6.2.0
 _ZNK26QQuickImageTextureProvider7textureEv@Base 6.2.0
 _ZNK26QQuickItemViewTransitioner11targetItemsENS_14TransitionTypeE@Base 6.2.0
 _ZNK26QQuickItemViewTransitioner13canTransitionENS_14TransitionTypeEb@Base 6.2.0
 _ZNK26QQuickItemViewTransitioner13targetIndexesENS_14TransitionTypeE@Base 6.2.0
 _ZNK26QQuickItemViewTransitioner16transitionObjectENS_14TransitionTypeEb@Base 6.2.0
 _ZNK26QQuickPaletteColorProvider15paletteProviderEv@Base 6.2.0
 _ZNK26QQuickPaletteColorProvider5colorEN8QPalette10ColorGroupENS0_9ColorRoleE@Base 6.2.0
 _ZNK26QQuickPaletteColorProvider7paletteEv@Base 6.2.0
 _ZNK26QQuickPointerDeviceHandler10metaObjectEv@Base 6.2.0
 _ZNK26QQuickPointerDeviceHandler15acceptedButtonsEv@Base 6.2.0
 _ZNK26QQuickPointerDeviceHandler15acceptedDevicesEv@Base 6.2.0
 _ZNK26QQuickPointerDeviceHandler17acceptedModifiersEv@Base 6.2.0
 _ZNK26QQuickPointerDeviceHandler20acceptedPointerTypesEv@Base 6.2.0
 _ZNK26QSGDistanceFieldGlyphCache12baseFontSizeEv@Base 6.2.0
 _ZNK27QQuickGraphicsConfiguration16deviceExtensionsEv@Base 6.2.0
 _ZNK27QQuickGraphicsConfiguration25isDepthBufferEnabledFor2DEv@Base 6.2.0
 _ZNK27QQuickKeyNavigationAttached10metaObjectEv@Base 6.2.0
 _ZNK27QQuickKeyNavigationAttached2upEv@Base 6.2.0
 _ZNK27QQuickKeyNavigationAttached3tabEv@Base 6.2.0
 _ZNK27QQuickKeyNavigationAttached4downEv@Base 6.2.0
 _ZNK27QQuickKeyNavigationAttached4leftEv@Base 6.2.0
 _ZNK27QQuickKeyNavigationAttached5rightEv@Base 6.2.0
 _ZNK27QQuickKeyNavigationAttached7backtabEv@Base 6.2.0
 _ZNK27QQuickKeyNavigationAttached8priorityEv@Base 6.2.0
 _ZNK27QQuickPointerHandlerPrivate17dragOverThresholdE9QVector2D@Base 6.2.0
 _ZNK27QQuickPointerHandlerPrivate17dragOverThresholdERK11QEventPoint@Base 6.2.0
 _ZNK27QSGAbstractSoftwareRenderer14renderableNodeEP7QSGNode@Base 6.2.0
 _ZNK27QSGAbstractSoftwareRenderer15renderableNodesEv@Base 6.2.0
 _ZNK27QSGCompressedTextureFactory11textureSizeEv@Base 6.2.0
 _ZNK27QSGCompressedTextureFactory13createTextureEP12QQuickWindow@Base 6.2.0
 _ZNK27QSGCompressedTextureFactory16textureByteCountEv@Base 6.2.0
 _ZNK27QSGDefaultInternalImageNode12supportsWrapERK5QSize@Base 6.2.0
 _ZNK27QSGDefaultInternalImageNode15materialTextureEv@Base 6.2.0
 _ZNK28QSGDistanceFieldTextMaterial12createShaderEN20QSGRendererInterface10RenderModeE@Base 6.2.0
 _ZNK28QSGDistanceFieldTextMaterial4typeEv@Base 6.2.0
 _ZNK28QSGDistanceFieldTextMaterial7compareEPK11QSGMaterial@Base 6.2.0
 _ZNK29QSGRhiDistanceFieldGlyphCache14maxTextureSizeEv@Base 6.2.0
 _ZNK29QSGRhiDistanceFieldGlyphCache22createFullSizeTexturesEv@Base 6.2.0
 _ZNK29QSGRhiDistanceFieldGlyphCache26useTextureResizeWorkaroundEv@Base 6.2.0
 _ZNK29QSGRhiDistanceFieldGlyphCache29eightBitFormatIsAlphaSwizzledEv@Base 6.2.0
 _ZNK29QSGRhiDistanceFieldGlyphCache31screenSpaceDerivativesSupportedEv@Base 6.2.0
 _ZNK30QQuickMultiPointHandlerPrivate13xMetaPropertyEv@Base 6.2.0
 _ZNK30QQuickMultiPointHandlerPrivate13yMetaPropertyEv@Base 6.2.0
 _ZNK30QQuickTableSectionSizeProvider10metaObjectEv@Base 6.2.0
 _ZNK31QSGGuiThreadShaderEffectManager10metaObjectEv@Base 6.2.0
 _ZNK32QQuickItemViewTransitionableItem16isPendingRemovalEv@Base 6.2.0
 _ZNK32QQuickItemViewTransitionableItem17transitionRunningEv@Base 6.2.0
 _ZNK32QQuickItemViewTransitionableItem28transitionScheduledOrRunningEv@Base 6.2.0
 _ZNK32QQuickItemViewTransitionableItem28transitionWillChangePositionEv@Base 6.2.0
 _ZNK32QQuickItemViewTransitionableItem5itemXEv@Base 6.2.0
 _ZNK32QQuickItemViewTransitionableItem5itemYEv@Base 6.2.0
 _ZNK34QSGDistanceFieldStyledTextMaterial7compareEPK11QSGMaterial@Base 6.2.0
 _ZNK35QSGDistanceFieldOutlineTextMaterial12createShaderEN20QSGRendererInterface10RenderModeE@Base 6.2.0
 _ZNK35QSGDistanceFieldOutlineTextMaterial4typeEv@Base 6.2.0
 _ZNK39QSGHiQSubPixelDistanceFieldTextMaterial12createShaderEN20QSGRendererInterface10RenderModeE@Base 6.2.0
 _ZNK39QSGHiQSubPixelDistanceFieldTextMaterial4typeEv@Base 6.2.0
 _ZNK39QSGLoQSubPixelDistanceFieldTextMaterial12createShaderEN20QSGRendererInterface10RenderModeE@Base 6.2.0
 _ZNK39QSGLoQSubPixelDistanceFieldTextMaterial4typeEv@Base 6.2.0
 _ZNK40QSGDistanceFieldShiftedStyleTextMaterial12createShaderEN20QSGRendererInterface10RenderModeE@Base 6.2.0
 _ZNK40QSGDistanceFieldShiftedStyleTextMaterial4typeEv@Base 6.2.0
 _ZNK40QSGDistanceFieldShiftedStyleTextMaterial7compareEPK11QSGMaterial@Base 6.2.0
 _ZNK7QSGNode10childCountEv@Base 6.2.0
 _ZNK7QSGNode12childAtIndexEi@Base 6.2.0
 _ZNK7QSGNode16isSubtreeBlockedEv@Base 6.2.0
 _ZNK8QSGLayer10metaObjectEv@Base 6.2.0
 _ZNK9QQuickPen10metaObjectEv@Base 6.2.0
 _ZNK9QQuickPen12pixelAlignedEv@Base 6.2.0
 _ZNK9QQuickPen5colorEv@Base 6.2.0
 _ZNK9QQuickPen5widthEv@Base 6.2.0
 _ZNK9QQuickPen7isValidEv@Base 6.2.0
 _ZNK9QQuickRow10metaObjectEv@Base 6.2.0
 _ZNK9QQuickRow15layoutDirectionEv@Base 6.2.0
 _ZNK9QQuickRow24effectiveLayoutDirectionEv@Base 6.2.0
 (optional=templinst)_ZNSt8_Rb_treeI7QStringSt4pairIKS0_8QVariantESt10_Select1stIS4_ESt4lessIS0_ESaIS4_EE24_M_get_insert_unique_posERS2_@Base 6.2.0
 (optional=templinst)_ZNSt8_Rb_treeI7QStringSt4pairIKS0_8QVariantESt10_Select1stIS4_ESt4lessIS0_ESaIS4_EE29_M_get_insert_hint_unique_posESt23_Rb_tree_const_iteratorIS4_ERS2_@Base 6.2.0
 (optional=templinst)_ZNSt8_Rb_treeIiSt4pairIKiN3QV415PersistentValueEESt10_Select1stIS4_ESt4lessIiESaIS4_EE24_M_get_insert_unique_posERS1_@Base 6.2.0
 (optional=templinst)_ZNSt8_Rb_treeIiSt4pairIKiN3QV415PersistentValueEESt10_Select1stIS4_ESt4lessIiESaIS4_EE29_M_get_insert_hint_unique_posESt23_Rb_tree_const_iteratorIS4_ERS1_@Base 6.2.0
 (optional=templinst)_ZNSt8_Rb_treeIiSt4pairIKiP12QQuickPixmapESt10_Select1stIS4_ESt4lessIiESaIS4_EE24_M_get_insert_unique_posERS1_@Base 6.2.0
 (optional=templinst)_ZNSt8_Rb_treeIiSt4pairIKiP12QQuickPixmapESt10_Select1stIS4_ESt4lessIiESaIS4_EE29_M_get_insert_hint_unique_posESt23_Rb_tree_const_iteratorIS4_ERS1_@Base 6.2.0
 (optional=templinst)_ZNSt8_Rb_treeIiSt4pairIKiP16QQuickTouchPointESt10_Select1stIS4_ESt4lessIiESaIS4_EE24_M_get_insert_unique_posERS1_@Base 6.2.0
 (optional=templinst)_ZNSt8_Rb_treeIiSt4pairIKiP16QQuickTouchPointESt10_Select1stIS4_ESt4lessIiESaIS4_EE29_M_get_insert_hint_unique_posESt23_Rb_tree_const_iteratorIS4_ERS1_@Base 6.2.0
 (optional=templinst)_ZNSt8_Rb_treeIiSt4pairIKiP7QObjectESt10_Select1stIS4_ESt4lessIiESaIS4_EE24_M_get_insert_unique_posERS1_@Base 6.2.0
 (optional=templinst)_ZNSt8_Rb_treeIiSt4pairIKiP7QObjectESt10_Select1stIS4_ESt4lessIiESaIS4_EE29_M_get_insert_hint_unique_posESt23_Rb_tree_const_iteratorIS4_ERS1_@Base 6.2.0
 _ZTI10QQuickDrag@Base 6.2.0
 _ZTI10QQuickFlow@Base 6.2.0
 _ZTI10QQuickGrid@Base 6.2.0
 _ZTI10QQuickItem@Base 6.2.0
 _ZTI10QQuickPath@Base 6.2.0
 _ZTI10QQuickText@Base 6.2.0
 _ZTI10QQuickView@Base 6.2.0
 _ZTI10QSGContext@Base 6.2.0
 _ZTI10QSGTexture@Base 6.2.0
 _ZTI11QQuickCurve@Base 6.2.0
 _ZTI11QQuickImage@Base 6.2.0
 _ZTI11QQuickPinch@Base 6.2.0
 _ZTI11QQuickScale@Base 6.2.0
 _ZTI11QQuickState@Base 6.2.0
 _ZTI11QSGClipNode@Base 6.2.0
 _ZTI11QSGGeometry@Base 6.2.0
 _ZTI11QSGMaterial@Base 6.2.0
 _ZTI11QSGRenderer@Base 6.2.0
 _ZTI11QSGRhiLayer@Base 6.2.0
 _ZTI11QSGRootNode@Base 6.2.0
 _ZTI12QQmlRefCount@Base 6.2.0
 _ZTI12QQuickColumn@Base 6.2.0
 _ZTI12QQuickLoader@Base 6.2.0
 _ZTI12QQuickScreen@Base 6.2.0
 _ZTI12QQuickSprite@Base 6.2.0
 _ZTI12QQuickWindow@Base 6.2.0
 _ZTI12QSGGlyphNode@Base 6.2.0
 _ZTI12QSGImageNode@Base 6.2.0
 _ZTI13QQuickAnchors@Base 6.2.0
 _ZTI13QQuickPalette@Base 6.2.0
 _ZTI13QQuickPathArc@Base 6.2.0
 _ZTI13QQuickPathSvg@Base 6.2.0
 _ZTI13QSGNodeDumper@Base 6.2.0
 _ZTI13QSGRenderLoop@Base 6.2.0
 _ZTI13QSGRenderNode@Base 6.2.0
 _ZTI13QSGSpriteNode@Base 6.2.0
 _ZTI14QQuickAnimator@Base 6.2.0
 _ZTI14QQuickBehavior@Base 6.2.0
 _ZTI14QQuickDragAxis@Base 6.2.0
 _ZTI14QQuickDropArea@Base 6.2.0
 _ZTI14QQuickFlipable@Base 6.2.0
 _ZTI14QQuickGradient@Base 6.2.0
 _ZTI14QQuickGridMesh@Base 6.2.0
 _ZTI14QQuickGridView@Base 6.2.0
 _ZTI14QQuickItemView@Base 6.2.0
 _ZTI14QQuickListView@Base 6.2.0
 _ZTI14QQuickPathLine@Base 6.2.0
 _ZTI14QQuickPathMove@Base 6.2.0
 _ZTI14QQuickPathQuad@Base 6.2.0
 _ZTI14QQuickPathText@Base 6.2.0
 _ZTI14QQuickPathView@Base 6.2.0
 _ZTI14QQuickProfiler@Base 6.2.0
 _ZTI14QQuickRepeater@Base 6.2.0
 _ZTI14QQuickRootItem@Base 6.2.0
 _ZTI14QQuickRotation@Base 6.2.0
 _ZTI14QQuickTextEdit@Base 6.2.0
 _ZTI14QQuickTextNode@Base 6.2.0
 _ZTI14QQuickTimeLine@Base 6.2.0
 _ZTI14QSGNodeUpdater@Base 6.2.0
 _ZTI14QSGNodeVisitor@Base 6.2.0
 _ZTI14QSGOpacityNode@Base 6.2.0
 _ZTI14QSGPainterNode@Base 6.2.0
 _ZTI15QQuickAnchorSet@Base 6.2.0
 _ZTI15QQuickFlickable@Base 6.2.0
 _ZTI15QQuickImageBase@Base 6.2.0
 _ZTI15QQuickItemLayer@Base 6.2.0
 _ZTI15QQuickMatrix4x4@Base 6.2.0
 _ZTI15QQuickMouseArea@Base 6.2.0
 _ZTI15QQuickPathCubic@Base 6.2.0
 _ZTI15QQuickPinchArea@Base 6.2.0
 _ZTI15QQuickRectangle@Base 6.2.0
 _ZTI15QQuickScaleGrid@Base 6.2.0
 _ZTI15QQuickTableView@Base 6.2.0
 _ZTI15QQuickTextInput@Base 6.2.0
 _ZTI15QQuickTransform@Base 6.2.0
 _ZTI15QQuickTranslate@Base 6.2.0
 _ZTI15QQuickXAnimator@Base 6.2.0
 _ZTI15QQuickYAnimator@Base 6.2.0
 _ZTI15QSGGeometryNode@Base 6.2.0
 _ZTI15QSGPlainTexture@Base 6.2.0
 _ZTI16QQmlCustomParser@Base 6.2.0
 _ZTI16QQuickCloseEvent@Base 6.2.0
 _ZTI16QQuickColorGroup@Base 6.2.0
 _ZTI16QQuickFocusScope@Base 6.2.0
 _ZTI16QQuickFontLoader@Base 6.2.0
 _ZTI16QQuickMouseEvent@Base 6.2.0
 _ZTI16QQuickPinchEvent@Base 6.2.0
 _ZTI16QQuickScreenInfo@Base 6.2.0
 _ZTI16QQuickSelectable@Base 6.2.0
 _ZTI16QQuickStateGroup@Base 6.2.0
 _ZTI16QQuickTapHandler@Base 6.2.0
 _ZTI16QQuickTouchPoint@Base 6.2.0
 _ZTI16QQuickTransition@Base 6.2.0
 _ZTI16QSGContextPlugin@Base 6.2.0
 _ZTI16QSGNinePatchNode@Base 6.2.0
 _ZTI16QSGNodeVisitorEx@Base 6.2.0
 _ZTI16QSGRectangleNode@Base 6.2.0
 _ZTI16QSGRenderContext@Base 6.2.0
 _ZTI16QSGTransformNode@Base 6.2.0
 _ZTI16QSGVisitableNode@Base 6.2.0
 _ZTI17QPropertyObserver@Base 6.2.0
 _ZTI17QQuickAnimatorJob@Base 6.2.0
 _ZTI17QQuickApplication@Base 6.2.0
 _ZTI17QQuickBorderImage@Base 6.2.0
 _ZTI17QQuickDragHandler@Base 6.2.0
 _ZTI17QQuickFontMetrics@Base 6.2.0
 _ZTI17QQuickItemPrivate@Base 6.2.0
 _ZTI17QQuickPaintedItem@Base 6.2.0
 _ZTI17QQuickPathElement@Base 6.2.0
 _ZTI17QQuickPathPercent@Base 6.2.0
 _ZTI17QQuickPathPrivate@Base 6.2.0
 _ZTI17QQuickTextMetrics@Base 6.2.0
 _ZTI17QQuickTextPrivate@Base 6.2.0
 _ZTI17QQuickViewPrivate@Base 6.2.0
 _ZTI17QQuickViewSection@Base 6.2.0
 _ZTI17QSGBasicGlyphNode@Base 6.2.0
 _ZTI17QSGDefaultContext@Base 6.2.0
 _ZTI17QSGDynamicTexture@Base 6.2.0
 _ZTI17QSGMaterialShader@Base 6.2.0
 _ZTI17QSGPainterTexture@Base 6.2.0
 _ZTI17QSGSimpleRectNode@Base 6.2.0
 _ZTI17QSGTexturePrivate@Base 6.2.0
 _ZTI18QMutableTouchEvent@Base 6.2.0
 _ZTI18QQuickDragAttached@Base 6.2.0
 _ZTI18QQuickGradientStop@Base 6.2.0
 _ZTI18QQuickHoverHandler@Base 6.2.0
 _ZTI18QQuickImagePrivate@Base 6.2.0
 _ZTI18QQuickIntValidator@Base 6.2.0
 _ZTI18QQuickParentChange@Base 6.2.0
 _ZTI18QQuickPathAngleArc@Base 6.2.0
 _ZTI18QQuickPathPolyline@Base 6.2.0
 _ZTI18QQuickPinchHandler@Base 6.2.0
 _ZTI18QQuickPointHandler@Base 6.2.0
 _ZTI18QQuickScriptAction@Base 6.2.0
 _ZTI18QQuickShaderEffect@Base 6.2.0
 _ZTI18QQuickSpriteEngine@Base 6.2.0
 _ZTI18QQuickTextDocument@Base 6.2.0
 _ZTI18QQuickWheelHandler@Base 6.2.0
 _ZTI18QQuickXAnimatorJob@Base 6.2.0
 _ZTI18QQuickYAnimatorJob@Base 6.2.0
 _ZTI18QSGTextureMaterial@Base 6.2.0
 _ZTI18QSGTextureProvider@Base 6.2.0
 _ZTI19QQuickAnchorChanges@Base 6.2.0
 _ZTI19QQuickAnimatedImage@Base 6.2.0
 _ZTI19QQuickDeliveryAgent@Base 6.2.0
 _ZTI19QQuickImageProvider@Base 6.2.0
 _ZTI19QQuickImageResponse@Base 6.2.0
 _ZTI19QQuickPathAnimation@Base 6.2.0
 _ZTI19QQuickPathAttribute@Base 6.2.0
 _ZTI19QQuickPathMultiline@Base 6.2.0
 _ZTI19QQuickRenderControl@Base 6.2.0
 _ZTI19QQuickScaleAnimator@Base 6.2.0
 _ZTI19QQuickSystemPalette@Base 6.2.0
 _ZTI19QQuickWindowPrivate@Base 6.2.0
 _ZTI19QQuickWindowQmlImpl@Base 6.2.0
 _ZTI19QSGAbstractRenderer@Base 6.2.0
 _ZTI19QSGDefaultImageNode@Base 6.2.0
 _ZTI19QSGShaderEffectNode@Base 6.2.0
 _ZTI19QSGSoftwareRenderer@Base 6.2.0
 _ZTI20QAccessibleQuickItem@Base 6.2.0
 _ZTI20QQuickAnimatedSprite@Base 6.2.0
 _ZTI20QQuickAnimationGroup@Base 6.2.0
 _ZTI20QQuickBasePositioner@Base 6.2.0
 _ZTI20QQuickColorAnimation@Base 6.2.0
 _ZTI20QQuickItemGrabResult@Base 6.2.0
 _ZTI20QQuickItemViewFxItem@Base 6.2.0
 _ZTI20QQuickPauseAnimation@Base 6.2.0
 _ZTI20QQuickPointerHandler@Base 6.2.0
 _ZTI20QQuickPropertyAction@Base 6.2.0
 _ZTI20QQuickScreenAttached@Base 6.2.0
 _ZTI20QQuickSpriteSequence@Base 6.2.0
 _ZTI20QQuickStateOperation@Base 6.2.0
 _ZTI20QQuickTextureFactory@Base 6.2.0
 _ZTI20QQuickWindowAttached@Base 6.2.0
 _ZTI20QSGBasicGeometryNode@Base 6.2.0
 _ZTI20QSGCompressedTexture@Base 6.2.0
 _ZTI20QSGFlatColorMaterial@Base 6.2.0
 _ZTI20QSGInternalImageNode@Base 6.2.0
 _ZTI20QSGRendererInterface@Base 6.2.0
 _ZTI20QSGSimpleTextureNode@Base 6.2.0
 _ZTI21QQuickAnchorAnimation@Base 6.2.0
 _ZTI21QQuickDefaultClipNode@Base 6.2.0
 _ZTI21QQuickDoubleValidator@Base 6.2.0
 _ZTI21QQuickNumberAnimation@Base 6.2.0
 _ZTI21QQuickOpacityAnimator@Base 6.2.0
 _ZTI21QQuickParentAnimation@Base 6.2.0
 _ZTI21QQuickPropertyChanges@Base 6.2.0
 _ZTI21QQuickSpringAnimation@Base 6.2.0
 _ZTI21QQuickStochasticState@Base 6.2.0
 _ZTI21QQuickTextEditPrivate@Base 6.2.0
 _ZTI21QQuickUniformAnimator@Base 6.2.0
 _ZTI21QSGDefaultPainterNode@Base 6.2.0
 _ZTI22QAccessibleQuickWindow@Base 6.2.0
 _ZTI22QQuickAnimatorProxyJob@Base 6.2.0
 _ZTI22QQuickFlickablePrivate@Base 6.2.0
 _ZTI22QQuickImageBasePrivate@Base 6.2.0
 _ZTI22QQuickImplicitSizeItem@Base 6.2.0
 _ZTI22QQuickItemViewAttached@Base 6.2.0
 _ZTI22QQuickListViewAttached@Base 6.2.0
 _ZTI22QQuickPathInterpolator@Base 6.2.0
 _ZTI22QQuickRotationAnimator@Base 6.2.0
 _ZTI22QQuickScaleAnimatorJob@Base 6.2.0
 _ZTI22QQuickShaderEffectMesh@Base 6.2.0
 _ZTI22QQuickStochasticEngine@Base 6.2.0
 _ZTI22QQuickTableViewPrivate@Base 6.2.0
 _ZTI22QQuickTextInputPrivate@Base 6.2.0
 _ZTI22QSGSmoothColorMaterial@Base 6.2.0
 _ZTI22QSGVertexColorMaterial@Base 6.2.0
 _ZTI23QQuickAbstractAnimation@Base 6.2.0
 _ZTI23QQuickFramebufferObject@Base 6.2.0
 _ZTI23QQuickMultiPointHandler@Base 6.2.0
 _ZTI23QQuickParallelAnimation@Base 6.2.0
 _ZTI23QQuickPropertyAnimation@Base 6.2.0
 _ZTI23QQuickRotationAnimation@Base 6.2.0
 _ZTI23QQuickSmoothedAnimation@Base 6.2.0
 _ZTI23QQuickStateChangeScript@Base 6.2.0
 _ZTI23QQuickTableViewAttached@Base 6.2.0
 _ZTI23QQuickTransitionManager@Base 6.2.0
 _ZTI23QQuickVector3dAnimation@Base 6.2.0
 _ZTI23QSGDefaultNinePatchNode@Base 6.2.0
 _ZTI23QSGDefaultRenderContext@Base 6.2.0
 _ZTI24QMutableSinglePointEvent@Base 6.2.0
 _ZTI24QQuickAccessibleAttached@Base 6.2.0
 _ZTI24QQuickAsyncImageProvider@Base 6.2.0
 _ZTI24QQuickOpacityAnimatorJob@Base 6.2.0
 _ZTI24QQuickPaintedItemPrivate@Base 6.2.0
 _ZTI24QQuickShaderEffectSource@Base 6.2.0
 _ZTI24QQuickSinglePointHandler@Base 6.2.0
 _ZTI24QQuickUniformAnimatorJob@Base 6.2.0
 _ZTI24QSGInternalRectangleNode@Base 6.2.0
 _ZTI24QSGOpaqueTextureMaterial@Base 6.2.0
 _ZTI24QSGSmoothTextureMaterial@Base 6.2.0
 _ZTI24QSGTexturePlatformOpenGL@Base 6.2.0
 (arch=linux-any)_ZTI24QSGTexturePlatformVulkan@Base 6.2.0
 _ZTI25QQuickAnimationController@Base 6.2.0
 _ZTI25QQuickMultiPointTouchArea@Base 6.2.0
 _ZTI25QQuickPathCatmullRomCurve@Base 6.2.0
 _ZTI25QQuickRotationAnimatorJob@Base 6.2.0
 _ZTI25QQuickSequentialAnimation@Base 6.2.0
 _ZTI25QQuickWheelHandlerPrivate@Base 6.2.0
 _ZTI25QSGBasicInternalImageNode@Base 6.2.0
 _ZTI26QQuickDeliveryAgentPrivate@Base 6.2.0
 _ZTI26QQuickImageTextureProvider@Base 6.2.0
 _ZTI26QQuickItemViewTransitioner@Base 6.2.0
 _ZTI26QQuickPointerDeviceHandler@Base 6.2.0
 _ZTI26QQuickRenderControlPrivate@Base 6.2.0
 _ZTI26QQuickWindowQmlImplPrivate@Base 6.2.0
 _ZTI26QSGAbstractRendererPrivate@Base 6.2.0
 _ZTI26QSGContextFactoryInterface@Base 6.2.0
 _ZTI26QSGDistanceFieldGlyphCache@Base 6.2.0
 _ZTI27QQuickKeyNavigationAttached@Base 6.2.0
 _ZTI27QQuickPointerHandlerPrivate@Base 6.2.0
 _ZTI27QSGAbstractSoftwareRenderer@Base 6.2.0
 _ZTI27QSGCompressedTextureFactory@Base 6.2.0
 _ZTI27QSGDefaultInternalImageNode@Base 6.2.0
 _ZTI28QSGDistanceFieldTextMaterial@Base 6.2.0
 _ZTI29QQuickImplicitSizeItemPrivate@Base 6.2.0
 _ZTI29QSGBasicInternalRectangleNode@Base 6.2.0
 _ZTI29QSGDistanceFieldGlyphConsumer@Base 6.2.0
 _ZTI29QSGRhiDistanceFieldGlyphCache@Base 6.2.0
 _ZTI30QQuickAbstractAnimationPrivate@Base 6.2.0
 _ZTI30QQuickImageProviderWithOptions@Base 6.2.0
 _ZTI30QQuickMultiPointHandlerPrivate@Base 6.2.0
 _ZTI30QQuickTableSectionSizeProvider@Base 6.2.0
 _ZTI31QQuickSinglePointHandlerPrivate@Base 6.2.0
 _ZTI31QSGDefaultInternalRectangleNode@Base 6.2.0
 _ZTI31QSGGuiThreadShaderEffectManager@Base 6.2.0
 _ZTI32QQuickItemViewTransitionableItem@Base 6.2.0
 _ZTI33QQuickPointerDeviceHandlerPrivate@Base 6.2.0
 _ZTI33QSGOpaqueTextureMaterialRhiShader@Base 6.2.0
 _ZTI34QSGDistanceFieldStyledTextMaterial@Base 6.2.0
 _ZTI35QSGDistanceFieldOutlineTextMaterial@Base 6.2.0
 _ZTI38QQuickItemViewTransitionChangeListener@Base 6.2.0
 _ZTI39QSGHiQSubPixelDistanceFieldTextMaterial@Base 6.2.0
 _ZTI39QSGLoQSubPixelDistanceFieldTextMaterial@Base 6.2.0
 _ZTI40QSGDistanceFieldShiftedStyleTextMaterial@Base 6.2.0
 _ZTI7QSGNode@Base 6.2.0
 _ZTI8QSGLayer@Base 6.2.0
 _ZTI9QQuickPen@Base 6.2.0
 _ZTI9QQuickRow@Base 6.2.0
 _ZTIFP7QObjectP10QQmlEngineP9QJSEngineE@Base 6.2.0
 _ZTIN13QSGRenderNode11RenderStateE@Base 6.2.0
 _ZTIN16QNativeInterface16QSGOpenGLTextureE@Base 6.2.0
 (arch=linux-any)_ZTIN16QNativeInterface16QSGVulkanTextureE@Base 6.2.0
 _ZTIN16QSGBatchRenderer8RendererE@Base 6.2.0
 _ZTIN19QQuickDeliveryAgent9TransformE@Base 6.2.0
 _ZTIN22QQuickFlickablePrivate8VelocityE@Base 6.2.0
 _ZTIN23QQuickFramebufferObject8RendererE@Base 6.2.0
 _ZTIN3QV415ExecutionEngine9DeletableE@Base 6.2.0
 (arch=armel riscv64)_ZTIN9__gnu_cxx7__mutexE@Base 6.2.0
 _ZTIPFP7QObjectP10QQmlEngineP9QJSEngineE@Base 6.2.0
 (arch=armel riscv64)_ZTISt11_Mutex_baseILN9__gnu_cxx12_Lock_policyE1EE@Base 6.2.0
 (arch=!armel !riscv64)_ZTISt11_Mutex_baseILN9__gnu_cxx12_Lock_policyE2EE@Base 6.2.0
 (arch=armel riscv64)_ZTISt16_Sp_counted_baseILN9__gnu_cxx12_Lock_policyE1EE@Base 6.2.0
 (arch=!armel !riscv64)_ZTISt16_Sp_counted_baseILN9__gnu_cxx12_Lock_policyE2EE@Base 6.2.0
 (arch=armel armhf)_ZTISt19_Sp_make_shared_tag@Base 6.2.0
 (arch=armel riscv64)_ZTISt23_Sp_counted_ptr_inplaceI26QQuickPaletteColorProviderSaIS0_ELN9__gnu_cxx12_Lock_policyE1EE@Base 6.2.0
 (arch=!armel !riscv64)_ZTISt23_Sp_counted_ptr_inplaceI26QQuickPaletteColorProviderSaIS0_ELN9__gnu_cxx12_Lock_policyE2EE@Base 6.2.0
 _ZTIZN9QMetaType17registerConverterI5QListI4QUrlE9QIterableI13QMetaSequenceEN9QtPrivate33QSequentialIterableConvertFunctorIS3_EEEEbT1_EUlPKvPvE_@Base 6.2.0
 _ZTIZN9QMetaType17registerConverterI5QListI7QPointFE9QIterableI13QMetaSequenceEN9QtPrivate33QSequentialIterableConvertFunctorIS3_EEEEbT1_EUlPKvPvE_@Base 6.2.0
 _ZTIZN9QMetaType17registerConverterI5QListI9QPolygonFE9QIterableI13QMetaSequenceEN9QtPrivate33QSequentialIterableConvertFunctorIS3_EEEEbT1_EUlPKvPvE_@Base 6.2.0
 _ZTIZN9QMetaType17registerConverterI5QListIP7QObjectE9QIterableI13QMetaSequenceEN9QtPrivate33QSequentialIterableConvertFunctorIS4_EEEEbT1_EUlPKvPvE_@Base 6.2.0
 _ZTIZN9QMetaType17registerConverterI5QListIS1_I7QPointFEE9QIterableI13QMetaSequenceEN9QtPrivate33QSequentialIterableConvertFunctorIS4_EEEEbT1_EUlPKvPvE_@Base 6.2.0
 _ZTIZN9QMetaType17registerConverterI5QListIiE9QIterableI13QMetaSequenceEN9QtPrivate33QSequentialIterableConvertFunctorIS2_EEEEbT1_EUlPKvPvE_@Base 6.2.0
 _ZTIZN9QMetaType19registerMutableViewI5QListI4QUrlE9QIterableI13QMetaSequenceEN9QtPrivate37QSequentialIterableMutableViewFunctorIS3_EEEEbT1_EUlPvSB_E_@Base 6.2.0
 _ZTIZN9QMetaType19registerMutableViewI5QListI7QPointFE9QIterableI13QMetaSequenceEN9QtPrivate37QSequentialIterableMutableViewFunctorIS3_EEEEbT1_EUlPvSB_E_@Base 6.2.0
 _ZTIZN9QMetaType19registerMutableViewI5QListI9QPolygonFE9QIterableI13QMetaSequenceEN9QtPrivate37QSequentialIterableMutableViewFunctorIS3_EEEEbT1_EUlPvSB_E_@Base 6.2.0
 _ZTIZN9QMetaType19registerMutableViewI5QListIP7QObjectE9QIterableI13QMetaSequenceEN9QtPrivate37QSequentialIterableMutableViewFunctorIS4_EEEEbT1_EUlPvSC_E_@Base 6.2.0
 _ZTIZN9QMetaType19registerMutableViewI5QListIS1_I7QPointFEE9QIterableI13QMetaSequenceEN9QtPrivate37QSequentialIterableMutableViewFunctorIS4_EEEEbT1_EUlPvSC_E_@Base 6.2.0
 _ZTIZN9QMetaType19registerMutableViewI5QListIiE9QIterableI13QMetaSequenceEN9QtPrivate37QSequentialIterableMutableViewFunctorIS2_EEEEbT1_EUlPvSA_E_@Base 6.2.0
 _ZTS10QQuickDrag@Base 6.2.0
 _ZTS10QQuickFlow@Base 6.2.0
 _ZTS10QQuickGrid@Base 6.2.0
 _ZTS10QQuickItem@Base 6.2.0
 _ZTS10QQuickPath@Base 6.2.0
 _ZTS10QQuickText@Base 6.2.0
 _ZTS10QQuickView@Base 6.2.0
 _ZTS10QSGContext@Base 6.2.0
 _ZTS10QSGTexture@Base 6.2.0
 _ZTS11QQuickCurve@Base 6.2.0
 _ZTS11QQuickImage@Base 6.2.0
 _ZTS11QQuickPinch@Base 6.2.0
 _ZTS11QQuickScale@Base 6.2.0
 _ZTS11QQuickState@Base 6.2.0
 _ZTS11QSGClipNode@Base 6.2.0
 _ZTS11QSGGeometry@Base 6.2.0
 _ZTS11QSGMaterial@Base 6.2.0
 _ZTS11QSGRenderer@Base 6.2.0
 _ZTS11QSGRhiLayer@Base 6.2.0
 _ZTS11QSGRootNode@Base 6.2.0
 _ZTS12QQmlRefCount@Base 6.2.0
 _ZTS12QQuickColumn@Base 6.2.0
 _ZTS12QQuickLoader@Base 6.2.0
 _ZTS12QQuickScreen@Base 6.2.0
 _ZTS12QQuickSprite@Base 6.2.0
 _ZTS12QQuickWindow@Base 6.2.0
 _ZTS12QSGGlyphNode@Base 6.2.0
 _ZTS12QSGImageNode@Base 6.2.0
 _ZTS13QQuickAnchors@Base 6.2.0
 _ZTS13QQuickPalette@Base 6.2.0
 _ZTS13QQuickPathArc@Base 6.2.0
 _ZTS13QQuickPathSvg@Base 6.2.0
 _ZTS13QSGNodeDumper@Base 6.2.0
 _ZTS13QSGRenderLoop@Base 6.2.0
 _ZTS13QSGRenderNode@Base 6.2.0
 _ZTS13QSGSpriteNode@Base 6.2.0
 _ZTS14QQuickAnimator@Base 6.2.0
 _ZTS14QQuickBehavior@Base 6.2.0
 _ZTS14QQuickDragAxis@Base 6.2.0
 _ZTS14QQuickDropArea@Base 6.2.0
 _ZTS14QQuickFlipable@Base 6.2.0
 _ZTS14QQuickGradient@Base 6.2.0
 _ZTS14QQuickGridMesh@Base 6.2.0
 _ZTS14QQuickGridView@Base 6.2.0
 _ZTS14QQuickItemView@Base 6.2.0
 _ZTS14QQuickListView@Base 6.2.0
 _ZTS14QQuickPathLine@Base 6.2.0
 _ZTS14QQuickPathMove@Base 6.2.0
 _ZTS14QQuickPathQuad@Base 6.2.0
 _ZTS14QQuickPathText@Base 6.2.0
 _ZTS14QQuickPathView@Base 6.2.0
 _ZTS14QQuickProfiler@Base 6.2.0
 _ZTS14QQuickRepeater@Base 6.2.0
 _ZTS14QQuickRootItem@Base 6.2.0
 _ZTS14QQuickRotation@Base 6.2.0
 _ZTS14QQuickTextEdit@Base 6.2.0
 _ZTS14QQuickTextNode@Base 6.2.0
 _ZTS14QQuickTimeLine@Base 6.2.0
 _ZTS14QSGNodeUpdater@Base 6.2.0
 _ZTS14QSGNodeVisitor@Base 6.2.0
 _ZTS14QSGOpacityNode@Base 6.2.0
 _ZTS14QSGPainterNode@Base 6.2.0
 _ZTS15QQuickAnchorSet@Base 6.2.0
 _ZTS15QQuickFlickable@Base 6.2.0
 _ZTS15QQuickImageBase@Base 6.2.0
 _ZTS15QQuickItemLayer@Base 6.2.0
 _ZTS15QQuickMatrix4x4@Base 6.2.0
 _ZTS15QQuickMouseArea@Base 6.2.0
 _ZTS15QQuickPathCubic@Base 6.2.0
 _ZTS15QQuickPinchArea@Base 6.2.0
 _ZTS15QQuickRectangle@Base 6.2.0
 _ZTS15QQuickScaleGrid@Base 6.2.0
 _ZTS15QQuickTableView@Base 6.2.0
 _ZTS15QQuickTextInput@Base 6.2.0
 _ZTS15QQuickTransform@Base 6.2.0
 _ZTS15QQuickTranslate@Base 6.2.0
 _ZTS15QQuickXAnimator@Base 6.2.0
 _ZTS15QQuickYAnimator@Base 6.2.0
 _ZTS15QSGGeometryNode@Base 6.2.0
 _ZTS15QSGPlainTexture@Base 6.2.0
 _ZTS16QQmlCustomParser@Base 6.2.0
 _ZTS16QQuickCloseEvent@Base 6.2.0
 _ZTS16QQuickColorGroup@Base 6.2.0
 _ZTS16QQuickFocusScope@Base 6.2.0
 _ZTS16QQuickFontLoader@Base 6.2.0
 _ZTS16QQuickMouseEvent@Base 6.2.0
 _ZTS16QQuickPinchEvent@Base 6.2.0
 _ZTS16QQuickScreenInfo@Base 6.2.0
 _ZTS16QQuickSelectable@Base 6.2.0
 _ZTS16QQuickStateGroup@Base 6.2.0
 _ZTS16QQuickTapHandler@Base 6.2.0
 _ZTS16QQuickTouchPoint@Base 6.2.0
 _ZTS16QQuickTransition@Base 6.2.0
 _ZTS16QSGContextPlugin@Base 6.2.0
 _ZTS16QSGNinePatchNode@Base 6.2.0
 _ZTS16QSGNodeVisitorEx@Base 6.2.0
 _ZTS16QSGRectangleNode@Base 6.2.0
 _ZTS16QSGRenderContext@Base 6.2.0
 _ZTS16QSGTransformNode@Base 6.2.0
 _ZTS16QSGVisitableNode@Base 6.2.0
 _ZTS17QPropertyObserver@Base 6.2.0
 _ZTS17QQuickAnimatorJob@Base 6.2.0
 _ZTS17QQuickApplication@Base 6.2.0
 _ZTS17QQuickBorderImage@Base 6.2.0
 _ZTS17QQuickDragHandler@Base 6.2.0
 _ZTS17QQuickFontMetrics@Base 6.2.0
 _ZTS17QQuickItemPrivate@Base 6.2.0
 _ZTS17QQuickPaintedItem@Base 6.2.0
 _ZTS17QQuickPathElement@Base 6.2.0
 _ZTS17QQuickPathPercent@Base 6.2.0
 _ZTS17QQuickPathPrivate@Base 6.2.0
 _ZTS17QQuickTextMetrics@Base 6.2.0
 _ZTS17QQuickTextPrivate@Base 6.2.0
 _ZTS17QQuickViewPrivate@Base 6.2.0
 _ZTS17QQuickViewSection@Base 6.2.0
 _ZTS17QSGBasicGlyphNode@Base 6.2.0
 _ZTS17QSGDefaultContext@Base 6.2.0
 _ZTS17QSGDynamicTexture@Base 6.2.0
 _ZTS17QSGMaterialShader@Base 6.2.0
 _ZTS17QSGPainterTexture@Base 6.2.0
 _ZTS17QSGSimpleRectNode@Base 6.2.0
 _ZTS17QSGTexturePrivate@Base 6.2.0
 _ZTS18QMutableTouchEvent@Base 6.2.0
 _ZTS18QQuickDragAttached@Base 6.2.0
 _ZTS18QQuickGradientStop@Base 6.2.0
 _ZTS18QQuickHoverHandler@Base 6.2.0
 _ZTS18QQuickImagePrivate@Base 6.2.0
 _ZTS18QQuickIntValidator@Base 6.2.0
 _ZTS18QQuickParentChange@Base 6.2.0
 _ZTS18QQuickPathAngleArc@Base 6.2.0
 _ZTS18QQuickPathPolyline@Base 6.2.0
 _ZTS18QQuickPinchHandler@Base 6.2.0
 _ZTS18QQuickPointHandler@Base 6.2.0
 _ZTS18QQuickScriptAction@Base 6.2.0
 _ZTS18QQuickShaderEffect@Base 6.2.0
 _ZTS18QQuickSpriteEngine@Base 6.2.0
 _ZTS18QQuickTextDocument@Base 6.2.0
 _ZTS18QQuickWheelHandler@Base 6.2.0
 _ZTS18QQuickXAnimatorJob@Base 6.2.0
 _ZTS18QQuickYAnimatorJob@Base 6.2.0
 _ZTS18QSGTextureMaterial@Base 6.2.0
 _ZTS18QSGTextureProvider@Base 6.2.0
 _ZTS19QQuickAnchorChanges@Base 6.2.0
 _ZTS19QQuickAnimatedImage@Base 6.2.0
 _ZTS19QQuickDeliveryAgent@Base 6.2.0
 _ZTS19QQuickImageProvider@Base 6.2.0
 _ZTS19QQuickImageResponse@Base 6.2.0
 _ZTS19QQuickPathAnimation@Base 6.2.0
 _ZTS19QQuickPathAttribute@Base 6.2.0
 _ZTS19QQuickPathMultiline@Base 6.2.0
 _ZTS19QQuickRenderControl@Base 6.2.0
 _ZTS19QQuickScaleAnimator@Base 6.2.0
 _ZTS19QQuickSystemPalette@Base 6.2.0
 _ZTS19QQuickWindowPrivate@Base 6.2.0
 _ZTS19QQuickWindowQmlImpl@Base 6.2.0
 _ZTS19QSGAbstractRenderer@Base 6.2.0
 _ZTS19QSGDefaultImageNode@Base 6.2.0
 _ZTS19QSGShaderEffectNode@Base 6.2.0
 _ZTS19QSGSoftwareRenderer@Base 6.2.0
 _ZTS20QAccessibleQuickItem@Base 6.2.0
 _ZTS20QQuickAnimatedSprite@Base 6.2.0
 _ZTS20QQuickAnimationGroup@Base 6.2.0
 _ZTS20QQuickBasePositioner@Base 6.2.0
 _ZTS20QQuickColorAnimation@Base 6.2.0
 _ZTS20QQuickItemGrabResult@Base 6.2.0
 _ZTS20QQuickItemViewFxItem@Base 6.2.0
 _ZTS20QQuickPauseAnimation@Base 6.2.0
 _ZTS20QQuickPointerHandler@Base 6.2.0
 _ZTS20QQuickPropertyAction@Base 6.2.0
 _ZTS20QQuickScreenAttached@Base 6.2.0
 _ZTS20QQuickSpriteSequence@Base 6.2.0
 _ZTS20QQuickStateOperation@Base 6.2.0
 _ZTS20QQuickTextureFactory@Base 6.2.0
 _ZTS20QQuickWindowAttached@Base 6.2.0
 _ZTS20QSGBasicGeometryNode@Base 6.2.0
 _ZTS20QSGCompressedTexture@Base 6.2.0
 _ZTS20QSGFlatColorMaterial@Base 6.2.0
 _ZTS20QSGInternalImageNode@Base 6.2.0
 _ZTS20QSGRendererInterface@Base 6.2.0
 _ZTS20QSGSimpleTextureNode@Base 6.2.0
 _ZTS21QQuickAnchorAnimation@Base 6.2.0
 _ZTS21QQuickDefaultClipNode@Base 6.2.0
 _ZTS21QQuickDoubleValidator@Base 6.2.0
 _ZTS21QQuickNumberAnimation@Base 6.2.0
 _ZTS21QQuickOpacityAnimator@Base 6.2.0
 _ZTS21QQuickParentAnimation@Base 6.2.0
 _ZTS21QQuickPropertyChanges@Base 6.2.0
 _ZTS21QQuickSpringAnimation@Base 6.2.0
 _ZTS21QQuickStochasticState@Base 6.2.0
 _ZTS21QQuickTextEditPrivate@Base 6.2.0
 _ZTS21QQuickUniformAnimator@Base 6.2.0
 _ZTS21QSGDefaultPainterNode@Base 6.2.0
 _ZTS22QAccessibleQuickWindow@Base 6.2.0
 _ZTS22QQuickAnimatorProxyJob@Base 6.2.0
 _ZTS22QQuickFlickablePrivate@Base 6.2.0
 _ZTS22QQuickImageBasePrivate@Base 6.2.0
 _ZTS22QQuickImplicitSizeItem@Base 6.2.0
 _ZTS22QQuickItemViewAttached@Base 6.2.0
 _ZTS22QQuickListViewAttached@Base 6.2.0
 _ZTS22QQuickPathInterpolator@Base 6.2.0
 _ZTS22QQuickRotationAnimator@Base 6.2.0
 _ZTS22QQuickScaleAnimatorJob@Base 6.2.0
 _ZTS22QQuickShaderEffectMesh@Base 6.2.0
 _ZTS22QQuickStochasticEngine@Base 6.2.0
 _ZTS22QQuickTableViewPrivate@Base 6.2.0
 _ZTS22QQuickTextInputPrivate@Base 6.2.0
 _ZTS22QSGSmoothColorMaterial@Base 6.2.0
 _ZTS22QSGVertexColorMaterial@Base 6.2.0
 _ZTS23QQuickAbstractAnimation@Base 6.2.0
 _ZTS23QQuickFramebufferObject@Base 6.2.0
 _ZTS23QQuickMultiPointHandler@Base 6.2.0
 _ZTS23QQuickParallelAnimation@Base 6.2.0
 _ZTS23QQuickPropertyAnimation@Base 6.2.0
 _ZTS23QQuickRotationAnimation@Base 6.2.0
 _ZTS23QQuickSmoothedAnimation@Base 6.2.0
 _ZTS23QQuickStateChangeScript@Base 6.2.0
 _ZTS23QQuickTableViewAttached@Base 6.2.0
 _ZTS23QQuickTransitionManager@Base 6.2.0
 _ZTS23QQuickVector3dAnimation@Base 6.2.0
 _ZTS23QSGDefaultNinePatchNode@Base 6.2.0
 _ZTS23QSGDefaultRenderContext@Base 6.2.0
 _ZTS24QMutableSinglePointEvent@Base 6.2.0
 _ZTS24QQuickAccessibleAttached@Base 6.2.0
 _ZTS24QQuickAsyncImageProvider@Base 6.2.0
 _ZTS24QQuickOpacityAnimatorJob@Base 6.2.0
 _ZTS24QQuickPaintedItemPrivate@Base 6.2.0
 _ZTS24QQuickShaderEffectSource@Base 6.2.0
 _ZTS24QQuickSinglePointHandler@Base 6.2.0
 _ZTS24QQuickUniformAnimatorJob@Base 6.2.0
 _ZTS24QSGInternalRectangleNode@Base 6.2.0
 _ZTS24QSGOpaqueTextureMaterial@Base 6.2.0
 _ZTS24QSGSmoothTextureMaterial@Base 6.2.0
 _ZTS24QSGTexturePlatformOpenGL@Base 6.2.0
 (arch=linux-any)_ZTS24QSGTexturePlatformVulkan@Base 6.2.0
 _ZTS25QQuickAnimationController@Base 6.2.0
 _ZTS25QQuickMultiPointTouchArea@Base 6.2.0
 _ZTS25QQuickPathCatmullRomCurve@Base 6.2.0
 _ZTS25QQuickRotationAnimatorJob@Base 6.2.0
 _ZTS25QQuickSequentialAnimation@Base 6.2.0
 _ZTS25QQuickWheelHandlerPrivate@Base 6.2.0
 _ZTS25QSGBasicInternalImageNode@Base 6.2.0
 _ZTS26QQuickDeliveryAgentPrivate@Base 6.2.0
 _ZTS26QQuickImageTextureProvider@Base 6.2.0
 _ZTS26QQuickItemViewTransitioner@Base 6.2.0
 _ZTS26QQuickPointerDeviceHandler@Base 6.2.0
 _ZTS26QQuickRenderControlPrivate@Base 6.2.0
 _ZTS26QQuickWindowQmlImplPrivate@Base 6.2.0
 _ZTS26QSGAbstractRendererPrivate@Base 6.2.0
 _ZTS26QSGContextFactoryInterface@Base 6.2.0
 _ZTS26QSGDistanceFieldGlyphCache@Base 6.2.0
 _ZTS27QQuickKeyNavigationAttached@Base 6.2.0
 _ZTS27QQuickPointerHandlerPrivate@Base 6.2.0
 _ZTS27QSGAbstractSoftwareRenderer@Base 6.2.0
 _ZTS27QSGCompressedTextureFactory@Base 6.2.0
 _ZTS27QSGDefaultInternalImageNode@Base 6.2.0
 _ZTS28QSGDistanceFieldTextMaterial@Base 6.2.0
 _ZTS29QQuickImplicitSizeItemPrivate@Base 6.2.0
 _ZTS29QSGBasicInternalRectangleNode@Base 6.2.0
 _ZTS29QSGDistanceFieldGlyphConsumer@Base 6.2.0
 _ZTS29QSGRhiDistanceFieldGlyphCache@Base 6.2.0
 _ZTS30QQuickAbstractAnimationPrivate@Base 6.2.0
 _ZTS30QQuickImageProviderWithOptions@Base 6.2.0
 _ZTS30QQuickMultiPointHandlerPrivate@Base 6.2.0
 _ZTS30QQuickTableSectionSizeProvider@Base 6.2.0
 _ZTS31QQuickSinglePointHandlerPrivate@Base 6.2.0
 _ZTS31QSGDefaultInternalRectangleNode@Base 6.2.0
 _ZTS31QSGGuiThreadShaderEffectManager@Base 6.2.0
 _ZTS32QQuickItemViewTransitionableItem@Base 6.2.0
 _ZTS33QQuickPointerDeviceHandlerPrivate@Base 6.2.0
 _ZTS33QSGOpaqueTextureMaterialRhiShader@Base 6.2.0
 _ZTS34QSGDistanceFieldStyledTextMaterial@Base 6.2.0
 _ZTS35QSGDistanceFieldOutlineTextMaterial@Base 6.2.0
 _ZTS38QQuickItemViewTransitionChangeListener@Base 6.2.0
 _ZTS39QSGHiQSubPixelDistanceFieldTextMaterial@Base 6.2.0
 _ZTS39QSGLoQSubPixelDistanceFieldTextMaterial@Base 6.2.0
 _ZTS40QSGDistanceFieldShiftedStyleTextMaterial@Base 6.2.0
 _ZTS7QSGNode@Base 6.2.0
 _ZTS8QSGLayer@Base 6.2.0
 _ZTS9QQuickPen@Base 6.2.0
 _ZTS9QQuickRow@Base 6.2.0
 _ZTSFP7QObjectP10QQmlEngineP9QJSEngineE@Base 6.2.0
 _ZTSN13QSGRenderNode11RenderStateE@Base 6.2.0
 _ZTSN16QNativeInterface16QSGOpenGLTextureE@Base 6.2.0
 (arch=linux-any)_ZTSN16QNativeInterface16QSGVulkanTextureE@Base 6.2.0
 _ZTSN16QSGBatchRenderer8RendererE@Base 6.2.0
 _ZTSN19QQuickDeliveryAgent9TransformE@Base 6.2.0
 _ZTSN22QQuickFlickablePrivate8VelocityE@Base 6.2.0
 _ZTSN23QQuickFramebufferObject8RendererE@Base 6.2.0
 _ZTSN3QV415ExecutionEngine9DeletableE@Base 6.2.0
 (arch=armel riscv64)_ZTSN9__gnu_cxx7__mutexE@Base 6.2.0
 _ZTSPFP7QObjectP10QQmlEngineP9QJSEngineE@Base 6.2.0
 (arch=armel riscv64)_ZTSSt11_Mutex_baseILN9__gnu_cxx12_Lock_policyE1EE@Base 6.2.0
 (arch=!armel !riscv64)_ZTSSt11_Mutex_baseILN9__gnu_cxx12_Lock_policyE2EE@Base 6.2.0
 (arch=armel riscv64)_ZTSSt16_Sp_counted_baseILN9__gnu_cxx12_Lock_policyE1EE@Base 6.2.0
 (arch=!armel !riscv64)_ZTSSt16_Sp_counted_baseILN9__gnu_cxx12_Lock_policyE2EE@Base 6.2.0
 _ZTSSt19_Sp_make_shared_tag@Base 6.2.0
 (arch=armel riscv64)_ZTSSt23_Sp_counted_ptr_inplaceI26QQuickPaletteColorProviderSaIS0_ELN9__gnu_cxx12_Lock_policyE1EE@Base 6.2.0
 (arch=!armel !riscv64)_ZTSSt23_Sp_counted_ptr_inplaceI26QQuickPaletteColorProviderSaIS0_ELN9__gnu_cxx12_Lock_policyE2EE@Base 6.2.0
 _ZTSZN9QMetaType17registerConverterI5QListI4QUrlE9QIterableI13QMetaSequenceEN9QtPrivate33QSequentialIterableConvertFunctorIS3_EEEEbT1_EUlPKvPvE_@Base 6.2.0
 _ZTSZN9QMetaType17registerConverterI5QListI7QPointFE9QIterableI13QMetaSequenceEN9QtPrivate33QSequentialIterableConvertFunctorIS3_EEEEbT1_EUlPKvPvE_@Base 6.2.0
 _ZTSZN9QMetaType17registerConverterI5QListI9QPolygonFE9QIterableI13QMetaSequenceEN9QtPrivate33QSequentialIterableConvertFunctorIS3_EEEEbT1_EUlPKvPvE_@Base 6.2.0
 _ZTSZN9QMetaType17registerConverterI5QListIP7QObjectE9QIterableI13QMetaSequenceEN9QtPrivate33QSequentialIterableConvertFunctorIS4_EEEEbT1_EUlPKvPvE_@Base 6.2.0
 _ZTSZN9QMetaType17registerConverterI5QListIS1_I7QPointFEE9QIterableI13QMetaSequenceEN9QtPrivate33QSequentialIterableConvertFunctorIS4_EEEEbT1_EUlPKvPvE_@Base 6.2.0
 _ZTSZN9QMetaType17registerConverterI5QListIiE9QIterableI13QMetaSequenceEN9QtPrivate33QSequentialIterableConvertFunctorIS2_EEEEbT1_EUlPKvPvE_@Base 6.2.0
 _ZTSZN9QMetaType19registerMutableViewI5QListI4QUrlE9QIterableI13QMetaSequenceEN9QtPrivate37QSequentialIterableMutableViewFunctorIS3_EEEEbT1_EUlPvSB_E_@Base 6.2.0
 _ZTSZN9QMetaType19registerMutableViewI5QListI7QPointFE9QIterableI13QMetaSequenceEN9QtPrivate37QSequentialIterableMutableViewFunctorIS3_EEEEbT1_EUlPvSB_E_@Base 6.2.0
 _ZTSZN9QMetaType19registerMutableViewI5QListI9QPolygonFE9QIterableI13QMetaSequenceEN9QtPrivate37QSequentialIterableMutableViewFunctorIS3_EEEEbT1_EUlPvSB_E_@Base 6.2.0
 _ZTSZN9QMetaType19registerMutableViewI5QListIP7QObjectE9QIterableI13QMetaSequenceEN9QtPrivate37QSequentialIterableMutableViewFunctorIS4_EEEEbT1_EUlPvSC_E_@Base 6.2.0
 _ZTSZN9QMetaType19registerMutableViewI5QListIS1_I7QPointFEE9QIterableI13QMetaSequenceEN9QtPrivate37QSequentialIterableMutableViewFunctorIS4_EEEEbT1_EUlPvSC_E_@Base 6.2.0
 _ZTSZN9QMetaType19registerMutableViewI5QListIiE9QIterableI13QMetaSequenceEN9QtPrivate37QSequentialIterableMutableViewFunctorIS2_EEEEbT1_EUlPvSA_E_@Base 6.2.0
 _ZTV10QQuickDrag@Base 6.2.0
 _ZTV10QQuickFlow@Base 6.2.0
 _ZTV10QQuickGrid@Base 6.2.0
 _ZTV10QQuickItem@Base 6.2.0
 _ZTV10QQuickPath@Base 6.2.0
 _ZTV10QQuickText@Base 6.2.0
 _ZTV10QQuickView@Base 6.2.0
 _ZTV10QSGContext@Base 6.2.0
 _ZTV10QSGTexture@Base 6.2.0
 _ZTV11QQuickCurve@Base 6.2.0
 _ZTV11QQuickImage@Base 6.2.0
 _ZTV11QQuickPinch@Base 6.2.0
 _ZTV11QQuickScale@Base 6.2.0
 _ZTV11QQuickState@Base 6.2.0
 _ZTV11QSGClipNode@Base 6.2.0
 _ZTV11QSGGeometry@Base 6.2.0
 _ZTV11QSGMaterial@Base 6.2.0
 _ZTV11QSGRenderer@Base 6.2.0
 _ZTV11QSGRhiLayer@Base 6.2.0
 _ZTV11QSGRootNode@Base 6.2.0
 _ZTV12QQuickColumn@Base 6.2.0
 _ZTV12QQuickLoader@Base 6.2.0
 _ZTV12QQuickScreen@Base 6.2.0
 _ZTV12QQuickSprite@Base 6.2.0
 _ZTV12QQuickWindow@Base 6.2.0
 _ZTV12QSGImageNode@Base 6.2.0
 _ZTV13QQuickAnchors@Base 6.2.0
 _ZTV13QQuickPalette@Base 6.2.0
 _ZTV13QQuickPathArc@Base 6.2.0
 _ZTV13QQuickPathSvg@Base 6.2.0
 _ZTV13QSGNodeDumper@Base 6.2.0
 _ZTV13QSGRenderLoop@Base 6.2.0
 _ZTV13QSGRenderNode@Base 6.2.0
 _ZTV14QQuickAnimator@Base 6.2.0
 _ZTV14QQuickBehavior@Base 6.2.0
 _ZTV14QQuickDragAxis@Base 6.2.0
 _ZTV14QQuickDropArea@Base 6.2.0
 _ZTV14QQuickFlipable@Base 6.2.0
 _ZTV14QQuickGradient@Base 6.2.0
 _ZTV14QQuickGridMesh@Base 6.2.0
 _ZTV14QQuickGridView@Base 6.2.0
 _ZTV14QQuickItemView@Base 6.2.0
 _ZTV14QQuickListView@Base 6.2.0
 _ZTV14QQuickPathLine@Base 6.2.0
 _ZTV14QQuickPathMove@Base 6.2.0
 _ZTV14QQuickPathQuad@Base 6.2.0
 _ZTV14QQuickPathText@Base 6.2.0
 _ZTV14QQuickPathView@Base 6.2.0
 _ZTV14QQuickProfiler@Base 6.2.0
 _ZTV14QQuickRepeater@Base 6.2.0
 _ZTV14QQuickRootItem@Base 6.2.0
 _ZTV14QQuickRotation@Base 6.2.0
 _ZTV14QQuickTextEdit@Base 6.2.0
 _ZTV14QQuickTextNode@Base 6.2.0
 _ZTV14QQuickTimeLine@Base 6.2.0
 _ZTV14QSGNodeUpdater@Base 6.2.0
 _ZTV14QSGNodeVisitor@Base 6.2.0
 _ZTV14QSGOpacityNode@Base 6.2.0
 _ZTV15QQuickAnchorSet@Base 6.2.0
 _ZTV15QQuickFlickable@Base 6.2.0
 _ZTV15QQuickImageBase@Base 6.2.0
 _ZTV15QQuickItemLayer@Base 6.2.0
 _ZTV15QQuickMatrix4x4@Base 6.2.0
 _ZTV15QQuickMouseArea@Base 6.2.0
 _ZTV15QQuickPathCubic@Base 6.2.0
 _ZTV15QQuickPinchArea@Base 6.2.0
 _ZTV15QQuickRectangle@Base 6.2.0
 _ZTV15QQuickScaleGrid@Base 6.2.0
 _ZTV15QQuickTableView@Base 6.2.0
 _ZTV15QQuickTextInput@Base 6.2.0
 _ZTV15QQuickTransform@Base 6.2.0
 _ZTV15QQuickTranslate@Base 6.2.0
 _ZTV15QQuickXAnimator@Base 6.2.0
 _ZTV15QQuickYAnimator@Base 6.2.0
 _ZTV15QSGGeometryNode@Base 6.2.0
 _ZTV15QSGPlainTexture@Base 6.2.0
 _ZTV16QQmlCustomParser@Base 6.2.0
 _ZTV16QQuickCloseEvent@Base 6.2.0
 _ZTV16QQuickColorGroup@Base 6.2.0
 _ZTV16QQuickFocusScope@Base 6.2.0
 _ZTV16QQuickFontLoader@Base 6.2.0
 _ZTV16QQuickMouseEvent@Base 6.2.0
 _ZTV16QQuickPinchEvent@Base 6.2.0
 _ZTV16QQuickScreenInfo@Base 6.2.0
 _ZTV16QQuickStateGroup@Base 6.2.0
 _ZTV16QQuickTapHandler@Base 6.2.0
 _ZTV16QQuickTouchPoint@Base 6.2.0
 _ZTV16QQuickTransition@Base 6.2.0
 _ZTV16QSGContextPlugin@Base 6.2.0
 _ZTV16QSGNinePatchNode@Base 6.2.0
 _ZTV16QSGRectangleNode@Base 6.2.0
 _ZTV16QSGRenderContext@Base 6.2.0
 _ZTV16QSGTransformNode@Base 6.2.0
 _ZTV16QSGVisitableNode@Base 6.2.0
 _ZTV17QQuickAnimatorJob@Base 6.2.0
 _ZTV17QQuickApplication@Base 6.2.0
 _ZTV17QQuickBorderImage@Base 6.2.0
 _ZTV17QQuickDragHandler@Base 6.2.0
 _ZTV17QQuickFontMetrics@Base 6.2.0
 _ZTV17QQuickItemPrivate@Base 6.2.0
 _ZTV17QQuickPaintedItem@Base 6.2.0
 _ZTV17QQuickPathElement@Base 6.2.0
 _ZTV17QQuickPathPercent@Base 6.2.0
 _ZTV17QQuickPathPrivate@Base 6.2.0
 _ZTV17QQuickTextMetrics@Base 6.2.0
 _ZTV17QQuickTextPrivate@Base 6.2.0
 _ZTV17QQuickViewPrivate@Base 6.2.0
 _ZTV17QQuickViewSection@Base 6.2.0
 _ZTV17QSGBasicGlyphNode@Base 6.2.0
 _ZTV17QSGDefaultContext@Base 6.2.0
 _ZTV17QSGDynamicTexture@Base 6.2.0
 _ZTV17QSGMaterialShader@Base 6.2.0
 _ZTV17QSGPainterTexture@Base 6.2.0
 _ZTV17QSGSimpleRectNode@Base 6.2.0
 _ZTV17QSGTexturePrivate@Base 6.2.0
 _ZTV18QMutableTouchEvent@Base 6.2.0
 _ZTV18QQuickDragAttached@Base 6.2.0
 _ZTV18QQuickGradientStop@Base 6.2.0
 _ZTV18QQuickHoverHandler@Base 6.2.0
 _ZTV18QQuickImagePrivate@Base 6.2.0
 _ZTV18QQuickIntValidator@Base 6.2.0
 _ZTV18QQuickParentChange@Base 6.2.0
 _ZTV18QQuickPathAngleArc@Base 6.2.0
 _ZTV18QQuickPathPolyline@Base 6.2.0
 _ZTV18QQuickPinchHandler@Base 6.2.0
 _ZTV18QQuickPointHandler@Base 6.2.0
 _ZTV18QQuickScriptAction@Base 6.2.0
 _ZTV18QQuickShaderEffect@Base 6.2.0
 _ZTV18QQuickSpriteEngine@Base 6.2.0
 _ZTV18QQuickTextDocument@Base 6.2.0
 _ZTV18QQuickWheelHandler@Base 6.2.0
 _ZTV18QQuickXAnimatorJob@Base 6.2.0
 _ZTV18QQuickYAnimatorJob@Base 6.2.0
 _ZTV18QSGTextureMaterial@Base 6.2.0
 _ZTV18QSGTextureProvider@Base 6.2.0
 _ZTV19QQuickAnchorChanges@Base 6.2.0
 _ZTV19QQuickAnimatedImage@Base 6.2.0
 _ZTV19QQuickDeliveryAgent@Base 6.2.0
 _ZTV19QQuickImageProvider@Base 6.2.0
 _ZTV19QQuickImageResponse@Base 6.2.0
 _ZTV19QQuickPathAnimation@Base 6.2.0
 _ZTV19QQuickPathAttribute@Base 6.2.0
 _ZTV19QQuickPathMultiline@Base 6.2.0
 _ZTV19QQuickRenderControl@Base 6.2.0
 _ZTV19QQuickScaleAnimator@Base 6.2.0
 _ZTV19QQuickSystemPalette@Base 6.2.0
 _ZTV19QQuickWindowPrivate@Base 6.2.0
 _ZTV19QQuickWindowQmlImpl@Base 6.2.0
 _ZTV19QSGAbstractRenderer@Base 6.2.0
 _ZTV19QSGDefaultImageNode@Base 6.2.0
 _ZTV19QSGShaderEffectNode@Base 6.2.0
 _ZTV19QSGSoftwareRenderer@Base 6.2.0
 _ZTV20QAccessibleQuickItem@Base 6.2.0
 _ZTV20QQuickAnimatedSprite@Base 6.2.0
 _ZTV20QQuickAnimationGroup@Base 6.2.0
 _ZTV20QQuickBasePositioner@Base 6.2.0
 _ZTV20QQuickColorAnimation@Base 6.2.0
 _ZTV20QQuickItemGrabResult@Base 6.2.0
 _ZTV20QQuickItemViewFxItem@Base 6.2.0
 _ZTV20QQuickPauseAnimation@Base 6.2.0
 _ZTV20QQuickPointerHandler@Base 6.2.0
 _ZTV20QQuickPropertyAction@Base 6.2.0
 _ZTV20QQuickScreenAttached@Base 6.2.0
 _ZTV20QQuickSpriteSequence@Base 6.2.0
 _ZTV20QQuickStateOperation@Base 6.2.0
 _ZTV20QQuickTextureFactory@Base 6.2.0
 _ZTV20QQuickWindowAttached@Base 6.2.0
 _ZTV20QSGBasicGeometryNode@Base 6.2.0
 _ZTV20QSGCompressedTexture@Base 6.2.0
 _ZTV20QSGFlatColorMaterial@Base 6.2.0
 _ZTV20QSGRendererInterface@Base 6.2.0
 _ZTV20QSGSimpleTextureNode@Base 6.2.0
 _ZTV21QQuickAnchorAnimation@Base 6.2.0
 _ZTV21QQuickDefaultClipNode@Base 6.2.0
 _ZTV21QQuickDoubleValidator@Base 6.2.0
 _ZTV21QQuickNumberAnimation@Base 6.2.0
 _ZTV21QQuickOpacityAnimator@Base 6.2.0
 _ZTV21QQuickParentAnimation@Base 6.2.0
 _ZTV21QQuickPropertyChanges@Base 6.2.0
 _ZTV21QQuickSpringAnimation@Base 6.2.0
 _ZTV21QQuickStochasticState@Base 6.2.0
 _ZTV21QQuickTextEditPrivate@Base 6.2.0
 _ZTV21QQuickUniformAnimator@Base 6.2.0
 _ZTV21QSGDefaultPainterNode@Base 6.2.0
 _ZTV22QAccessibleQuickWindow@Base 6.2.0
 _ZTV22QQuickAnimatorProxyJob@Base 6.2.0
 _ZTV22QQuickFlickablePrivate@Base 6.2.0
 _ZTV22QQuickImageBasePrivate@Base 6.2.0
 _ZTV22QQuickImplicitSizeItem@Base 6.2.0
 _ZTV22QQuickItemViewAttached@Base 6.2.0
 _ZTV22QQuickListViewAttached@Base 6.2.0
 _ZTV22QQuickPathInterpolator@Base 6.2.0
 _ZTV22QQuickRotationAnimator@Base 6.2.0
 _ZTV22QQuickScaleAnimatorJob@Base 6.2.0
 _ZTV22QQuickShaderEffectMesh@Base 6.2.0
 _ZTV22QQuickStochasticEngine@Base 6.2.0
 _ZTV22QQuickTableViewPrivate@Base 6.2.0
 _ZTV22QQuickTextInputPrivate@Base 6.2.0
 _ZTV22QSGSmoothColorMaterial@Base 6.2.0
 _ZTV22QSGVertexColorMaterial@Base 6.2.0
 _ZTV23QQuickAbstractAnimation@Base 6.2.0
 _ZTV23QQuickFramebufferObject@Base 6.2.0
 _ZTV23QQuickMultiPointHandler@Base 6.2.0
 _ZTV23QQuickParallelAnimation@Base 6.2.0
 _ZTV23QQuickPropertyAnimation@Base 6.2.0
 _ZTV23QQuickRotationAnimation@Base 6.2.0
 _ZTV23QQuickSmoothedAnimation@Base 6.2.0
 _ZTV23QQuickStateChangeScript@Base 6.2.0
 _ZTV23QQuickTableViewAttached@Base 6.2.0
 _ZTV23QQuickTransitionManager@Base 6.2.0
 _ZTV23QQuickVector3dAnimation@Base 6.2.0
 _ZTV23QSGDefaultNinePatchNode@Base 6.2.0
 _ZTV23QSGDefaultRenderContext@Base 6.2.0
 _ZTV24QMutableSinglePointEvent@Base 6.2.0
 _ZTV24QQuickAccessibleAttached@Base 6.2.0
 _ZTV24QQuickAsyncImageProvider@Base 6.2.0
 _ZTV24QQuickOpacityAnimatorJob@Base 6.2.0
 _ZTV24QQuickPaintedItemPrivate@Base 6.2.0
 _ZTV24QQuickShaderEffectSource@Base 6.2.0
 _ZTV24QQuickSinglePointHandler@Base 6.2.0
 _ZTV24QQuickUniformAnimatorJob@Base 6.2.0
 _ZTV24QSGOpaqueTextureMaterial@Base 6.2.0
 _ZTV24QSGSmoothTextureMaterial@Base 6.2.0
 _ZTV24QSGTexturePlatformOpenGL@Base 6.2.0
 (arch=linux-any)_ZTV24QSGTexturePlatformVulkan@Base 6.2.0
 _ZTV25QQuickAnimationController@Base 6.2.0
 _ZTV25QQuickMultiPointTouchArea@Base 6.2.0
 _ZTV25QQuickPathCatmullRomCurve@Base 6.2.0
 _ZTV25QQuickRotationAnimatorJob@Base 6.2.0
 _ZTV25QQuickSequentialAnimation@Base 6.2.0
 _ZTV25QQuickWheelHandlerPrivate@Base 6.2.0
 _ZTV25QSGBasicInternalImageNode@Base 6.2.0
 _ZTV26QQuickDeliveryAgentPrivate@Base 6.2.0
 _ZTV26QQuickImageTextureProvider@Base 6.2.0
 _ZTV26QQuickItemViewTransitioner@Base 6.2.0
 _ZTV26QQuickPointerDeviceHandler@Base 6.2.0
 _ZTV26QQuickRenderControlPrivate@Base 6.2.0
 _ZTV26QQuickWindowQmlImplPrivate@Base 6.2.0
 _ZTV26QSGAbstractRendererPrivate@Base 6.2.0
 _ZTV26QSGContextFactoryInterface@Base 6.2.0
 _ZTV26QSGDistanceFieldGlyphCache@Base 6.2.0
 _ZTV27QQuickKeyNavigationAttached@Base 6.2.0
 _ZTV27QQuickPointerHandlerPrivate@Base 6.2.0
 _ZTV27QSGAbstractSoftwareRenderer@Base 6.2.0
 _ZTV27QSGCompressedTextureFactory@Base 6.2.0
 _ZTV27QSGDefaultInternalImageNode@Base 6.2.0
 _ZTV28QSGDistanceFieldTextMaterial@Base 6.2.0
 _ZTV29QQuickImplicitSizeItemPrivate@Base 6.2.0
 _ZTV29QSGBasicInternalRectangleNode@Base 6.2.0
 _ZTV29QSGRhiDistanceFieldGlyphCache@Base 6.2.0
 _ZTV30QQuickAbstractAnimationPrivate@Base 6.2.0
 _ZTV30QQuickImageProviderWithOptions@Base 6.2.0
 _ZTV30QQuickMultiPointHandlerPrivate@Base 6.2.0
 _ZTV30QQuickTableSectionSizeProvider@Base 6.2.0
 _ZTV31QQuickSinglePointHandlerPrivate@Base 6.2.0
 _ZTV31QSGDefaultInternalRectangleNode@Base 6.2.0
 _ZTV31QSGGuiThreadShaderEffectManager@Base 6.2.0
 _ZTV32QQuickItemViewTransitionableItem@Base 6.2.0
 _ZTV33QQuickPointerDeviceHandlerPrivate@Base 6.2.0
 _ZTV33QSGOpaqueTextureMaterialRhiShader@Base 6.2.0
 _ZTV34QSGDistanceFieldStyledTextMaterial@Base 6.2.0
 _ZTV35QSGDistanceFieldOutlineTextMaterial@Base 6.2.0
 _ZTV39QSGHiQSubPixelDistanceFieldTextMaterial@Base 6.2.0
 _ZTV39QSGLoQSubPixelDistanceFieldTextMaterial@Base 6.2.0
 _ZTV40QSGDistanceFieldShiftedStyleTextMaterial@Base 6.2.0
 _ZTV7QSGNode@Base 6.2.0
 _ZTV8QSGLayer@Base 6.2.0
 _ZTV9QQuickPen@Base 6.2.0
 _ZTV9QQuickRow@Base 6.2.0
 _ZTVN13QSGRenderNode11RenderStateE@Base 6.2.0
 _ZTVN16QNativeInterface16QSGOpenGLTextureE@Base 6.2.0
 (arch=linux-any)_ZTVN16QNativeInterface16QSGVulkanTextureE@Base 6.2.0
 _ZTVN16QSGBatchRenderer8RendererE@Base 6.2.0
 _ZTVN19QQuickDeliveryAgent9TransformE@Base 6.2.0
 _ZTVN22QQuickFlickablePrivate8VelocityE@Base 6.2.0
 _ZTVN23QQuickFramebufferObject8RendererE@Base 6.2.0
 (arch=armel riscv64)_ZTVSt23_Sp_counted_ptr_inplaceI26QQuickPaletteColorProviderSaIS0_ELN9__gnu_cxx12_Lock_policyE1EE@Base 6.2.0
 (arch=!armel !riscv64)_ZTVSt23_Sp_counted_ptr_inplaceI26QQuickPaletteColorProviderSaIS0_ELN9__gnu_cxx12_Lock_policyE2EE@Base 6.2.0
 (optional=templinst)_ZZN9QMetaType21registerConverterImplI5QListI4QUrlE9QIterableI13QMetaSequenceEEEbSt8functionIFbPKvPvEES_S_E10unregister@Base 6.2.0
 (optional=templinst)_ZZN9QMetaType21registerConverterImplI5QListI7QPointFE9QIterableI13QMetaSequenceEEEbSt8functionIFbPKvPvEES_S_E10unregister@Base 6.2.0
 (optional=templinst)_ZZN9QMetaType21registerConverterImplI5QListI9QPolygonFE9QIterableI13QMetaSequenceEEEbSt8functionIFbPKvPvEES_S_E10unregister@Base 6.2.0
 (optional=templinst)_ZZN9QMetaType21registerConverterImplI5QListIP7QObjectE9QIterableI13QMetaSequenceEEEbSt8functionIFbPKvPvEES_S_E10unregister@Base 6.2.0
 (optional=templinst)_ZZN9QMetaType21registerConverterImplI5QListIS1_I7QPointFEE9QIterableI13QMetaSequenceEEEbSt8functionIFbPKvPvEES_S_E10unregister@Base 6.2.0
 (optional=templinst)_ZZN9QMetaType21registerConverterImplI5QListIiE9QIterableI13QMetaSequenceEEEbSt8functionIFbPKvPvEES_S_E10unregister@Base 6.2.0
 (optional=templinst)_ZZN9QMetaType23registerMutableViewImplI5QListI4QUrlE9QIterableI13QMetaSequenceEEEbSt8functionIFbPvS8_EES_S_E10unregister@Base 6.2.0
 (optional=templinst)_ZZN9QMetaType23registerMutableViewImplI5QListI7QPointFE9QIterableI13QMetaSequenceEEEbSt8functionIFbPvS8_EES_S_E10unregister@Base 6.2.0
 (optional=templinst)_ZZN9QMetaType23registerMutableViewImplI5QListI9QPolygonFE9QIterableI13QMetaSequenceEEEbSt8functionIFbPvS8_EES_S_E10unregister@Base 6.2.0
 (optional=templinst)_ZZN9QMetaType23registerMutableViewImplI5QListIP7QObjectE9QIterableI13QMetaSequenceEEEbSt8functionIFbPvS9_EES_S_E10unregister@Base 6.2.0
 (optional=templinst)_ZZN9QMetaType23registerMutableViewImplI5QListIS1_I7QPointFEE9QIterableI13QMetaSequenceEEEbSt8functionIFbPvS9_EES_S_E10unregister@Base 6.2.0
 (optional=templinst)_ZZN9QMetaType23registerMutableViewImplI5QListIiE9QIterableI13QMetaSequenceEEEbSt8functionIFbPvS7_EES_S_E10unregister@Base 6.2.0
 (optional=templinst)_ZZN9QtPrivate16QMetaTypeForTypeI10QByteArrayE10getCopyCtrEvENUlPKNS_18QMetaTypeInterfaceEPvPKvE_4_FUNES5_S6_S8_@Base 6.2.0
 (optional=templinst)_ZZN9QtPrivate16QMetaTypeForTypeI10QByteArrayE10getMoveCtrEvENUlPKNS_18QMetaTypeInterfaceEPvS6_E_4_FUNES5_S6_S6_@Base 6.2.0
 (optional=templinst)_ZZN9QtPrivate16QMetaTypeForTypeI10QByteArrayE13getDefaultCtrEvENUlPKNS_18QMetaTypeInterfaceEPvE_4_FUNES5_S6_@Base 6.2.0
 (optional=templinst)_ZZN9QtPrivate16QMetaTypeForTypeI10QByteArrayE7getDtorEvENUlPKNS_18QMetaTypeInterfaceEPvE_4_FUNES5_S6_@Base 6.2.0
 (optional=templinst)_ZZN9QtPrivate16QMetaTypeForTypeI12QEasingCurveE10getCopyCtrEvENUlPKNS_18QMetaTypeInterfaceEPvPKvE_4_FUNES5_S6_S8_@Base 6.2.0
 (optional=templinst)_ZZN9QtPrivate16QMetaTypeForTypeI12QEasingCurveE10getMoveCtrEvENUlPKNS_18QMetaTypeInterfaceEPvS6_E_4_FUNES5_S6_S6_@Base 6.2.0
 (optional=templinst)_ZZN9QtPrivate16QMetaTypeForTypeI12QEasingCurveE13getDefaultCtrEvENUlPKNS_18QMetaTypeInterfaceEPvE_4_FUNES5_S6_@Base 6.2.0
 (optional=templinst)_ZZN9QtPrivate16QMetaTypeForTypeI12QEasingCurveE7getDtorEvENUlPKNS_18QMetaTypeInterfaceEPvE_4_FUNES5_S6_@Base 6.2.0
 (optional=templinst)_ZZN9QtPrivate16QMetaTypeForTypeI4QMapI7QString8QVariantEE10getCopyCtrEvENUlPKNS_18QMetaTypeInterfaceEPvPKvE_4_FUNES8_S9_SB_@Base 6.2.0
 (optional=templinst)_ZZN9QtPrivate16QMetaTypeForTypeI4QMapI7QString8QVariantEE10getMoveCtrEvENUlPKNS_18QMetaTypeInterfaceEPvS9_E_4_FUNES8_S9_S9_@Base 6.2.0
 (optional=templinst)_ZZN9QtPrivate16QMetaTypeForTypeI4QMapI7QString8QVariantEE13getDefaultCtrEvENUlPKNS_18QMetaTypeInterfaceEPvE_4_FUNES8_S9_@Base 6.2.0
 (optional=templinst)_ZZN9QtPrivate16QMetaTypeForTypeI4QMapI7QString8QVariantEE7getDtorEvENUlPKNS_18QMetaTypeInterfaceEPvE_4_FUNES8_S9_@Base 6.2.0
 (optional=templinst)_ZZN9QtPrivate16QMetaTypeForTypeI4QUrlE10getCopyCtrEvENUlPKNS_18QMetaTypeInterfaceEPvPKvE_4_FUNES5_S6_S8_@Base 6.2.0
 (optional=templinst)_ZZN9QtPrivate16QMetaTypeForTypeI4QUrlE10getMoveCtrEvENUlPKNS_18QMetaTypeInterfaceEPvS6_E_4_FUNES5_S6_S6_@Base 6.2.0
 (optional=templinst)_ZZN9QtPrivate16QMetaTypeForTypeI4QUrlE13getDefaultCtrEvENUlPKNS_18QMetaTypeInterfaceEPvE_4_FUNES5_S6_@Base 6.2.0
 (optional=templinst)_ZZN9QtPrivate16QMetaTypeForTypeI4QUrlE7getDtorEvENUlPKNS_18QMetaTypeInterfaceEPvE_4_FUNES5_S6_@Base 6.2.0
 (optional=templinst)_ZZN9QtPrivate16QMetaTypeForTypeI5QListI7QStringEE10getCopyCtrEvENUlPKNS_18QMetaTypeInterfaceEPvPKvE_4_FUNES7_S8_SA_@Base 6.2.0
 (optional=templinst)_ZZN9QtPrivate16QMetaTypeForTypeI5QListI7QStringEE10getMoveCtrEvENUlPKNS_18QMetaTypeInterfaceEPvS8_E_4_FUNES7_S8_S8_@Base 6.2.0
 (optional=templinst)_ZZN9QtPrivate16QMetaTypeForTypeI5QListI7QStringEE13getDefaultCtrEvENUlPKNS_18QMetaTypeInterfaceEPvE_4_FUNES7_S8_@Base 6.2.0
 (optional=templinst)_ZZN9QtPrivate16QMetaTypeForTypeI5QListI7QStringEE7getDtorEvENUlPKNS_18QMetaTypeInterfaceEPvE_4_FUNES7_S8_@Base 6.2.0
 (optional=templinst)_ZZN9QtPrivate16QMetaTypeForTypeI5QListI8QVariantEE10getCopyCtrEvENUlPKNS_18QMetaTypeInterfaceEPvPKvE_4_FUNES7_S8_SA_@Base 6.2.0
 (optional=templinst)_ZZN9QtPrivate16QMetaTypeForTypeI5QListI8QVariantEE10getMoveCtrEvENUlPKNS_18QMetaTypeInterfaceEPvS8_E_4_FUNES7_S8_S8_@Base 6.2.0
 (optional=templinst)_ZZN9QtPrivate16QMetaTypeForTypeI5QListI8QVariantEE13getDefaultCtrEvENUlPKNS_18QMetaTypeInterfaceEPvE_4_FUNES7_S8_@Base 6.2.0
 (optional=templinst)_ZZN9QtPrivate16QMetaTypeForTypeI5QListI8QVariantEE7getDtorEvENUlPKNS_18QMetaTypeInterfaceEPvE_4_FUNES7_S8_@Base 6.2.0
 (optional=templinst)_ZZN9QtPrivate16QMetaTypeForTypeI5QRectE10getCopyCtrEvENUlPKNS_18QMetaTypeInterfaceEPvPKvE_4_FUNES5_S6_S8_@Base 6.2.0
 (optional=templinst)_ZZN9QtPrivate16QMetaTypeForTypeI5QRectE10getMoveCtrEvENUlPKNS_18QMetaTypeInterfaceEPvS6_E_4_FUNES5_S6_S6_@Base 6.2.0
 (optional=templinst)_ZZN9QtPrivate16QMetaTypeForTypeI5QRectE13getDefaultCtrEvENUlPKNS_18QMetaTypeInterfaceEPvE_4_FUNES5_S6_@Base 6.2.0
 (optional=templinst)_ZZN9QtPrivate16QMetaTypeForTypeI5QSizeE10getCopyCtrEvENUlPKNS_18QMetaTypeInterfaceEPvPKvE_4_FUNES5_S6_S8_@Base 6.2.0
 (optional=templinst)_ZZN9QtPrivate16QMetaTypeForTypeI5QSizeE10getMoveCtrEvENUlPKNS_18QMetaTypeInterfaceEPvS6_E_4_FUNES5_S6_S6_@Base 6.2.0
 (optional=templinst)_ZZN9QtPrivate16QMetaTypeForTypeI5QSizeE13getDefaultCtrEvENUlPKNS_18QMetaTypeInterfaceEPvE_4_FUNES5_S6_@Base 6.2.0
 (optional=templinst)_ZZN9QtPrivate16QMetaTypeForTypeI6QPointE10getCopyCtrEvENUlPKNS_18QMetaTypeInterfaceEPvPKvE_4_FUNES5_S6_S8_@Base 6.2.0
 (optional=templinst)_ZZN9QtPrivate16QMetaTypeForTypeI6QPointE10getMoveCtrEvENUlPKNS_18QMetaTypeInterfaceEPvS6_E_4_FUNES5_S6_S6_@Base 6.2.0
 (optional=templinst)_ZZN9QtPrivate16QMetaTypeForTypeI6QPointE13getDefaultCtrEvENUlPKNS_18QMetaTypeInterfaceEPvE_4_FUNES5_S6_@Base 6.2.0
 (optional=templinst)_ZZN9QtPrivate16QMetaTypeForTypeI6QRectFE10getCopyCtrEvENUlPKNS_18QMetaTypeInterfaceEPvPKvE_4_FUNES5_S6_S8_@Base 6.2.0
 (optional=templinst)_ZZN9QtPrivate16QMetaTypeForTypeI6QRectFE10getMoveCtrEvENUlPKNS_18QMetaTypeInterfaceEPvS6_E_4_FUNES5_S6_S6_@Base 6.2.0
 (optional=templinst)_ZZN9QtPrivate16QMetaTypeForTypeI6QRectFE13getDefaultCtrEvENUlPKNS_18QMetaTypeInterfaceEPvE_4_FUNES5_S6_@Base 6.2.0
 (optional=templinst)_ZZN9QtPrivate16QMetaTypeForTypeI6QSizeFE10getCopyCtrEvENUlPKNS_18QMetaTypeInterfaceEPvPKvE_4_FUNES5_S6_S8_@Base 6.2.0
 (optional=templinst)_ZZN9QtPrivate16QMetaTypeForTypeI6QSizeFE10getMoveCtrEvENUlPKNS_18QMetaTypeInterfaceEPvS6_E_4_FUNES5_S6_S6_@Base 6.2.0
 (optional=templinst)_ZZN9QtPrivate16QMetaTypeForTypeI6QSizeFE13getDefaultCtrEvENUlPKNS_18QMetaTypeInterfaceEPvE_4_FUNES5_S6_@Base 6.2.0
 (optional=templinst)_ZZN9QtPrivate16QMetaTypeForTypeI7QPointFE10getCopyCtrEvENUlPKNS_18QMetaTypeInterfaceEPvPKvE_4_FUNES5_S6_S8_@Base 6.2.0
 (optional=templinst)_ZZN9QtPrivate16QMetaTypeForTypeI7QPointFE10getMoveCtrEvENUlPKNS_18QMetaTypeInterfaceEPvS6_E_4_FUNES5_S6_S6_@Base 6.2.0
 (optional=templinst)_ZZN9QtPrivate16QMetaTypeForTypeI7QPointFE13getDefaultCtrEvENUlPKNS_18QMetaTypeInterfaceEPvE_4_FUNES5_S6_@Base 6.2.0
 (optional=templinst)_ZZN9QtPrivate16QMetaTypeForTypeI7QStringE10getCopyCtrEvENUlPKNS_18QMetaTypeInterfaceEPvPKvE_4_FUNES5_S6_S8_@Base 6.2.0
 (optional=templinst)_ZZN9QtPrivate16QMetaTypeForTypeI7QStringE10getMoveCtrEvENUlPKNS_18QMetaTypeInterfaceEPvS6_E_4_FUNES5_S6_S6_@Base 6.2.0
 (optional=templinst)_ZZN9QtPrivate16QMetaTypeForTypeI7QStringE13getDefaultCtrEvENUlPKNS_18QMetaTypeInterfaceEPvE_4_FUNES5_S6_@Base 6.2.0
 (optional=templinst)_ZZN9QtPrivate16QMetaTypeForTypeI7QStringE7getDtorEvENUlPKNS_18QMetaTypeInterfaceEPvE_4_FUNES5_S6_@Base 6.2.0
 (optional=templinst)_ZZN9QtPrivate16QMetaTypeForTypeI8QVariantE10getCopyCtrEvENUlPKNS_18QMetaTypeInterfaceEPvPKvE_4_FUNES5_S6_S8_@Base 6.2.0
 (optional=templinst)_ZZN9QtPrivate16QMetaTypeForTypeI8QVariantE10getMoveCtrEvENUlPKNS_18QMetaTypeInterfaceEPvS6_E_4_FUNES5_S6_S6_@Base 6.2.0
 (optional=templinst)_ZZN9QtPrivate16QMetaTypeForTypeI8QVariantE13getDefaultCtrEvENUlPKNS_18QMetaTypeInterfaceEPvE_4_FUNES5_S6_@Base 6.2.0
 (optional=templinst)_ZZN9QtPrivate16QMetaTypeForTypeI8QVariantE7getDtorEvENUlPKNS_18QMetaTypeInterfaceEPvE_4_FUNES5_S6_@Base 6.2.0
 (optional=templinst)_ZZN9QtPrivate16QMetaTypeForTypeIDnE10getCopyCtrEvENUlPKNS_18QMetaTypeInterfaceEPvPKvE_4_FUNES4_S5_S7_@Base 6.2.0
 (optional=templinst)_ZZN9QtPrivate16QMetaTypeForTypeIDnE10getMoveCtrEvENUlPKNS_18QMetaTypeInterfaceEPvS5_E_4_FUNES4_S5_S5_@Base 6.2.0
 (optional=templinst)_ZZN9QtPrivate16QMetaTypeForTypeIDnE13getDefaultCtrEvENUlPKNS_18QMetaTypeInterfaceEPvE_4_FUNES4_S5_@Base 6.2.0
 (optional=templinst)_ZZN9QtPrivate16QMetaTypeForTypeIP7QObjectE10getCopyCtrEvENUlPKNS_18QMetaTypeInterfaceEPvPKvE_4_FUNES6_S7_S9_@Base 6.2.0
 (optional=templinst)_ZZN9QtPrivate16QMetaTypeForTypeIP7QObjectE10getMoveCtrEvENUlPKNS_18QMetaTypeInterfaceEPvS7_E_4_FUNES6_S7_S7_@Base 6.2.0
 (optional=templinst)_ZZN9QtPrivate16QMetaTypeForTypeIP7QObjectE13getDefaultCtrEvENUlPKNS_18QMetaTypeInterfaceEPvE_4_FUNES6_S7_@Base 6.2.0
 (optional=templinst)_ZZN9QtPrivate16QMetaTypeForTypeIbE10getCopyCtrEvENUlPKNS_18QMetaTypeInterfaceEPvPKvE_4_FUNES4_S5_S7_@Base 6.2.0
 (optional=templinst)_ZZN9QtPrivate16QMetaTypeForTypeIbE10getMoveCtrEvENUlPKNS_18QMetaTypeInterfaceEPvS5_E_4_FUNES4_S5_S5_@Base 6.2.0
 (optional=templinst)_ZZN9QtPrivate16QMetaTypeForTypeIbE13getDefaultCtrEvENUlPKNS_18QMetaTypeInterfaceEPvE_4_FUNES4_S5_@Base 6.2.0
 (optional=templinst)_ZZN9QtPrivate16QMetaTypeForTypeIdE10getCopyCtrEvENUlPKNS_18QMetaTypeInterfaceEPvPKvE_4_FUNES4_S5_S7_@Base 6.2.0
 (optional=templinst)_ZZN9QtPrivate16QMetaTypeForTypeIdE10getMoveCtrEvENUlPKNS_18QMetaTypeInterfaceEPvS5_E_4_FUNES4_S5_S5_@Base 6.2.0
 (optional=templinst)_ZZN9QtPrivate16QMetaTypeForTypeIdE13getDefaultCtrEvENUlPKNS_18QMetaTypeInterfaceEPvE_4_FUNES4_S5_@Base 6.2.0
 (optional=templinst)_ZZN9QtPrivate16QMetaTypeForTypeIfE10getCopyCtrEvENUlPKNS_18QMetaTypeInterfaceEPvPKvE_4_FUNES4_S5_S7_@Base 6.2.0
 (optional=templinst)_ZZN9QtPrivate16QMetaTypeForTypeIfE10getMoveCtrEvENUlPKNS_18QMetaTypeInterfaceEPvS5_E_4_FUNES4_S5_S5_@Base 6.2.0
 (optional=templinst)_ZZN9QtPrivate16QMetaTypeForTypeIfE13getDefaultCtrEvENUlPKNS_18QMetaTypeInterfaceEPvE_4_FUNES4_S5_@Base 6.2.0
 (optional=templinst)_ZZN9QtPrivate16QMetaTypeForTypeIiE10getCopyCtrEvENUlPKNS_18QMetaTypeInterfaceEPvPKvE_4_FUNES4_S5_S7_@Base 6.2.0
 (optional=templinst)_ZZN9QtPrivate16QMetaTypeForTypeIiE10getMoveCtrEvENUlPKNS_18QMetaTypeInterfaceEPvS5_E_4_FUNES4_S5_S5_@Base 6.2.0
 (optional=templinst)_ZZN9QtPrivate16QMetaTypeForTypeIiE13getDefaultCtrEvENUlPKNS_18QMetaTypeInterfaceEPvE_4_FUNES4_S5_@Base 6.2.0
 (optional=templinst)_ZZN9QtPrivate16QMetaTypeForTypeIjE10getCopyCtrEvENUlPKNS_18QMetaTypeInterfaceEPvPKvE_4_FUNES4_S5_S7_@Base 6.2.0
 (optional=templinst)_ZZN9QtPrivate16QMetaTypeForTypeIjE10getMoveCtrEvENUlPKNS_18QMetaTypeInterfaceEPvS5_E_4_FUNES4_S5_S5_@Base 6.2.0
 (optional=templinst)_ZZN9QtPrivate16QMetaTypeForTypeIjE13getDefaultCtrEvENUlPKNS_18QMetaTypeInterfaceEPvE_4_FUNES4_S5_@Base 6.2.0
 (optional=templinst)_ZZN9QtPrivate16QMetaTypeForTypeIxE10getCopyCtrEvENUlPKNS_18QMetaTypeInterfaceEPvPKvE_4_FUNES4_S5_S7_@Base 6.2.0
 (optional=templinst)_ZZN9QtPrivate16QMetaTypeForTypeIxE10getMoveCtrEvENUlPKNS_18QMetaTypeInterfaceEPvS5_E_4_FUNES4_S5_S5_@Base 6.2.0
 (optional=templinst)_ZZN9QtPrivate16QMetaTypeForTypeIxE13getDefaultCtrEvENUlPKNS_18QMetaTypeInterfaceEPvE_4_FUNES4_S5_@Base 6.2.0
 (optional=templinst)_ZZN9QtPrivate16QMetaTypeForTypeIyE10getCopyCtrEvENUlPKNS_18QMetaTypeInterfaceEPvPKvE_4_FUNES4_S5_S7_@Base 6.2.0
 (optional=templinst)_ZZN9QtPrivate16QMetaTypeForTypeIyE10getMoveCtrEvENUlPKNS_18QMetaTypeInterfaceEPvS5_E_4_FUNES4_S5_S5_@Base 6.2.0
 (optional=templinst)_ZZN9QtPrivate16QMetaTypeForTypeIyE13getDefaultCtrEvENUlPKNS_18QMetaTypeInterfaceEPvE_4_FUNES4_S5_@Base 6.2.0
 _ZZNSt19_Sp_make_shared_tag5_S_tiEvE5__tag@Base 6.2.0
 _Zls6QDebugP10QQuickItem@Base 6.2.0
 _Zls6QDebugPK11QSGRootNode@Base 6.2.0
 _Zls6QDebugPK12QQuickWindow@Base 6.2.0
 _Zls6QDebugPK14QSGOpacityNode@Base 6.2.0
 _Zls6QDebugPK15QSGGeometryNode@Base 6.2.0
 _Zls6QDebugPK16QSGTransformNode@Base 6.2.0
 _Zls6QDebugPK19QQuickDeliveryAgent@Base 6.2.0
 _Zls6QDebugPK7QSGNode@Base 6.2.0
 _Zls6QDebugRKN19QSGShaderEffectNode12VariableDataE@Base 6.2.0
 _Zls6QDebugRKN31QSGGuiThreadShaderEffectManager10ShaderInfo8VariableE@Base 6.2.0
 (c++)"non-virtual thunk to QAccessibleQuickItem::actionNames() const@Base" 6.2.0
 (c++)"non-virtual thunk to QAccessibleQuickItem::addSelection(int, int)@Base" 6.2.0
 (c++)"non-virtual thunk to QAccessibleQuickItem::characterCount() const@Base" 6.2.0
 (c++)"non-virtual thunk to QAccessibleQuickItem::currentValue() const@Base" 6.2.0
 (c++)"non-virtual thunk to QAccessibleQuickItem::cursorPosition() const@Base" 6.2.0
 (c++)"non-virtual thunk to QAccessibleQuickItem::doAction(QString const&)@Base" 6.2.0
 (c++)"non-virtual thunk to QAccessibleQuickItem::keyBindingsForAction(QString const&) const@Base" 6.2.0
 (c++)"non-virtual thunk to QAccessibleQuickItem::maximumValue() const@Base" 6.2.0
 (c++)"non-virtual thunk to QAccessibleQuickItem::minimumStepSize() const@Base" 6.2.0
 (c++)"non-virtual thunk to QAccessibleQuickItem::minimumValue() const@Base" 6.2.0
 (c++)"non-virtual thunk to QAccessibleQuickItem::removeSelection(int)@Base" 6.2.0
 (c++)"non-virtual thunk to QAccessibleQuickItem::selection(int, int*, int*) const@Base" 6.2.0
 (c++)"non-virtual thunk to QAccessibleQuickItem::selectionCount() const@Base" 6.2.0
 (c++)"non-virtual thunk to QAccessibleQuickItem::setCurrentValue(QVariant const&)@Base" 6.2.0
 (c++)"non-virtual thunk to QAccessibleQuickItem::setCursorPosition(int)@Base" 6.2.0
 (c++)"non-virtual thunk to QAccessibleQuickItem::setSelection(int, int, int)@Base" 6.2.0
 (c++)"non-virtual thunk to QAccessibleQuickItem::text(int, int) const@Base" 6.2.0
 (c++)"non-virtual thunk to QAccessibleQuickItem::textAfterOffset(int, QAccessible::TextBoundaryType, int*, int*) const@Base" 6.2.0
 (c++)"non-virtual thunk to QAccessibleQuickItem::textAtOffset(int, QAccessible::TextBoundaryType, int*, int*) const@Base" 6.2.0
 (c++)"non-virtual thunk to QAccessibleQuickItem::textBeforeOffset(int, QAccessible::TextBoundaryType, int*, int*) const@Base" 6.2.0
 (c++)"non-virtual thunk to QQuickAbstractAnimation::classBegin()@Base" 6.2.0
 (c++)"non-virtual thunk to QQuickAbstractAnimation::componentComplete()@Base" 6.2.0
 (c++)"non-virtual thunk to QQuickAbstractAnimation::setTarget(QQmlProperty const&)@Base" 6.2.0
 (c++)"non-virtual thunk to QQuickAbstractAnimation::~QQuickAbstractAnimation()@Base" 6.2.0
 (c++)"non-virtual thunk to QQuickAbstractAnimationPrivate::animationFinished(QAbstractAnimationJob*)@Base" 6.2.0
 (c++)"non-virtual thunk to QQuickAnchorAnimation::~QQuickAnchorAnimation()@Base" 6.2.0
 (c++)"non-virtual thunk to QQuickAnchorChanges::changesBindings()@Base" 6.2.0
 (c++)"non-virtual thunk to QQuickAnchorChanges::clearBindings()@Base" 6.2.0
 (c++)"non-virtual thunk to QQuickAnchorChanges::copyOriginals(QQuickStateActionEvent*)@Base" 6.2.0
 (c++)"non-virtual thunk to QQuickAnchorChanges::execute()@Base" 6.2.0
 (c++)"non-virtual thunk to QQuickAnchorChanges::isReversable()@Base" 6.2.0
 (c++)"non-virtual thunk to QQuickAnchorChanges::mayOverride(QQuickStateActionEvent*)@Base" 6.2.0
 (c++)"non-virtual thunk to QQuickAnchorChanges::reverse()@Base" 6.2.0
 (c++)"non-virtual thunk to QQuickAnchorChanges::rewind()@Base" 6.2.0
 (c++)"non-virtual thunk to QQuickAnchorChanges::saveCurrentValues()@Base" 6.2.0
 (c++)"non-virtual thunk to QQuickAnchorChanges::saveOriginals()@Base" 6.2.0
 (c++)"non-virtual thunk to QQuickAnchorChanges::saveTargetValues()@Base" 6.2.0
 (c++)"non-virtual thunk to QQuickAnchorChanges::type() const@Base" 6.2.0
 (c++)"non-virtual thunk to QQuickAnchorChanges::~QQuickAnchorChanges()@Base" 6.2.0
 (c++)"non-virtual thunk to QQuickAnimatedImage::componentComplete()@Base" 6.2.0
 (c++)"non-virtual thunk to QQuickAnimatedImage::~QQuickAnimatedImage()@Base" 6.2.0
 (c++)"non-virtual thunk to QQuickAnimatedSprite::componentComplete()@Base" 6.2.0
 (c++)"non-virtual thunk to QQuickAnimationController::classBegin()@Base" 6.2.0
 (c++)"non-virtual thunk to QQuickAnimationController::~QQuickAnimationController()@Base" 6.2.0
 (c++)"non-virtual thunk to QQuickAnimationGroup::~QQuickAnimationGroup()@Base" 6.2.0
 (c++)"non-virtual thunk to QQuickAnimatorProxyJob::debugAnimation(QDebug) const@Base" 6.2.0
 (c++)"non-virtual thunk to QQuickAnimatorProxyJob::updateCurrentTime(int)@Base" 6.2.0
 (c++)"non-virtual thunk to QQuickAnimatorProxyJob::updateLoopCount(int)@Base" 6.2.0
 (c++)"non-virtual thunk to QQuickAnimatorProxyJob::updateState(QAbstractAnimationJob::State, QAbstractAnimationJob::State)@Base" 6.2.0
 (c++)"non-virtual thunk to QQuickAnimatorProxyJob::~QQuickAnimatorProxyJob()@Base" 6.2.0
 (c++)"non-virtual thunk to QQuickBasePositioner::componentComplete()@Base" 6.2.0
 (c++)"non-virtual thunk to QQuickBasePositioner::~QQuickBasePositioner()@Base" 6.2.0
 (c++)"non-virtual thunk to QQuickBehavior::bindable(QUntypedBindable*, QUntypedBindable)@Base" 6.2.0
 (c++)"non-virtual thunk to QQuickBehavior::setTarget(QQmlProperty const&)@Base" 6.2.0
 (c++)"non-virtual thunk to QQuickBehavior::write(QVariant const&)@Base" 6.2.0
 (c++)"non-virtual thunk to QQuickBehavior::~QQuickBehavior()@Base" 6.2.0
 (c++)"non-virtual thunk to QQuickBorderImage::~QQuickBorderImage()@Base" 6.2.0
 (c++)"non-virtual thunk to QQuickColorAnimation::~QQuickColorAnimation()@Base" 6.2.0
 (c++)"non-virtual thunk to QQuickDropArea::~QQuickDropArea()@Base" 6.2.0
 (c++)"non-virtual thunk to QQuickFlickable::componentComplete()@Base" 6.2.0
 (c++)"non-virtual thunk to QQuickFlickable::~QQuickFlickable()@Base" 6.2.0
 (c++)"non-virtual thunk to QQuickFlickablePrivate::itemGeometryChanged(QQuickItem*, QQuickGeometryChange, QRectF const&)@Base" 6.2.0
 (c++)"non-virtual thunk to QQuickFlipable::~QQuickFlipable()@Base" 6.2.0
 (c++)"non-virtual thunk to QQuickFocusScope::~QQuickFocusScope()@Base" 6.2.0
 (c++)"non-virtual thunk to QQuickGridView::~QQuickGridView()@Base" 6.2.0
 (c++)"non-virtual thunk to QQuickHoverHandler::componentComplete()@Base" 6.2.0
 (c++)"non-virtual thunk to QQuickHoverHandler::~QQuickHoverHandler()@Base" 6.2.0
 (c++)"non-virtual thunk to QQuickImage::~QQuickImage()@Base" 6.2.0
 (c++)"non-virtual thunk to QQuickImageBase::componentComplete()@Base" 6.2.0
 (c++)"non-virtual thunk to QQuickImageBase::~QQuickImageBase()@Base" 6.2.0
 (c++)"non-virtual thunk to QQuickItem::classBegin()@Base" 6.2.0
 (c++)"non-virtual thunk to QQuickItem::componentComplete()@Base" 6.2.0
 (c++)"non-virtual thunk to QQuickItem::~QQuickItem()@Base" 6.2.0
 (c++)"non-virtual thunk to QQuickItemLayer::itemGeometryChanged(QQuickItem*, QQuickGeometryChange, QRectF const&)@Base" 6.2.0
 (c++)"non-virtual thunk to QQuickItemLayer::itemOpacityChanged(QQuickItem*)@Base" 6.2.0
 (c++)"non-virtual thunk to QQuickItemLayer::itemParentChanged(QQuickItem*, QQuickItem*)@Base" 6.2.0
 (c++)"non-virtual thunk to QQuickItemLayer::itemSiblingOrderChanged(QQuickItem*)@Base" 6.2.0
 (c++)"non-virtual thunk to QQuickItemLayer::itemVisibilityChanged(QQuickItem*)@Base" 6.2.0
 (c++)"non-virtual thunk to QQuickItemLayer::~QQuickItemLayer()@Base" 6.2.0
 (c++)"non-virtual thunk to QQuickItemPrivate::~QQuickItemPrivate()@Base" 6.2.0
 (c++)"non-virtual thunk to QQuickItemView::componentComplete()@Base" 6.2.0
 (c++)"non-virtual thunk to QQuickItemView::~QQuickItemView()@Base" 6.2.0
 (c++)"non-virtual thunk to QQuickKeyNavigationAttached::keyPressed(QKeyEvent*, bool)@Base" 6.2.0
 (c++)"non-virtual thunk to QQuickKeyNavigationAttached::keyReleased(QKeyEvent*, bool)@Base" 6.2.0
 (c++)"non-virtual thunk to QQuickListView::~QQuickListView()@Base" 6.2.0
 (c++)"non-virtual thunk to QQuickLoader::componentComplete()@Base" 6.2.0
 (c++)"non-virtual thunk to QQuickLoader::~QQuickLoader()@Base" 6.2.0
 (c++)"non-virtual thunk to QQuickMouseArea::~QQuickMouseArea()@Base" 6.2.0
 (c++)"non-virtual thunk to QQuickMultiPointTouchArea::~QQuickMultiPointTouchArea()@Base" 6.2.0
 (c++)"non-virtual thunk to QQuickNumberAnimation::~QQuickNumberAnimation()@Base" 6.2.0
 (c++)"non-virtual thunk to QQuickPaintedItem::~QQuickPaintedItem()@Base" 6.2.0
 (c++)"non-virtual thunk to QQuickParallelAnimation::~QQuickParallelAnimation()@Base" 6.2.0
 (c++)"non-virtual thunk to QQuickParentAnimation::~QQuickParentAnimation()@Base" 6.2.0
 (c++)"non-virtual thunk to QQuickParentChange::execute()@Base" 6.2.0
 (c++)"non-virtual thunk to QQuickParentChange::isReversable()@Base" 6.2.0
 (c++)"non-virtual thunk to QQuickParentChange::mayOverride(QQuickStateActionEvent*)@Base" 6.2.0
 (c++)"non-virtual thunk to QQuickParentChange::reverse()@Base" 6.2.0
 (c++)"non-virtual thunk to QQuickParentChange::rewind()@Base" 6.2.0
 (c++)"non-virtual thunk to QQuickParentChange::saveCurrentValues()@Base" 6.2.0
 (c++)"non-virtual thunk to QQuickParentChange::saveOriginals()@Base" 6.2.0
 (c++)"non-virtual thunk to QQuickParentChange::type() const@Base" 6.2.0
 (c++)"non-virtual thunk to QQuickParentChange::~QQuickParentChange()@Base" 6.2.0
 (c++)"non-virtual thunk to QQuickPath::classBegin()@Base" 6.2.0
 (c++)"non-virtual thunk to QQuickPath::componentComplete()@Base" 6.2.0
 (c++)"non-virtual thunk to QQuickPath::~QQuickPath()@Base" 6.2.0
 (c++)"non-virtual thunk to QQuickPathAnimation::~QQuickPathAnimation()@Base" 6.2.0
 (c++)"non-virtual thunk to QQuickPathView::componentComplete()@Base" 6.2.0
 (c++)"non-virtual thunk to QQuickPathView::~QQuickPathView()@Base" 6.2.0
 (c++)"non-virtual thunk to QQuickPauseAnimation::~QQuickPauseAnimation()@Base" 6.2.0
 (c++)"non-virtual thunk to QQuickPinchArea::~QQuickPinchArea()@Base" 6.2.0
 (c++)"non-virtual thunk to QQuickPointerHandler::classBegin()@Base" 6.2.0
 (c++)"non-virtual thunk to QQuickPointerHandler::componentComplete()@Base" 6.2.0
 (c++)"non-virtual thunk to QQuickPointerHandler::~QQuickPointerHandler()@Base" 6.2.0
 (c++)"non-virtual thunk to QQuickPropertyAction::~QQuickPropertyAction()@Base" 6.2.0
 (c++)"non-virtual thunk to QQuickPropertyAnimation::~QQuickPropertyAnimation()@Base" 6.2.0
 (c++)"non-virtual thunk to QQuickRepeater::componentComplete()@Base" 6.2.0
 (c++)"non-virtual thunk to QQuickRepeater::~QQuickRepeater()@Base" 6.2.0
 (c++)"non-virtual thunk to QQuickRotationAnimation::~QQuickRotationAnimation()@Base" 6.2.0
 (c++)"non-virtual thunk to QQuickScriptAction::~QQuickScriptAction()@Base" 6.2.0
 (c++)"non-virtual thunk to QQuickSequentialAnimation::~QQuickSequentialAnimation()@Base" 6.2.0
 (c++)"non-virtual thunk to QQuickShaderEffect::componentComplete()@Base" 6.2.0
 (c++)"non-virtual thunk to QQuickShaderEffect::~QQuickShaderEffect()@Base" 6.2.0
 (c++)"non-virtual thunk to QQuickShaderEffectSource::itemGeometryChanged(QQuickItem*, QQuickGeometryChange, QRectF const&)@Base" 6.2.0
 (c++)"non-virtual thunk to QQuickShaderEffectSource::~QQuickShaderEffectSource()@Base" 6.2.0
 (c++)"non-virtual thunk to QQuickSmoothedAnimation::~QQuickSmoothedAnimation()@Base" 6.2.0
 (c++)"non-virtual thunk to QQuickSpringAnimation::~QQuickSpringAnimation()@Base" 6.2.0
 (c++)"non-virtual thunk to QQuickStateChangeScript::execute()@Base" 6.2.0
 (c++)"non-virtual thunk to QQuickStateChangeScript::type() const@Base" 6.2.0
 (c++)"non-virtual thunk to QQuickStateChangeScript::~QQuickStateChangeScript()@Base" 6.2.0
 (c++)"non-virtual thunk to QQuickStateGroup::classBegin()@Base" 6.2.0
 (c++)"non-virtual thunk to QQuickStateGroup::componentComplete()@Base" 6.2.0
 (c++)"non-virtual thunk to QQuickStateGroup::~QQuickStateGroup()@Base" 6.2.0
 (c++)"non-virtual thunk to QQuickTableView::componentComplete()@Base" 6.2.0
 (c++)"non-virtual thunk to QQuickTableView::~QQuickTableView()@Base" 6.2.0
 (c++)"non-virtual thunk to QQuickTableViewPrivate::clearSelection()@Base" 6.2.0
 (c++)"non-virtual thunk to QQuickTableViewPrivate::normalizeSelection()@Base" 6.2.0
 (c++)"non-virtual thunk to QQuickTableViewPrivate::scrollTowardsSelectionPoint(QPointF const&, QSizeF const&)@Base" 6.2.0
 (c++)"non-virtual thunk to QQuickTableViewPrivate::selectionPointerHandlerTarget() const@Base" 6.2.0
 (c++)"non-virtual thunk to QQuickTableViewPrivate::selectionRectangle() const@Base" 6.2.0
 (c++)"non-virtual thunk to QQuickTableViewPrivate::setSelectionEndPos(QPointF const&)@Base" 6.2.0
 (c++)"non-virtual thunk to QQuickTableViewPrivate::setSelectionStartPos(QPointF const&)@Base" 6.2.0
 (c++)"non-virtual thunk to QQuickTableViewPrivate::~QQuickTableViewPrivate()@Base" 6.2.0
 (c++)"non-virtual thunk to QQuickText::componentComplete()@Base" 6.2.0
 (c++)"non-virtual thunk to QQuickText::~QQuickText()@Base" 6.2.0
 (c++)"non-virtual thunk to QQuickTextEdit::componentComplete()@Base" 6.2.0
 (c++)"non-virtual thunk to QQuickTextInput::componentComplete()@Base" 6.2.0
 (c++)"non-virtual thunk to QQuickTextInput::~QQuickTextInput()@Base" 6.2.0
 (c++)"non-virtual thunk to QQuickTextPrivate::~QQuickTextPrivate()@Base" 6.2.0
 (c++)"non-virtual thunk to QQuickTimeLine::debugAnimation(QDebug) const@Base" 6.2.0
 (c++)"non-virtual thunk to QQuickTimeLine::duration() const@Base" 6.2.0
 (c++)"non-virtual thunk to QQuickTimeLine::updateCurrentTime(int)@Base" 6.2.0
 (c++)"non-virtual thunk to QQuickTimeLine::~QQuickTimeLine()@Base" 6.2.0
 (c++)"non-virtual thunk to QQuickVector3dAnimation::~QQuickVector3dAnimation()@Base" 6.2.0
 (c++)"non-virtual thunk to QQuickView::~QQuickView()@Base" 6.2.0
 (c++)"non-virtual thunk to QQuickViewPrivate::itemGeometryChanged(QQuickItem*, QQuickGeometryChange, QRectF const&)@Base" 6.2.0
 (c++)"non-virtual thunk to QQuickViewPrivate::~QQuickViewPrivate()@Base" 6.2.0
 (c++)"non-virtual thunk to QQuickWindow::~QQuickWindow()@Base" 6.2.0
 (c++)"non-virtual thunk to QQuickWindowPrivate::updateChildrenPalettes(QPalette const&)@Base" 6.2.0
 (c++)"non-virtual thunk to QQuickWindowPrivate::~QQuickWindowPrivate()@Base" 6.2.0
 (c++)"non-virtual thunk to QQuickWindowQmlImpl::classBegin()@Base" 6.2.0
 (c++)"non-virtual thunk to QQuickWindowQmlImpl::componentComplete()@Base" 6.2.0
 (c++)"non-virtual thunk to QSGContextPlugin::~QSGContextPlugin()@Base" 6.2.0
 (c++)"non-virtual thunk to QSGDefaultContext::getResource(QQuickWindow*, QSGRendererInterface::Resource) const@Base" 6.2.0
 (c++)"non-virtual thunk to QSGDefaultContext::graphicsApi() const@Base" 6.2.0
 (c++)"non-virtual thunk to QSGDefaultContext::shaderCompilationType() const@Base" 6.2.0
 (c++)"non-virtual thunk to QSGDefaultContext::shaderSourceType() const@Base" 6.2.0
 (c++)"non-virtual thunk to QSGDefaultContext::shaderType() const@Base" 6.2.0
 (c++)"non-virtual thunk to QSGDefaultContext::~QSGDefaultContext()@Base" 6.2.0
