# SymbolsHelper-Confirmed: 6.2.2 mips64el
libQt6QmlModels.so.6 libqt6qmlmodels6 #MINVER#
| libqt6qmlmodels6 #MINVER#, qt6-declarative-abi (= 6.2.2)
* Build-Depends-Packages: qt6-declarative-dev, qt6-declarative-private-dev
 _Z31qml_register_types_QtQml_Modelsv@Base 6.2.0
 _ZGVZN9QMetaType21registerConverterImplI5QListI21QPersistentModelIndexE9QIterableI13QMetaSequenceEEEbSt8functionIFbPKvPvEES_S_E10unregister@Base 6.2.0
 _ZGVZN9QMetaType21registerConverterImplI5QListI4QUrlE9QIterableI13QMetaSequenceEEEbSt8functionIFbPKvPvEES_S_E10unregister@Base 6.2.0
 _ZGVZN9QMetaType21registerConverterImplI5QListIP7QObjectE9QIterableI13QMetaSequenceEEEbSt8functionIFbPKvPvEES_S_E10unregister@Base 6.2.0
 _ZGVZN9QMetaType21registerConverterImplI5QListIiE9QIterableI13QMetaSequenceEEEbSt8functionIFbPKvPvEES_S_E10unregister@Base 6.2.0
 _ZGVZN9QMetaType23registerMutableViewImplI5QListI21QPersistentModelIndexE9QIterableI13QMetaSequenceEEEbSt8functionIFbPvS8_EES_S_E10unregister@Base 6.2.0
 _ZGVZN9QMetaType23registerMutableViewImplI5QListI4QUrlE9QIterableI13QMetaSequenceEEEbSt8functionIFbPvS8_EES_S_E10unregister@Base 6.2.0
 _ZGVZN9QMetaType23registerMutableViewImplI5QListIP7QObjectE9QIterableI13QMetaSequenceEEEbSt8functionIFbPvS9_EES_S_E10unregister@Base 6.2.0
 _ZGVZN9QMetaType23registerMutableViewImplI5QListIiE9QIterableI13QMetaSequenceEEEbSt8functionIFbPvS7_EES_S_E10unregister@Base 6.2.0
 _ZN13QMetaSequence12MetaSequenceI5QListI21QPersistentModelIndexEE5valueE@Base 6.2.0
 _ZN13QMetaSequence12MetaSequenceI5QListI4QUrlEE5valueE@Base 6.2.0
 _ZN13QMetaSequence12MetaSequenceI5QListIP7QObjectEE5valueE@Base 6.2.0
 _ZN13QMetaSequence12MetaSequenceI5QListIiEE5valueE@Base 6.2.0
 _ZN13QQmlChangeSet4moveERK5QListINS_6ChangeEES4_@Base 6.2.0
 _ZN13QQmlChangeSet4moveEiiii@Base 6.2.0
 _ZN13QQmlChangeSet5applyERKS_@Base 6.2.0
 _ZN13QQmlChangeSet6changeEP5QListINS_6ChangeEE@Base 6.2.0
 _ZN13QQmlChangeSet6changeERK5QListINS_6ChangeEE@Base 6.2.0
 _ZN13QQmlChangeSet6changeEii@Base 6.2.0
 _ZN13QQmlChangeSet6insertERK5QListINS_6ChangeEE@Base 6.2.0
 _ZN13QQmlChangeSet6insertEii@Base 6.2.0
 _ZN13QQmlChangeSet6removeEP5QListINS_6ChangeEES3_@Base 6.2.0
 _ZN13QQmlChangeSet6removeERK5QListINS_6ChangeEEPS2_@Base 6.2.0
 _ZN13QQmlChangeSet6removeEii@Base 6.2.0
 _ZN13QQmlChangeSetC1ERKS_@Base 6.2.0
 _ZN13QQmlChangeSetC1Ev@Base 6.2.0
 _ZN13QQmlChangeSetC2ERKS_@Base 6.2.0
 _ZN13QQmlChangeSetC2Ev@Base 6.2.0
 _ZN13QQmlChangeSetD1Ev@Base 6.2.0
 _ZN13QQmlChangeSetD2Ev@Base 6.2.0
 _ZN13QQmlChangeSetaSERKS_@Base 6.2.0
 _ZN13QQmlListModel11qt_metacallEN11QMetaObject4CallEiPPv@Base 6.2.0
 _ZN13QQmlListModel11qt_metacastEPKc@Base 6.2.0
 _ZN13QQmlListModel11setPropertyEiRK7QStringRK8QVariant@Base 6.2.0
 _ZN13QQmlListModel12countChangedEv@Base 6.2.0
 _ZN13QQmlListModel14removeElementsEii@Base 6.2.0
 _ZN13QQmlListModel15createWithOwnerEPS_@Base 6.2.0
 _ZN13QQmlListModel15setDynamicRolesEb@Base 6.2.0
 _ZN13QQmlListModel16emitItemsChangedEiiRK5QListIiE@Base 6.2.0
 _ZN13QQmlListModel16staticMetaObjectE@Base 6.2.0
 _ZN13QQmlListModel17emitItemsInsertedEv@Base 6.2.0
 _ZN13QQmlListModel18updateTranslationsEv@Base 6.2.1
 _ZN13QQmlListModel26emitItemsAboutToBeInsertedEii@Base 6.2.0
 _ZN13QQmlListModel3setEiRK8QJSValue@Base 6.2.0
 _ZN13QQmlListModel4moveEiii@Base 6.2.0
 _ZN13QQmlListModel4syncEPS_S0_@Base 6.2.0
 _ZN13QQmlListModel4syncEv@Base 6.2.0
 _ZN13QQmlListModel5agentEv@Base 6.2.0
 _ZN13QQmlListModel5clearEv@Base 6.2.0
 _ZN13QQmlListModel6appendEP14QQmlV4Function@Base 6.2.0
 _ZN13QQmlListModel6insertEP14QQmlV4Function@Base 6.2.0
 _ZN13QQmlListModel6removeEP14QQmlV4Function@Base 6.2.0
 _ZN13QQmlListModel7setDataERK11QModelIndexRK8QVarianti@Base 6.2.0
 _ZN13QQmlListModelC1EP7QObject@Base 6.2.0
 _ZN13QQmlListModelC1EPKS_P9ListModelPN3QV415ExecutionEngineEP7QObject@Base 6.2.0
 _ZN13QQmlListModelC1EPS_P24QQmlListModelWorkerAgent@Base 6.2.0
 _ZN13QQmlListModelC2EP7QObject@Base 6.2.0
 _ZN13QQmlListModelC2EPKS_P9ListModelPN3QV415ExecutionEngineEP7QObject@Base 6.2.0
 _ZN13QQmlListModelC2EPS_P24QQmlListModelWorkerAgent@Base 6.2.0
 _ZN13QQmlListModelD0Ev@Base 6.2.0
 _ZN13QQmlListModelD1Ev@Base 6.2.0
 _ZN13QQmlListModelD2Ev@Base 6.2.0
 _ZN13QQuickPackage11qt_metacallEN11QMetaObject4CallEiPPv@Base 6.2.0
 _ZN13QQuickPackage11qt_metacastEPKc@Base 6.2.0
 _ZN13QQuickPackage16staticMetaObjectE@Base 6.2.0
 _ZN13QQuickPackage21qmlAttachedPropertiesEP7QObject@Base 6.2.0
 _ZN13QQuickPackage4dataEv@Base 6.2.0
 _ZN13QQuickPackage4partERK7QString@Base 6.2.0
 _ZN13QQuickPackage7hasPartERK7QString@Base 6.2.0
 _ZN13QQuickPackageC1EP7QObject@Base 6.2.0
 _ZN13QQuickPackageC2EP7QObject@Base 6.2.0
 _ZN13QQuickPackageD0Ev@Base 6.2.0
 _ZN13QQuickPackageD1Ev@Base 6.2.0
 _ZN13QQuickPackageD2Ev@Base 6.2.0
 _ZN15QQmlObjectModel11qt_metacallEN11QMetaObject4CallEiPPv@Base 6.2.0
 _ZN15QQmlObjectModel11qt_metacastEPKc@Base 6.2.0
 _ZN15QQmlObjectModel12variantValueEiRK7QString@Base 6.2.0
 _ZN15QQmlObjectModel15childrenChangedEv@Base 6.2.0
 _ZN15QQmlObjectModel16incubationStatusEi@Base 6.2.0
 _ZN15QQmlObjectModel16staticMetaObjectE@Base 6.2.0
 _ZN15QQmlObjectModel21qmlAttachedPropertiesEP7QObject@Base 6.2.0
 _ZN15QQmlObjectModel4moveEiii@Base 6.2.0
 _ZN15QQmlObjectModel5clearEv@Base 6.2.0
 _ZN15QQmlObjectModel6appendEP7QObject@Base 6.2.0
 _ZN15QQmlObjectModel6insertEiP7QObject@Base 6.2.0
 _ZN15QQmlObjectModel6objectEiN13QQmlIncubator14IncubationModeE@Base 6.2.0
 _ZN15QQmlObjectModel6removeEii@Base 6.2.0
 _ZN15QQmlObjectModel7releaseEP7QObjectN17QQmlInstanceModel12ReusableFlagE@Base 6.2.0
 _ZN15QQmlObjectModel8childrenEv@Base 6.2.0
 _ZN15QQmlObjectModelC1EP7QObject@Base 6.2.0
 _ZN15QQmlObjectModelC2EP7QObject@Base 6.2.0
 _ZN16QQmlAdaptorModel15invalidateModelEv@Base 6.2.0
 _ZN16QQmlAdaptorModel15objectDestroyedEP7QObject@Base 6.2.0
 _ZN16QQmlAdaptorModel16useImportVersionE13QTypeRevision@Base 6.2.0
 _ZN16QQmlAdaptorModel8setModelERK8QVariantP7QObject@Base 6.2.0
 _ZN16QQmlAdaptorModel9AccessorsD0Ev@Base 6.2.0
 _ZN16QQmlAdaptorModel9AccessorsD1Ev@Base 6.2.0
 _ZN16QQmlAdaptorModel9AccessorsD2Ev@Base 6.2.0
 _ZN16QQmlAdaptorModelC1Ev@Base 6.2.0
 _ZN16QQmlAdaptorModelC2Ev@Base 6.2.0
 _ZN16QQmlAdaptorModelD0Ev@Base 6.2.0
 _ZN16QQmlAdaptorModelD1Ev@Base 6.2.0
 _ZN16QQmlAdaptorModelD2Ev@Base 6.2.0
 _ZN16QQmlInstantiator10classBeginEv@Base 6.2.0
 _ZN16QQmlInstantiator11objectAddedEiP7QObject@Base 6.2.0
 _ZN16QQmlInstantiator11qt_metacallEN11QMetaObject4CallEiPPv@Base 6.2.0
 _ZN16QQmlInstantiator11qt_metacastEPKc@Base 6.2.0
 _ZN16QQmlInstantiator11setDelegateEP13QQmlComponent@Base 6.2.0
 _ZN16QQmlInstantiator12countChangedEv@Base 6.2.0
 _ZN16QQmlInstantiator12modelChangedEv@Base 6.2.0
 _ZN16QQmlInstantiator13activeChangedEv@Base 6.2.0
 _ZN16QQmlInstantiator13objectChangedEv@Base 6.2.0
 _ZN16QQmlInstantiator13objectRemovedEiP7QObject@Base 6.2.0
 _ZN16QQmlInstantiator15delegateChangedEv@Base 6.2.0
 _ZN16QQmlInstantiator16staticMetaObjectE@Base 6.2.0
 _ZN16QQmlInstantiator17componentCompleteEv@Base 6.2.0
 _ZN16QQmlInstantiator19asynchronousChangedEv@Base 6.2.0
 _ZN16QQmlInstantiator8delegateEv@Base 6.2.0
 _ZN16QQmlInstantiator8setAsyncEb@Base 6.2.0
 _ZN16QQmlInstantiator8setModelERK8QVariant@Base 6.2.0
 _ZN16QQmlInstantiator9setActiveEb@Base 6.2.0
 _ZN16QQmlInstantiatorC1EP7QObject@Base 6.2.0
 _ZN16QQmlInstantiatorC2EP7QObject@Base 6.2.0
 _ZN16QQmlInstantiatorD0Ev@Base 6.2.0
 _ZN16QQmlInstantiatorD1Ev@Base 6.2.0
 _ZN16QQmlInstantiatorD2Ev@Base 6.2.0
 _ZN17QQmlDelegateModel10classBeginEv@Base 6.2.0
 _ZN17QQmlDelegateModel11qt_metacallEN11QMetaObject4CallEiPPv@Base 6.2.0
 _ZN17QQmlDelegateModel11qt_metacastEPKc@Base 6.2.0
 _ZN17QQmlDelegateModel11setDelegateEP13QQmlComponent@Base 6.2.0
 _ZN17QQmlDelegateModel12_q_rowsMovedERK11QModelIndexiiS2_i@Base 6.2.0
 _ZN17QQmlDelegateModel12setRootIndexERK8QVariant@Base 6.2.0
 _ZN17QQmlDelegateModel12variantValueEiRK7QString@Base 6.2.0
 _ZN17QQmlDelegateModel13_q_itemsMovedEiii@Base 6.2.0
 _ZN17QQmlDelegateModel13_q_modelResetEv@Base 6.2.0
 _ZN17QQmlDelegateModel14_q_dataChangedERK11QModelIndexS2_RK5QListIiE@Base 6.2.0
 _ZN17QQmlDelegateModel14_q_rowsRemovedERK11QModelIndexii@Base 6.2.0
 _ZN17QQmlDelegateModel14persistedItemsEv@Base 6.2.0
 _ZN17QQmlDelegateModel14setFilterGroupERK7QString@Base 6.2.0
 _ZN17QQmlDelegateModel15_q_columnsMovedERK11QModelIndexiiS2_i@Base 6.2.1
 _ZN17QQmlDelegateModel15_q_itemsChangedEiiRK5QListIiE@Base 6.2.0
 _ZN17QQmlDelegateModel15_q_itemsRemovedEii@Base 6.2.0
 _ZN17QQmlDelegateModel15_q_rowsInsertedERK11QModelIndexii@Base 6.2.0
 _ZN17QQmlDelegateModel15delegateChangedEv@Base 6.2.0
 _ZN17QQmlDelegateModel15setWatchedRolesERK5QListI10QByteArrayE@Base 6.2.0
 _ZN17QQmlDelegateModel16_q_itemsInsertedEii@Base 6.2.0
 _ZN17QQmlDelegateModel16_q_layoutChangedERK5QListI21QPersistentModelIndexEN18QAbstractItemModel16LayoutChangeHintE@Base 6.2.0
 _ZN17QQmlDelegateModel16incubationStatusEi@Base 6.2.0
 _ZN17QQmlDelegateModel16resetFilterGroupEv@Base 6.2.0
 _ZN17QQmlDelegateModel16rootIndexChangedEv@Base 6.2.0
 _ZN17QQmlDelegateModel16staticMetaObjectE@Base 6.2.0
 _ZN17QQmlDelegateModel17_q_columnsRemovedERK11QModelIndexii@Base 6.2.1
 _ZN17QQmlDelegateModel17componentCompleteEv@Base 6.2.0
 _ZN17QQmlDelegateModel18_q_columnsInsertedERK11QModelIndexii@Base 6.2.1
 _ZN17QQmlDelegateModel18filterGroupChangedEv@Base 6.2.0
 _ZN17QQmlDelegateModel20defaultGroupsChangedEv@Base 6.2.0
 _ZN17QQmlDelegateModel21qmlAttachedPropertiesEP7QObject@Base 6.2.0
 _ZN17QQmlDelegateModel22drainReusableItemsPoolEi@Base 6.2.0
 _ZN17QQmlDelegateModel23_q_rowsAboutToBeRemovedERK11QModelIndexii@Base 6.2.0
 _ZN17QQmlDelegateModel5eventEP6QEvent@Base 6.2.0
 _ZN17QQmlDelegateModel5itemsEv@Base 6.2.0
 _ZN17QQmlDelegateModel5partsEv@Base 6.2.0
 _ZN17QQmlDelegateModel6cancelEi@Base 6.2.0
 _ZN17QQmlDelegateModel6groupsEv@Base 6.2.0
 _ZN17QQmlDelegateModel6objectEiN13QQmlIncubator14IncubationModeE@Base 6.2.0
 _ZN17QQmlDelegateModel7releaseEP7QObjectN17QQmlInstanceModel12ReusableFlagE@Base 6.2.0
 _ZN17QQmlDelegateModel8poolSizeEv@Base 6.2.0
 _ZN17QQmlDelegateModel8setModelERK8QVariant@Base 6.2.0
 _ZN17QQmlDelegateModelC1EP11QQmlContextP7QObject@Base 6.2.0
 _ZN17QQmlDelegateModelC1Ev@Base 6.2.0
 _ZN17QQmlDelegateModelC2EP11QQmlContextP7QObject@Base 6.2.0
 _ZN17QQmlDelegateModelC2Ev@Base 6.2.0
 _ZN17QQmlDelegateModelD0Ev@Base 6.2.0
 _ZN17QQmlDelegateModelD1Ev@Base 6.2.0
 _ZN17QQmlDelegateModelD2Ev@Base 6.2.0
 _ZN17QQmlInstanceModel10itemPooledEiP7QObject@Base 6.2.0
 _ZN17QQmlInstanceModel10itemReusedEiP7QObject@Base 6.2.0
 _ZN17QQmlInstanceModel11createdItemEiP7QObject@Base 6.2.0
 _ZN17QQmlInstanceModel11qt_metacallEN11QMetaObject4CallEiPPv@Base 6.2.0
 _ZN17QQmlInstanceModel11qt_metacastEPKc@Base 6.2.0
 _ZN17QQmlInstanceModel12countChangedEv@Base 6.2.0
 _ZN17QQmlInstanceModel12modelUpdatedERK13QQmlChangeSetb@Base 6.2.0
 _ZN17QQmlInstanceModel14destroyingItemEP7QObject@Base 6.2.0
 _ZN17QQmlInstanceModel16staticMetaObjectE@Base 6.2.0
 _ZN17QQmlInstanceModel19setRequiredPropertyEiRK7QStringRK8QVariant@Base 6.2.0
 _ZN17QQmlInstanceModel8initItemEiP7QObject@Base 6.2.0
 _ZN22QQmlDelegateModelGroup11nameChangedEv@Base 6.2.0
 _ZN22QQmlDelegateModelGroup11qt_metacallEN11QMetaObject4CallEiPPv@Base 6.2.0
 _ZN22QQmlDelegateModelGroup11qt_metacastEPKc@Base 6.2.0
 _ZN22QQmlDelegateModelGroup12countChangedEv@Base 6.2.0
 _ZN22QQmlDelegateModelGroup12removeGroupsEP14QQmlV4Function@Base 6.2.0
 _ZN22QQmlDelegateModelGroup16staticMetaObjectE@Base 6.2.0
 _ZN22QQmlDelegateModelGroup17setDefaultIncludeEb@Base 6.2.0
 _ZN22QQmlDelegateModelGroup21defaultIncludeChangedEv@Base 6.2.0
 _ZN22QQmlDelegateModelGroup3getEi@Base 6.2.0
 _ZN22QQmlDelegateModelGroup4moveEP14QQmlV4Function@Base 6.2.0
 _ZN22QQmlDelegateModelGroup6createEP14QQmlV4Function@Base 6.2.0
 _ZN22QQmlDelegateModelGroup6insertEP14QQmlV4Function@Base 6.2.0
 _ZN22QQmlDelegateModelGroup6removeEP14QQmlV4Function@Base 6.2.0
 _ZN22QQmlDelegateModelGroup7changedERK8QJSValueS2_@Base 6.2.0
 _ZN22QQmlDelegateModelGroup7resolveEP14QQmlV4Function@Base 6.2.0
 _ZN22QQmlDelegateModelGroup7setNameERK7QString@Base 6.2.0
 _ZN22QQmlDelegateModelGroup9addGroupsEP14QQmlV4Function@Base 6.2.0
 _ZN22QQmlDelegateModelGroup9setGroupsEP14QQmlV4Function@Base 6.2.0
 _ZN22QQmlDelegateModelGroupC1EP7QObject@Base 6.2.0
 _ZN22QQmlDelegateModelGroupC1ERK7QStringP17QQmlDelegateModeliP7QObject@Base 6.2.0
 _ZN22QQmlDelegateModelGroupC2EP7QObject@Base 6.2.0
 _ZN22QQmlDelegateModelGroupC2ERK7QStringP17QQmlDelegateModeliP7QObject@Base 6.2.0
 _ZN22QQmlDelegateModelGroupD0Ev@Base 6.2.0
 _ZN22QQmlDelegateModelGroupD1Ev@Base 6.2.0
 _ZN22QQmlDelegateModelGroupD2Ev@Base 6.2.0
 _ZN22QQmlTableInstanceModel11qt_metacallEN11QMetaObject4CallEiPPv@Base 6.2.0
 _ZN22QQmlTableInstanceModel11qt_metacastEPKc@Base 6.2.0
 _ZN22QQmlTableInstanceModel11setDelegateEP13QQmlComponent@Base 6.2.0
 _ZN22QQmlTableInstanceModel15resolveDelegateEi@Base 6.2.0
 _ZN22QQmlTableInstanceModel16destroyModelItemEP21QQmlDelegateModelItemNS_15DestructionModeE@Base 6.2.0
 _ZN22QQmlTableInstanceModel16incubationStatusEi@Base 6.2.0
 _ZN22QQmlTableInstanceModel16isDoneIncubatingEP21QQmlDelegateModelItem@Base 6.2.0
 _ZN22QQmlTableInstanceModel16resolveModelItemEi@Base 6.2.0
 _ZN22QQmlTableInstanceModel16staticMetaObjectE@Base 6.2.0
 _ZN22QQmlTableInstanceModel16useImportVersionE13QTypeRevision@Base 6.2.0
 _ZN22QQmlTableInstanceModel17incubateModelItemEP21QQmlDelegateModelItemN13QQmlIncubator14IncubationModeE@Base 6.2.0
 _ZN22QQmlTableInstanceModel19dataChangedCallbackERK11QModelIndexS2_RK5QListIiE@Base 6.2.0
 _ZN22QQmlTableInstanceModel19setRequiredPropertyEiRK7QStringRK8QVariant@Base 6.2.0
 _ZN22QQmlTableInstanceModel20deleteModelItemLaterEP21QQmlDelegateModelItem@Base 6.2.0
 _ZN22QQmlTableInstanceModel22drainReusableItemsPoolEi@Base 6.2.0
 _ZN22QQmlTableInstanceModel22incubatorStatusChangedEP36QQmlTableInstanceModelIncubationTaskN13QQmlIncubator6StatusE@Base 6.2.0
 _ZN22QQmlTableInstanceModel25deleteIncubationTaskLaterEP13QQmlIncubator@Base 6.2.0
 _ZN22QQmlTableInstanceModel32deleteAllFinishedIncubationTasksEv@Base 6.2.0
 _ZN22QQmlTableInstanceModel6cancelEi@Base 6.2.0
 _ZN22QQmlTableInstanceModel6objectEiN13QQmlIncubator14IncubationModeE@Base 6.2.0
 _ZN22QQmlTableInstanceModel7disposeEP7QObject@Base 6.2.0
 _ZN22QQmlTableInstanceModel7releaseEP7QObjectN17QQmlInstanceModel12ReusableFlagE@Base 6.2.0
 _ZN22QQmlTableInstanceModel8setModelERK8QVariant@Base 6.2.0
 _ZN22QQmlTableInstanceModel9reuseItemEP21QQmlDelegateModelItemi@Base 6.2.0
 _ZN22QQmlTableInstanceModelC1EP11QQmlContextP7QObject@Base 6.2.0
 _ZN22QQmlTableInstanceModelC2EP11QQmlContextP7QObject@Base 6.2.0
 _ZN22QQmlTableInstanceModelD0Ev@Base 6.2.0
 _ZN22QQmlTableInstanceModelD1Ev@Base 6.2.0
 _ZN22QQmlTableInstanceModelD2Ev@Base 6.2.0
 _ZN23QQmlInstantiatorPrivate10regenerateEv@Base 6.2.0
 _ZN23QQmlInstantiatorPrivate11modelObjectEib@Base 6.2.0
 _ZN23QQmlInstantiatorPrivate14_q_createdItemEiP7QObject@Base 6.2.0
 _ZN23QQmlInstantiatorPrivate15_q_modelUpdatedERK13QQmlChangeSetb@Base 6.2.0
 _ZN23QQmlInstantiatorPrivate5clearEv@Base 6.2.0
 _ZN23QQmlInstantiatorPrivate9makeModelEv@Base 6.2.0
 _ZN23QQmlInstantiatorPrivateC1Ev@Base 6.2.0
 _ZN23QQmlInstantiatorPrivateC2Ev@Base 6.2.0
 _ZN23QQmlInstantiatorPrivateD0Ev@Base 6.2.0
 _ZN23QQmlInstantiatorPrivateD1Ev@Base 6.2.0
 _ZN23QQmlInstantiatorPrivateD2Ev@Base 6.2.0
 _ZN29QQmlAbstractDelegateComponent11qt_metacallEN11QMetaObject4CallEiPPv@Base 6.2.0
 _ZN29QQmlAbstractDelegateComponent11qt_metacastEPKc@Base 6.2.0
 _ZN29QQmlAbstractDelegateComponent15delegateChangedEv@Base 6.2.0
 _ZN29QQmlAbstractDelegateComponent16staticMetaObjectE@Base 6.2.0
 _ZN29QQmlAbstractDelegateComponentC1EP7QObject@Base 6.2.0
 _ZN29QQmlAbstractDelegateComponentC2EP7QObject@Base 6.2.0
 _ZN29QQmlAbstractDelegateComponentD0Ev@Base 6.2.0
 _ZN29QQmlAbstractDelegateComponentD1Ev@Base 6.2.0
 _ZN29QQmlAbstractDelegateComponentD2Ev@Base 6.2.0
 _ZN29QQmlDelegateModelItemMetaType19initializePrototypeEv@Base 6.2.0
 _ZN29QQmlDelegateModelItemMetaType20initializeMetaObjectEv@Base 6.2.0
 _ZN29QQmlDelegateModelItemMetaTypeC1EPN3QV415ExecutionEngineEP17QQmlDelegateModelRK5QListI7QStringE@Base 6.2.0
 _ZN29QQmlDelegateModelItemMetaTypeC2EPN3QV415ExecutionEngineEP17QQmlDelegateModelRK5QListI7QStringE@Base 6.2.0
 _ZN29QQmlDelegateModelItemMetaTypeD0Ev@Base 6.2.0
 _ZN29QQmlDelegateModelItemMetaTypeD1Ev@Base 6.2.0
 _ZN29QQmlDelegateModelItemMetaTypeD2Ev@Base 6.2.0
 _ZNK13QQmlListModel10metaObjectEv@Base 6.2.0
 _ZNK13QQmlListModel3getEi@Base 6.2.0
 _ZNK13QQmlListModel4dataERK11QModelIndexi@Base 6.2.0
 _ZNK13QQmlListModel4dataEii@Base 6.2.0
 _ZNK13QQmlListModel5countEv@Base 6.2.0
 _ZNK13QQmlListModel5indexEiiRK11QModelIndex@Base 6.2.0
 _ZNK13QQmlListModel6engineEv@Base 6.2.0
 _ZNK13QQmlListModel8rowCountERK11QModelIndex@Base 6.2.0
 _ZNK13QQmlListModel9roleNamesEv@Base 6.2.0
 _ZNK13QQuickPackage10metaObjectEv@Base 6.2.0
 _ZNK15QQmlObjectModel10metaObjectEv@Base 6.2.0
 _ZNK15QQmlObjectModel3getEi@Base 6.2.0
 _ZNK15QQmlObjectModel5countEv@Base 6.2.0
 _ZNK15QQmlObjectModel7indexOfEP7QObjectS1_@Base 6.2.0
 _ZNK15QQmlObjectModel7isValidEv@Base 6.2.0
 _ZNK16QQmlAdaptorModel11columnCountEv@Base 6.2.0
 _ZNK16QQmlAdaptorModel5countEv@Base 6.2.0
 _ZNK16QQmlAdaptorModel5rowAtEi@Base 6.2.0
 _ZNK16QQmlAdaptorModel7indexAtEii@Base 6.2.0
 _ZNK16QQmlAdaptorModel7isValidEv@Base 6.2.0
 _ZNK16QQmlAdaptorModel8columnAtEi@Base 6.2.0
 _ZNK16QQmlAdaptorModel8rowCountEv@Base 6.2.0
 _ZNK16QQmlInstantiator10metaObjectEv@Base 6.2.0
 _ZNK16QQmlInstantiator5countEv@Base 6.2.0
 _ZNK16QQmlInstantiator5modelEv@Base 6.2.0
 _ZNK16QQmlInstantiator6objectEv@Base 6.2.0
 _ZNK16QQmlInstantiator7isAsyncEv@Base 6.2.0
 _ZNK16QQmlInstantiator8isActiveEv@Base 6.2.0
 _ZNK16QQmlInstantiator8objectAtEi@Base 6.2.0
 _ZNK17QQmlDelegateModel10metaObjectEv@Base 6.2.0
 _ZNK17QQmlDelegateModel10modelIndexEi@Base 6.2.0
 _ZNK17QQmlDelegateModel11filterGroupEv@Base 6.2.0
 _ZNK17QQmlDelegateModel14isDescendantOfERK21QPersistentModelIndexRK5QListIS0_E@Base 6.2.0
 _ZNK17QQmlDelegateModel16parentModelIndexEv@Base 6.2.0
 _ZNK17QQmlDelegateModel17abstractItemModelEv@Base 6.2.0
 _ZNK17QQmlDelegateModel5countEv@Base 6.2.0
 _ZNK17QQmlDelegateModel5modelEv@Base 6.2.0
 _ZNK17QQmlDelegateModel7indexOfEP7QObjectS1_@Base 6.2.0
 _ZNK17QQmlDelegateModel8delegateEv@Base 6.2.0
 _ZNK17QQmlDelegateModel9rootIndexEv@Base 6.2.0
 _ZNK17QQmlInstanceModel10metaObjectEv@Base 6.2.0
 _ZNK22QQmlDelegateModelGroup10metaObjectEv@Base 6.2.0
 _ZNK22QQmlDelegateModelGroup14defaultIncludeEv@Base 6.2.0
 _ZNK22QQmlDelegateModelGroup4nameEv@Base 6.2.0
 _ZNK22QQmlDelegateModelGroup5countEv@Base 6.2.0
 _ZNK22QQmlTableInstanceModel10metaObjectEv@Base 6.2.0
 _ZNK22QQmlTableInstanceModel17abstractItemModelEv@Base 6.2.0
 _ZNK22QQmlTableInstanceModel5modelEv@Base 6.2.0
 _ZNK22QQmlTableInstanceModel8delegateEv@Base 6.2.0
 _ZNK29QQmlAbstractDelegateComponent10metaObjectEv@Base 6.2.0
 _ZNK29QQmlAbstractDelegateComponent5valueEP16QQmlAdaptorModeliiRK7QString@Base 6.2.0
 _ZNK29QQmlDelegateModelItemMetaType11parseGroupsERK5QListI7QStringE@Base 6.2.0
 _ZNK29QQmlDelegateModelItemMetaType11parseGroupsERKN3QV45ValueE@Base 6.2.0
 (optional=templinst|arch=amd64 arm64 ia64 mips64el ppc64el riscv64 sh4)_ZNK3QV45Value2asINS_14FunctionObjectEEEPKT_v@Base 6.2.0
 _ZTI12QQmlRefCount@Base 6.2.0
 _ZTI13QQmlListModel@Base 6.2.0
 _ZTI13QQuickPackage@Base 6.2.0
 _ZTI15QQmlObjectModel@Base 6.2.0
 _ZTI16QQmlAdaptorModel@Base 6.2.0
 _ZTI16QQmlCustomParser@Base 6.2.0
 _ZTI16QQmlInstantiator@Base 6.2.0
 _ZTI17QQmlDelegateModel@Base 6.2.0
 _ZTI17QQmlInstanceModel@Base 6.2.0
 _ZTI22QQmlDelegateModelGroup@Base 6.2.0
 _ZTI22QQmlTableInstanceModel@Base 6.2.0
 _ZTI23QQmlInstantiatorPrivate@Base 6.2.0
 _ZTI29QQmlAbstractDelegateComponent@Base 6.2.0
 _ZTI29QQmlDelegateModelItemMetaType@Base 6.2.0
 _ZTIN16QQmlAdaptorModel9AccessorsE@Base 6.2.0
 _ZTIN3QV415ExecutionEngine9DeletableE@Base 6.2.0
 _ZTIZN9QMetaType17registerConverterI5QListI21QPersistentModelIndexE9QIterableI13QMetaSequenceEN9QtPrivate33QSequentialIterableConvertFunctorIS3_EEEEbT1_EUlPKvPvE_@Base 6.2.0
 _ZTIZN9QMetaType17registerConverterI5QListI4QUrlE9QIterableI13QMetaSequenceEN9QtPrivate33QSequentialIterableConvertFunctorIS3_EEEEbT1_EUlPKvPvE_@Base 6.2.0
 _ZTIZN9QMetaType17registerConverterI5QListIP7QObjectE9QIterableI13QMetaSequenceEN9QtPrivate33QSequentialIterableConvertFunctorIS4_EEEEbT1_EUlPKvPvE_@Base 6.2.0
 _ZTIZN9QMetaType17registerConverterI5QListIiE9QIterableI13QMetaSequenceEN9QtPrivate33QSequentialIterableConvertFunctorIS2_EEEEbT1_EUlPKvPvE_@Base 6.2.0
 _ZTIZN9QMetaType19registerMutableViewI5QListI21QPersistentModelIndexE9QIterableI13QMetaSequenceEN9QtPrivate37QSequentialIterableMutableViewFunctorIS3_EEEEbT1_EUlPvSB_E_@Base 6.2.0
 _ZTIZN9QMetaType19registerMutableViewI5QListI4QUrlE9QIterableI13QMetaSequenceEN9QtPrivate37QSequentialIterableMutableViewFunctorIS3_EEEEbT1_EUlPvSB_E_@Base 6.2.0
 _ZTIZN9QMetaType19registerMutableViewI5QListIP7QObjectE9QIterableI13QMetaSequenceEN9QtPrivate37QSequentialIterableMutableViewFunctorIS4_EEEEbT1_EUlPvSC_E_@Base 6.2.0
 _ZTIZN9QMetaType19registerMutableViewI5QListIiE9QIterableI13QMetaSequenceEN9QtPrivate37QSequentialIterableMutableViewFunctorIS2_EEEEbT1_EUlPvSA_E_@Base 6.2.0
 _ZTS12QQmlRefCount@Base 6.2.0
 _ZTS13QQmlListModel@Base 6.2.0
 _ZTS13QQuickPackage@Base 6.2.0
 _ZTS15QQmlObjectModel@Base 6.2.0
 _ZTS16QQmlAdaptorModel@Base 6.2.0
 _ZTS16QQmlCustomParser@Base 6.2.0
 _ZTS16QQmlInstantiator@Base 6.2.0
 _ZTS17QQmlDelegateModel@Base 6.2.0
 _ZTS17QQmlInstanceModel@Base 6.2.0
 _ZTS22QQmlDelegateModelGroup@Base 6.2.0
 _ZTS22QQmlTableInstanceModel@Base 6.2.0
 _ZTS23QQmlInstantiatorPrivate@Base 6.2.0
 _ZTS29QQmlAbstractDelegateComponent@Base 6.2.0
 _ZTS29QQmlDelegateModelItemMetaType@Base 6.2.0
 _ZTSN16QQmlAdaptorModel9AccessorsE@Base 6.2.0
 _ZTSN3QV415ExecutionEngine9DeletableE@Base 6.2.0
 _ZTSZN9QMetaType17registerConverterI5QListI21QPersistentModelIndexE9QIterableI13QMetaSequenceEN9QtPrivate33QSequentialIterableConvertFunctorIS3_EEEEbT1_EUlPKvPvE_@Base 6.2.0
 _ZTSZN9QMetaType17registerConverterI5QListI4QUrlE9QIterableI13QMetaSequenceEN9QtPrivate33QSequentialIterableConvertFunctorIS3_EEEEbT1_EUlPKvPvE_@Base 6.2.0
 _ZTSZN9QMetaType17registerConverterI5QListIP7QObjectE9QIterableI13QMetaSequenceEN9QtPrivate33QSequentialIterableConvertFunctorIS4_EEEEbT1_EUlPKvPvE_@Base 6.2.0
 _ZTSZN9QMetaType17registerConverterI5QListIiE9QIterableI13QMetaSequenceEN9QtPrivate33QSequentialIterableConvertFunctorIS2_EEEEbT1_EUlPKvPvE_@Base 6.2.0
 _ZTSZN9QMetaType19registerMutableViewI5QListI21QPersistentModelIndexE9QIterableI13QMetaSequenceEN9QtPrivate37QSequentialIterableMutableViewFunctorIS3_EEEEbT1_EUlPvSB_E_@Base 6.2.0
 _ZTSZN9QMetaType19registerMutableViewI5QListI4QUrlE9QIterableI13QMetaSequenceEN9QtPrivate37QSequentialIterableMutableViewFunctorIS3_EEEEbT1_EUlPvSB_E_@Base 6.2.0
 _ZTSZN9QMetaType19registerMutableViewI5QListIP7QObjectE9QIterableI13QMetaSequenceEN9QtPrivate37QSequentialIterableMutableViewFunctorIS4_EEEEbT1_EUlPvSC_E_@Base 6.2.0
 _ZTSZN9QMetaType19registerMutableViewI5QListIiE9QIterableI13QMetaSequenceEN9QtPrivate37QSequentialIterableMutableViewFunctorIS2_EEEEbT1_EUlPvSA_E_@Base 6.2.0
 _ZTV13QQmlListModel@Base 6.2.0
 _ZTV13QQuickPackage@Base 6.2.0
 _ZTV15QQmlObjectModel@Base 6.2.0
 _ZTV16QQmlAdaptorModel@Base 6.2.0
 _ZTV16QQmlCustomParser@Base 6.2.0
 _ZTV16QQmlInstantiator@Base 6.2.0
 _ZTV17QQmlDelegateModel@Base 6.2.0
 _ZTV17QQmlInstanceModel@Base 6.2.0
 _ZTV22QQmlDelegateModelGroup@Base 6.2.0
 _ZTV22QQmlTableInstanceModel@Base 6.2.0
 _ZTV23QQmlInstantiatorPrivate@Base 6.2.0
 _ZTV29QQmlAbstractDelegateComponent@Base 6.2.0
 _ZTV29QQmlDelegateModelItemMetaType@Base 6.2.0
 _ZTVN16QQmlAdaptorModel9AccessorsE@Base 6.2.0
 (optional=templinst)_ZZN9QMetaType21registerConverterImplI5QListI21QPersistentModelIndexE9QIterableI13QMetaSequenceEEEbSt8functionIFbPKvPvEES_S_E10unregister@Base 6.2.0
 (optional=templinst)_ZZN9QMetaType21registerConverterImplI5QListI4QUrlE9QIterableI13QMetaSequenceEEEbSt8functionIFbPKvPvEES_S_E10unregister@Base 6.2.0
 (optional=templinst)_ZZN9QMetaType21registerConverterImplI5QListIP7QObjectE9QIterableI13QMetaSequenceEEEbSt8functionIFbPKvPvEES_S_E10unregister@Base 6.2.0
 (optional=templinst)_ZZN9QMetaType21registerConverterImplI5QListIiE9QIterableI13QMetaSequenceEEEbSt8functionIFbPKvPvEES_S_E10unregister@Base 6.2.0
 (optional=templinst)_ZZN9QMetaType23registerMutableViewImplI5QListI21QPersistentModelIndexE9QIterableI13QMetaSequenceEEEbSt8functionIFbPvS8_EES_S_E10unregister@Base 6.2.0
 (optional=templinst)_ZZN9QMetaType23registerMutableViewImplI5QListI4QUrlE9QIterableI13QMetaSequenceEEEbSt8functionIFbPvS8_EES_S_E10unregister@Base 6.2.0
 (optional=templinst)_ZZN9QMetaType23registerMutableViewImplI5QListIP7QObjectE9QIterableI13QMetaSequenceEEEbSt8functionIFbPvS9_EES_S_E10unregister@Base 6.2.0
 (optional=templinst)_ZZN9QMetaType23registerMutableViewImplI5QListIiE9QIterableI13QMetaSequenceEEEbSt8functionIFbPvS7_EES_S_E10unregister@Base 6.2.0
 (optional=templinst)_ZZN9QtPrivate16QMetaTypeForTypeI11QModelIndexE10getCopyCtrEvENUlPKNS_18QMetaTypeInterfaceEPvPKvE_4_FUNES5_S6_S8_@Base 6.2.0
 (optional=templinst)_ZZN9QtPrivate16QMetaTypeForTypeI11QModelIndexE10getMoveCtrEvENUlPKNS_18QMetaTypeInterfaceEPvS6_E_4_FUNES5_S6_S6_@Base 6.2.0
 (optional=templinst)_ZZN9QtPrivate16QMetaTypeForTypeI11QModelIndexE13getDefaultCtrEvENUlPKNS_18QMetaTypeInterfaceEPvE_4_FUNES5_S6_@Base 6.2.0
 (optional=templinst)_ZZN9QtPrivate16QMetaTypeForTypeI21QPersistentModelIndexE10getCopyCtrEvENUlPKNS_18QMetaTypeInterfaceEPvPKvE_4_FUNES5_S6_S8_@Base 6.2.0
 (optional=templinst)_ZZN9QtPrivate16QMetaTypeForTypeI21QPersistentModelIndexE10getMoveCtrEvENUlPKNS_18QMetaTypeInterfaceEPvS6_E_4_FUNES5_S6_S6_@Base 6.2.0
 (optional=templinst)_ZZN9QtPrivate16QMetaTypeForTypeI21QPersistentModelIndexE13getDefaultCtrEvENUlPKNS_18QMetaTypeInterfaceEPvE_4_FUNES5_S6_@Base 6.2.0
 (optional=templinst)_ZZN9QtPrivate16QMetaTypeForTypeI21QPersistentModelIndexE7getDtorEvENUlPKNS_18QMetaTypeInterfaceEPvE_4_FUNES5_S6_@Base 6.2.0
 (optional=templinst)_ZZN9QtPrivate16QMetaTypeForTypeI4QUrlE10getCopyCtrEvENUlPKNS_18QMetaTypeInterfaceEPvPKvE_4_FUNES5_S6_S8_@Base 6.2.0
 (optional=templinst)_ZZN9QtPrivate16QMetaTypeForTypeI4QUrlE10getMoveCtrEvENUlPKNS_18QMetaTypeInterfaceEPvS6_E_4_FUNES5_S6_S6_@Base 6.2.0
 (optional=templinst)_ZZN9QtPrivate16QMetaTypeForTypeI4QUrlE13getDefaultCtrEvENUlPKNS_18QMetaTypeInterfaceEPvE_4_FUNES5_S6_@Base 6.2.0
 (optional=templinst)_ZZN9QtPrivate16QMetaTypeForTypeI4QUrlE7getDtorEvENUlPKNS_18QMetaTypeInterfaceEPvE_4_FUNES5_S6_@Base 6.2.0
 (optional=templinst)_ZZN9QtPrivate16QMetaTypeForTypeI5QListI7QStringEE10getCopyCtrEvENUlPKNS_18QMetaTypeInterfaceEPvPKvE_4_FUNES7_S8_SA_@Base 6.2.0
 (optional=templinst)_ZZN9QtPrivate16QMetaTypeForTypeI5QListI7QStringEE10getMoveCtrEvENUlPKNS_18QMetaTypeInterfaceEPvS8_E_4_FUNES7_S8_S8_@Base 6.2.0
 (optional=templinst)_ZZN9QtPrivate16QMetaTypeForTypeI5QListI7QStringEE13getDefaultCtrEvENUlPKNS_18QMetaTypeInterfaceEPvE_4_FUNES7_S8_@Base 6.2.0
 (optional=templinst)_ZZN9QtPrivate16QMetaTypeForTypeI5QListI7QStringEE7getDtorEvENUlPKNS_18QMetaTypeInterfaceEPvE_4_FUNES7_S8_@Base 6.2.0
 (optional=templinst)_ZZN9QtPrivate16QMetaTypeForTypeI5QListI8QVariantEE10getCopyCtrEvENUlPKNS_18QMetaTypeInterfaceEPvPKvE_4_FUNES7_S8_SA_@Base 6.2.0
 (optional=templinst)_ZZN9QtPrivate16QMetaTypeForTypeI5QListI8QVariantEE10getMoveCtrEvENUlPKNS_18QMetaTypeInterfaceEPvS8_E_4_FUNES7_S8_S8_@Base 6.2.0
 (optional=templinst)_ZZN9QtPrivate16QMetaTypeForTypeI5QListI8QVariantEE13getDefaultCtrEvENUlPKNS_18QMetaTypeInterfaceEPvE_4_FUNES7_S8_@Base 6.2.0
 (optional=templinst)_ZZN9QtPrivate16QMetaTypeForTypeI5QListI8QVariantEE7getDtorEvENUlPKNS_18QMetaTypeInterfaceEPvE_4_FUNES7_S8_@Base 6.2.0
 (optional=templinst)_ZZN9QtPrivate16QMetaTypeForTypeI7QStringE10getCopyCtrEvENUlPKNS_18QMetaTypeInterfaceEPvPKvE_4_FUNES5_S6_S8_@Base 6.2.0
 (optional=templinst)_ZZN9QtPrivate16QMetaTypeForTypeI7QStringE10getMoveCtrEvENUlPKNS_18QMetaTypeInterfaceEPvS6_E_4_FUNES5_S6_S6_@Base 6.2.0
 (optional=templinst)_ZZN9QtPrivate16QMetaTypeForTypeI7QStringE13getDefaultCtrEvENUlPKNS_18QMetaTypeInterfaceEPvE_4_FUNES5_S6_@Base 6.2.0
 (optional=templinst)_ZZN9QtPrivate16QMetaTypeForTypeI7QStringE7getDtorEvENUlPKNS_18QMetaTypeInterfaceEPvE_4_FUNES5_S6_@Base 6.2.0
 (optional=templinst)_ZZN9QtPrivate16QMetaTypeForTypeI8QVariantE10getCopyCtrEvENUlPKNS_18QMetaTypeInterfaceEPvPKvE_4_FUNES5_S6_S8_@Base 6.2.0
 (optional=templinst)_ZZN9QtPrivate16QMetaTypeForTypeI8QVariantE10getMoveCtrEvENUlPKNS_18QMetaTypeInterfaceEPvS6_E_4_FUNES5_S6_S6_@Base 6.2.0
 (optional=templinst)_ZZN9QtPrivate16QMetaTypeForTypeI8QVariantE13getDefaultCtrEvENUlPKNS_18QMetaTypeInterfaceEPvE_4_FUNES5_S6_@Base 6.2.0
 (optional=templinst)_ZZN9QtPrivate16QMetaTypeForTypeI8QVariantE7getDtorEvENUlPKNS_18QMetaTypeInterfaceEPvE_4_FUNES5_S6_@Base 6.2.0
 (optional=templinst)_ZZN9QtPrivate16QMetaTypeForTypeIDnE10getCopyCtrEvENUlPKNS_18QMetaTypeInterfaceEPvPKvE_4_FUNES4_S5_S7_@Base 6.2.0
 (optional=templinst)_ZZN9QtPrivate16QMetaTypeForTypeIDnE10getMoveCtrEvENUlPKNS_18QMetaTypeInterfaceEPvS5_E_4_FUNES4_S5_S5_@Base 6.2.0
 (optional=templinst)_ZZN9QtPrivate16QMetaTypeForTypeIDnE13getDefaultCtrEvENUlPKNS_18QMetaTypeInterfaceEPvE_4_FUNES4_S5_@Base 6.2.0
 (optional=templinst)_ZZN9QtPrivate16QMetaTypeForTypeIP7QObjectE10getCopyCtrEvENUlPKNS_18QMetaTypeInterfaceEPvPKvE_4_FUNES6_S7_S9_@Base 6.2.0
 (optional=templinst)_ZZN9QtPrivate16QMetaTypeForTypeIP7QObjectE10getMoveCtrEvENUlPKNS_18QMetaTypeInterfaceEPvS7_E_4_FUNES6_S7_S7_@Base 6.2.0
 (optional=templinst)_ZZN9QtPrivate16QMetaTypeForTypeIP7QObjectE13getDefaultCtrEvENUlPKNS_18QMetaTypeInterfaceEPvE_4_FUNES6_S7_@Base 6.2.0
 (optional=templinst)_ZZN9QtPrivate16QMetaTypeForTypeIbE10getCopyCtrEvENUlPKNS_18QMetaTypeInterfaceEPvPKvE_4_FUNES4_S5_S7_@Base 6.2.0
 (optional=templinst)_ZZN9QtPrivate16QMetaTypeForTypeIbE10getMoveCtrEvENUlPKNS_18QMetaTypeInterfaceEPvS5_E_4_FUNES4_S5_S5_@Base 6.2.0
 (optional=templinst)_ZZN9QtPrivate16QMetaTypeForTypeIbE13getDefaultCtrEvENUlPKNS_18QMetaTypeInterfaceEPvE_4_FUNES4_S5_@Base 6.2.0
 (optional=templinst)_ZZN9QtPrivate16QMetaTypeForTypeIiE10getCopyCtrEvENUlPKNS_18QMetaTypeInterfaceEPvPKvE_4_FUNES4_S5_S7_@Base 6.2.0
 (optional=templinst)_ZZN9QtPrivate16QMetaTypeForTypeIiE10getMoveCtrEvENUlPKNS_18QMetaTypeInterfaceEPvS5_E_4_FUNES4_S5_S5_@Base 6.2.0
 (optional=templinst)_ZZN9QtPrivate16QMetaTypeForTypeIiE13getDefaultCtrEvENUlPKNS_18QMetaTypeInterfaceEPvE_4_FUNES4_S5_@Base 6.2.0
 _Zls6QDebugRK13QQmlChangeSet@Base 6.2.0
 _Zls6QDebugRKN13QQmlChangeSet6ChangeE@Base 6.2.0
 (c++)"non-virtual thunk to QQmlDelegateModel::classBegin()@Base" 6.2.0
 (c++)"non-virtual thunk to QQmlDelegateModel::componentComplete()@Base" 6.2.0
 (c++)"non-virtual thunk to QQmlDelegateModel::~QQmlDelegateModel()@Base" 6.2.0
 (c++)"non-virtual thunk to QQmlInstantiator::classBegin()@Base" 6.2.0
 (c++)"non-virtual thunk to QQmlInstantiator::componentComplete()@Base" 6.2.0
 (c++)"non-virtual thunk to QQmlInstantiator::~QQmlInstantiator()@Base" 6.2.0
